SH SERIES C/C++ Compiler (Ver. 6.0C)                                                                 12-Apr-2021 13:38:38  PAGE    1

************ OBJECT LISTING ************

FILE NAME: C:\Users\leofa\OneDrive\Documents\CASIO\fx-9860G SDK\Particule\ClassParticule.cpp

SCT OFFSET   CODE       C LABEL     INSTRUCTION OPERAND    COMMENT

      ClassParti     1    #include "ClassParticule.h"
      ClassParti     2    #include "MonochromeLib.h"
      ClassParti     3    #include "Images.h"
      ClassParti     4    #include "usefull.h"
      ClassParti     5    
      ClassParti     6    GameObject::GameObject(SceneManager* scene, const unsigned char* init_Img, int init_x, int init_y, int ini
                         +t_w, int init_h, const char* name, const char* type, Component* Compo[], int CompoLength)
      ClassParti     7    {
      ClassParti     8        Img = (unsigned char*)init_Img;
      ClassParti     9        Name = (char*)name;
      ClassParti    10        Type = (char*)type;
      ClassParti    11        Static = 1;
      ClassParti    12        TrfmImgScale = 100;
      ClassParti    13        rotation = 90;
      ClassParti    14        x = init_x;
      ClassParti    15        y = init_y;
      ClassParti    16        w = init_w;
      ClassParti    17        h = init_h;
      ClassParti    18        AllCompoLength = CompoLength;
      ClassParti    19        AllCompo = Compo;
      ClassParti    20        Scene = (SceneManager*)scene;
      ClassParti    21    }
      ClassParti    22    void GameObject::afficher(int X, int Y)
      ClassParti    23    {
      ClassParti    24        ML_bmp_or_cl((const unsigned char*)Img, x - X, y - Y, w, h);
      ClassParti    25    }
      ClassParti    26    //void Component::OnStart() {}
      ClassParti    27    //void Component::OnUpdate() {}
      ClassParti    28    
      ClassParti    29    SceneManager::SceneManager(int* LstSceneInBuild) {
P   00000000              ___ct__12SceneManagerFPi:        ; function: SceneManager::SceneManager(int *)
                                                           ; frame size=16
    00000000 2FE6                   MOV.L       R14,@-R15
    00000002 4F22                   STS.L       PR,@-R15
    00000004 7FF8                   ADD         #-8,R15
    00000006 2F42                   MOV.L       R4,@R15
    00000008 1F51                   MOV.L       R5,@(4,R15)
    0000000A 63F2                   MOV.L       @R15,R3
    0000000C 2338                   TST         R3,R3
    0000000E 8B05                   BF          L569
    00000010 D344                   MOV.L       L639+2,R3  ; ___nw__FUl
    00000012 430B                   JSR         @R3
    00000014 E418                   MOV         #24,R4
    00000016 2008                   TST         R0,R0
    00000018 8D11                   BT/S        L568
    0000001A 2F02                   MOV.L       R0,@R15
    0000001C              L569:                             
      ClassParti    30        SceneInBuild = LstSceneInBuild;
    0000001C 62F2                   MOV.L       @R15,R2
      ClassParti    31        AllElemLength = 0;
    0000001E EE00                   MOV         #0,R14
    00000020 53F1                   MOV.L       @(4,R15),R3
      ClassParti    32        ActiveScene = -1;
      ClassParti    33        LoadScene(0);




SH SERIES C/C++ Compiler (Ver. 6.0C)                                                                 12-Apr-2021 13:38:38  PAGE    2


SCT OFFSET   CODE       C LABEL     INSTRUCTION OPERAND    COMMENT

    00000022 65E3                   MOV         R14,R5
    00000024 1235                   MOV.L       R3,@(20,R2)
    00000026 E2FF                   MOV         #-1,R2
    00000028 63F2                   MOV.L       @R15,R3
    0000002A 13E1                   MOV.L       R14,@(4,R3)
    0000002C 63F2                   MOV.L       @R15,R3
    0000002E 1324                   MOV.L       R2,@(16,R3)
    00000030 D33D                   MOV.L       L639+6,R3  ; _LoadScene__12SceneManagerFi
    00000032 430B                   JSR         @R3
    00000034 64F2                   MOV.L       @R15,R4
      ClassParti    34        CamX = 0;
    00000036 63F2                   MOV.L       @R15,R3
    00000038 13E2                   MOV.L       R14,@(8,R3)
      ClassParti    35        CamY = 0;
    0000003A 63F2                   MOV.L       @R15,R3
    0000003C 13E3                   MOV.L       R14,@(12,R3)
    0000003E              L568:                             
    0000003E 60F2                   MOV.L       @R15,R0
      ClassParti    36    
      ClassParti    37    }
    00000040 7F08                   ADD         #8,R15
    00000042 4F26                   LDS.L       @R15+,PR
    00000044 000B                   RTS
    00000046 6EF6                   MOV.L       @R15+,R14
      ClassParti    38    
      ClassParti    39    void SceneManager::LoadScene(int Scene) {
    00000048              _LoadScene__12SceneManagerFi:    ; function: SceneManager::LoadScene(int)
                                                           ; frame size=32
    00000048 2FE6                   MOV.L       R14,@-R15
    0000004A 6E43                   MOV         R4,R14
    0000004C 2FD6                   MOV.L       R13,@-R15
    0000004E 2FC6                   MOV.L       R12,@-R15
    00000050 2FB6                   MOV.L       R11,@-R15
    00000052 2FA6                   MOV.L       R10,@-R15
    00000054 2F96                   MOV.L       R9,@-R15
    00000056 2F86                   MOV.L       R8,@-R15
    00000058 4F22                   STS.L       PR,@-R15
    0000005A 6853                   MOV         R5,R8
      ClassParti    40        if (ActiveScene == Scene) {
    0000005C 53E4                   MOV.L       @(16,R14),R3
    0000005E 3380                   CMP/EQ      R8,R3
    00000060 8956                   BT          L572
      ClassParti    41            return;
      ClassParti    42        }
      ClassParti    43        ActiveScene = Scene;
      ClassParti    44        for (int i(0); i < AllElemLength; ++i)
    00000062 ED00                   MOV         #0,R13
    00000064 DA31                   MOV.L       L639+10,R10; ___dl__FPv
    00000066 1E84                   MOV.L       R8,@(16,R14)
    00000068 A014                   BRA         L573
    0000006A 69D3                   MOV         R13,R9
    0000006C              L574:                             
      ClassParti    45        {
      ClassParti    46            for (int j(0); j < AllElem[i]->AllCompoLength; ++j)
    0000006C 6BD3                   MOV         R13,R11
    0000006E 6C93                   MOV         R9,R12
    00000070 A007                   BRA         L575




SH SERIES C/C++ Compiler (Ver. 6.0C)                                                                 12-Apr-2021 13:38:38  PAGE    3


SCT OFFSET   CODE       C LABEL     INSTRUCTION OPERAND    COMMENT

    00000072 4C08                   SHLL2       R12
    00000074              L576:                             
      ClassParti    47            {
      ClassParti    48                delete AllElem[i]->AllCompo[j];
    00000074 00CE                   MOV.L       @(R0,R12),R0
    00000076 64B3                   MOV         R11,R4
    00000078 500C                   MOV.L       @(48,R0),R0
    0000007A 4408                   SHLL2       R4
    0000007C 4A0B                   JSR         @R10
    0000007E 044E                   MOV.L       @(R0,R4),R4
    00000080 7B01                   ADD         #1,R11
    00000082              L575:                             
    00000082 60E2                   MOV.L       @R14,R0
    00000084 03CE                   MOV.L       @(R0,R12),R3
    00000086 523B                   MOV.L       @(44,R3),R2
    00000088 3B23                   CMP/GE      R2,R11
    0000008A 8BF3                   BF          L576
      ClassParti    49            }
      ClassParti    50            delete AllElem[i];
    0000008C 60E2                   MOV.L       @R14,R0
    0000008E 4A0B                   JSR         @R10
    00000090 04CE                   MOV.L       @(R0,R12),R4
    00000092 7901                   ADD         #1,R9
    00000094              L573:                             
    00000094 52E1                   MOV.L       @(4,R14),R2
    00000096 3923                   CMP/GE      R2,R9
    00000098 8BE8                   BF          L574
      ClassParti    51        }
      ClassParti    52        AllElem = SetupAndLoadScene(Scene);
    0000009A 6583                   MOV         R8,R5
    0000009C D124                   MOV.L       L639+14,R1 ; _SetupAndLoadScene__12SceneManagerFi
    0000009E 410B                   JSR         @R1
    000000A0 64E3                   MOV         R14,R4
      ClassParti    53        AllElemLength = LenOfAllElem(Scene);
    000000A2 6583                   MOV         R8,R5
    000000A4 2E02                   MOV.L       R0,@R14
    000000A6 D323                   MOV.L       L639+18,R3 ; _LenOfAllElem__12SceneManagerFi
    000000A8 430B                   JSR         @R3
    000000AA 64E3                   MOV         R14,R4
    000000AC 1E01                   MOV.L       R0,@(4,R14)
      ClassParti    54        for (int i(0); i < AllElemLength; ++i) {
    000000AE A011                   BRA         L577
    000000B0 65D3                   MOV         R13,R5
    000000B2              L578:                             
      ClassParti    55            for (int j(0); j < AllElem[i]->AllCompoLength; ++j) {
    000000B2 64D3                   MOV         R13,R4
    000000B4 6B53                   MOV         R5,R11
    000000B6 A007                   BRA         L579
    000000B8 4B08                   SHLL2       R11
    000000BA              L580:                             
      ClassParti    56                GameObject* gameObj = AllElem[i];
      ClassParti    57                AllElem[i]->AllCompo[j]->gameObject = gameObj;
    000000BA 6243                   MOV         R4,R2
    000000BC 0CBE                   MOV.L       @(R0,R11),R12
    000000BE 4208                   SHLL2       R2
    000000C0 50CC                   MOV.L       @(48,R12),R0
    000000C2 7401                   ADD         #1,R4




SH SERIES C/C++ Compiler (Ver. 6.0C)                                                                 12-Apr-2021 13:38:38  PAGE    4


SCT OFFSET   CODE       C LABEL     INSTRUCTION OPERAND    COMMENT

    000000C4 032E                   MOV.L       @(R0,R2),R3
    000000C6 23C2                   MOV.L       R12,@R3
    000000C8              L579:                             
    000000C8 60E2                   MOV.L       @R14,R0
    000000CA 02BE                   MOV.L       @(R0,R11),R2
    000000CC 532B                   MOV.L       @(44,R2),R3
    000000CE 3433                   CMP/GE      R3,R4
    000000D0 8BF3                   BF          L580
    000000D2 7501                   ADD         #1,R5
    000000D4              L577:                             
    000000D4 53E1                   MOV.L       @(4,R14),R3
    000000D6 3533                   CMP/GE      R3,R5
    000000D8 8BEB                   BF          L578
      ClassParti    58            }
      ClassParti    59        }
      ClassParti    60        for (int i(0); i < AllElemLength; ++i)
    000000DA A016                   BRA         L581
    000000DC 69D3                   MOV         R13,R9
    000000DE              L582:                             
      ClassParti    61        {
      ClassParti    62            for (int j(0); j < AllElem[i]->AllCompoLength; ++j)
    000000DE 6CD3                   MOV         R13,R12
    000000E0 6B93                   MOV         R9,R11
    000000E2 A00C                   BRA         L583
    000000E4 4B08                   SHLL2       R11
    000000E6              L584:                             
      ClassParti    63            {
      ClassParti    64                AllElem[i]->AllCompo[j]->OnStart();
    000000E6 68C3                   MOV         R12,R8
    000000E8 00BE                   MOV.L       @(R0,R11),R0
    000000EA 4808                   SHLL2       R8
    000000EC 500C                   MOV.L       @(48,R0),R0
    000000EE 088E                   MOV.L       @(R0,R8),R8
    000000F0 5A82                   MOV.L       @(8,R8),R10
    000000F2 7A0C                   ADD         #12,R10
    000000F4 53A2                   MOV.L       @(8,R10),R3
    000000F6 64A2                   MOV.L       @R10,R4
    000000F8 430B                   JSR         @R3
    000000FA 348C                   ADD         R8,R4
    000000FC 7C01                   ADD         #1,R12
    000000FE              L583:                             
    000000FE 60E2                   MOV.L       @R14,R0
    00000100 02BE                   MOV.L       @(R0,R11),R2
    00000102 532B                   MOV.L       @(44,R2),R3
    00000104 3C33                   CMP/GE      R3,R12
    00000106 8BEE                   BF          L584
    00000108 7901                   ADD         #1,R9
    0000010A              L581:                             
    0000010A 53E1                   MOV.L       @(4,R14),R3
    0000010C 3933                   CMP/GE      R3,R9
    0000010E 8BE6                   BF          L582
    00000110              L572:                             
      ClassParti    65            }
      ClassParti    66        }
      ClassParti    67    }GameObject** SceneManager::SetupAndLoadScene(int Scene) {
    00000110 4F26                   LDS.L       @R15+,PR
    00000112 68F6                   MOV.L       @R15+,R8




SH SERIES C/C++ Compiler (Ver. 6.0C)                                                                 12-Apr-2021 13:38:38  PAGE    5


SCT OFFSET   CODE       C LABEL     INSTRUCTION OPERAND    COMMENT

    00000114 69F6                   MOV.L       @R15+,R9
    00000116 6AF6                   MOV.L       @R15+,R10
    00000118 6BF6                   MOV.L       @R15+,R11
    0000011A 6CF6                   MOV.L       @R15+,R12
    0000011C 6DF6                   MOV.L       @R15+,R13
    0000011E 000B                   RTS
    00000120 6EF6                   MOV.L       @R15+,R14
    00000122              L639:                             
    00000122 0000                   .DATA.W     0
    00000124 <00000000>             .DATA.L     ___nw__FUl
    00000128 <00000000>             .DATA.L     _LoadScene__12SceneManagerFi
    0000012C <00000000>             .DATA.L     ___dl__FPv
    00000130 <00000000>             .DATA.L     _SetupAndLoadScene__12SceneManagerFi
    00000134 <00000000>             .DATA.L     _LenOfAllElem__12SceneManagerFi
    00000138              _SetupAndLoadScene__12SceneManagerFi:
                                                           ; function: SceneManager::SetupAndLoadScene(int)
                                                           ; frame size=228
    00000138 2FE6                   MOV.L       R14,@-R15
    0000013A 2558                   TST         R5,R5
    0000013C 2FD6                   MOV.L       R13,@-R15
    0000013E 2FC6                   MOV.L       R12,@-R15
    00000140 2FB6                   MOV.L       R11,@-R15
    00000142 6C43                   MOV         R4,R12
    00000144 DD5B                   MOV.L       L640+6,R13 ; ___nw__FUl
    00000146 2FA6                   MOV.L       R10,@-R15
    00000148 2F96                   MOV.L       R9,@-R15
    0000014A EA01                   MOV         #1,R10
    0000014C DB5A                   MOV.L       L640+10,R11; ___ct__11BoxColliderFv
    0000014E 2F86                   MOV.L       R8,@-R15
    00000150 4F22                   STS.L       PR,@-R15
    00000152 E818                   MOV         #24,R8
    00000154 7FAC                   ADD         #-84,R15
    00000156 8D02                   BT/S        L641
    00000158 EE10                   MOV         #16,R14
    0000015A A2B1                   BRA         L585
    0000015C 0009                   NOP
    0000015E              L641:                             
      ClassParti    68            if (Scene == 0) {
      ClassParti    69                    Component * c0_0_BoxCollider0= new BoxCollider();
    0000015E 4B0B                   JSR         @R11
    00000160 E400                   MOV         #0,R4
    00000162 1F02                   MOV.L       R0,@(8,R15)
      ClassParti    70    Component **Default11Compo0_0= new Component *[1];
    00000164 4D0B                   JSR         @R13
    00000166 E404                   MOV         #4,R4
      ClassParti    71    Default11Compo0_0[0]= c0_0_BoxCollider0;
    00000168 53F2                   MOV.L       @(8,R15),R3
      ClassParti    72    
      ClassParti    73    GameObject *Default11_0_0= new GameObject(this,TerrainIvC2,152,49,16,16,"Default11","Default",Default11Com
                         +po0_0,1);
    0000016A E231                   MOV         #49,R2
    0000016C 979F                   MOV.W       L640,R7    ; H'0098
    0000016E 65C3                   MOV         R12,R5
    00000170 D952                   MOV.L       L640+14,R9 ; L398
    00000172 6403                   MOV         R0,R4
    00000174 D653                   MOV.L       L640+22,R6 ; __$TerrainIvC2
    00000176 2432                   MOV.L       R3,@R4




SH SERIES C/C++ Compiler (Ver. 6.0C)                                                                 12-Apr-2021 13:38:38  PAGE    6


SCT OFFSET   CODE       C LABEL     INSTRUCTION OPERAND    COMMENT

    00000178 2FA6                   MOV.L       R10,@-R15
    0000017A 2F46                   MOV.L       R4,@-R15
    0000017C 2F96                   MOV.L       R9,@-R15
    0000017E D350                   MOV.L       L640+18,R3 ; L397
    00000180 2F36                   MOV.L       R3,@-R15
    00000182 2FE6                   MOV.L       R14,@-R15
    00000184 2FE6                   MOV.L       R14,@-R15
    00000186 2F26                   MOV.L       R2,@-R15
    00000188 B396                   BSR         ___ct__10GameObjectFP12SceneManagerPCUciN33PCcT7PP9ComponentT3
    0000018A E400                   MOV         #0,R4
    0000018C 1F0E                   MOV.L       R0,@(56,R15)
      ClassParti    74    
      ClassParti    75                    Component * c0_1_BoxCollider0= new BoxCollider();
    0000018E 4B0B                   JSR         @R11
    00000190 E400                   MOV         #0,R4
    00000192 1F09                   MOV.L       R0,@(36,R15)
      ClassParti    76    Component **Default12Compo0_1= new Component *[1];
    00000194 4D0B                   JSR         @R13
    00000196 E404                   MOV         #4,R4
      ClassParti    77    Default12Compo0_1[0]= c0_1_BoxCollider0;
    00000198 53F9                   MOV.L       @(36,R15),R3
      ClassParti    78    
      ClassParti    79    GameObject *Default12_0_1= new GameObject(this,TerrainIvC2,167,49,16,16,"Default12","Default",Default12Com
                         +po0_1,1);
    0000019A E231                   MOV         #49,R2
    0000019C 9788                   MOV.W       L640+2,R7  ; H'00A7
    0000019E 65C3                   MOV         R12,R5
    000001A0 D648                   MOV.L       L640+22,R6 ; __$TerrainIvC2
    000001A2 6403                   MOV         R0,R4
    000001A4 2432                   MOV.L       R3,@R4
    000001A6 2FA6                   MOV.L       R10,@-R15
    000001A8 2F46                   MOV.L       R4,@-R15
    000001AA 2F96                   MOV.L       R9,@-R15
    000001AC D346                   MOV.L       L640+26,R3 ; L399
    000001AE 2F36                   MOV.L       R3,@-R15
    000001B0 2FE6                   MOV.L       R14,@-R15
    000001B2 2FE6                   MOV.L       R14,@-R15
    000001B4 2F26                   MOV.L       R2,@-R15
    000001B6 B37F                   BSR         ___ct__10GameObjectFP12SceneManagerPCUciN33PCcT7PP9ComponentT3
    000001B8 E400                   MOV         #0,R4
    000001BA 61F3                   MOV         R15,R1
    000001BC 7160                   ADD         #96,R1
    000001BE 2102                   MOV.L       R0,@R1
      ClassParti    80    
      ClassParti    81                    Component * c0_2_BoxCollider0= new BoxCollider();
    000001C0 4B0B                   JSR         @R11
    000001C2 E400                   MOV         #0,R4
      ClassParti    82    Component * c0_2_Rigidbody1= new Rigidbody();
    000001C4 D341                   MOV.L       L640+30,R3 ; ___ct__9RigidbodyFv
    000001C6 61F3                   MOV         R15,R1
    000001C8 714C                   ADD         #76,R1
    000001CA 2102                   MOV.L       R0,@R1
    000001CC E040                   MOV         #64,R0
    000001CE 0F36                   MOV.L       R3,@(R0,R15)
    000001D0 430B                   JSR         @R3
    000001D2 E400                   MOV         #0,R4
    000001D4 1F0F                   MOV.L       R0,@(60,R15)




SH SERIES C/C++ Compiler (Ver. 6.0C)                                                                 12-Apr-2021 13:38:38  PAGE    7


SCT OFFSET   CODE       C LABEL     INSTRUCTION OPERAND    COMMENT

      ClassParti    83    Component **BoxCompo0_2= new Component *[2];
    000001D6 4D0B                   JSR         @R13
    000001D8 E408                   MOV         #8,R4
    000001DA 6403                   MOV         R0,R4
      ClassParti    84    BoxCompo0_2[0]= c0_2_BoxCollider0;
      ClassParti    85    BoxCompo0_2[1]= c0_2_Rigidbody1;
      ClassParti    86    
      ClassParti    87    GameObject *Box_0_2= new GameObject(this,Box1,116,1,28,24,"Box","Default",BoxCompo0_2,2);
    000001DC D63D                   MOV.L       L640+38,R6 ; __$Box1
    000001DE 65C3                   MOV         R12,R5
    000001E0 E04C                   MOV         #76,R0
    000001E2 E101                   MOV         #1,R1
    000001E4 03FE                   MOV.L       @(R0,R15),R3
    000001E6 E774                   MOV         #116,R7
    000001E8 2432                   MOV.L       R3,@R4
    000001EA E068                   MOV         #104,R0
    000001EC 52FF                   MOV.L       @(60,R15),R2
    000001EE E302                   MOV         #2,R3
    000001F0 1421                   MOV.L       R2,@(4,R4)
    000001F2 2F36                   MOV.L       R3,@-R15
    000001F4 2F46                   MOV.L       R4,@-R15
    000001F6 2F96                   MOV.L       R9,@-R15
    000001F8 D235                   MOV.L       L640+34,R2 ; L400
    000001FA 0F26                   MOV.L       R2,@(R0,R15)
    000001FC 2F26                   MOV.L       R2,@-R15
    000001FE E21C                   MOV         #28,R2
    00000200 2F86                   MOV.L       R8,@-R15
    00000202 2F26                   MOV.L       R2,@-R15
    00000204 2F16                   MOV.L       R1,@-R15
    00000206 B357                   BSR         ___ct__10GameObjectFP12SceneManagerPCUciN33PCcT7PP9ComponentT3
    00000208 E400                   MOV         #0,R4
    0000020A 61F3                   MOV         R15,R1
    0000020C 7168                   ADD         #104,R1
    0000020E 2102                   MOV.L       R0,@R1
      ClassParti    88    
      ClassParti    89                    Component * c0_3_BoxCollider0= new BoxCollider();
    00000210 4B0B                   JSR         @R11
    00000212 E400                   MOV         #0,R4
    00000214 61F3                   MOV         R15,R1
    00000216 7158                   ADD         #88,R1
    00000218 2102                   MOV.L       R0,@R1
      ClassParti    90    Component **Default1Compo0_3= new Component *[1];
    0000021A 4D0B                   JSR         @R13
    0000021C E404                   MOV         #4,R4
    0000021E 6403                   MOV         R0,R4
      ClassParti    91    Default1Compo0_3[0]= c0_3_BoxCollider0;
      ClassParti    92    
      ClassParti    93    GameObject *Default1_0_3= new GameObject(this,TerrainIvC1,17,49,16,16,"Default1","Environnement",Default1C
                         +ompo0_3,1);
    00000220 D22E                   MOV.L       L640+46,R2 ; L401
    00000222 E711                   MOV         #17,R7
    00000224 D62E                   MOV.L       L640+50,R6 ; __$TerrainIvC1
    00000226 65C3                   MOV         R12,R5
    00000228 E058                   MOV         #88,R0
    0000022A 03FE                   MOV.L       @(R0,R15),R3
    0000022C 9041                   MOV.W       L640+4,R0  ; H'0094
    0000022E 2432                   MOV.L       R3,@R4




SH SERIES C/C++ Compiler (Ver. 6.0C)                                                                 12-Apr-2021 13:38:38  PAGE    8


SCT OFFSET   CODE       C LABEL     INSTRUCTION OPERAND    COMMENT

    00000230 2FA6                   MOV.L       R10,@-R15
    00000232 2F46                   MOV.L       R4,@-R15
    00000234 D328                   MOV.L       L640+42,R3 ; L402
    00000236 0F36                   MOV.L       R3,@(R0,R15)
    00000238 2F36                   MOV.L       R3,@-R15
    0000023A E331                   MOV         #49,R3
    0000023C 9039                   MOV.W       L640+4,R0  ; H'0094
    0000023E 0F26                   MOV.L       R2,@(R0,R15)
    00000240 2F26                   MOV.L       R2,@-R15
    00000242 2FE6                   MOV.L       R14,@-R15
    00000244 2FE6                   MOV.L       R14,@-R15
    00000246 2F36                   MOV.L       R3,@-R15
    00000248 B336                   BSR         ___ct__10GameObjectFP12SceneManagerPCUciN33PCcT7PP9ComponentT3
    0000024A E400                   MOV         #0,R4
    0000024C 7F70                   ADD         #112,R15
    0000024E 1F01                   MOV.L       R0,@(4,R15)
      ClassParti    94    
      ClassParti    95                    Component * c0_4_BoxCollider0= new BoxCollider();
    00000250 4B0B                   JSR         @R11
    00000252 E400                   MOV         #0,R4
    00000254 1F04                   MOV.L       R0,@(16,R15)
      ClassParti    96    Component **Default3Compo0_4= new Component *[1];
    00000256 4D0B                   JSR         @R13
    00000258 E404                   MOV         #4,R4
    0000025A 6403                   MOV         R0,R4
      ClassParti    97    Default3Compo0_4[0]= c0_4_BoxCollider0;
    0000025C 53F4                   MOV.L       @(16,R15),R3
      ClassParti    98    
      ClassParti    99    GameObject *Default3_0_4= new GameObject(this,TerrainIvC2,32,49,16,16,"Default3","Default",Default3Compo0_
                         +4,1);
    0000025E E231                   MOV         #49,R2
    00000260 D618                   MOV.L       L640+22,R6 ; __$TerrainIvC2
    00000262 65C3                   MOV         R12,R5
    00000264 2432                   MOV.L       R3,@R4
    00000266 E720                   MOV         #32,R7
    00000268 2FA6                   MOV.L       R10,@-R15
    0000026A 2F46                   MOV.L       R4,@-R15
    0000026C 2F96                   MOV.L       R9,@-R15
    0000026E D31D                   MOV.L       L640+54,R3 ; L403
    00000270 2F36                   MOV.L       R3,@-R15
    00000272 2FE6                   MOV.L       R14,@-R15
    00000274 2FE6                   MOV.L       R14,@-R15
    00000276 2F26                   MOV.L       R2,@-R15
    00000278 B31E                   BSR         ___ct__10GameObjectFP12SceneManagerPCUciN33PCcT7PP9ComponentT3
    0000027A E400                   MOV         #0,R4
    0000027C 1F0B                   MOV.L       R0,@(44,R15)
      ClassParti   100    
      ClassParti   101                    Component * c0_5_BoxCollider0= new BoxCollider();
    0000027E 4B0B                   JSR         @R11
    00000280 E400                   MOV         #0,R4
    00000282 1F0D                   MOV.L       R0,@(52,R15)
      ClassParti   102    Component **Default4Compo0_5= new Component *[1];
    00000284 4D0B                   JSR         @R13
    00000286 E404                   MOV         #4,R4
      ClassParti   103    Default4Compo0_5[0]= c0_5_BoxCollider0;
    00000288 53FD                   MOV.L       @(52,R15),R3
      ClassParti   104    




SH SERIES C/C++ Compiler (Ver. 6.0C)                                                                 12-Apr-2021 13:38:38  PAGE    9


SCT OFFSET   CODE       C LABEL     INSTRUCTION OPERAND    COMMENT

      ClassParti   105    GameObject *Default4_0_5= new GameObject(this,TerrainIvC3,47,49,16,16,"Default4","Default",Default4Compo0_
                         +5,1);
    0000028A E231                   MOV         #49,R2
    0000028C D617                   MOV.L       L640+62,R6 ; __$TerrainIvC3
    0000028E 65C3                   MOV         R12,R5
    00000290 6403                   MOV         R0,R4
    00000292 E72F                   MOV         #47,R7
    00000294 2432                   MOV.L       R3,@R4
    00000296 2FA6                   MOV.L       R10,@-R15
    00000298 2F46                   MOV.L       R4,@-R15
    0000029A 2F96                   MOV.L       R9,@-R15
    0000029C D312                   MOV.L       L640+58,R3 ; L404
    0000029E 2F36                   MOV.L       R3,@-R15
    000002A0 2FE6                   MOV.L       R14,@-R15
    000002A2 2FE6                   MOV.L       R14,@-R15
    000002A4 2F26                   MOV.L       R2,@-R15
    000002A6 B307                   BSR         ___ct__10GameObjectFP12SceneManagerPCUciN33PCcT7PP9ComponentT3
    000002A8 E400                   MOV         #0,R4
    000002AA A021                   BRA         L636
    000002AC 0009                   NOP
    000002AE              L640:                             
    000002AE 0098                   .DATA.W     H'0098
    000002B0 00A7                   .DATA.W     H'00A7
    000002B2 0094                   .DATA.W     H'0094
    000002B4 <00000000>             .DATA.L     ___nw__FUl
    000002B8 <00000000>             .DATA.L     ___ct__11BoxColliderFv
    000002BC <00000000>             .DATA.L     L398
    000002C0 <00000000>             .DATA.L     L397
    000002C4 <00000000>             .DATA.L     __$TerrainIvC2
    000002C8 <00000000>             .DATA.L     L399
    000002CC <00000000>             .DATA.L     ___ct__9RigidbodyFv
    000002D0 <00000000>             .DATA.L     L400
    000002D4 <00000000>             .DATA.L     __$Box1
    000002D8 <00000000>             .DATA.L     L402
    000002DC <00000000>             .DATA.L     L401
    000002E0 <00000000>             .DATA.L     __$TerrainIvC1
    000002E4 <00000000>             .DATA.L     L403
    000002E8 <00000000>             .DATA.L     L404
    000002EC <00000000>             .DATA.L     __$TerrainIvC3
    000002F0              L636:                             
    000002F0 61F3                   MOV         R15,R1
    000002F2 7150                   ADD         #80,R1
    000002F4 2102                   MOV.L       R0,@R1
      ClassParti   106    
      ClassParti   107                    Component * c0_6_BoxCollider0= new BoxCollider();
    000002F6 4B0B                   JSR         @R11
    000002F8 E400                   MOV         #0,R4
    000002FA 61F3                   MOV         R15,R1
    000002FC 7158                   ADD         #88,R1
    000002FE 2102                   MOV.L       R0,@R1
      ClassParti   108    Component **Default5Compo0_6= new Component *[1];
    00000300 4D0B                   JSR         @R13
    00000302 E404                   MOV         #4,R4
      ClassParti   109    Default5Compo0_6[0]= c0_6_BoxCollider0;
      ClassParti   110    
      ClassParti   111    GameObject *Default5_0_6= new GameObject(this,TerrainIvC18,62,49,16,16,"Default5","Default",Default5Compo0
                         +_6,1);




SH SERIES C/C++ Compiler (Ver. 6.0C)                                                                 12-Apr-2021 13:38:38  PAGE   10


SCT OFFSET   CODE       C LABEL     INSTRUCTION OPERAND    COMMENT

    00000304 D65A                   MOV.L       L642+12,R6 ; __$TerrainIvC18
    00000306 65C3                   MOV         R12,R5
    00000308 6403                   MOV         R0,R4
    0000030A E058                   MOV         #88,R0
    0000030C 03FE                   MOV.L       @(R0,R15),R3
    0000030E E231                   MOV         #49,R2
    00000310 2432                   MOV.L       R3,@R4
    00000312 E73E                   MOV         #62,R7
    00000314 2FA6                   MOV.L       R10,@-R15
    00000316 2F46                   MOV.L       R4,@-R15
    00000318 2F96                   MOV.L       R9,@-R15
    0000031A D354                   MOV.L       L642+8,R3  ; L405
    0000031C 2F36                   MOV.L       R3,@-R15
    0000031E 2FE6                   MOV.L       R14,@-R15
    00000320 2FE6                   MOV.L       R14,@-R15
    00000322 2F26                   MOV.L       R2,@-R15
    00000324 B2C8                   BSR         ___ct__10GameObjectFP12SceneManagerPCUciN33PCcT7PP9ComponentT3
    00000326 E400                   MOV         #0,R4
    00000328 919C                   MOV.W       L642,R1    ; H'00A4
    0000032A 31FC                   ADD         R15,R1
    0000032C 2102                   MOV.L       R0,@R1
      ClassParti   112    
      ClassParti   113                    Component * c0_7_BoxCollider0= new BoxCollider();
    0000032E 4B0B                   JSR         @R11
    00000330 E400                   MOV         #0,R4
    00000332 61F3                   MOV         R15,R1
    00000334 7174                   ADD         #116,R1
    00000336 2102                   MOV.L       R0,@R1
      ClassParti   114    Component **Default6Compo0_7= new Component *[1];
    00000338 4D0B                   JSR         @R13
    0000033A E404                   MOV         #4,R4
      ClassParti   115    Default6Compo0_7[0]= c0_7_BoxCollider0;
      ClassParti   116    
      ClassParti   117    GameObject *Default6_0_7= new GameObject(this,TerrainIvC19,77,49,16,16,"Default6","Default",Default6Compo0
                         +_7,1);
    0000033C D64E                   MOV.L       L642+20,R6 ; __$TerrainIvC19
    0000033E 65C3                   MOV         R12,R5
    00000340 6403                   MOV         R0,R4
    00000342 E074                   MOV         #116,R0
    00000344 03FE                   MOV.L       @(R0,R15),R3
    00000346 E231                   MOV         #49,R2
    00000348 2432                   MOV.L       R3,@R4
    0000034A E74D                   MOV         #77,R7
    0000034C 2FA6                   MOV.L       R10,@-R15
    0000034E 2F46                   MOV.L       R4,@-R15
    00000350 2F96                   MOV.L       R9,@-R15
    00000352 D348                   MOV.L       L642+16,R3 ; L406
    00000354 2F36                   MOV.L       R3,@-R15
    00000356 2FE6                   MOV.L       R14,@-R15
    00000358 2FE6                   MOV.L       R14,@-R15
    0000035A 2F26                   MOV.L       R2,@-R15
    0000035C B2AC                   BSR         ___ct__10GameObjectFP12SceneManagerPCUciN33PCcT7PP9ComponentT3
    0000035E E400                   MOV         #0,R4
    00000360 7F70                   ADD         #112,R15
    00000362 1F08                   MOV.L       R0,@(32,R15)
      ClassParti   118    
      ClassParti   119                    Component * c0_8_BoxCollider0= new BoxCollider();




SH SERIES C/C++ Compiler (Ver. 6.0C)                                                                 12-Apr-2021 13:38:38  PAGE   11


SCT OFFSET   CODE       C LABEL     INSTRUCTION OPERAND    COMMENT

    00000364 4B0B                   JSR         @R11
    00000366 E400                   MOV         #0,R4
    00000368 1F03                   MOV.L       R0,@(12,R15)
      ClassParti   120    Component **Default7Compo0_8= new Component *[1];
    0000036A 4D0B                   JSR         @R13
    0000036C E404                   MOV         #4,R4
    0000036E 6403                   MOV         R0,R4
      ClassParti   121    Default7Compo0_8[0]= c0_8_BoxCollider0;
    00000370 53F3                   MOV.L       @(12,R15),R3
      ClassParti   122    
      ClassParti   123    GameObject *Default7_0_8= new GameObject(this,TerrainIvC20,92,49,16,16,"Default7","Default",Default7Compo0
                         +_8,1);
    00000372 E231                   MOV         #49,R2
    00000374 D642                   MOV.L       L642+28,R6 ; __$TerrainIvC20
    00000376 65C3                   MOV         R12,R5
    00000378 2432                   MOV.L       R3,@R4
    0000037A E75C                   MOV         #92,R7
    0000037C 2FA6                   MOV.L       R10,@-R15
    0000037E 2F46                   MOV.L       R4,@-R15
    00000380 2F96                   MOV.L       R9,@-R15
    00000382 D33E                   MOV.L       L642+24,R3 ; L407
    00000384 2F36                   MOV.L       R3,@-R15
    00000386 2FE6                   MOV.L       R14,@-R15
    00000388 2FE6                   MOV.L       R14,@-R15
    0000038A 2F26                   MOV.L       R2,@-R15
    0000038C B294                   BSR         ___ct__10GameObjectFP12SceneManagerPCUciN33PCcT7PP9ComponentT3
    0000038E E400                   MOV         #0,R4
    00000390 61F3                   MOV         R15,R1
    00000392 7164                   ADD         #100,R1
    00000394 2102                   MOV.L       R0,@R1
      ClassParti   124    
      ClassParti   125                    Component * c0_9_BoxCollider0= new BoxCollider();
    00000396 4B0B                   JSR         @R11
    00000398 E400                   MOV         #0,R4
    0000039A 1F0A                   MOV.L       R0,@(40,R15)
      ClassParti   126    Component **Default8Compo0_9= new Component *[1];
    0000039C 4D0B                   JSR         @R13
    0000039E E404                   MOV         #4,R4
      ClassParti   127    Default8Compo0_9[0]= c0_9_BoxCollider0;
    000003A0 53FA                   MOV.L       @(40,R15),R3
      ClassParti   128    
      ClassParti   129    GameObject *Default8_0_9= new GameObject(this,TerrainIvC1,107,49,16,16,"Default8","Default",Default8Compo0
                         +_9,1);
    000003A2 E231                   MOV         #49,R2
    000003A4 D638                   MOV.L       L642+36,R6 ; __$TerrainIvC1
    000003A6 65C3                   MOV         R12,R5
    000003A8 6403                   MOV         R0,R4
    000003AA E76B                   MOV         #107,R7
    000003AC 2432                   MOV.L       R3,@R4
    000003AE 2FA6                   MOV.L       R10,@-R15
    000003B0 2F46                   MOV.L       R4,@-R15
    000003B2 2F96                   MOV.L       R9,@-R15
    000003B4 D333                   MOV.L       L642+32,R3 ; L408
    000003B6 2F36                   MOV.L       R3,@-R15
    000003B8 2FE6                   MOV.L       R14,@-R15
    000003BA 2FE6                   MOV.L       R14,@-R15
    000003BC 2F26                   MOV.L       R2,@-R15




SH SERIES C/C++ Compiler (Ver. 6.0C)                                                                 12-Apr-2021 13:38:38  PAGE   12


SCT OFFSET   CODE       C LABEL     INSTRUCTION OPERAND    COMMENT

    000003BE B27B                   BSR         ___ct__10GameObjectFP12SceneManagerPCUciN33PCcT7PP9ComponentT3
    000003C0 E400                   MOV         #0,R4
    000003C2 61F3                   MOV         R15,R1
    000003C4 717C                   ADD         #124,R1
    000003C6 2102                   MOV.L       R0,@R1
      ClassParti   130    
      ClassParti   131                    Component * c0_10_BoxCollider0= new BoxCollider();
    000003C8 4B0B                   JSR         @R11
    000003CA E400                   MOV         #0,R4
    000003CC 61F3                   MOV         R15,R1
    000003CE 7144                   ADD         #68,R1
    000003D0 2102                   MOV.L       R0,@R1
      ClassParti   132    Component **Default9Compo0_10= new Component *[1];
    000003D2 4D0B                   JSR         @R13
    000003D4 E404                   MOV         #4,R4
    000003D6 6403                   MOV         R0,R4
      ClassParti   133    Default9Compo0_10[0]= c0_10_BoxCollider0;
      ClassParti   134    
      ClassParti   135    GameObject *Default9_0_10= new GameObject(this,TerrainIvC2,122,49,16,16,"Default9","Default",Default9Compo
                         +0_10,1);
    000003D8 D62D                   MOV.L       L642+44,R6 ; __$TerrainIvC2
    000003DA 65C3                   MOV         R12,R5
    000003DC E044                   MOV         #68,R0
    000003DE E231                   MOV         #49,R2
    000003E0 03FE                   MOV.L       @(R0,R15),R3
    000003E2 E77A                   MOV         #122,R7
    000003E4 2432                   MOV.L       R3,@R4
    000003E6 2FA6                   MOV.L       R10,@-R15
    000003E8 2F46                   MOV.L       R4,@-R15
    000003EA 2F96                   MOV.L       R9,@-R15
    000003EC D327                   MOV.L       L642+40,R3 ; L409
    000003EE 2F36                   MOV.L       R3,@-R15
    000003F0 2FE6                   MOV.L       R14,@-R15
    000003F2 2FE6                   MOV.L       R14,@-R15
    000003F4 2F26                   MOV.L       R2,@-R15
    000003F6 B25F                   BSR         ___ct__10GameObjectFP12SceneManagerPCUciN33PCcT7PP9ComponentT3
    000003F8 E400                   MOV         #0,R4
    000003FA 9134                   MOV.W       L642+2,R1  ; H'0094
    000003FC 31FC                   ADD         R15,R1
    000003FE 2102                   MOV.L       R0,@R1
      ClassParti   136    
      ClassParti   137                    Component * c0_11_BoxCollider0= new BoxCollider();
    00000400 4B0B                   JSR         @R11
    00000402 E400                   MOV         #0,R4
    00000404 61F3                   MOV         R15,R1
    00000406 7160                   ADD         #96,R1
    00000408 2102                   MOV.L       R0,@R1
      ClassParti   138    Component **Default10Compo0_11= new Component *[1];
    0000040A 4D0B                   JSR         @R13
    0000040C E404                   MOV         #4,R4
    0000040E 6403                   MOV         R0,R4
      ClassParti   139    Default10Compo0_11[0]= c0_11_BoxCollider0;
      ClassParti   140    
      ClassParti   141    GameObject *Default10_0_11= new GameObject(this,TerrainIvC2,137,49,16,16,"Default10","Default",Default10Co
                         +mpo0_11,1);
    00000410 972A                   MOV.W       L642+4,R7  ; H'0089
    00000412 65C3                   MOV         R12,R5




SH SERIES C/C++ Compiler (Ver. 6.0C)                                                                 12-Apr-2021 13:38:38  PAGE   13


SCT OFFSET   CODE       C LABEL     INSTRUCTION OPERAND    COMMENT

    00000414 D61E                   MOV.L       L642+44,R6 ; __$TerrainIvC2
    00000416 E231                   MOV         #49,R2
    00000418 E060                   MOV         #96,R0
    0000041A 03FE                   MOV.L       @(R0,R15),R3
    0000041C 2432                   MOV.L       R3,@R4
    0000041E 2FA6                   MOV.L       R10,@-R15
    00000420 2F46                   MOV.L       R4,@-R15
    00000422 2F96                   MOV.L       R9,@-R15
    00000424 D31B                   MOV.L       L642+48,R3 ; L410
    00000426 2F36                   MOV.L       R3,@-R15
    00000428 2FE6                   MOV.L       R14,@-R15
    0000042A 2FE6                   MOV.L       R14,@-R15
    0000042C 2F26                   MOV.L       R2,@-R15
    0000042E B243                   BSR         ___ct__10GameObjectFP12SceneManagerPCUciN33PCcT7PP9ComponentT3
    00000430 E400                   MOV         #0,R4
    00000432 7F70                   ADD         #112,R15
    00000434 1F03                   MOV.L       R0,@(12,R15)
      ClassParti   142    
      ClassParti   143                    Component *TempCompo0_12_BoxCollider0= new Component();
    00000436 E300                   MOV         #0,R3
    00000438 6233                   MOV         R3,R2
    0000043A 2228                   TST         R2,R2
    0000043C 8F05                   BF/S        L587
    0000043E 2F32                   MOV.L       R3,@R15
    00000440 4D0B                   JSR         @R13
    00000442 E40C                   MOV         #12,R4
    00000444 2008                   TST         R0,R0
    00000446 8D03                   BT/S        L588
    00000448 2F02                   MOV.L       R0,@R15
    0000044A              L587:                             
    0000044A 62F2                   MOV.L       @R15,R2
    0000044C D312                   MOV.L       L642+52,R3 ; __$__vtbl__9Component
    0000044E 1232                   MOV.L       R3,@(8,R2)
    00000450              L588:                             
      ClassParti   144    Component **Default14Compo0_12= new Component *[0];
    00000450 4D0B                   JSR         @R13
    00000452 E400                   MOV         #0,R4
      ClassParti   145    
      ClassParti   146    GameObject *Default14_0_12= new GameObject(this,n1IvCsol39,108,33,16,16,"Default14","Default",Default14Com
                         +po0_12,0);
    00000454 D211                   MOV.L       L642+56,R2 ; L411
    00000456 6403                   MOV         R0,R4
    00000458 E300                   MOV         #0,R3
    0000045A 2F36                   MOV.L       R3,@-R15
    0000045C 2F46                   MOV.L       R4,@-R15
    0000045E 2F96                   MOV.L       R9,@-R15
    00000460 A01E                   BRA         L637
    00000462 0009                   NOP
    00000464              L642:                             
    00000464 00A4                   .DATA.W     H'00A4
    00000466 0094                   .DATA.W     H'0094
    00000468 0089                   .DATA.W     H'0089
    0000046A 0000                   .DATA.W     0
    0000046C <00000000>             .DATA.L     L405
    00000470 <00000000>             .DATA.L     __$TerrainIvC18
    00000474 <00000000>             .DATA.L     L406
    00000478 <00000000>             .DATA.L     __$TerrainIvC19




SH SERIES C/C++ Compiler (Ver. 6.0C)                                                                 12-Apr-2021 13:38:38  PAGE   14


SCT OFFSET   CODE       C LABEL     INSTRUCTION OPERAND    COMMENT

    0000047C <00000000>             .DATA.L     L407
    00000480 <00000000>             .DATA.L     __$TerrainIvC20
    00000484 <00000000>             .DATA.L     L408
    00000488 <00000000>             .DATA.L     __$TerrainIvC1
    0000048C <00000000>             .DATA.L     L409
    00000490 <00000000>             .DATA.L     __$TerrainIvC2
    00000494 <00000000>             .DATA.L     L410
    00000498 <00000000>             .DATA.L     __$__vtbl__9Component
    0000049C <00000000>             .DATA.L     L411
    000004A0              L637:                             
    000004A0 2F26                   MOV.L       R2,@-R15
    000004A2 E121                   MOV         #33,R1
    000004A4 D65C                   MOV.L       L643+6,R6  ; __$n1IvCsol39
    000004A6 6433                   MOV         R3,R4
    000004A8 2FE6                   MOV.L       R14,@-R15
    000004AA E76C                   MOV         #108,R7
    000004AC 2FE6                   MOV.L       R14,@-R15
    000004AE 2F16                   MOV.L       R1,@-R15
    000004B0 B202                   BSR         ___ct__10GameObjectFP12SceneManagerPCUciN33PCcT7PP9ComponentT3
    000004B2 65C3                   MOV         R12,R5
    000004B4 61F3                   MOV         R15,R1
    000004B6 7168                   ADD         #104,R1
    000004B8 2102                   MOV.L       R0,@R1
      ClassParti   147    
      ClassParti   148                    Component * c0_13_BoxCollider0= new BoxCollider();
    000004BA 4B0B                   JSR         @R11
    000004BC E400                   MOV         #0,R4
    000004BE 61F3                   MOV         R15,R1
    000004C0 7148                   ADD         #72,R1
    000004C2 2102                   MOV.L       R0,@R1
      ClassParti   149    Component * c0_13_Rigidbody1= new Rigidbody();
    000004C4 53F9                   MOV.L       @(36,R15),R3
    000004C6 430B                   JSR         @R3
    000004C8 E400                   MOV         #0,R4
    000004CA 61F3                   MOV         R15,R1
    000004CC 714C                   ADD         #76,R1
    000004CE 2102                   MOV.L       R0,@R1
      ClassParti   150    Component **BoxCompo0_13= new Component *[2];
    000004D0 4D0B                   JSR         @R13
    000004D2 E408                   MOV         #8,R4
      ClassParti   151    BoxCompo0_13[0]= c0_13_BoxCollider0;
      ClassParti   152    BoxCompo0_13[1]= c0_13_Rigidbody1;
      ClassParti   153    
      ClassParti   154    GameObject *Box_0_13= new GameObject(this,Box1,123,-8,28,24,"Box","Default",BoxCompo0_13,2);
    000004D4 D651                   MOV.L       L643+10,R6 ; __$Box1
    000004D6 65C3                   MOV         R12,R5
    000004D8 6403                   MOV         R0,R4
    000004DA E048                   MOV         #72,R0
    000004DC 03FE                   MOV.L       @(R0,R15),R3
    000004DE E1F8                   MOV         #-8,R1
    000004E0 2432                   MOV.L       R3,@R4
    000004E2 E04C                   MOV         #76,R0
    000004E4 02FE                   MOV.L       @(R0,R15),R2
    000004E6 E302                   MOV         #2,R3
    000004E8 1421                   MOV.L       R2,@(4,R4)
    000004EA E04C                   MOV         #76,R0
    000004EC 2F36                   MOV.L       R3,@-R15




SH SERIES C/C++ Compiler (Ver. 6.0C)                                                                 12-Apr-2021 13:38:38  PAGE   15


SCT OFFSET   CODE       C LABEL     INSTRUCTION OPERAND    COMMENT

    000004EE E77B                   MOV         #123,R7
    000004F0 2F46                   MOV.L       R4,@-R15
    000004F2 2F96                   MOV.L       R9,@-R15
    000004F4 02FE                   MOV.L       @(R0,R15),R2
    000004F6 2F26                   MOV.L       R2,@-R15
    000004F8 2F86                   MOV.L       R8,@-R15
    000004FA E21C                   MOV         #28,R2
    000004FC 2F26                   MOV.L       R2,@-R15
    000004FE 2F16                   MOV.L       R1,@-R15
    00000500 B1DA                   BSR         ___ct__10GameObjectFP12SceneManagerPCUciN33PCcT7PP9ComponentT3
    00000502 E400                   MOV         #0,R4
    00000504 7F38                   ADD         #56,R15
      ClassParti   155    
      ClassParti   156                    Component *TempCompo0_14_Rigidbody1= new Component();
    00000506 E300                   MOV         #0,R3
    00000508 1F0C                   MOV.L       R0,@(48,R15)
    0000050A 6233                   MOV         R3,R2
    0000050C 2228                   TST         R2,R2
    0000050E 8F05                   BF/S        L590
    00000510 2F32                   MOV.L       R3,@R15
    00000512 4D0B                   JSR         @R13
    00000514 E40C                   MOV         #12,R4
    00000516 2008                   TST         R0,R0
    00000518 8D03                   BT/S        L591
    0000051A 2F02                   MOV.L       R0,@R15
    0000051C              L590:                             
    0000051C 62F2                   MOV.L       @R15,R2
    0000051E D340                   MOV.L       L643+14,R3 ; __$__vtbl__9Component
    00000520 1232                   MOV.L       R3,@(8,R2)
    00000522              L591:                             
      ClassParti   157    Component **Default15Compo0_14= new Component *[0];
    00000522 4D0B                   JSR         @R13
    00000524 E400                   MOV         #0,R4
    00000526 6403                   MOV         R0,R4
      ClassParti   158    
      ClassParti   159    GameObject *Default15_0_14= new GameObject(this,labo,216,-65,224,225,"Default15","Default",Default15Compo0
                         +_14,0);
    00000528 D23E                   MOV.L       L643+18,R2 ; L412
    0000052A 65C3                   MOV         R12,R5
    0000052C 9171                   MOV.W       L643,R1    ; H'00E1
    0000052E E300                   MOV         #0,R3
    00000530 9771                   MOV.W       L643+4,R7  ; H'00D8
    00000532 2F36                   MOV.L       R3,@-R15
    00000534 2F46                   MOV.L       R4,@-R15
    00000536 2F96                   MOV.L       R9,@-R15
    00000538 2F26                   MOV.L       R2,@-R15
    0000053A E2BF                   MOV         #-65,R2
    0000053C D63A                   MOV.L       L643+22,R6 ; __$labo
    0000053E 2F16                   MOV.L       R1,@-R15
    00000540 9368                   MOV.W       L643+2,R3  ; H'00E0
    00000542 2F36                   MOV.L       R3,@-R15
    00000544 2F26                   MOV.L       R2,@-R15
    00000546 B1B7                   BSR         ___ct__10GameObjectFP12SceneManagerPCUciN33PCcT7PP9ComponentT3
    00000548 E400                   MOV         #0,R4
    0000054A 7F1C                   ADD         #28,R15
    0000054C 1F0B                   MOV.L       R0,@(44,R15)
      ClassParti   160    




SH SERIES C/C++ Compiler (Ver. 6.0C)                                                                 12-Apr-2021 13:38:38  PAGE   16


SCT OFFSET   CODE       C LABEL     INSTRUCTION OPERAND    COMMENT

      ClassParti   161                    Component *TempCompo0_15_Rigidbody1= new Component();
    0000054E E300                   MOV         #0,R3
    00000550 6233                   MOV         R3,R2
    00000552 2228                   TST         R2,R2
    00000554 8F05                   BF/S        L593
    00000556 2F32                   MOV.L       R3,@R15
    00000558 4D0B                   JSR         @R13
    0000055A E40C                   MOV         #12,R4
    0000055C 2008                   TST         R0,R0
    0000055E 8D03                   BT/S        L594
    00000560 2F02                   MOV.L       R0,@R15
    00000562              L593:                             
    00000562 62F2                   MOV.L       @R15,R2
    00000564 D32E                   MOV.L       L643+14,R3 ; __$__vtbl__9Component
    00000566 1232                   MOV.L       R3,@(8,R2)
    00000568              L594:                             
      ClassParti   162    Component **Default16Compo0_15= new Component *[0];
    00000568 4D0B                   JSR         @R13
    0000056A E400                   MOV         #0,R4
      ClassParti   163    
      ClassParti   164    GameObject *Default16_0_15= new GameObject(this,AmongIvCUs,-117,0,127,63,"Default16","Default",Default16Co
                         +mpo0_15,0);
    0000056C D22F                   MOV.L       L643+26,R2 ; L413
    0000056E E13F                   MOV         #63,R1
    00000570 D62F                   MOV.L       L643+30,R6 ; __$AmongIvCUs
    00000572 65C3                   MOV         R12,R5
    00000574 6403                   MOV         R0,R4
    00000576 E300                   MOV         #0,R3
    00000578 2F36                   MOV.L       R3,@-R15
    0000057A E78B                   MOV         #-117,R7
    0000057C 2F46                   MOV.L       R4,@-R15
    0000057E E37F                   MOV         #127,R3
    00000580 2F96                   MOV.L       R9,@-R15
    00000582 2F26                   MOV.L       R2,@-R15
    00000584 2F16                   MOV.L       R1,@-R15
    00000586 E200                   MOV         #0,R2
    00000588 2F36                   MOV.L       R3,@-R15
    0000058A 2F26                   MOV.L       R2,@-R15
    0000058C B194                   BSR         ___ct__10GameObjectFP12SceneManagerPCUciN33PCcT7PP9ComponentT3
    0000058E 6423                   MOV         R2,R4
    00000590 61F3                   MOV         R15,R1
    00000592 7158                   ADD         #88,R1
    00000594 2102                   MOV.L       R0,@R1
      ClassParti   165    
      ClassParti   166                    Component * c0_16_BoxCollider0= new BoxCollider();
    00000596 4B0B                   JSR         @R11
    00000598 E400                   MOV         #0,R4
    0000059A 61F3                   MOV         R15,R1
    0000059C 7140                   ADD         #64,R1
    0000059E 2102                   MOV.L       R0,@R1
      ClassParti   167    Component **Default1Compo0_16= new Component *[1];
    000005A0 4D0B                   JSR         @R13
    000005A2 E404                   MOV         #4,R4
      ClassParti   168    Default1Compo0_16[0]= c0_16_BoxCollider0;
      ClassParti   169    
      ClassParti   170    GameObject *Default1_0_16= new GameObject(this,TerrainIvC1,17,49,16,16,"Default1","Environnement",Default1
                         +Compo0_16,1);




SH SERIES C/C++ Compiler (Ver. 6.0C)                                                                 12-Apr-2021 13:38:38  PAGE   17


SCT OFFSET   CODE       C LABEL     INSTRUCTION OPERAND    COMMENT

    000005A4 D623                   MOV.L       L643+34,R6 ; __$TerrainIvC1
    000005A6 65C3                   MOV         R12,R5
    000005A8 6403                   MOV         R0,R4
    000005AA E040                   MOV         #64,R0
    000005AC 03FE                   MOV.L       @(R0,R15),R3
    000005AE E711                   MOV         #17,R7
    000005B0 2432                   MOV.L       R3,@R4
    000005B2 E05C                   MOV         #92,R0
    000005B4 2FA6                   MOV.L       R10,@-R15
    000005B6 2F46                   MOV.L       R4,@-R15
    000005B8 03FE                   MOV.L       @(R0,R15),R3
    000005BA E05C                   MOV         #92,R0
    000005BC 2F36                   MOV.L       R3,@-R15
    000005BE E331                   MOV         #49,R3
    000005C0 02FE                   MOV.L       @(R0,R15),R2
    000005C2 2F26                   MOV.L       R2,@-R15
    000005C4 2FE6                   MOV.L       R14,@-R15
    000005C6 2FE6                   MOV.L       R14,@-R15
    000005C8 2F36                   MOV.L       R3,@-R15
    000005CA B175                   BSR         ___ct__10GameObjectFP12SceneManagerPCUciN33PCcT7PP9ComponentT3
    000005CC E400                   MOV         #0,R4
    000005CE 61F3                   MOV         R15,R1
    000005D0 716C                   ADD         #108,R1
    000005D2 2102                   MOV.L       R0,@R1
      ClassParti   171    
      ClassParti   172                    Component * c0_17_BoxCollider0= new BoxCollider();
    000005D4 4B0B                   JSR         @R11
    000005D6 E400                   MOV         #0,R4
    000005D8 61F3                   MOV         R15,R1
    000005DA 7170                   ADD         #112,R1
    000005DC 2102                   MOV.L       R0,@R1
      ClassParti   173    Component * c0_17_Rigidbody1= new Rigidbody();
    000005DE E040                   MOV         #64,R0
    000005E0 03FE                   MOV.L       @(R0,R15),R3
    000005E2 430B                   JSR         @R3
    000005E4 E400                   MOV         #0,R4
    000005E6 61F3                   MOV         R15,R1
      ClassParti   174    Component * c0_17_CharacterController2= new CharacterController();
    000005E8 D313                   MOV.L       L643+38,R3 ; ___ct__19CharacterControllerFv
    000005EA 715C                   ADD         #92,R1
    000005EC 2102                   MOV.L       R0,@R1
    000005EE 430B                   JSR         @R3
    000005F0 E400                   MOV         #0,R4
    000005F2 61F3                   MOV         R15,R1
    000005F4 7140                   ADD         #64,R1
    000005F6 2102                   MOV.L       R0,@R1
      ClassParti   175    //c0_17_CharacterController2->frame = 0;
      ClassParti   176    Component **Player1Compo0_17= new Component *[3];
    000005F8 4D0B                   JSR         @R13
    000005FA E40C                   MOV         #12,R4
    000005FC 6403                   MOV         R0,R4
      ClassParti   177    Player1Compo0_17[0]= c0_17_BoxCollider0;
    000005FE E070                   MOV         #112,R0
    00000600 03FE                   MOV.L       @(R0,R15),R3
      ClassParti   178    Player1Compo0_17[1]= c0_17_Rigidbody1;
    00000602 E05C                   MOV         #92,R0
    00000604 2432                   MOV.L       R3,@R4




SH SERIES C/C++ Compiler (Ver. 6.0C)                                                                 12-Apr-2021 13:38:38  PAGE   18


SCT OFFSET   CODE       C LABEL     INSTRUCTION OPERAND    COMMENT

    00000606 02FE                   MOV.L       @(R0,R15),R2
    00000608 1421                   MOV.L       R2,@(4,R4)
      ClassParti   179    Player1Compo0_17[2]= c0_17_CharacterController2;
    0000060A E040                   MOV         #64,R0
    0000060C 03FE                   MOV.L       @(R0,R15),R3
    0000060E A015                   BRA         L638
    00000610 0009                   NOP
    00000612              L643:                             
    00000612 00E1                   .DATA.W     H'00E1
    00000614 00E0                   .DATA.W     H'00E0
    00000616 00D8                   .DATA.W     H'00D8
    00000618 <00000000>             .DATA.L     __$n1IvCsol39
    0000061C <00000000>             .DATA.L     __$Box1
    00000620 <00000000>             .DATA.L     __$__vtbl__9Component
    00000624 <00000000>             .DATA.L     L412
    00000628 <00000000>             .DATA.L     __$labo
    0000062C <00000000>             .DATA.L     L413
    00000630 <00000000>             .DATA.L     __$AmongIvCUs
    00000634 <00000000>             .DATA.L     __$TerrainIvC1
    00000638 <00000000>             .DATA.L     ___ct__19CharacterControllerFv
    0000063C              L638:                             
    0000063C 1432                   MOV.L       R3,@(8,R4)
      ClassParti   180    
      ClassParti   181    GameObject *Player1_0_17= new GameObject(this,RunIvC1,32,25,24,24,"Player1","Player",Player1Compo0_17,3);
    0000063E E203                   MOV         #3,R2
    00000640 D1BC                   MOV.L       L644+6,R1  ; L414
    00000642 E720                   MOV         #32,R7
    00000644 D6BC                   MOV.L       L644+10,R6 ; __$RunIvC1
    00000646 65C3                   MOV         R12,R5
    00000648 D3B9                   MOV.L       L644+2,R3  ; L415
    0000064A 2F26                   MOV.L       R2,@-R15
    0000064C 2F46                   MOV.L       R4,@-R15
    0000064E 2F36                   MOV.L       R3,@-R15
    00000650 2F16                   MOV.L       R1,@-R15
    00000652 E319                   MOV         #25,R3
    00000654 2F86                   MOV.L       R8,@-R15
    00000656 2F86                   MOV.L       R8,@-R15
    00000658 2F36                   MOV.L       R3,@-R15
    0000065A B12D                   BSR         ___ct__10GameObjectFP12SceneManagerPCUciN33PCcT7PP9ComponentT3
    0000065C E400                   MOV         #0,R4
    0000065E 7F54                   ADD         #84,R15
    00000660 1F02                   MOV.L       R0,@(8,R15)
      ClassParti   182    
      ClassParti   183    
      ClassParti   184                    GameObject **AllElem = new GameObject *[18];
    00000662 4D0B                   JSR         @R13
    00000664 E448                   MOV         #72,R4
    00000666 6403                   MOV         R0,R4
      ClassParti   185    AllElem[0] = Default11_0_0;
    00000668 53F7                   MOV.L       @(28,R15),R3
      ClassParti   186    AllElem[1] = Default12_0_1;
      ClassParti   187    AllElem[2] = Box_0_2;
      ClassParti   188    AllElem[3] = Default1_0_3;
      ClassParti   189    AllElem[4] = Default3_0_4;
      ClassParti   190    AllElem[5] = Default4_0_5;
      ClassParti   191    AllElem[6] = Default5_0_6;
    0000066A E050                   MOV         #80,R0




SH SERIES C/C++ Compiler (Ver. 6.0C)                                                                 12-Apr-2021 13:38:38  PAGE   19


SCT OFFSET   CODE       C LABEL     INSTRUCTION OPERAND    COMMENT

    0000066C 2432                   MOV.L       R3,@R4
    0000066E 52FA                   MOV.L       @(40,R15),R2
    00000670 1421                   MOV.L       R2,@(4,R4)
    00000672 53F5                   MOV.L       @(20,R15),R3
    00000674 1432                   MOV.L       R3,@(8,R4)
    00000676 52F1                   MOV.L       @(4,R15),R2
    00000678 1423                   MOV.L       R2,@(12,R4)
    0000067A 53F4                   MOV.L       @(16,R15),R3
    0000067C 1434                   MOV.L       R3,@(16,R4)
    0000067E 52F6                   MOV.L       @(24,R15),R2
    00000680 1425                   MOV.L       R2,@(20,R4)
    00000682 03FE                   MOV.L       @(R0,R15),R3
    00000684 1436                   MOV.L       R3,@(24,R4)
      ClassParti   192    AllElem[7] = Default6_0_7;
      ClassParti   193    AllElem[8] = Default7_0_8;
    00000686 E048                   MOV         #72,R0
    00000688 52F8                   MOV.L       @(32,R15),R2
    0000068A 1427                   MOV.L       R2,@(28,R4)
    0000068C 03FE                   MOV.L       @(R0,R15),R3
      ClassParti   194    AllElem[9] = Default8_0_9;
    0000068E E044                   MOV         #68,R0
    00000690 1438                   MOV.L       R3,@(32,R4)
    00000692 02FE                   MOV.L       @(R0,R15),R2
    00000694 1429                   MOV.L       R2,@(36,R4)
      ClassParti   195    AllElem[10] = Default9_0_10;
    00000696 E040                   MOV         #64,R0
    00000698 03FE                   MOV.L       @(R0,R15),R3
      ClassParti   196    AllElem[11] = Default10_0_11;
      ClassParti   197    AllElem[12] = Default14_0_12;
    0000069A E04C                   MOV         #76,R0
    0000069C 143A                   MOV.L       R3,@(40,R4)
    0000069E 52F3                   MOV.L       @(12,R15),R2
    000006A0 142B                   MOV.L       R2,@(44,R4)
    000006A2 03FE                   MOV.L       @(R0,R15),R3
    000006A4 143C                   MOV.L       R3,@(48,R4)
      ClassParti   198    AllElem[13] = Box_0_13;
      ClassParti   199    AllElem[14] = Default15_0_14;
      ClassParti   200    AllElem[15] = Default16_0_15;
      ClassParti   201    AllElem[16] = Default1_0_16;
    000006A6 E040                   MOV         #64,R0
    000006A8 52FC                   MOV.L       @(48,R15),R2
    000006AA 142D                   MOV.L       R2,@(52,R4)
    000006AC 53FB                   MOV.L       @(44,R15),R3
    000006AE 143E                   MOV.L       R3,@(56,R4)
    000006B0 52FF                   MOV.L       @(60,R15),R2
    000006B2 142F                   MOV.L       R2,@(60,R4)
    000006B4 53FD                   MOV.L       @(52,R15),R3
    000006B6 0436                   MOV.L       R3,@(R0,R4)
      ClassParti   202    AllElem[17] = Player1_0_17;
    000006B8 53F2                   MOV.L       @(8,R15),R3
    000006BA E044                   MOV         #68,R0
      ClassParti   203    
      ClassParti   204                    return AllElem;
    000006BC A0DE                   BRA         L635
    000006BE 0436                   MOV.L       R3,@(R0,R4)
    000006C0              L585:                             
      ClassParti   205    }




SH SERIES C/C++ Compiler (Ver. 6.0C)                                                                 12-Apr-2021 13:38:38  PAGE   20


SCT OFFSET   CODE       C LABEL     INSTRUCTION OPERAND    COMMENT

      ClassParti   206    
      ClassParti   207            if (Scene == 1) {
    000006C0 6053                   MOV         R5,R0
    000006C2 8801                   CMP/EQ      #1,R0
    000006C4 8901                   BT          L645
    000006C6 A0DB                   BRA         L596
    000006C8 0009                   NOP
    000006CA              L645:                             
      ClassParti   208                    Component * c1_0_BoxCollider0= new BoxCollider();
    000006CA 4B0B                   JSR         @R11
    000006CC E400                   MOV         #0,R4
    000006CE 1F02                   MOV.L       R0,@(8,R15)
      ClassParti   209    Component **Default1Compo1_0= new Component *[1];
    000006D0 4D0B                   JSR         @R13
    000006D2 E404                   MOV         #4,R4
      ClassParti   210    Default1Compo1_0[0]= c1_0_BoxCollider0;
    000006D4 53F2                   MOV.L       @(8,R15),R3
      ClassParti   211    
      ClassParti   212    GameObject *Default1_1_0= new GameObject(this,TerrainIvC1,17,49,16,16,"Default1","Environnement",Default1C
                         +ompo1_0,1);
    000006D6 E231                   MOV         #49,R2
    000006D8 D69A                   MOV.L       L644+22,R6 ; __$TerrainIvC1
    000006DA 65C3                   MOV         R12,R5
    000006DC D997                   MOV.L       L644+14,R9 ; L402
    000006DE E711                   MOV         #17,R7
    000006E0 6403                   MOV         R0,R4
    000006E2 2432                   MOV.L       R3,@R4
    000006E4 2FA6                   MOV.L       R10,@-R15
    000006E6 2F46                   MOV.L       R4,@-R15
    000006E8 2F96                   MOV.L       R9,@-R15
    000006EA D395                   MOV.L       L644+18,R3 ; L401
    000006EC 2F36                   MOV.L       R3,@-R15
    000006EE 2FE6                   MOV.L       R14,@-R15
    000006F0 2FE6                   MOV.L       R14,@-R15
    000006F2 2F26                   MOV.L       R2,@-R15
    000006F4 B0E0                   BSR         ___ct__10GameObjectFP12SceneManagerPCUciN33PCcT7PP9ComponentT3
    000006F6 E400                   MOV         #0,R4
    000006F8 1F09                   MOV.L       R0,@(36,R15)
      ClassParti   213    
      ClassParti   214                    Component * c1_1_BoxCollider0= new BoxCollider();
    000006FA 4B0B                   JSR         @R11
    000006FC E400                   MOV         #0,R4
    000006FE 1F08                   MOV.L       R0,@(32,R15)
      ClassParti   215    Component **Default31Compo1_1= new Component *[1];
    00000700 4D0B                   JSR         @R13
    00000702 E404                   MOV         #4,R4
      ClassParti   216    Default31Compo1_1[0]= c1_1_BoxCollider0;
    00000704 53F8                   MOV.L       @(32,R15),R3
      ClassParti   217    
      ClassParti   218    GameObject *Default31_1_1= new GameObject(this,TerrainIvC2,32,49,16,16,"Default31","Default",Default31Comp
                         +o1_1,1);
    00000706 E720                   MOV         #32,R7
    00000708 D691                   MOV.L       L644+34,R6 ; __$TerrainIvC2
    0000070A 65C3                   MOV         R12,R5
    0000070C D28F                   MOV.L       L644+30,R2 ; L441
    0000070E 6403                   MOV         R0,R4
    00000710 2432                   MOV.L       R3,@R4




SH SERIES C/C++ Compiler (Ver. 6.0C)                                                                 12-Apr-2021 13:38:38  PAGE   21


SCT OFFSET   CODE       C LABEL     INSTRUCTION OPERAND    COMMENT

    00000712 2FA6                   MOV.L       R10,@-R15
    00000714 2F46                   MOV.L       R4,@-R15
    00000716 D38C                   MOV.L       L644+26,R3 ; L398
    00000718 1F3A                   MOV.L       R3,@(40,R15)
    0000071A 2F36                   MOV.L       R3,@-R15
    0000071C 2F26                   MOV.L       R2,@-R15
    0000071E E331                   MOV         #49,R3
    00000720 2FE6                   MOV.L       R14,@-R15
    00000722 2FE6                   MOV.L       R14,@-R15
    00000724 2F36                   MOV.L       R3,@-R15
    00000726 B0C7                   BSR         ___ct__10GameObjectFP12SceneManagerPCUciN33PCcT7PP9ComponentT3
    00000728 E400                   MOV         #0,R4
    0000072A 61F3                   MOV         R15,R1
    0000072C 7160                   ADD         #96,R1
    0000072E 2102                   MOV.L       R0,@R1
      ClassParti   219    
      ClassParti   220                    Component * c1_2_BoxCollider0= new BoxCollider();
    00000730 4B0B                   JSR         @R11
    00000732 E400                   MOV         #0,R4
    00000734 61F3                   MOV         R15,R1
    00000736 714C                   ADD         #76,R1
    00000738 2102                   MOV.L       R0,@R1
      ClassParti   221    Component **Default41Compo1_2= new Component *[1];
    0000073A 4D0B                   JSR         @R13
    0000073C E404                   MOV         #4,R4
    0000073E 6403                   MOV         R0,R4
      ClassParti   222    Default41Compo1_2[0]= c1_2_BoxCollider0;
      ClassParti   223    
      ClassParti   224    GameObject *Default41_1_2= new GameObject(this,TerrainIvC3,47,49,16,16,"Default41","Default",Default41Comp
                         +o1_2,1);
    00000740 D284                   MOV.L       L644+38,R2 ; L442
    00000742 E72F                   MOV         #47,R7
    00000744 D684                   MOV.L       L644+42,R6 ; __$TerrainIvC3
    00000746 65C3                   MOV         R12,R5
    00000748 E04C                   MOV         #76,R0
    0000074A 03FE                   MOV.L       @(R0,R15),R3
    0000074C 2432                   MOV.L       R3,@R4
    0000074E E044                   MOV         #68,R0
    00000750 2FA6                   MOV.L       R10,@-R15
    00000752 2F46                   MOV.L       R4,@-R15
    00000754 03FE                   MOV.L       @(R0,R15),R3
    00000756 2F36                   MOV.L       R3,@-R15
    00000758 2F26                   MOV.L       R2,@-R15
    0000075A E331                   MOV         #49,R3
    0000075C 2FE6                   MOV.L       R14,@-R15
    0000075E 2FE6                   MOV.L       R14,@-R15
    00000760 2F36                   MOV.L       R3,@-R15
    00000762 B0A9                   BSR         ___ct__10GameObjectFP12SceneManagerPCUciN33PCcT7PP9ComponentT3
    00000764 E400                   MOV         #0,R4
    00000766 61F3                   MOV         R15,R1
    00000768 7168                   ADD         #104,R1
    0000076A 2102                   MOV.L       R0,@R1
      ClassParti   225    
      ClassParti   226                    Component * c1_3_BoxCollider0= new BoxCollider();
    0000076C 4B0B                   JSR         @R11
    0000076E E400                   MOV         #0,R4
      ClassParti   227    Component * c1_3_Rigidbody1= new Rigidbody();




SH SERIES C/C++ Compiler (Ver. 6.0C)                                                                 12-Apr-2021 13:38:38  PAGE   22


SCT OFFSET   CODE       C LABEL     INSTRUCTION OPERAND    COMMENT

    00000770 D37A                   MOV.L       L644+46,R3 ; ___ct__9RigidbodyFv
    00000772 61F3                   MOV         R15,R1
    00000774 7170                   ADD         #112,R1
    00000776 2102                   MOV.L       R0,@R1
    00000778 430B                   JSR         @R3
    0000077A E400                   MOV         #0,R4
      ClassParti   228    Component * c1_3_CharacterController2= new CharacterController();
    0000077C D378                   MOV.L       L644+50,R3 ; ___ct__19CharacterControllerFv
    0000077E 61F3                   MOV         R15,R1
    00000780 7164                   ADD         #100,R1
    00000782 2102                   MOV.L       R0,@R1
    00000784 430B                   JSR         @R3
    00000786 E400                   MOV         #0,R4
    00000788 61F3                   MOV         R15,R1
    0000078A 7158                   ADD         #88,R1
    0000078C 2102                   MOV.L       R0,@R1
      ClassParti   229    //c1_3_CharacterController2->frame = 0;
      ClassParti   230    Component **Player1Compo1_3= new Component *[3];
    0000078E 4D0B                   JSR         @R13
    00000790 E40C                   MOV         #12,R4
    00000792 6403                   MOV         R0,R4
      ClassParti   231    Player1Compo1_3[0]= c1_3_BoxCollider0;
      ClassParti   232    Player1Compo1_3[1]= c1_3_Rigidbody1;
      ClassParti   233    Player1Compo1_3[2]= c1_3_CharacterController2;
      ClassParti   234    
      ClassParti   235    GameObject *Player1_1_3= new GameObject(this,RunIvC1,17,25,24,24,"Player1","Player",Player1Compo1_3,3);
    00000794 D167                   MOV.L       L644+6,R1  ; L414
    00000796 E711                   MOV         #17,R7
    00000798 D667                   MOV.L       L644+10,R6 ; __$RunIvC1
    0000079A 65C3                   MOV         R12,R5
    0000079C E070                   MOV         #112,R0
    0000079E 03FE                   MOV.L       @(R0,R15),R3
    000007A0 2432                   MOV.L       R3,@R4
    000007A2 E064                   MOV         #100,R0
    000007A4 02FE                   MOV.L       @(R0,R15),R2
    000007A6 E058                   MOV         #88,R0
    000007A8 1421                   MOV.L       R2,@(4,R4)
    000007AA E203                   MOV         #3,R2
    000007AC 03FE                   MOV.L       @(R0,R15),R3
    000007AE 1432                   MOV.L       R3,@(8,R4)
    000007B0 2F26                   MOV.L       R2,@-R15
    000007B2 2F46                   MOV.L       R4,@-R15
    000007B4 D35E                   MOV.L       L644+2,R3  ; L415
    000007B6 2F36                   MOV.L       R3,@-R15
    000007B8 2F16                   MOV.L       R1,@-R15
    000007BA E319                   MOV         #25,R3
    000007BC 2F86                   MOV.L       R8,@-R15
    000007BE 2F86                   MOV.L       R8,@-R15
    000007C0 2F36                   MOV.L       R3,@-R15
    000007C2 B079                   BSR         ___ct__10GameObjectFP12SceneManagerPCUciN33PCcT7PP9ComponentT3
    000007C4 E400                   MOV         #0,R4
    000007C6 7F70                   ADD         #112,R15
    000007C8 1F07                   MOV.L       R0,@(28,R15)
      ClassParti   236    
      ClassParti   237                    Component * c1_4_BoxCollider0= new BoxCollider();
    000007CA 4B0B                   JSR         @R11
    000007CC E400                   MOV         #0,R4




SH SERIES C/C++ Compiler (Ver. 6.0C)                                                                 12-Apr-2021 13:38:38  PAGE   23


SCT OFFSET   CODE       C LABEL     INSTRUCTION OPERAND    COMMENT

    000007CE 1F01                   MOV.L       R0,@(4,R15)
      ClassParti   238    Component **Default11Compo1_4= new Component *[1];
    000007D0 4D0B                   JSR         @R13
    000007D2 E404                   MOV         #4,R4
      ClassParti   239    Default11Compo1_4[0]= c1_4_BoxCollider0;
    000007D4 53F1                   MOV.L       @(4,R15),R3
      ClassParti   240    
      ClassParti   241    GameObject *Default11_1_4= new GameObject(this,TerrainIvC29,62,49,16,16,"Default11","Environnement",Defaul
                         +t11Compo1_4,1);
    000007D6 E231                   MOV         #49,R2
    000007D8 D663                   MOV.L       L644+58,R6 ; __$TerrainIvC29
    000007DA 65C3                   MOV         R12,R5
    000007DC 6403                   MOV         R0,R4
    000007DE E73E                   MOV         #62,R7
    000007E0 2432                   MOV.L       R3,@R4
    000007E2 2FA6                   MOV.L       R10,@-R15
    000007E4 2F46                   MOV.L       R4,@-R15
    000007E6 2F96                   MOV.L       R9,@-R15
    000007E8 D35E                   MOV.L       L644+54,R3 ; L397
    000007EA 2F36                   MOV.L       R3,@-R15
    000007EC 2FE6                   MOV.L       R14,@-R15
    000007EE 2FE6                   MOV.L       R14,@-R15
    000007F0 2F26                   MOV.L       R2,@-R15
    000007F2 B061                   BSR         ___ct__10GameObjectFP12SceneManagerPCUciN33PCcT7PP9ComponentT3
    000007F4 E400                   MOV         #0,R4
    000007F6 1F0B                   MOV.L       R0,@(44,R15)
      ClassParti   242    
      ClassParti   243                    Component * c1_5_BoxCollider0= new BoxCollider();
    000007F8 4B0B                   JSR         @R11
    000007FA E400                   MOV         #0,R4
    000007FC 1F08                   MOV.L       R0,@(32,R15)
      ClassParti   244    Component **Default13Compo1_5= new Component *[1];
    000007FE 4D0B                   JSR         @R13
    00000800 E404                   MOV         #4,R4
    00000802 6403                   MOV         R0,R4
      ClassParti   245    Default13Compo1_5[0]= c1_5_BoxCollider0;
    00000804 53F8                   MOV.L       @(32,R15),R3
      ClassParti   246    
      ClassParti   247    GameObject *Default13_1_5= new GameObject(this,TerrainIvC30,77,49,16,16,"Default13","Environnement",Defaul
                         +t13Compo1_5,1);
    00000806 E231                   MOV         #49,R2
    00000808 D659                   MOV.L       L644+66,R6 ; __$TerrainIvC30
    0000080A 65C3                   MOV         R12,R5
    0000080C 2432                   MOV.L       R3,@R4
    0000080E E74D                   MOV         #77,R7
    00000810 2FA6                   MOV.L       R10,@-R15
    00000812 2F46                   MOV.L       R4,@-R15
    00000814 2F96                   MOV.L       R9,@-R15
    00000816 D355                   MOV.L       L644+62,R3 ; L443
    00000818 2F36                   MOV.L       R3,@-R15
    0000081A 2FE6                   MOV.L       R14,@-R15
    0000081C 2FE6                   MOV.L       R14,@-R15
    0000081E 2F26                   MOV.L       R2,@-R15
    00000820 B04A                   BSR         ___ct__10GameObjectFP12SceneManagerPCUciN33PCcT7PP9ComponentT3
    00000822 E400                   MOV         #0,R4
    00000824 61F3                   MOV         R15,R1
    00000826 7150                   ADD         #80,R1




SH SERIES C/C++ Compiler (Ver. 6.0C)                                                                 12-Apr-2021 13:38:38  PAGE   24


SCT OFFSET   CODE       C LABEL     INSTRUCTION OPERAND    COMMENT

    00000828 2102                   MOV.L       R0,@R1
      ClassParti   248    
      ClassParti   249                    Component * c1_6_BoxCollider0= new BoxCollider();
    0000082A 4B0B                   JSR         @R11
    0000082C E400                   MOV         #0,R4
    0000082E 1F0F                   MOV.L       R0,@(60,R15)
      ClassParti   250    Component **Default14Compo1_6= new Component *[1];
    00000830 4D0B                   JSR         @R13
    00000832 E404                   MOV         #4,R4
      ClassParti   251    Default14Compo1_6[0]= c1_6_BoxCollider0;
    00000834 53FF                   MOV.L       @(60,R15),R3
      ClassParti   252    
      ClassParti   253    GameObject *Default14_1_6= new GameObject(this,TerrainIvC31,92,49,16,16,"Default14","Environnement",Defaul
                         +t14Compo1_6,1);
    00000836 E231                   MOV         #49,R2
    00000838 D64F                   MOV.L       L644+74,R6 ; __$TerrainIvC31
    0000083A 65C3                   MOV         R12,R5
    0000083C 6403                   MOV         R0,R4
    0000083E E75C                   MOV         #92,R7
    00000840 2432                   MOV.L       R3,@R4
    00000842 2FA6                   MOV.L       R10,@-R15
    00000844 2F46                   MOV.L       R4,@-R15
    00000846 2F96                   MOV.L       R9,@-R15
    00000848 D34A                   MOV.L       L644+70,R3 ; L411
    0000084A 2F36                   MOV.L       R3,@-R15
    0000084C 2FE6                   MOV.L       R14,@-R15
    0000084E 2FE6                   MOV.L       R14,@-R15
    00000850 2F26                   MOV.L       R2,@-R15
    00000852 B031                   BSR         ___ct__10GameObjectFP12SceneManagerPCUciN33PCcT7PP9ComponentT3
    00000854 E400                   MOV         #0,R4
    00000856 7F54                   ADD         #84,R15
    00000858 1F01                   MOV.L       R0,@(4,R15)
      ClassParti   254    
      ClassParti   255    
      ClassParti   256                    GameObject **AllElem = new GameObject *[7];
    0000085A 4D0B                   JSR         @R13
    0000085C E41C                   MOV         #28,R4
    0000085E 6403                   MOV         R0,R4
      ClassParti   257    AllElem[0] = Default1_1_0;
    00000860 53F2                   MOV.L       @(8,R15),R3
    00000862 2432                   MOV.L       R3,@R4
      ClassParti   258    AllElem[1] = Default31_1_1;
    00000864 52FA                   MOV.L       @(40,R15),R2
    00000866 1421                   MOV.L       R2,@(4,R4)
      ClassParti   259    AllElem[2] = Default41_1_2;
    00000868 53F5                   MOV.L       @(20,R15),R3
    0000086A 1432                   MOV.L       R3,@(8,R4)
      ClassParti   260    AllElem[3] = Player1_1_3;
    0000086C 52F7                   MOV.L       @(28,R15),R2
    0000086E 1423                   MOV.L       R2,@(12,R4)
      ClassParti   261    AllElem[4] = Default11_1_4;
    00000870 53F4                   MOV.L       @(16,R15),R3
    00000872 1434                   MOV.L       R3,@(16,R4)
      ClassParti   262    AllElem[5] = Default13_1_5;
    00000874 52F6                   MOV.L       @(24,R15),R2
    00000876 1425                   MOV.L       R2,@(20,R4)
      ClassParti   263    AllElem[6] = Default14_1_6;




SH SERIES C/C++ Compiler (Ver. 6.0C)                                                                 12-Apr-2021 13:38:38  PAGE   25


SCT OFFSET   CODE       C LABEL     INSTRUCTION OPERAND    COMMENT

    00000878 53F1                   MOV.L       @(4,R15),R3
    0000087A 1436                   MOV.L       R3,@(24,R4)
      ClassParti   264    
      ClassParti   265                    return AllElem;
    0000087C              L635:                             
    0000087C A002                   BRA         L595
    0000087E 6043                   MOV         R4,R0
    00000880              L596:                             
      ClassParti   266    }
      ClassParti   267        return new GameObject * [0];
    00000880 4D0B                   JSR         @R13
    00000882 E400                   MOV         #0,R4
      ClassParti   268    }
    00000884              L595:                             
    00000884 7F54                   ADD         #84,R15
    00000886 4F26                   LDS.L       @R15+,PR
    00000888 68F6                   MOV.L       @R15+,R8
    0000088A 69F6                   MOV.L       @R15+,R9
    0000088C 6AF6                   MOV.L       @R15+,R10
    0000088E 6BF6                   MOV.L       @R15+,R11
    00000890 6CF6                   MOV.L       @R15+,R12
    00000892 6DF6                   MOV.L       @R15+,R13
    00000894 000B                   RTS
    00000896 6EF6                   MOV.L       @R15+,R14
      ClassParti   269    int SceneManager::LenOfAllElem(int Scene) {
    00000898              _LenOfAllElem__12SceneManagerFi: ; function: SceneManager::LenOfAllElem(int)
                                                           ; frame size=0
      ClassParti   270            if (Scene == 0)
    00000898 2558                   TST         R5,R5
    0000089A 8B01                   BF          L597
      ClassParti   271                    return 18;
    0000089C 000B                   RTS
    0000089E E012                   MOV         #18,R0
    000008A0              L597:                             
      ClassParti   272    
      ClassParti   273            if (Scene == 1)
    000008A0 6053                   MOV         R5,R0
    000008A2 8801                   CMP/EQ      #1,R0
    000008A4 8B01                   BF          L599
      ClassParti   274                    return 7;
    000008A6 000B                   RTS
    000008A8 E007                   MOV         #7,R0
    000008AA              L599:                             
      ClassParti   275        return 0;
    000008AA E000                   MOV         #0,R0
      ClassParti   276    }
    000008AC              L598:                             
    000008AC 000B                   RTS
    000008AE 0009                   NOP
      ClassParti   277    BoxCollider::BoxCollider(){
      ClassParti   278    classType=0;
      ClassParti   279    }
      ClassParti   280    
      ClassParti   281    void BoxCollider::OnUpdate(){
      ClassParti   282    if (true){/*((gameObject->x < gameObject->Scene->AllElem[2]->x + gameObject->Scene->AllElem[2]->gameObject
                         +->Scene->AllElem[2]->w &&
      ClassParti   283        gameObject->x + gameObject->gameObject->Scene->AllElem[2]->w > gameObject->Scene->AllElem[2]->x &&




SH SERIES C/C++ Compiler (Ver. 6.0C)                                                                 12-Apr-2021 13:38:38  PAGE   26


SCT OFFSET   CODE       C LABEL     INSTRUCTION OPERAND    COMMENT

      ClassParti   284        gameObject->y < gameObject->Scene->AllElem[2]->y + gameObject->Scene->AllElem[2]->h &&
      ClassParti   285        gameObject->h + gameObject->y > gameObject->Scene->AllElem[2]->y)){
      ClassParti   286    gameObject->x=gameObject->Scene->AllElem[2]->x;*/
      ClassParti   287    
      ClassParti   288    }
      ClassParti   289    
      ClassParti   290    }
      ClassParti   291    
      ClassParti   292    void BoxCollider::OnStart(){
      ClassParti   293    
      ClassParti   294    }
      ClassParti   295    Rigidbody::Rigidbody(){
      ClassParti   296    classType=1;
      ClassParti   297    }
      ClassParti   298    
      ClassParti   299    void Rigidbody::OnStart(){
      ClassParti   300    
      ClassParti   301    }
      ClassParti   302    
      ClassParti   303    void Rigidbody::OnUpdate(){
      ClassParti   304    
      ClassParti   305    }
      ClassParti   306    CharacterController::CharacterController(){
      ClassParti   307    classType=2;
      ClassParti   308    }
      ClassParti   309    
      ClassParti   310    void CharacterController::OnUpdate(){
      ClassParti   311    gameObject->Scene->CamX=((gameObject->x)-53);gameObject->Scene->CamY=((gameObject->y)-31);
      ClassParti   312    if (((frame)>(1))){
      ClassParti   313    frame=(0);
      ClassParti   314    
      ClassParti   315    }
      ClassParti   316    if (IsKeyDown(KEY_CTRL_RIGHT)){
      ClassParti   317    if (((frame)==(0))){
      ClassParti   318    gameObject->Img=(unsigned char*)RunIvC1;
      ClassParti   319    
      ClassParti   320    }else {gameObject->Img=(unsigned char*)I2;
      ClassParti   321    
      ClassParti   322    }
      ClassParti   323    frame+=(1);
      ClassParti   324    gameObject->x+=vitesse;
      ClassParti   325    
      ClassParti   326    }else {if (IsKeyDown(KEY_CTRL_LEFT)){
      ClassParti   327    if (((frame)==(0))){
      ClassParti   328    gameObject->Img=(unsigned char*)I3;
      ClassParti   329    
      ClassParti   330    }else {gameObject->Img=(unsigned char*)I4;
      ClassParti   331    
      ClassParti   332    }
      ClassParti   333    frame+=(1);
      ClassParti   334    gameObject->x+=(0-vitesse);
      ClassParti   335    
      ClassParti   336    }
      ClassParti   337    
      ClassParti   338    }
      ClassParti   339    
      ClassParti   340    }




SH SERIES C/C++ Compiler (Ver. 6.0C)                                                                 12-Apr-2021 13:38:38  PAGE   27


SCT OFFSET   CODE       C LABEL     INSTRUCTION OPERAND    COMMENT

      ClassParti   341    
      ClassParti   342    void CharacterController::OnStart(){
      ClassParti   343    frame=(0);
      ClassParti   344    vitesse=(3);
      ClassParti   345    
      ClassParti   346    }
      ClassParti   347    TestCompilation::TestCompilation(){
      ClassParti   348    classType=3;
      ClassParti   349    }
      ClassParti   350    
      ClassParti   351    void TestCompilation::OnStart(){
      ClassParti   352    
      ClassParti   353    }
      ClassParti   354    
      ClassParti   355    void TestCompilation::OnUpdate(){
      ClassParti   356    
      ClassParti   357    }
    000008B0              __$OnStart__9ComponentFv:        ; function: Component::OnStart()
                                                           ; frame size=0
    000008B0 000B                   RTS
    000008B2 0009                   NOP
    000008B4              __$OnUpdate__9ComponentFv:       ; function: Component::OnUpdate()
                                                           ; frame size=0
    000008B4 000B                   RTS
    000008B6 0009                   NOP
    000008B8              ___ct__10GameObjectFP12SceneManagerPCUciN33PCcT7PP9ComponentT3:
                                                           ; function: GameObject::GameObject(SceneManager *, const unsigned char *,
                        +                                   int, int, int, int, const char *, const char *, Component **, int)
                                                           ; frame size=20
    000008B8 4F22                   STS.L       PR,@-R15
    000008BA 7FF0                   ADD         #-16,R15
    000008BC 2F42                   MOV.L       R4,@R15
    000008BE 1F51                   MOV.L       R5,@(4,R15)
    000008C0 1F63                   MOV.L       R6,@(12,R15)
    000008C2 1F72                   MOV.L       R7,@(8,R15)
    000008C4 63F2                   MOV.L       @R15,R3
    000008C6 2338                   TST         R3,R3
    000008C8 8B05                   BF          L603
    000008CA D32C                   MOV.L       L644+78,R3 ; ___nw__FUl
    000008CC 430B                   JSR         @R3
    000008CE E434                   MOV         #52,R4
    000008D0 2008                   TST         R0,R0
    000008D2 8D27                   BT/S        L602
    000008D4 2F02                   MOV.L       R0,@R15
    000008D6              L603:                             
    000008D6 62F2                   MOV.L       @R15,R2
    000008D8 53F3                   MOV.L       @(12,R15),R3
    000008DA 2232                   MOV.L       R3,@R2
    000008DC 62F2                   MOV.L       @R15,R2
    000008DE 53F8                   MOV.L       @(32,R15),R3
    000008E0 1232                   MOV.L       R3,@(8,R2)
    000008E2 62F2                   MOV.L       @R15,R2
    000008E4 53F9                   MOV.L       @(36,R15),R3
    000008E6 1231                   MOV.L       R3,@(4,R2)
    000008E8 62F2                   MOV.L       @R15,R2
    000008EA E301                   MOV         #1,R3
    000008EC 1233                   MOV.L       R3,@(12,R2)




SH SERIES C/C++ Compiler (Ver. 6.0C)                                                                 12-Apr-2021 13:38:38  PAGE   28


SCT OFFSET   CODE       C LABEL     INSTRUCTION OPERAND    COMMENT

    000008EE E364                   MOV         #100,R3
    000008F0 62F2                   MOV.L       @R15,R2
    000008F2 1234                   MOV.L       R3,@(16,R2)
    000008F4 62F2                   MOV.L       @R15,R2
    000008F6 E35A                   MOV         #90,R3
    000008F8 1235                   MOV.L       R3,@(20,R2)
    000008FA 62F2                   MOV.L       @R15,R2
    000008FC 53F2                   MOV.L       @(8,R15),R3
    000008FE 1236                   MOV.L       R3,@(24,R2)
    00000900 62F2                   MOV.L       @R15,R2
    00000902 53F5                   MOV.L       @(20,R15),R3
    00000904 1237                   MOV.L       R3,@(28,R2)
    00000906 62F2                   MOV.L       @R15,R2
    00000908 53F6                   MOV.L       @(24,R15),R3
    0000090A 1238                   MOV.L       R3,@(32,R2)
    0000090C 62F2                   MOV.L       @R15,R2
    0000090E 53F7                   MOV.L       @(28,R15),R3
    00000910 1239                   MOV.L       R3,@(36,R2)
    00000912 62F2                   MOV.L       @R15,R2
    00000914 53FB                   MOV.L       @(44,R15),R3
    00000916 123B                   MOV.L       R3,@(44,R2)
    00000918 62F2                   MOV.L       @R15,R2
    0000091A 53FA                   MOV.L       @(40,R15),R3
    0000091C 123C                   MOV.L       R3,@(48,R2)
    0000091E 62F2                   MOV.L       @R15,R2
    00000920 53F1                   MOV.L       @(4,R15),R3
    00000922 123A                   MOV.L       R3,@(40,R2)
    00000924              L602:                             
    00000924 60F2                   MOV.L       @R15,R0
    00000926 7F10                   ADD         #16,R15
    00000928 4F26                   LDS.L       @R15+,PR
    0000092A 000B                   RTS
    0000092C 0009                   NOP
    0000092E              L644:                             
    0000092E 0000                   .DATA.W     0
    00000930 <00000000>             .DATA.L     L415
    00000934 <00000000>             .DATA.L     L414
    00000938 <00000000>             .DATA.L     __$RunIvC1
    0000093C <00000000>             .DATA.L     L402
    00000940 <00000000>             .DATA.L     L401
    00000944 <00000000>             .DATA.L     __$TerrainIvC1
    00000948 <00000000>             .DATA.L     L398
    0000094C <00000000>             .DATA.L     L441
    00000950 <00000000>             .DATA.L     __$TerrainIvC2
    00000954 <00000000>             .DATA.L     L442
    00000958 <00000000>             .DATA.L     __$TerrainIvC3
    0000095C <00000000>             .DATA.L     ___ct__9RigidbodyFv
    00000960 <00000000>             .DATA.L     ___ct__19CharacterControllerFv
    00000964 <00000000>             .DATA.L     L397
    00000968 <00000000>             .DATA.L     __$TerrainIvC29
    0000096C <00000000>             .DATA.L     L443
    00000970 <00000000>             .DATA.L     __$TerrainIvC30
    00000974 <00000000>             .DATA.L     L411
    00000978 <00000000>             .DATA.L     __$TerrainIvC31
    0000097C <00000000>             .DATA.L     ___nw__FUl
    00000980              _afficher__10GameObjectFiT1:     ; function: GameObject::afficher(int, int)
                                                           ; frame size=20




SH SERIES C/C++ Compiler (Ver. 6.0C)                                                                 12-Apr-2021 13:38:38  PAGE   29


SCT OFFSET   CODE       C LABEL     INSTRUCTION OPERAND    COMMENT

    00000980 2FE6                   MOV.L       R14,@-R15
    00000982 6E43                   MOV         R4,R14
    00000984 4F22                   STS.L       PR,@-R15
    00000986 7FF8                   ADD         #-8,R15
    00000988 2F52                   MOV.L       R5,@R15
    0000098A 1F61                   MOV.L       R6,@(4,R15)
    0000098C 53E9                   MOV.L       @(36,R14),R3
    0000098E 2F36                   MOV.L       R3,@-R15
    00000990 57E8                   MOV.L       @(32,R14),R7
    00000992 53F2                   MOV.L       @(8,R15),R3
    00000994 56E7                   MOV.L       @(28,R14),R6
    00000996 3638                   SUB         R3,R6
    00000998 53F1                   MOV.L       @(4,R15),R3
    0000099A 55E6                   MOV.L       @(24,R14),R5
    0000099C 3538                   SUB         R3,R5
    0000099E D366                   MOV.L       L646+2,R3  ; _ML_bmp_or_cl
    000009A0 430B                   JSR         @R3
    000009A2 64E2                   MOV.L       @R14,R4
    000009A4 7F0C                   ADD         #12,R15
    000009A6 4F26                   LDS.L       @R15+,PR
    000009A8 000B                   RTS
    000009AA 6EF6                   MOV.L       @R15+,R14
    000009AC              ___ct__11BoxColliderFv:          ; function: BoxCollider::BoxCollider()
                                                           ; frame size=8
    000009AC 4F22                   STS.L       PR,@-R15
    000009AE 6343                   MOV         R4,R3
    000009B0 7FFC                   ADD         #-4,R15
    000009B2 2338                   TST         R3,R3
    000009B4 8F06                   BF/S        L607
    000009B6 2F42                   MOV.L       R4,@R15
    000009B8 D360                   MOV.L       L646+6,R3  ; ___nw__FUl
    000009BA 430B                   JSR         @R3
    000009BC E40C                   MOV         #12,R4
    000009BE 2008                   TST         R0,R0
    000009C0 8D09                   BT/S        L606
    000009C2 2F02                   MOV.L       R0,@R15
    000009C4              L607:                             
    000009C4 62F2                   MOV.L       @R15,R2
    000009C6 D35E                   MOV.L       L646+10,R3 ; __$__vtbl__9Component
    000009C8 1232                   MOV.L       R3,@(8,R2)
    000009CA 62F2                   MOV.L       @R15,R2
    000009CC D35D                   MOV.L       L646+14,R3 ; ___vtbl__11BoxCollider
    000009CE 1232                   MOV.L       R3,@(8,R2)
    000009D0 62F2                   MOV.L       @R15,R2
    000009D2 E300                   MOV         #0,R3
    000009D4 1231                   MOV.L       R3,@(4,R2)
    000009D6              L606:                             
    000009D6 60F2                   MOV.L       @R15,R0
    000009D8 7F04                   ADD         #4,R15
    000009DA 4F26                   LDS.L       @R15+,PR
    000009DC 000B                   RTS
    000009DE 0009                   NOP
    000009E0              _OnUpdate__11BoxColliderFv:      ; function: BoxCollider::OnUpdate()
                                                           ; frame size=0
    000009E0 000B                   RTS
    000009E2 0009                   NOP
    000009E4              _OnStart__11BoxColliderFv:       ; function: BoxCollider::OnStart()




SH SERIES C/C++ Compiler (Ver. 6.0C)                                                                 12-Apr-2021 13:38:38  PAGE   30


SCT OFFSET   CODE       C LABEL     INSTRUCTION OPERAND    COMMENT

                                                           ; frame size=0
    000009E4 000B                   RTS
    000009E6 0009                   NOP
    000009E8              ___ct__9RigidbodyFv:             ; function: Rigidbody::Rigidbody()
                                                           ; frame size=8
    000009E8 4F22                   STS.L       PR,@-R15
    000009EA 6343                   MOV         R4,R3
    000009EC 7FFC                   ADD         #-4,R15
    000009EE 2338                   TST         R3,R3
    000009F0 8F06                   BF/S        L613
    000009F2 2F42                   MOV.L       R4,@R15
    000009F4 D351                   MOV.L       L646+6,R3  ; ___nw__FUl
    000009F6 430B                   JSR         @R3
    000009F8 E40C                   MOV         #12,R4
    000009FA 2008                   TST         R0,R0
    000009FC 8D09                   BT/S        L612
    000009FE 2F02                   MOV.L       R0,@R15
    00000A00              L613:                             
    00000A00 62F2                   MOV.L       @R15,R2
    00000A02 D34F                   MOV.L       L646+10,R3 ; __$__vtbl__9Component
    00000A04 1232                   MOV.L       R3,@(8,R2)
    00000A06 62F2                   MOV.L       @R15,R2
    00000A08 D34F                   MOV.L       L646+18,R3 ; ___vtbl__9Rigidbody
    00000A0A 1232                   MOV.L       R3,@(8,R2)
    00000A0C 62F2                   MOV.L       @R15,R2
    00000A0E E301                   MOV         #1,R3
    00000A10 1231                   MOV.L       R3,@(4,R2)
    00000A12              L612:                             
    00000A12 60F2                   MOV.L       @R15,R0
    00000A14 7F04                   ADD         #4,R15
    00000A16 4F26                   LDS.L       @R15+,PR
    00000A18 000B                   RTS
    00000A1A 0009                   NOP
    00000A1C              _OnStart__9RigidbodyFv:          ; function: Rigidbody::OnStart()
                                                           ; frame size=0
    00000A1C 000B                   RTS
    00000A1E 0009                   NOP
    00000A20              _OnUpdate__9RigidbodyFv:         ; function: Rigidbody::OnUpdate()
                                                           ; frame size=0
    00000A20 000B                   RTS
    00000A22 0009                   NOP
    00000A24              ___ct__19CharacterControllerFv:  ; function: CharacterController::CharacterController()
                                                           ; frame size=8
    00000A24 4F22                   STS.L       PR,@-R15
    00000A26 6343                   MOV         R4,R3
    00000A28 7FFC                   ADD         #-4,R15
    00000A2A 2338                   TST         R3,R3
    00000A2C 8F06                   BF/S        L618
    00000A2E 2F42                   MOV.L       R4,@R15
    00000A30 D342                   MOV.L       L646+6,R3  ; ___nw__FUl
    00000A32 430B                   JSR         @R3
    00000A34 E414                   MOV         #20,R4
    00000A36 2008                   TST         R0,R0
    00000A38 8D09                   BT/S        L617
    00000A3A 2F02                   MOV.L       R0,@R15
    00000A3C              L618:                             
    00000A3C 62F2                   MOV.L       @R15,R2




SH SERIES C/C++ Compiler (Ver. 6.0C)                                                                 12-Apr-2021 13:38:38  PAGE   31


SCT OFFSET   CODE       C LABEL     INSTRUCTION OPERAND    COMMENT

    00000A3E D340                   MOV.L       L646+10,R3 ; __$__vtbl__9Component
    00000A40 1232                   MOV.L       R3,@(8,R2)
    00000A42 62F2                   MOV.L       @R15,R2
    00000A44 D341                   MOV.L       L646+22,R3 ; ___vtbl__19CharacterController
    00000A46 1232                   MOV.L       R3,@(8,R2)
    00000A48 62F2                   MOV.L       @R15,R2
    00000A4A E302                   MOV         #2,R3
    00000A4C 1231                   MOV.L       R3,@(4,R2)
    00000A4E              L617:                             
    00000A4E 60F2                   MOV.L       @R15,R0
    00000A50 7F04                   ADD         #4,R15
    00000A52 4F26                   LDS.L       @R15+,PR
    00000A54 000B                   RTS
    00000A56 0009                   NOP
    00000A58              _OnUpdate__19CharacterControllerFv:
                                                           ; function: CharacterController::OnUpdate()
                                                           ; frame size=8
    00000A58 2FE6                   MOV.L       R14,@-R15
    00000A5A 6E43                   MOV         R4,R14
    00000A5C 4F22                   STS.L       PR,@-R15
    00000A5E 64E2                   MOV.L       @R14,R4
    00000A60 534A                   MOV.L       @(40,R4),R3
    00000A62 5246                   MOV.L       @(24,R4),R2
    00000A64 72CB                   ADD         #-53,R2
    00000A66 1322                   MOV.L       R2,@(8,R3)
    00000A68 64E2                   MOV.L       @R14,R4
    00000A6A 534A                   MOV.L       @(40,R4),R3
    00000A6C 5247                   MOV.L       @(28,R4),R2
    00000A6E 72E1                   ADD         #-31,R2
    00000A70 1323                   MOV.L       R2,@(12,R3)
    00000A72 E301                   MOV         #1,R3
    00000A74 51E4                   MOV.L       @(16,R14),R1
    00000A76 3137                   CMP/GT      R3,R1
    00000A78 8F02                   BF/S        L620
    00000A7A E41B                   MOV         #27,R4
    00000A7C E000                   MOV         #0,R0
    00000A7E 1E04                   MOV.L       R0,@(16,R14)
    00000A80              L620:                             
    00000A80 D333                   MOV.L       L646+26,R3 ; _KeyDown
    00000A82 430B                   JSR         @R3
    00000A84 0009                   NOP
    00000A86 600C                   EXTU.B      R0,R0
    00000A88 2008                   TST         R0,R0
    00000A8A 8915                   BT          L621
    00000A8C 53E4                   MOV.L       @(16,R14),R3
    00000A8E 2338                   TST         R3,R3
    00000A90 8B04                   BF          L622
    00000A92 63E2                   MOV.L       @R14,R3
    00000A94 D22F                   MOV.L       L646+30,R2 ; __$RunIvC1
    00000A96 2322                   MOV.L       R2,@R3
    00000A98 A003                   BRA         L623
    00000A9A 0009                   NOP
    00000A9C              L622:                             
    00000A9C 61E2                   MOV.L       @R14,R1
    00000A9E D32E                   MOV.L       L646+34,R3 ; __$I2
    00000AA0 2132                   MOV.L       R3,@R1
    00000AA2              L623:                             




SH SERIES C/C++ Compiler (Ver. 6.0C)                                                                 12-Apr-2021 13:38:38  PAGE   32


SCT OFFSET   CODE       C LABEL     INSTRUCTION OPERAND    COMMENT

    00000AA2 52E4                   MOV.L       @(16,R14),R2
    00000AA4 7201                   ADD         #1,R2
    00000AA6 1E24                   MOV.L       R2,@(16,R14)
    00000AA8 63E2                   MOV.L       @R14,R3
    00000AAA 52E3                   MOV.L       @(12,R14),R2
    00000AAC 5136                   MOV.L       @(24,R3),R1
    00000AAE 312C                   ADD         R2,R1
    00000AB0 1316                   MOV.L       R1,@(24,R3)
    00000AB2 4F26                   LDS.L       @R15+,PR
    00000AB4 000B                   RTS
    00000AB6 6EF6                   MOV.L       @R15+,R14
    00000AB8              L621:                             
    00000AB8 D225                   MOV.L       L646+26,R2 ; _KeyDown
    00000ABA 420B                   JSR         @R2
    00000ABC E426                   MOV         #38,R4
    00000ABE 600C                   EXTU.B      R0,R0
    00000AC0 2008                   TST         R0,R0
    00000AC2 8912                   BT          L628
    00000AC4 52E4                   MOV.L       @(16,R14),R2
    00000AC6 2228                   TST         R2,R2
    00000AC8 8B04                   BF          L626
    00000ACA 63E2                   MOV.L       @R14,R3
    00000ACC D223                   MOV.L       L646+38,R2 ; __$I3
    00000ACE 2322                   MOV.L       R2,@R3
    00000AD0 A003                   BRA         L627
    00000AD2 0009                   NOP
    00000AD4              L626:                             
    00000AD4 61E2                   MOV.L       @R14,R1
    00000AD6 D322                   MOV.L       L646+42,R3 ; __$I4
    00000AD8 2132                   MOV.L       R3,@R1
    00000ADA              L627:                             
    00000ADA 52E4                   MOV.L       @(16,R14),R2
    00000ADC 7201                   ADD         #1,R2
    00000ADE 1E24                   MOV.L       R2,@(16,R14)
    00000AE0 63E2                   MOV.L       @R14,R3
    00000AE2 52E3                   MOV.L       @(12,R14),R2
    00000AE4 5136                   MOV.L       @(24,R3),R1
    00000AE6 3128                   SUB         R2,R1
    00000AE8 1316                   MOV.L       R1,@(24,R3)
    00000AEA              L628:                             
    00000AEA 4F26                   LDS.L       @R15+,PR
    00000AEC 000B                   RTS
    00000AEE 6EF6                   MOV.L       @R15+,R14
    00000AF0              _OnStart__19CharacterControllerFv:
                                                           ; function: CharacterController::OnStart()
                                                           ; frame size=0
    00000AF0 E300                   MOV         #0,R3
    00000AF2 E203                   MOV         #3,R2
    00000AF4 1434                   MOV.L       R3,@(16,R4)
    00000AF6 000B                   RTS
    00000AF8 1423                   MOV.L       R2,@(12,R4)
    00000AFA              ___ct__15TestCompilationFv:      ; function: TestCompilation::TestCompilation()
                                                           ; frame size=8
    00000AFA 6343                   MOV         R4,R3
    00000AFC 4F22                   STS.L       PR,@-R15
    00000AFE 2338                   TST         R3,R3
    00000B00 7FFC                   ADD         #-4,R15




SH SERIES C/C++ Compiler (Ver. 6.0C)                                                                 12-Apr-2021 13:38:38  PAGE   33


SCT OFFSET   CODE       C LABEL     INSTRUCTION OPERAND    COMMENT

    00000B02 8F06                   BF/S        L631
    00000B04 2F42                   MOV.L       R4,@R15
    00000B06 D30D                   MOV.L       L646+6,R3  ; ___nw__FUl
    00000B08 430B                   JSR         @R3
    00000B0A E40C                   MOV         #12,R4
    00000B0C 2008                   TST         R0,R0
    00000B0E 8D09                   BT/S        L630
    00000B10 2F02                   MOV.L       R0,@R15
    00000B12              L631:                             
    00000B12 62F2                   MOV.L       @R15,R2
    00000B14 D30A                   MOV.L       L646+10,R3 ; __$__vtbl__9Component
    00000B16 1232                   MOV.L       R3,@(8,R2)
    00000B18 62F2                   MOV.L       @R15,R2
    00000B1A D312                   MOV.L       L646+46,R3 ; ___vtbl__15TestCompilation
    00000B1C 1232                   MOV.L       R3,@(8,R2)
    00000B1E E303                   MOV         #3,R3
    00000B20 62F2                   MOV.L       @R15,R2
    00000B22 1231                   MOV.L       R3,@(4,R2)
    00000B24              L630:                             
    00000B24 60F2                   MOV.L       @R15,R0
    00000B26 7F04                   ADD         #4,R15
    00000B28 4F26                   LDS.L       @R15+,PR
    00000B2A 000B                   RTS
    00000B2C 0009                   NOP
    00000B2E              _OnStart__15TestCompilationFv:   ; function: TestCompilation::OnStart()
                                                           ; frame size=0
    00000B2E 000B                   RTS
    00000B30 0009                   NOP
    00000B32              _OnUpdate__15TestCompilationFv:  ; function: TestCompilation::OnUpdate()
                                                           ; frame size=0
    00000B32 000B                   RTS
    00000B34 0009                   NOP
    00000B36              L646:                             
    00000B36 0000                   .DATA.W     0
    00000B38 <00000000>             .DATA.L     _ML_bmp_or_cl
    00000B3C <00000000>             .DATA.L     ___nw__FUl
    00000B40 <00000000>             .DATA.L     __$__vtbl__9Component
    00000B44 <00000000>             .DATA.L     ___vtbl__11BoxCollider
    00000B48 <00000000>             .DATA.L     ___vtbl__9Rigidbody
    00000B4C <00000000>             .DATA.L     ___vtbl__19CharacterController
    00000B50 <00000000>             .DATA.L     _KeyDown
    00000B54 <00000000>             .DATA.L     __$RunIvC1
    00000B58 <00000000>             .DATA.L     __$I2
    00000B5C <00000000>             .DATA.L     __$I3
    00000B60 <00000000>             .DATA.L     __$I4
    00000B64 <00000000>             .DATA.L     ___vtbl__15TestCompilation
D   00000000              __$__T30041592:                  ; static: __T30041592
    00000000 <00000000>             .DATA.L     __$__T_9Component
    00000004 00000000               .DATA.L     H'00000000
    00000008 16                     .DATA.B     H'16
    00000009 0000000301             .DATAB.B    3,0
             00           
    0000000C              __$__T30043148:                  ; static: __T30043148
    0000000C <00000000>             .DATA.L     __$__T_9Component
    00000010 00000000               .DATA.L     H'00000000
    00000014 16                     .DATA.B     H'16
    00000015 0000000301             .DATAB.B    3,0




SH SERIES C/C++ Compiler (Ver. 6.0C)                                                                 12-Apr-2021 13:38:38  PAGE   34


SCT OFFSET   CODE       C LABEL     INSTRUCTION OPERAND    COMMENT

             00           
    00000018              __$__T30044924:                  ; static: __T30044924
    00000018 <00000000>             .DATA.L     __$__T_9Component
    0000001C 00000000               .DATA.L     H'00000000
    00000020 16                     .DATA.B     H'16
    00000021 0000000301             .DATAB.B    3,0
             00           
    00000024              __$__T30046692:                  ; static: __T30046692
    00000024 <00000000>             .DATA.L     __$__T_9Component
    00000028 00000000               .DATA.L     H'00000000
    0000002C 16                     .DATA.B     H'16
    0000002D 0000000301             .DATAB.B    3,0
             00           
C$V 00000000              __$__vtbl__9Component:           ; static: virtual function table for Component
    00000000 0000000000             .DATA.L     H'00000000,H'00000000
             000000       
    00000008 <00000000>             .DATA.L     __$__T_9Component
    0000000C 0000000000             .DATA.L     H'00000000,H'00000000
             000000       
    00000014 <00000000>             .DATA.L     __$OnStart__9ComponentFv
    00000018 0000000000             .DATA.L     H'00000000,H'00000000
             000000       
    00000020 <00000000>             .DATA.L     __$OnUpdate__9ComponentFv
C   00000000              __$TerrainIvC2:                  ; static: TerrainIvC2
    00000000 FFFF8000C0             .DATA.B     H'FF,H'FF,H'80,H'00,H'C0,H'00,H'C0,H'00,H'D8,H'00,H'D8,H'00,H'C0,H'00,H'FF,H'FE,
             00C000D800 +                       H'FF,H'FF,H'FF,H'FF,H'FF,H'FF,H'FF,H'FF,H'FF,H'FF,H'FF,H'FF,H'FF,H'FF,H'FF,H'FF
             D800C000FF   
             FEFFFFFFFF   
             FFFFFFFFFF   
             FFFFFFFFFF   
             FFFF         
    00000020              __$Box1:                         ; static: Box1
    00000020 1FFFFFC01F             .DATA.B     H'1F,H'FF,H'FF,H'C0,H'1F,H'FF,H'FF,H'C0,H'3F,H'FF,H'FC,H'40,H'30,H'00,H'00,H'C0,
             FFFFC03FFF +                       H'30,H'00,H'01,H'C0,H'38,H'40,H'31,H'C0,H'3D,H'FF,H'FB,H'C0,H'38,H'DF,H'39,H'C0,
             FC40300000 +                       H'38,H'80,H'11,H'C0,H'38,H'81,H'91,H'C0,H'38,H'C1,H'B9,H'C0,H'38,H'C0,H'39,H'C0,
             C0300001C0 +                       H'38,H'C0,H'39,H'C0,H'38,H'C1,H'B9,H'C0,H'38,H'80,H'31,H'C0,H'38,H'80,H'11,H'C0,
             384031C03D +                       H'38,H'CF,H'39,H'C0,H'3D,H'FF,H'FB,H'C0,H'38,H'00,H'01,H'C0,H'30,H'00,H'01,H'C0,
             FFFBC038DF +                       H'38,H'00,H'00,H'C0,H'3F,H'FF,H'FC,H'40,H'1F,H'FF,H'FE,H'C0,H'1F,H'FF,H'FF,H'C0
             39C0388011   
             C0388191C0   
             38C1B9C038   
             C039C038C0   
             39C038C1B9   
             C0388031C0   
             388011C038   
             CF39C03DFF   
             FBC0380001   
             C0300001C0   
             380000C03F   
             FFFC401FFF   
             FEC01FFFFF   
             C0           
    00000080              __$TerrainIvC1:                  ; static: TerrainIvC1
    00000080 FFFF8000C0             .DATA.B     H'FF,H'FF,H'80,H'00,H'C0,H'00,H'C0,H'00,H'D8,H'00,H'DA,H'00,H'C0,H'00,H'FF,H'FE,
             00C000D800 +                       H'FF,H'FF,H'80,H'FF,H'C0,H'FF,H'C0,H'FF,H'C0,H'FF,H'C0,H'FF,H'C0,H'FF,H'FE,H'FF
             DA00C000FF   
             FEFFFF80FF   




SH SERIES C/C++ Compiler (Ver. 6.0C)                                                                 12-Apr-2021 13:38:38  PAGE   35


SCT OFFSET   CODE       C LABEL     INSTRUCTION OPERAND    COMMENT

             C0FFC0FFC0   
             FFC0FFC0FF   
             FEFF         
    000000A0              __$TerrainIvC3:                  ; static: TerrainIvC3
    000000A0 FFFF8001C0             .DATA.B     H'FF,H'FF,H'80,H'01,H'C0,H'01,H'C0,H'01,H'C0,H'01,H'D0,H'01,H'C0,H'01,H'FF,H'FD,
             01C001C001 +                       H'FF,H'FF,H'C1,H'01,H'E1,H'81,H'E1,H'81,H'E1,H'81,H'FD,H'81,H'FF,H'81,H'FF,H'FD
             D001C001FF   
             FDFFFFC101   
             E181E181E1   
             81FD81FF81   
             FFFD         
    000000C0              __$TerrainIvC18:                 ; static: TerrainIvC18
    000000C0 7F77808880             .DATA.B     H'7F,H'77,H'80,H'88,H'80,H'88,H'80,H'88,H'7F,H'77,H'00,H'00,H'00,H'00,H'00,H'00,
             8880887F77 +                       H'00,H'00,H'00,H'00,H'00,H'00,H'00,H'00,H'00,H'00,H'00,H'00,H'00,H'00,H'00,H'00
             0000000000   
             0000000000   
             0000000000   
             0000000000   
             0000         
    000000E0              __$TerrainIvC19:                 ; static: TerrainIvC19
    000000E0 7777888888             .DATA.B     H'77,H'77,H'88,H'88,H'88,H'88,H'88,H'88,H'77,H'77,H'00,H'00,H'00,H'00,H'00,H'00,
             8888887777 +                       H'00,H'00,H'00,H'00,H'00,H'00,H'00,H'00,H'00,H'00,H'00,H'00,H'00,H'00,H'00,H'00
             0000000000   
             0000000000   
             0000000000   
             0000000000   
             0000         
    00000100              __$TerrainIvC20:                 ; static: TerrainIvC20
    00000100 777E888188             .DATA.B     H'77,H'7E,H'88,H'81,H'88,H'81,H'88,H'81,H'77,H'7E,H'00,H'00,H'00,H'00,H'00,H'00,
             818881777E +                       H'00,H'00,H'00,H'00,H'00,H'00,H'00,H'00,H'00,H'00,H'00,H'00,H'00,H'00,H'00,H'00
             0000000000   
             0000000000   
             0000000000   
             0000000000   
             0000         
    00000120              __$n1IvCsol39:                   ; static: n1IvCsol39
    00000120 FFFF80019E             .DATA.B     H'FF,H'FF,H'80,H'01,H'9E,H'79,H'9E,H'79,H'9E,H'79,H'9E,H'79,H'9E,H'79,H'80,H'01,
             799E799E79 +                       H'80,H'01,H'FF,H'FF,H'9D,H'B9,H'9D,H'B9,H'9C,H'39,H'9F,H'F9,H'80,H'01,H'FF,H'FF
             9E799E7980   
             018001FFFF   
             9DB99DB99C   
             399FF98001   
             FFFF         
    00000140              __$labo:                         ; static: labo
    00000140 0000000001             .DATA.B     H'00,H'00,H'00,H'00,H'01,H'FF,H'FF,H'FF,H'FF,H'FF,H'FF,H'FF,H'FF,H'FF,H'FF,H'FF,
             FFFFFFFFFF +                       H'FF,H'FF,H'FF,H'FF,H'FF,H'00,H'00,H'00,H'00,H'00,H'00,H'00,H'00,H'00,H'00,H'00,
             FFFFFFFFFF +                       H'03,H'CF,H'80,H'00,H'00,H'00,H'00,H'00,H'00,H'00,H'00,H'00,H'00,H'00,H'00,H'01,
             FFFFFFFFFF +                       H'E7,H'80,H'00,H'00,H'00,H'00,H'00,H'00,H'00,H'00,H'00,H'00,H'07,H'9F,H'40,H'00,
             FF00000000 +                       H'00,H'00,H'00,H'00,H'00,H'00,H'00,H'00,H'00,H'00,H'00,H'02,H'F1,H'C0,H'00,H'00,
             0000000000 +                       H'00,H'00,H'00,H'00,H'00,H'00,H'00,H'00,H'0E,H'30,H'7F,H'FF,H'FF,H'FF,H'FF,H'FF,
             000003CF80 +                       H'FF,H'FF,H'FF,H'FF,H'FF,H'FF,H'FF,H'FE,H'18,H'E0,H'00,H'00,H'00,H'00,H'00,H'00,
             0000000000 +                       H'00,H'00,H'00,H'00,H'1E,H'10,H'7F,H'FF,H'FF,H'FF,H'FF,H'FF,H'FF,H'FF,H'FF,H'FF,
             0000000000 +                       H'FF,H'FF,H'FF,H'FE,H'18,H'F0,H'00,H'00,H'00,H'00,H'00,H'00,H'00,H'00,H'00,H'00,
             000001E780 +                       H'38,H'98,H'60,H'01,H'80,H'00,H'18,H'00,H'03,H'00,H'00,H'30,H'00,H'03,H'00,H'0E,
             0000000000 +                       H'12,H'38,H'00,H'00,H'00,H'00,H'00,H'00,H'00,H'00,H'00,H'00,H'71,H'98,H'60,H'01,
             0000000000 +                       H'80,H'00,H'10,H'00,H'03,H'00,H'00,H'30,H'00,H'03,H'00,H'06,H'11,H'1C,H'00,H'00,
             079F400000 +                       H'00,H'00,H'00,H'00,H'00,H'00,H'00,H'00,H'E2,H'18,H'60,H'01,H'80,H'00,H'18,H'00,




SH SERIES C/C++ Compiler (Ver. 6.0C)                                                                 12-Apr-2021 13:38:38  PAGE   36


SCT OFFSET   CODE       C LABEL     INSTRUCTION OPERAND    COMMENT

             0000000000 +                       H'03,H'00,H'00,H'30
             0000000000   
             02F1C00000   
             0000000000   
             0000000E30   
             7FFFFFFFFF   
             FFFFFFFFFF   
             FFFFFFFE18   
             E000000000   
             0000000000   
             001E107FFF   
             FFFFFFFFFF   
             FFFFFFFFFF   
             FFFE18F000   
             0000000000   
             0000000038   
             9860018000   
             1800030000   
             300003000E   
             1238000000   
             0000000000   
             0000719860   
             0180001000   
             0300003000   
             030006111C   
             0000000000   
             0000000000   
             E218600180   
             0018000300   
             0030         
    00000214 0003000E11             .DATA.B     H'00,H'03,H'00,H'0E,H'11,H'8E,H'00,H'00,H'00,H'00,H'00,H'00,H'00,H'00,H'00,H'01,
             8E00000000 +                       H'C6,H'18,H'60,H'01,H'80,H'00,H'38,H'00,H'03,H'00,H'00,H'30,H'00,H'03,H'80,H'0E,
             0000000000 +                       H'30,H'47,H'00,H'00,H'00,H'00,H'00,H'00,H'00,H'00,H'00,H'03,H'CC,H'1E,H'60,H'01,
             01C6186001 +                       H'80,H'00,H'18,H'00,H'03,H'00,H'00,H'30,H'00,H'03,H'80,H'0E,H'38,H'27,H'80,H'00,
             8000380003 +                       H'00,H'00,H'00,H'00,H'00,H'00,H'00,H'07,H'10,H'98,H'60,H'01,H'80,H'00,H'38,H'00,
             0000300003 +                       H'03,H'00,H'00,H'30,H'00,H'03,H'90,H'4E,H'18,H'19,H'C0,H'00,H'00,H'00,H'00,H'00,
             800E304700 +                       H'00,H'00,H'00,H'0E,H'31,H'D0,H'60,H'09,H'88,H'01,H'39,H'00,H'03,H'00,H'00,H'30,
             0000000000 +                       H'00,H'13,H'90,H'4E,H'1B,H'09,H'E0,H'00,H'00,H'00,H'00,H'00,H'00,H'00,H'00,H'1C,
             00000003CC +                       H'43,H'98,H'60,H'01,H'80,H'00,H'10,H'00,H'03,H'00,H'00,H'30,H'00,H'03,H'00,H'0E,
             1E60018000 +                       H'13,H'8C,H'70,H'00,H'00,H'00,H'00,H'00,H'00,H'00,H'00,H'38,H'C7,H'98,H'60,H'01,
             1800030000 +                       H'80,H'00,H'10,H'00,H'03,H'00,H'00,H'30,H'00,H'03,H'00,H'0E,H'33,H'C2,H'38,H'00,
             300003800E +                       H'00,H'00,H'00,H'00,H'00,H'00,H'00,H'79,H'8F,H'18,H'7F,H'FF,H'FF,H'FF,H'FF,H'FF,
             3827800000 +                       H'FF,H'FF,H'FF,H'FF,H'FF,H'FF,H'FF,H'FE,H'11,H'E0,H'3C,H'00,H'00,H'00,H'00,H'00,
             0000000000 +                       H'00,H'00,H'00,H'E2
             0007109860   
             0180003800   
             0300003000   
             03904E1819   
             C000000000   
             000000000E   
             31D0600988   
             0139000300   
             0030001390   
             4E1B09E000   
             0000000000   
             00001C4398   
             6001800010   




SH SERIES C/C++ Compiler (Ver. 6.0C)                                                                 12-Apr-2021 13:38:38  PAGE   37


SCT OFFSET   CODE       C LABEL     INSTRUCTION OPERAND    COMMENT

             0003000030   
             0003000E13   
             8C70000000   
             0000000000   
             38C7986001   
             8000100003   
             0000300003   
             000E33C238   
             0000000000   
             000000798F   
             187FFFFFFF   
             FFFFFFFFFF   
             FFFFFFFFFE   
             11E03C0000   
             0000000000   
             00E2         
    000002E8 1E187FFFFF             .DATA.B     H'1E,H'18,H'7F,H'FF,H'FF,H'FF,H'FF,H'FF,H'FF,H'FF,H'FF,H'FF,H'FF,H'FF,H'FF,H'FE,
             FFFFFFFFFF +                       H'30,H'E6,H'0E,H'00,H'00,H'00,H'00,H'00,H'00,H'00,H'01,H'C6,H'3C,H'1F,H'FF,H'FF,
             FFFFFFFFFF +                       H'FF,H'FF,H'FF,H'FF,H'FF,H'FF,H'FF,H'FF,H'FF,H'FF,H'FF,H'FF,H'F8,H'66,H'4F,H'00,
             FE30E60E00 +                       H'00,H'00,H'00,H'00,H'00,H'00,H'03,H'88,H'78,H'7F,H'80,H'00,H'00,H'00,H'00,H'00,
             0000000000 +                       H'00,H'00,H'00,H'00,H'00,H'00,H'00,H'01,H'FC,H'3E,H'63,H'80,H'00,H'00,H'00,H'00,
             0001C63C1F +                       H'00,H'00,H'07,H'10,H'F0,H'E0,H'00,H'00,H'00,H'00,H'00,H'00,H'00,H'00,H'00,H'00,
             FFFFFFFFFF +                       H'00,H'00,H'00,H'00,H'0E,H'0C,H'81,H'C0,H'00,H'00,H'00,H'00,H'00,H'00,H'0F,H'31,
             FFFFFFFFFF +                       H'E1,H'C0,H'00,H'00,H'00,H'00,H'00,H'00,H'00,H'00,H'00,H'00,H'00,H'00,H'00,H'00,
             FFFFFFFFF8 +                       H'07,H'0C,H'49,H'E0,H'00,H'00,H'00,H'00,H'00,H'00,H'1C,H'43,H'C3,H'80,H'1D,H'E7,
             664F000000 +                       H'F0,H'00,H'FE,H'7F,H'00,H'0E,H'E7,H'70,H'00,H'EE,H'7B,H'80,H'03,H'86,H'7C,H'70,
             0000000003 +                       H'00,H'00,H'00,H'00,H'00,H'00,H'38,H'C3,H'87,H'00,H'18,H'6E,H'30,H'01,H'C6,H'63,
             88787F8000 +                       H'00,H'18,H'66,H'30,H'00,H'C3,H'61,H'80,H'01,H'C6,H'8A,H'38,H'00,H'00,H'00,H'00,
             0000000000 +                       H'00,H'00,H'79,H'07,H'0E,H'00,H'30,H'3C,H'18,H'03,H'83,H'C1,H'80,H'38,H'3C,H'18,
             0000000000 +                       H'01,H'83,H'C0,H'C0
             0001FC3E63   
             8000000000   
             00000710F0   
             E000000000   
             0000000000   
             0000000000   
             0E0C81C000   
             0000000000   
             0F31E1C000   
             0000000000   
             0000000000   
             000000070C   
             49E0000000   
             0000001C43   
             C3801DE7F0   
             00FE7F000E   
             E77000EE7B   
             8003867C70   
             0000000000   
             0038C38700   
             186E3001C6   
             6300186630   
             00C3618001   
             C68A380000   
             0000000079   
             070E00303C   
             180383C180   




SH SERIES C/C++ Compiler (Ver. 6.0C)                                                                 12-Apr-2021 13:38:38  PAGE   38


SCT OFFSET   CODE       C LABEL     INSTRUCTION OPERAND    COMMENT

             383C180183   
             C0C0         
    000003BC 18E68F1C00             .DATA.B     H'18,H'E6,H'8F,H'1C,H'00,H'00,H'00,H'00,H'00,H'00,H'E3,H'0E,H'1C,H'00,H'60,H'18,
             0000000000 +                       H'0C,H'06,H'01,H'80,H'C0,H'60,H'18,H'0C,H'03,H'00,H'80,H'60,H'30,H'76,H'C4,H'8E,
             E30E1C0060 +                       H'00,H'00,H'00,H'00,H'00,H'01,H'E6,H'1C,H'38,H'60,H'C0,H'10,H'06,H'0E,H'01,H'00,
             180C060180 +                       H'60,H'C0,H'00,H'06,H'06,H'00,H'00,H'30,H'60,H'3E,H'E6,H'4F,H'00,H'00,H'00,H'00,
             C060180C03 +                       H'00,H'03,H'98,H'38,H'70,H'31,H'80,H'10,H'03,H'18,H'01,H'00,H'31,H'80,H'18,H'03,
             0080603076 +                       H'0C,H'00,H'80,H'1C,H'C0,H'1E,H'0F,H'E3,H'80,H'00,H'00,H'00,H'00,H'07,H'30,H'70,
             C48E000000 +                       H'E0,H'3F,H'18,H'38,H'21,H'B8,H'83,H'83,H'1F,H'08,H'3C,H'11,H'D8,H'43,H'E1,H'0F,
             000001E61C +                       H'84,H'0F,H'0C,H'D1,H'C0,H'00,H'00,H'00,H'00,H'0F,H'60,H'E1,H'C2,H'1E,H'08,H'7C,
             3860C01006 +                       H'20,H'F0,H'47,H'E2,H'0E,H'08,H'7E,H'20,H'F0,H'47,H'61,H'03,H'04,H'07,H'8C,H'48,
             0E010060C0 +                       H'E0,H'00,H'00,H'00,H'00,H'1C,H'C3,H'C3,H'80,H'04,H'00,H'C6,H'00,H'60,H'0C,H'70,
             0006060000 +                       H'04,H'00,H'C7,H'00,H'60,H'0E,H'30,H'02,H'00,H'61,H'C6,H'64,H'70,H'00,H'00,H'00,
             30603EE64F +                       H'00,H'3C,H'87,H'87,H'10,H'04,H'01,H'83,H'00,H'40,H'18,H'38,H'00,H'01,H'81,H'80,
             0000000000 +                       H'00,H'0C,H'1C,H'02,H'00,H'C1,H'E6,H'66,H'78,H'00,H'00,H'00,H'00,H'73,H'0F,H'0E,
             0398387031 +                       H'18,H'0C,H'03,H'01
             8010031801   
             0031801803   
             0C00801CC0   
             1E0FE38000   
             0000000730   
             70E03F1838   
             21B883831F   
             083C11D843   
             E10F840F0C   
             D1C0000000   
             000F60E1C2   
             1E087C20F0   
             47E20E087E   
             20F0476103   
             04078C48E0   
             000000001C   
             C3C3800400   
             C600600C70   
             0400C70060   
             0E30020061   
             C664700000   
             00003C8787   
             1004018300   
             4018380001   
             8180000C1C   
             0200C1E666   
             7800000000   
             730F0E180C   
             0301         
    00000490 8000300C06             .DATA.B     H'80,H'00,H'30,H'0C,H'06,H'03,H'00,H'C0,H'60,H'30,H'0C,H'07,H'01,H'80,H'70,H'63,
             0300C06030 +                       H'1C,H'00,H'00,H'00,H'00,H'E6,H'1E,H'1C,H'0C,H'1F,H'06,H'00,H'C1,H'18,H'60,H'0E,
             0C07018070 +                       H'1F,H'06,H'00,H'60,H'F0,H'70,H'07,H'0F,H'87,H'00,H'7C,H'60,H'8E,H'00,H'00,H'00,
             631C000000 +                       H'01,H'EC,H'3C,H'38,H'0E,H'33,H'0C,H'00,H'60,H'08,H'C0,H'06,H'19,H'8C,H'00,H'71,
             00E61E1C0C +                       H'98,H'60,H'03,H'1C,H'C6,H'00,H'3C,H'60,H'C7,H'00,H'00,H'00,H'03,H'C8,H'78,H'70,
             1F0600C118 +                       H'07,H'61,H'98,H'00,H'3C,H'03,H'80,H'03,H'F1,H'D8,H'00,H'3B,H'8D,H'C0,H'01,H'F8,
             600E1F0600 +                       H'6C,H'00,H'0E,H'6C,H'23,H'80,H'00,H'00,H'07,H'90,H'F0,H'E0,H'03,H'E1,H'F8,H'00,
             60F070070F +                       H'3C,H'03,H'80,H'03,H'B0,H'F8,H'00,H'1F,H'0F,H'C0,H'01,H'B8,H'CE,H'00,H'0F,H'6E,
             87007C608E +                       H'13,H'C0,H'00,H'00,H'0F,H'21,H'E1,H'C0,H'06,H'33,H'8C,H'00,H'60,H'00,H'C0,H'06,
             00000001EC +                       H'19,H'8C,H'00,H'31,H'98,H'C0,H'03,H'0D,H'C6,H'00,H'03,H'E7,H'18,H'E0,H'00,H'00,
             3C380E330C +                       H'1C,H'63,H'83,H'80,H'0C,H'1F,H'0E,H'00,H'E1,H'18,H'60,H'0C,H'0F,H'06,H'00,H'60,
             006008C006 +                       H'F0,H'60,H'06,H'07,H'01,H'00,H'61,H'E3,H'84,H'70,H'00,H'00,H'18,H'87,H'07,H'00,




SH SERIES C/C++ Compiler (Ver. 6.0C)                                                                 12-Apr-2021 13:38:38  PAGE   39


SCT OFFSET   CODE       C LABEL     INSTRUCTION OPERAND    COMMENT

             198C007198 +                       H'18,H'0E,H'03,H'01,H'C0,H'00,H'30,H'18,H'06,H'03,H'00,H'C0,H'60,H'30,H'0C,H'02,
             60031CC600 +                       H'01,H'80,H'C0,H'C1
             3C60C70000   
             0003C87870   
             076198003C   
             038003F1D8   
             003B8DC001   
             F86C000E6C   
             2380000007   
             90F0E003E1   
             F8003C0380   
             03B0F8001F   
             0FC001B8CE   
             000F6E13C0   
             00000F21E1   
             C006338C00   
             6000C00619   
             8C003198C0   
             030DC60003   
             E718E00000   
             1C6383800C   
             1F0E00E118   
             600C0F0600   
             60F0600607   
             010061E384   
             7000001887   
             0700180E03   
             01C0003018   
             060300C060   
             300C020180   
             C0C1         
    00000564 C638000031             .DATA.B     H'C6,H'38,H'00,H'00,H'31,H'8E,H'0E,H'18,H'30,H'04,H'01,H'83,H'00,H'40,H'18,H'30,
             8E0E183004 +                       H'00,H'01,H'81,H'80,H'00,H'18,H'18,H'02,H'00,H'E1,H'C0,H'60,H'E1,H'1C,H'00,H'00,
             0183004018 +                       H'33,H'1C,H'1C,H'1C,H'60,H'04,H'01,H'C7,H'00,H'60,H'0C,H'60,H'04,H'00,H'C3,H'00,
             3000018180 +                       H'60,H'0C,H'30,H'02,H'00,H'33,H'00,H'70,H'70,H'9E,H'00,H'00,H'32,H'38,H'38,H'07,
             0018180200 +                       H'C4,H'0E,H'0C,H'6C,H'00,H'E0,H'87,H'C2,H'0F,H'04,H'66,H'00,H'F0,H'07,H'40,H'07,
             E1C060E11C +                       H'06,H'3E,H'10,H'38,H'38,H'47,H'00,H'00,H'32,H'70,H'70,H'87,H'82,H'1F,H'10,H'3C,
             0000331C1C +                       H'21,H'F0,H'83,H'81,H'1F,H'88,H'3C,H'31,H'F8,H'C0,H'00,H'18,H'00,H'0C,H'00,H'1C,
             1C600401C7 +                       H'1C,H'23,H'80,H'00,H'32,H'60,H'E0,H'03,H'00,H'33,H'00,H'10,H'01,H'98,H'01,H'00,
             00600C6004 +                       H'31,H'80,H'18,H'01,H'9C,H'00,H'00,H'38,H'00,H'08,H'01,H'8E,H'0C,H'11,H'C0,H'00,
             00C300600C +                       H'32,H'41,H'C0,H'00,H'00,H'60,H'01,H'10,H'00,H'0E,H'01,H'00,H'60,H'E0,H'10,H'07,
             3002003300 +                       H'0E,H'00,H'FE,H'01,H'F0,H'08,H'03,H'07,H'07,H'C8,H'E0,H'00,H'33,H'01,H'86,H'03,
             70709E0000 +                       H'00,H'C0,H'3F,H'90,H'78,H'06,H'01,H'80,H'C0,H'30,H'18,H'06,H'02,H'07,H'FE,H'01,
             32383807C4 +                       H'FE,H'04,H'06,H'03,H'81,H'C4,H'F0,H'00,H'33,H'07,H'03,H'07,H'81,H'81,H'FF,H'80,
             0E0C6C00E0 +                       H'7F,H'03,H'03,H'C1
             87C20F0466   
             00F0074007   
             063E103838   
             4700003270   
             7087821F10   
             3C21F08381   
             1F883C31F8   
             C00018000C   
             001C1C2380   
             003260E003   
             0033001001   
             9801003180   




SH SERIES C/C++ Compiler (Ver. 6.0C)                                                                 12-Apr-2021 13:38:38  PAGE   40


SCT OFFSET   CODE       C LABEL     INSTRUCTION OPERAND    COMMENT

             18019C0000   
             380008018E   
             0C11C00032   
             41C0000060   
             0110000E01   
             0060E01007   
             0E00FE01F0   
             08030707C8   
             E000330186   
             0300C03F90   
             78060180C0   
             3018060207   
             FE01FE0406   
             0381C4F000   
             3307030781   
             81FF807F03   
             03C1         
    00000638 80383C1C00             .DATA.B     H'80,H'38,H'3C,H'1C,H'00,H'1F,H'86,H'01,H'9F,H'82,H'0C,H'01,H'C1,H'F2,H'38,H'00,
             1F86019F82 +                       H'36,H'06,H'01,H'8C,H'C3,H'07,H'E1,H'80,H'EF,H'E0,H'86,H'E3,H'00,H'18,H'7E,H'38,
             0C01C1F238 +                       H'00,H'7C,H'3F,H'FF,H'C3,H'E0,H'18,H'00,H'E0,H'99,H'1C,H'00,H'36,H'0C,H'00,H'DC,
             003606018C +                       H'66,H'1F,H'07,H'FF,H'E0,H'F0,H'4C,H'77,H'00,H'0C,H'E3,H'30,H'00,H'F0,H'FB,H'FF,
             C307E180EF +                       H'F8,H'F8,H'70,H'00,H'70,H'98,H'8E,H'00,H'36,H'18,H'00,H'DC,H'7C,H'7C,H'7F,H'FF,
             E086E30018 +                       H'FC,H'3C,H'0C,H'36,H'00,H'0E,H'C3,H'60,H'03,H'C7,H'C0,H'00,H'1E,H'3C,H'18,H'00,
             7E38007C3F +                       H'38,H'8C,H'C7,H'00,H'36,H'70,H'01,H'8E,H'E0,H'F1,H'E0,H'00,H'0F,H'0F,H'06,H'63,
             FFC3E01800 +                       H'00,H'0C,H'66,H'30,H'07,H'8F,H'E0,H'00,H'07,H'8E,H'0C,H'00,H'1C,H'9C,H'23,H'80,
             E0991C0036 +                       H'36,H'60,H'03,H'07,H'C1,H'E7,H'80,H'00,H'03,H'C7,H'83,H'C1,H'80,H'18,H'3C,H'18,
             0C00DC661F +                       H'0E,H'3F,H'F8,H'00,H'01,H'C7,H'0E,H'01,H'8C,H'FC,H'31,H'C0,H'36,H'C0,H'06,H'03,
             07FFE0F04C +                       H'83,H'8E,H'00,H'00,H'00,H'63,H'C1,H'80,H'C0,H'30,H'18,H'0C,H'1C,H'7C,H'18,H'00,
             77000CE330 +                       H'00,H'E3,H'82,H'03,H'87,H'CE,H'09,H'E0,H'37,H'84,H'0C,H'01,H'07,H'1C,H'00,H'00,
             00F0FBFFF8 +                       H'00,H'39,H'E1,H'00,H'60,H'60,H'18,H'06,H'38,H'F0,H'1C,H'00,H'00,H'71,H'C3,H'87,
             F870007098 +                       H'03,H'C4,H'8E,H'70
             8E00361800   
             DC7C7C7FFF   
             FC3C0C3600   
             0EC36003C7   
             C0001E3C18   
             00388CC700   
             3670018EE0   
             F1E0000F0F   
             0663000C66   
             30078FE000   
             078E0C001C   
             9C23803660   
             0307C1E780   
             0003C783C1   
             80183C180E   
             3FF80001C7   
             0E018CFC31   
             C036C00603   
             838E000000   
             63C180C030   
             180C1C7C18   
             0000E38203   
             87CE09E037   
             840C01071C   
             00000039E1   
             0060601806   




SH SERIES C/C++ Compiler (Ver. 6.0C)                                                                 12-Apr-2021 13:38:38  PAGE   41


SCT OFFSET   CODE       C LABEL     INSTRUCTION OPERAND    COMMENT

             38F01C0000   
             71C38703C4   
             8E70         
    0000070C 370618010E             .DATA.B     H'37,H'06,H'18,H'01,H'0E,H'30,H'00,H'00,H'00,H'18,H'F1,H'00,H'30,H'C0,H'18,H'02,
             3000000018 +                       H'39,H'D0,H'38,H'00,H'00,H'38,H'E0,H'CC,H'00,H'E4,H'C2,H'38,H'36,H'03,H'31,H'03,
             F10030C018 +                       H'1C,H'70,H'00,H'00,H'00,H'0C,H'71,H'81,H'19,H'88,H'18,H'10,H'71,H'98,H'78,H'00,
             0239D03800 +                       H'00,H'18,H'70,H'FC,H'40,H'FC,H'E1,H'1C,H'36,H'21,H'E1,H'87,H'1C,H'63,H'00,H'00,
             0038E0CC00 +                       H'00,H'06,H'38,H'C2,H'0F,H'04,H'7C,H'30,H'E3,H'1D,H'F0,H'00,H'00,H'0C,H'70,H'38,
             E4C2383603 +                       H'60,H'3C,H'71,H'CC,H'36,H'00,H'C0,H'0C,H'38,H'DB,H'00,H'00,H'00,H'03,H'1C,H'60,
             31031C7000 +                       H'06,H'00,H'E6,H'00,H'C2,H'0F,H'C0,H'00,H'00,H'0E,H'38,H'20,H'02,H'1C,H'38,H'4C,
             00000C7181 +                       H'36,H'00,H'00,H'18,H'31,H'91,H'80,H'00,H'00,H'03,H'0C,H'30,H'00,H'01,H'C3,H'81,
             1988181071 +                       H'C6,H'07,H'80,H'00,H'00,H'E6,H'18,H'20,H'0E,H'1C,H'1C,H'4C,H'36,H'00,H'C0,H'30,
             9878000018 +                       H'61,H'91,H'80,H'00,H'00,H'01,H'8E,H'18,H'06,H'03,H'01,H'C1,H'86,H'00,H'00,H'00,
             70FC40FCE1 +                       H'01,H'A6,H'18,H'30,H'0C,H'0E,H'0E,H'6C,H'36,H'01,H'E0,H'60,H'61,H'91,H'80,H'00,
             1C3621E187 +                       H'00,H'01,H'86,H'0C,H'0F,H'07,H'00,H'C1,H'E6,H'00,H'00,H'00,H'01,H'83,H'7C,H'F8,
             1C63000000 +                       H'18,H'07,H'07,H'6C,H'36,H'43,H'B0,H'C0,H'F3,H'1B,H'00,H'00,H'00,H'01,H'9E,H'06,
             0638C20F04 +                       H'1F,H'06,H'00,H'71
             7C30E31DF0   
             00000C7038   
             603C71CC36   
             00C00C38DB   
             000000031C   
             600600E600   
             C20FC00000   
             0E3820021C   
             384C360000   
             1831918000   
             00030C3000   
             01C381C607   
             800000E618   
             200E1C1C4C   
             3600C03061   
             9180000001   
             8E18060301   
             C186000000   
             01A618300C   
             0E0E6C3601   
             E060619180   
             000001860C   
             0F0700C1E6   
             0000000183   
             7CF8180707   
             6C3643B0C0   
             F31B000000   
             019E061F06   
             0071         
    000007E0 FE0000003F             .DATA.B     H'FE,H'00,H'00,H'00,H'3F,H'A3,H'F8,H'CC,H'70,H'03,H'83,H'6C,H'36,H'66,H'19,H'80,
             A3F8CC7003 +                       H'FF,H'1F,H'00,H'00,H'00,H'01,H'FE,H'03,H'31,H'DC,H'00,H'30,H'06,H'00,H'00,H'01,
             836C366619 +                       H'FF,H'97,H'00,H'86,H'E0,H'01,H'C0,H'6C,H'36,H'3E,H'1F,H'80,H'01,H'00,H'00,H'00,
             80FF1F0000 +                       H'01,H'F1,H'80,H'03,H'F0,H'F8,H'00,H'10,H'02,H'00,H'00,H'03,H'F3,H'9E,H'0C,H'86,
             0001FE0331 +                       H'E0,H'00,H'E0,H'6C,H'36,H'63,H'39,H'80,H'01,H'00,H'F0,H'00,H'03,H'B1,H'06,H'03,
             DC00300600 +                       H'19,H'8C,H'00,H'31,H'E6,H'00,H'00,H'03,H'80,H'9E,H'7C,H'4C,H'30,H'00,H'70,H'2C,
             0001FF9700 +                       H'36,H'43,H'F0,H'C0,H'F9,H'81,H'F8,H'00,H'03,H'13,H'3F,H'06,H'0F,H'06,H'00,H'71,
             86E001C06C +                       H'FE,H'00,H'00,H'03,H'00,H'DF,H'EC,H'78,H'38,H'06,H'38,H'2C,H'36,H'01,H'E0,H'60,
             363E1F8001 +                       H'FF,H'81,H'9C,H'00,H'03,H'13,H'77,H'0C,H'06,H'03,H'00,H'C1,H'86,H'00,H'00,H'03,
             00000001F1 +                       H'00,H'FC,H'0C,H'70,H'08,H'06,H'1C,H'3C,H'36,H'00,H'40,H'30,H'C1,H'81,H'8E,H'00,
             8003F0F800 +                       H'03,H'32,H'03,H'18,H'00,H'01,H'81,H'81,H'87,H'00,H'00,H'03,H'8E,H'CC,H'0C,H'20,




SH SERIES C/C++ Compiler (Ver. 6.0C)                                                                 12-Apr-2021 13:38:38  PAGE   42


SCT OFFSET   CODE       C LABEL     INSTRUCTION OPERAND    COMMENT

             1002000003 +                       H'0E,H'0C,H'0E,H'3C,H'36,H'00,H'00,H'1C,H'C1,H'C1,H'86,H'00,H'03,H'26,H'47,H'30,
             F39E0C86E0 +                       H'04,H'01,H'C3,H'01,H'87,H'80,H'00,H'01,H'9F,H'98,H'0C,H'20,H'03,H'38,H'06,H'3C,
             00E06C3663 +                       H'36,H'00,H'C0,H'0C
             39800100F0   
             0003B10603   
             198C0031E6   
             000003809E   
             7C4C300070   
             2C3643F0C0   
             F981F80003   
             133F060F06   
             0071FE0000   
             0300DFEC78   
             3806382C36   
             01E060FF81   
             9C00031377   
             0C060300C1   
             8600000300   
             FC0C700806   
             1C3C360040   
             30C1818E00   
             0332031800   
             0181818700   
             00038ECC0C   
             200E0C0E3C   
             3600001CC1   
             C186000326   
             47300401C3   
             0187800001   
             9F980C2003   
             38063C3600   
             C00C         
    000008B4 E0C1C60003             .DATA.B     H'E0,H'C1,H'C6,H'00,H'03,H'C6,H'47,H'20,H'0E,H'00,H'66,H'01,H'80,H'C0,H'00,H'01,
             C647200E00 +                       H'CF,H'93,H'1C,H'70,H'23,H'F1,H'03,H'2C,H'36,H'21,H'E1,H'84,H'60,H'60,H'CE,H'00,
             660180C000 +                       H'01,H'8C,H'86,H'03,H'1F,H'0C,H'3C,H'11,H'C0,H'60,H'00,H'01,H'CE,H'32,H'1C,H'7C,
             01CF931C70 +                       H'41,H'E0,H'81,H'EC,H'36,H'03,H'30,H'00,H'60,H'30,H'FC,H'00,H'00,H'18,H'86,H'00,
             23F1032C36 +                       H'19,H'80,H'18,H'01,H'C0,H'30,H'00,H'00,H'FC,H'E6,H'18,H'CC,H'00,H'C0,H'18,H'6C,
             21E1846060 +                       H'36,H'06,H'1C,H'00,H'70,H'9C,H'30,H'00,H'00,H'31,H'0E,H'00,H'70,H'E0,H'00,H'00,
             CE00018C86 +                       H'C1,H'1C,H'00,H'00,H'39,H'C4,H'38,H'87,H'00,H'40,H'38,H'2C,H'36,H'0C,H'0C,H'00,
             031F0C3C11 +                       H'30,H'4E,H'00,H'00,H'00,H'E3,H'0C,H'00,H'60,H'60,H'18,H'04,H'E0,H'8E,H'00,H'00,
             C0600001CE +                       H'07,H'08,H'70,H'03,H'00,H'C0,H'60,H'3C,H'36,H'18,H'06,H'02,H'38,H'23,H'80,H'00,
             321C7C41E0 +                       H'03,H'C6,H'1C,H'01,H'C0,H'30,H'38,H'0C,H'70,H'43,H'E0,H'00,H'3E,H'18,H'70,H'01,
             81EC360330 +                       H'81,H'E0,H'C0,H'3C,H'36,H'30,H'03,H'06,H'38,H'31,H'F0,H'00,H'0F,H'8C,H'38,H'63,
             006030FC00 +                       H'80,H'18,H'7E,H'18,H'38,H'30,H'FE,H'03,H'F8,H'60,H'E0,H'00,H'E3,H'31,H'80,H'3C,
             0018860019 +                       H'36,H'60,H'01,H'8C,H'1C,H'18,H'7F,H'01,H'FE,H'18,H'38,H'63,H'00,H'0C,H'E6,H'30,
             801801C030 +                       H'3C,H'18,H'1F,H'FF
             0000FCE618   
             CC00C0186C   
             36061C0070   
             9C30000031   
             0E0070E000   
             00C11C0000   
             39C4388700   
             40382C360C   
             0C00304E00   
             0000E30C00   
             60601804E0   




SH SERIES C/C++ Compiler (Ver. 6.0C)                                                                 12-Apr-2021 13:38:38  PAGE   43


SCT OFFSET   CODE       C LABEL     INSTRUCTION OPERAND    COMMENT

             8E00000708   
             700300C060   
             3C36180602   
             3823800003   
             C61C01C030   
             380C7043E0   
             003E187001   
             81E0C03C36   
             3003063831   
             F0000F8C38   
             6380187E18   
             3830FE03F8   
             60E000E331   
             803C366001   
             8C1C187F01   
             FE18386300   
             0CE6303C18   
             1FFF         
    00000988 C0C1C00066             .DATA.B     H'C0,H'C1,H'C0,H'00,H'66,H'1B,H'80,H'3C,H'36,H'60,H'00,H'F8,H'0E,H'06,H'1F,H'FF,
             1B803C3660 +                       H'F0,H'70,H'70,H'3E,H'00,H'0F,H'C3,H'E0,H'1E,H'0F,H'03,H'FE,H'07,H'83,H'80,H'00,
             00F80E061F +                       H'7E,H'1B,H'80,H'3C,H'36,H'60,H'01,H'9C,H'07,H'03,H'80,H'FF,H'81,H'C1,H'E0,H'63,
             FFF070703E +                       H'00,H'0C,H'66,H'30,H'0F,H'03,H'C0,H'78,H'1E,H'0F,H'00,H'00,H'E3,H'30,H'C0,H'3C,
             000FC3E01E +                       H'36,H'30,H'03,H'07,H'C3,H'C1,H'C0,H'18,H'03,H'83,H'C1,H'C1,H'80,H'18,H'3E,H'18,
             0F03FE0783 +                       H'07,H'C0,H'F2,H'01,H'F8,H'1E,H'08,H'00,H'C1,H'E0,H'E0,H'3C,H'36,H'18,H'03,H'03,
             80007E1B80 +                       H'81,H'E0,H'7D,H'00,H'7E,H'07,H'83,H'81,H'C0,H'30,H'18,H'0C,H'01,H'E0,H'37,H'01,
             3C3660019C +                       H'C0,H'7C,H'0C,H'01,H'80,H'C0,H'20,H'3C,H'36,H'0C,H'06,H'01,H'00,H'F8,H'0B,H'80,
             070380FF81 +                       H'E0,H'1F,H'01,H'00,H'60,H'60,H'18,H'06,H'00,H'F8,H'06,H'31,H'C1,H'F8,H'06,H'03,
             C1E063000C +                       H'00,H'80,H'38,H'3C,H'FE,H'0E,H'1C,H'01,H'00,H'7E,H'01,H'90,H'60,H'7C,H'01,H'00,
             66300F03C0 +                       H'70,H'C0,H'18,H'03,H'00,H'3F,H'0E,H'7C,H'CF,H'C0,H'03,H'06,H'00,H'C0,H'0E,H'7F,
             781E0F0000 +                       H'FE,H'03,H'38,H'03,H'00,H'1F,H'83,H'9E,H'71,H'F8,H'01,H'80,H'19,H'80,H'18,H'01,
             E330C03C36 +                       H'98,H'0F,H'FC,H'FC,H'FF,H'80,H'01,H'8C,H'41,H'C0,H'8E,H'7F,H'96,H'21,H'E1,H'87,
             300307C3C1 +                       H'80,H'0F,H'FF,H'3E
             C0180383C1   
             C180183E18   
             07C0F201F8   
             1E0800C1E0   
             E03C361803   
             0381E07D00   
             7E078381C0   
             30180C01E0   
             3701C07C0C   
             0180C0203C   
             360C060100   
             F80B80E01F   
             0100606018   
             0600F80631   
             C1F8060300   
             80383CFE0E   
             1C01007E01   
             90607C0100   
             70C0180300   
             3F0E7CCFC0   
             030600C00E   
             7FFE033803   
             001F839E71   
             F801801980   
             1801980FFC   




SH SERIES C/C++ Compiler (Ver. 6.0C)                                                                 12-Apr-2021 13:38:38  PAGE   44


SCT OFFSET   CODE       C LABEL     INSTRUCTION OPERAND    COMMENT

             FCFF80018C   
             41C08E7F96   
             21E187800F   
             FF3E         
    00000A5C 3FE007C30F             .DATA.B     H'3F,H'E0,H'07,H'C3,H'0F,H'08,H'3C,H'30,H'F0,H'03,H'FC,H'00,H'7C,H'00,H'10,H'F8,
             083C30F003 +                       H'63,H'E1,H'06,H'3C,H'0E,H'00,H'C0,H'0C,H'C0,H'01,H'FF,H'00,H'3F,H'00,H'0E,H'60,
             FC007C0010 +                       H'06,H'00,H'66,H'00,H'60,H'00,H'7C,H'00,H'30,H'03,H'00,H'70,H'06,H'30,H'02,H'30,
             F863E1063C +                       H'DE,H'00,H'40,H'18,H'70,H'00,H'3E,H'00,H'1C,H'00,H'1C,H'30,H'04,H'00,H'C3,H'00,
             0E00C00CC0 +                       H'20,H'00,H'08,H'02,H'20,H'03,H'80,H'20,H'0E,H'1C,H'02,H'3F,H'86,H'00,H'40,H'30,
             01FF003F00 +                       H'30,H'00,H'06,H'01,H'08,H'00,H'30,H'18,H'06,H'03,H'81,H'80,H'60,H'10,H'08,H'02,
             0E60060066 +                       H'00,H'00,H'C0,H'20,H'18,H'0E,H'02,H'31,H'86,H'00,H'C0,H'60,H'18,H'08,H'02,H'00,
             0060007C00 +                       H'80,H'00,H'30,H'0C,H'0E,H'03,H'00,H'C0,H'F0,H'30,H'00,H'07,H'00,H'80,H'60,H'70,
             3003007006 +                       H'30,H'06,H'06,H'61,H'86,H'01,H'E0,H'C0,H'0C,H'1E,H'00,H'00,H'00,H'30,H'E0,H'06,
             300230DE00 +                       H'1F,H'06,H'00,H'61,H'F8,H'60,H'00,H'0F,H'83,H'00,H'70,H'F8,H'70,H'03,H'0E,H'71,
             401870003E +                       H'86,H'23,H'31,H'80,H'06,H'31,H'80,H'00,H'23,H'19,H'C0,H'03,H'39,H'8C,H'00,H'31,
             001C001C30 +                       H'9C,H'C0,H'03,H'18,H'C6,H'00,H'39,H'8C,H'C0,H'01,H'D8,H'71,H'96,H'36,H'1F,H'80,
             0400C30020 +                       H'03,H'E1,H'F8,H'00,H'3F,H'0F,H'80,H'03,H'F1,H'F8,H'00,H'1F,H'0F,H'C0,H'01,H'F8,
             0008022003 +                       H'FC,H'00,H'1F,H'8F
             80200E1C02   
             3F86004030   
             3000060108   
             0030180603   
             8180601008   
             020000C020   
             180E023186   
             00C0601808   
             0200800030   
             0C0E0300C0   
             F030000700   
             8060703006   
             06618601E0   
             C00C1E0000   
             0030E0061F   
             060061F860   
             000F830070   
             F870030E71   
             8623318006   
             3180002319   
             C003398C00   
             319CC00318   
             C600398CC0   
             01D8719636   
             1F8003E1F8   
             003F0F8003   
             F1F8001F0F   
             C001F8FC00   
             1F8F         
    00000B30 C001F87196             .DATA.B     H'C0,H'01,H'F8,H'71,H'96,H'27,H'19,H'80,H'06,H'31,H'98,H'00,H'33,H'19,H'C0,H'03,
             2719800631 +                       H'20,H'0C,H'00,H'31,H'9C,H'C0,H'03,H'18,H'CC,H'00,H'19,H'8C,H'C0,H'01,H'8E,H'71,
             98003319C0 +                       H'86,H'63,H'F0,H'C0,H'0E,H'3F,H'0C,H'00,H'61,H'F0,H'E0,H'06,H'00,H'06,H'00,H'70,
             03200C0031 +                       H'F8,H'60,H'07,H'0F,H'86,H'00,H'30,H'F8,H'60,H'03,H'0E,H'61,H'96,H'01,H'E0,H'60,
             9CC00318CC +                       H'18,H'0E,H'06,H'00,H'C0,H'E0,H'70,H'08,H'03,H'06,H'20,H'00,H'70,H'30,H'0C,H'07,
             00198CC001 +                       H'03,H'00,H'60,H'70,H'30,H'06,H'06,H'71,H'96,H'00,H'C0,H'30,H'30,H'04,H'03,H'01,
             8E718663F0 +                       H'80,H'40,H'30,H'00,H'7F,H'80,H'7E,H'00,H'20,H'18,H'1C,H'02,H'01,H'80,H'C0,H'20,
             C00E3F0C00 +                       H'18,H'0C,H'02,H'71,H'96,H'00,H'00,H'38,H'60,H'00,H'01,H'83,H'00,H'40,H'1C,H'01,
             61F0E00600 +                       H'FF,H'80,H'7F,H'80,H'00,H'1C,H'38,H'02,H'00,H'C1,H'80,H'20,H'0C,H'18,H'00,H'71,
             060070F860 +                       H'86,H'00,H'C0,H'0C,H'C0,H'0C,H'00,H'C6,H'00,H'E0,H'06,H'0F,H'C1,H'D8,H'C3,H'F0,




SH SERIES C/C++ Compiler (Ver. 6.0C)                                                                 12-Apr-2021 13:38:38  PAGE   45


SCT OFFSET   CODE       C LABEL     INSTRUCTION OPERAND    COMMENT

             070F860030 +                       H'60,H'06,H'60,H'03,H'00,H'63,H'00,H'70,H'06,H'30,H'02,H'71,H'86,H'21,H'E1,H'87,
             F860030E61 +                       H'86,H'1E,H'08,H'7C,H'21,H'F0,H'C6,H'1E,H'1F,H'FF,H'F8,H'78,H'30,H'43,H'E1,H'07,
             9601E06018 +                       H'04,H'3E,H'10,H'F8,H'43,H'E1,H'86,H'61,H'86,H'23,H'30,H'03,H'00,H'33,H'00,H'38,
             0E0600C0E0 +                       H'03,H'98,H'00,H'78
             7008030620   
             0070300C07   
             0300607030   
             0606719600   
             C030300403   
             0180403000   
             7F807E0020   
             181C020180   
             C020180C02   
             7196000038   
             6000018300   
             401C01FF80   
             7F80001C38   
             0200C18020   
             0C18007186   
             00C00CC00C   
             00C600E006   
             0FC1D8C3F0   
             6006600300   
             6300700630   
             02718621E1   
             87861E087C   
             21F0C61E1F   
             FFF8783043   
             E107043E10   
             F843E18661   
             8623300300   
             3300380398   
             0078         
    00000C04 FC7FFF1E18             .DATA.B     H'FC,H'7F,H'FF,H'1E,H'18,H'01,H'80,H'0D,H'80,H'1C,H'01,H'9C,H'01,H'C0,H'8E,H'71,
             01800D801C +                       H'DE,H'06,H'18,H'00,H'00,H'71,H'80,H'10,H'07,H'0C,H'00,H'F1,H'C0,H'00,H'03,H'8F,
             019C01C08E +                       H'0E,H'00,H'00,H'18,H'E0,H'08,H'03,H'0E,H'00,H'80,H'1C,H'7F,H'DC,H'0C,H'0C,H'00,
             71DE061800 +                       H'00,H'C0,H'E0,H'10,H'06,H'06,H'01,H'C7,H'00,H'00,H'01,H'E3,H'86,H'00,H'80,H'70,
             0071801007 +                       H'70,H'08,H'06,H'03,H'00,H'80,H'30,H'1F,H'D8,H'18,H'06,H'03,H'81,H'80,H'60,H'38,
             0C00F1C000 +                       H'18,H'03,H'03,H'8E,H'1F,H'FF,H'F8,H'71,H'C3,H'01,H'C0,H'60,H'30,H'1C,H'0C,H'01,
             038F0E0000 +                       H'81,H'C0,H'60,H'09,H'D8,H'30,H'03,H'07,H'83,H'80,H'30,H'7C,H'38,H'01,H'87,H'18,
             18E008030E +                       H'3F,H'FF,H'FC,H'38,H'E1,H'83,H'E1,H'C0,H'18,H'3E,H'1C,H'01,H'C3,H'E0,H'E0,H'19,
             00801C7FDC +                       H'D8,H'60,H'01,H'8C,H'C6,H'00,H'18,H'C6,H'30,H'00,H'8E,H'30,H'20,H'00,H'0C,H'0C,
             0C0C0000C0 +                       H'70,H'C6,H'63,H'80,H'0C,H'63,H'30,H'00,H'E6,H'31,H'80,H'19,H'D8,H'E0,H'01,H'F8,
             E010060601 +                       H'7E,H'00,H'0F,H'C7,H'E0,H'00,H'1C,H'60,H'20,H'00,H'04,H'06,H'38,H'7C,H'3F,H'00,
             C7000001E3 +                       H'07,H'E3,H'F0,H'00,H'7E,H'1B,H'80,H'19,H'D8,H'60,H'01,H'9C,H'6E,H'00,H'0D,H'C6,
             8600807070 +                       H'60,H'00,H'1C,H'40,H'3F,H'FF,H'FC,H'07,H'1C,H'66,H'33,H'00,H'0E,H'63,H'30,H'00,
             0806030080 +                       H'66,H'1F,H'80,H'19
             301FD81806   
             0381806038   
             1803038E1F   
             FFF871C301   
             C060301C0C   
             0181C06009   
             D830030783   
             80307C3801   
             87183FFFFC   
             38E183E1C0   




SH SERIES C/C++ Compiler (Ver. 6.0C)                                                                 12-Apr-2021 13:38:38  PAGE   46


SCT OFFSET   CODE       C LABEL     INSTRUCTION OPERAND    COMMENT

             183E1C01C3   
             E0E019D860   
             018CC60018   
             C630008E30   
             20000C0C70   
             C663800C63   
             3000E63180   
             19D8E001F8   
             7E000FC7E0   
             001C602000   
             0406387C3F   
             0007E3F000   
             7E1B8019D8   
             60019C6E00   
             0DC660001C   
             403FFFFC07   
             1C6633000E   
             633000661F   
             8019         
    00000CD8 D830030EC3             .DATA.B     H'D8,H'30,H'03,H'0E,H'C3,H'00,H'18,H'6C,H'30,H'00,H'38,H'C0,H'1F,H'FF,H'F8,H'03,
             00186C3000 +                       H'1C,H'43,H'E1,H'80,H'1C,H'3E,H'18,H'00,H'C3,H'31,H'80,H'19,H'D8,H'18,H'07,H'07,
             38C01FFFF8 +                       H'81,H'80,H'30,H'78,H'18,H'02,H'31,H'80,H'00,H'00,H'00,H'01,H'8E,H'01,H'C0,H'C0,
             031C43E180 +                       H'18,H'1C,H'0C,H'01,H'81,H'E0,H'C0,H'19,H'D8,H'0C,H'0C,H'03,H'00,H'C0,H'60,H'10,
             1C3E1800C3 +                       H'0C,H'06,H'71,H'80,H'00,H'00,H'00,H'01,H'86,H'00,H'80,H'60,H'30,H'08,H'06,H'03,
             318019D818 +                       H'00,H'C0,H'60,H'19,H'D8,H'06,H'1C,H'00,H'00,H'E0,H'C0,H'10,H'06,H'0C,H'61,H'80,
             0707818030 +                       H'00,H'00,H'00,H'01,H'8E,H'00,H'00,H'70,H'E0,H'00,H'03,H'06,H'00,H'00,H'30,H'19,
             7818023180 +                       H'D8,H'03,H'30,H'03,H'00,H'31,H'80,H'10,H'03,H'18,H'7B,H'80,H'00,H'00,H'00,H'01,
             000000018E +                       H'DE,H'00,H'80,H'19,H'C0,H'18,H'01,H'8C,H'00,H'C0,H'18,H'99,H'D8,H'61,H'E1,H'87,
             01C0C0181C +                       H'82,H'1F,H'08,H'78,H'21,H'F0,H'7F,H'80,H'00,H'00,H'00,H'01,H'F8,H'03,H'C1,H'0F,
             0C0181E0C0 +                       H'84,H'3E,H'10,H'F8,H'41,H'E1,H'8C,H'99,H'D8,H'40,H'C0,H'8E,H'C4,H'0E,H'08,H'EC,
             19D80C0C03 +                       H'20,H'E0,H'01,H'80,H'3F,H'FF,H'FC,H'01,H'00,H'03,H'60,H'07,H'00,H'66,H'10,H'70,
             00C060100C +                       H'63,H'F1,H'07,H'99,H'D8,H'00,H'40,H'18,H'60,H'04,H'00,H'C6,H'00,H'40,H'00,H'80,
             0671800000 +                       H'7F,H'FF,H'FE,H'01
             0001860080   
             6030080603   
             00C06019D8   
             061C0000E0   
             C010060C61   
             8000000001   
             8E000070E0   
             0003060000   
             3019D80330   
             0300318010   
             03187B8000   
             000001DE00   
             8019C01801   
             8C00C01899   
             D861E18782   
             1F087821F0   
             7F80000000   
             01F803C10F   
             843E10F841   
             E18C99D840   
             C08EC40E08   
             EC20E00180   
             3FFFFC0100   
             0360070066   




SH SERIES C/C++ Compiler (Ver. 6.0C)                                                                 12-Apr-2021 13:38:38  PAGE   47


SCT OFFSET   CODE       C LABEL     INSTRUCTION OPERAND    COMMENT

             107063F107   
             99D8004018   
             600400C600   
             4000807FFF   
             FE01         
    00000DAC 0706300200             .DATA.B     H'07,H'06,H'30,H'02,H'00,H'C3,H'00,H'20,H'06,H'38,H'03,H'19,H'D8,H'80,H'C0,H'30,
             C300200638 +                       H'30,H'04,H'03,H'83,H'80,H'40,H'FD,H'80,H'60,H'00,H'06,H'03,H'3F,H'1C,H'18,H'02,
             0319D880C0 +                       H'01,H'81,H'C0,H'20,H'0E,H'0C,H'00,H'19,H'D8,H'80,H'E0,H'60,H'18,H'0C,H'03,H'01,
             3030040383 +                       H'80,H'E0,H'FF,H'80,H'40,H'00,H'06,H'03,H'73,H'18,H'0C,H'06,H'03,H'00,H'C0,H'70,
             8040FD8060 +                       H'18,H'06,H'03,H'19,H'D8,H'C1,H'F0,H'C0,H'0C,H'1E,H'0E,H'00,H'C1,H'F0,H'E1,H'80,
             0006033F1C +                       H'60,H'41,H'06,H'03,H'03,H'30,H'06,H'0F,H'86,H'00,H'70,H'F8,H'30,H'07,H'07,H'99,
             18020181C0 +                       H'D8,H'E3,H'39,H'80,H'06,H'3B,H'9C,H'00,H'63,H'98,H'E1,H'C0,H'7F,H'FF,H'FE,H'06,
             200E0C0019 +                       H'43,H'00,H'03,H'19,H'CE,H'00,H'31,H'8C,H'70,H'03,H'8F,H'99,H'D8,H'76,H'1F,H'80,
             D880E06018 +                       H'03,H'71,H'98,H'00,H'37,H'1C,H'61,H'E0,H'3F,H'FF,H'F8,H'06,H'47,H'00,H'01,H'B8,
             0C030180E0 +                       H'FC,H'00,H'1B,H'86,H'E0,H'01,H'DC,H'99,H'D8,H'66,H'19,H'80,H'03,H'71,H'98,H'00,
             FF80400006 +                       H'37,H'1C,H'60,H'70,H'00,H'00,H'00,H'0C,H'87,H'00,H'01,H'98,H'CC,H'00,H'19,H'86,
             0373180C06 +                       H'C0,H'00,H'DC,H'19,H'D8,H'43,H'30,H'C0,H'06,H'3B,H'0C,H'00,H'63,H'B8,H'70,H'B8,
             0300C07018 +                       H'00,H'00,H'00,H'18,H'86,H'20,H'03,H'0F,H'86,H'00,H'30,H'CC,H'60,H'01,H'8C,H'09,
             060319D8C1 +                       H'DC,H'01,H'E0,H'60
             F0C00C1E0E   
             00C1F0E180   
             6041060303   
             30060F8600   
             70F8300707   
             99D8E33980   
             063B9C0063   
             98E1C07FFF   
             FE06430003   
             19CE00318C   
             70038F99D8   
             761F800371   
             9800371C61   
             E03FFFF806   
             470001B8FC   
             001B86E001   
             DC99D86619   
             8003719800   
             371C607000   
             00000C8700   
             0198CC0019   
             86C000DC19   
             D84330C006   
             3B0C0063B8   
             70B8000000   
             188620030F   
             860030CC60   
             018C09DC01   
             E060         
    00000E80 0C1E0600C1             .DATA.B     H'0C,H'1E,H'06,H'00,H'C1,H'E0,H'30,H'0E,H'00,H'00,H'00,H'71,H'0E,H'30,H'06,H'07,
             E0300E0000 +                       H'03,H'00,H'60,H'78,H'30,H'03,H'06,H'1F,H'0E,H'00,H'C0,H'30,H'18,H'0C,H'03,H'01,
             00710E3006 +                       H'80,H'40,H'30,H'47,H'00,H'00,H'00,H'E3,H'0E,H'18,H'0C,H'02,H'01,H'80,H'C0,H'30,
             0703006078 +                       H'18,H'06,H'02,H'38,H'06,H'00,H'40,H'18,H'30,H'04,H'03,H'83,H'00,H'40,H'38,H'23,
             3003061F0E +                       H'C0,H'00,H'07,H'C6,H'1C,H'1C,H'38,H'02,H'00,H'C1,H'80,H'20,H'0C,H'0C,H'02,H'30,
             00C030180C +                       H'FE,H'00,H'C0,H'0C,H'60,H'0C,H'00,H'C6,H'00,H'40,H'1C,H'18,H'F8,H'00,H'1F,H'0C,
             0301804030 +                       H'38,H'06,H'30,H'06,H'00,H'63,H'00,H'30,H'06,H'18,H'02,H'37,H'FE,H'61,H'E0,H'87,
             47000000E3 +                       H'C6,H'0E,H'08,H'6C,H'20,H'E0,H'0E,H'0C,H'1F,H'C7,H'FC,H'18,H'78,H'43,H'E2,H'0F,
             0E180C0201 +                       H'04,H'3E,H'10,H'70,H'23,H'31,H'06,H'3F,H'36,H'23,H'B1,H'03,H'82,H'3B,H'08,H'38,




SH SERIES C/C++ Compiler (Ver. 6.0C)                                                                 12-Apr-2021 13:38:38  PAGE   48


SCT OFFSET   CODE       C LABEL     INSTRUCTION OPERAND    COMMENT

             80C0301806 +                       H'21,H'B0,H'0F,H'06,H'0F,H'FF,H'F0,H'70,H'F0,H'01,H'C1,H'1D,H'80,H'1C,H'08,H'FC,
             0238060040 +                       H'41,H'E1,H'8E,H'36,H'36,H'06,H'18,H'01,H'00,H'31,H'80,H'10,H'03,H'18,H'07,H'81,
             1830040383 +                       H'C0,H'7F,H'81,H'C1,H'E0,H'01,H'80,H'38,H'C0,H'08,H'01,H'8C,H'00,H'C0,H'1C,H'36,
             00403823C0 +                       H'36,H'0C,H'0C,H'00,H'00,H'60,H'E0,H'00,H'06,H'0C,H'03,H'C0,H'F0,H'00,H'0F,H'03,
             0007C61C1C +                       H'C0,H'00,H'00,H'20
             380200C180   
             200C0C0230   
             FE00C00C60   
             0C00C60040   
             1C18F8001F   
             0C38063006   
             0063003006   
             180237FE61   
             E087C60E08   
             6C20E00E0C   
             1FC7FC1878   
             43E20F043E   
             1070233106   
             3F3623B103   
             823B083821   
             B00F060FFF   
             F070F001C1   
             1D801C08FC   
             41E18E3636   
             0618010031   
             8010031807   
             81C07F81C1   
             E0018038C0   
             08018C00C0   
             1C36360C0C   
             000060E000   
             060C03C0F0   
             000F03C000   
             0020         
    00000F54 6008030700             .DATA.B     H'60,H'08,H'03,H'07,H'00,H'C0,H'38,H'36,H'36,H'18,H'06,H'03,H'81,H'80,H'60,H'30,
             C038363618 +                       H'0C,H'06,H'01,H'F0,H'39,H'80,H'7C,H'0F,H'03,H'01,H'80,H'C0,H'30,H'1C,H'06,H'03,
             0603818060 +                       H'00,H'C0,H'60,H'36,H'36,H'38,H'03,H'07,H'C3,H'80,H'30,H'78,H'18,H'03,H'00,H'7C,
             300C0601F0 +                       H'01,H'80,H'60,H'1E,H'01,H'83,H'C1,H'C0,H'18,H'3E,H'0C,H'01,H'80,H'E0,H'E0,H'36,
             39807C0F03 +                       H'36,H'20,H'01,H'8C,H'C3,H'00,H'18,H'EC,H'30,H'01,H'80,H'3F,H'01,H'9C,H'70,H'FC,
             0180C0301C +                       H'00,H'C6,H'63,H'00,H'0C,H'66,H'18,H'00,H'E3,H'F1,H'C0,H'36,H'36,H'60,H'00,H'FC,
             060300C060 +                       H'7E,H'00,H'0D,H'C7,H'E0,H'00,H'FC,H'0F,H'E3,H'BF,H'33,H'F0,H'00,H'FC,H'3F,H'00,
             3636380307 +                       H'07,H'E3,H'B0,H'00,H'73,H'3B,H'80,H'36,H'36,H'60,H'00,H'F8,H'66,H'00,H'0D,H'C7,
             C380307818 +                       H'E0,H'00,H'FC,H'03,H'FF,H'1F,H'3F,H'C0,H'00,H'FC,H'33,H'00,H'06,H'E1,H'F0,H'00,
             03007C0180 +                       H'76,H'1F,H'00,H'36,H'36,H'20,H'01,H'8C,H'C3,H'00,H'18,H'EC,H'30,H'01,H'86,H'00,
             601E0183C1 +                       H'7F,H'00,H'1E,H'00,H'00,H'C6,H'61,H'80,H'0C,H'33,H'18,H'00,H'63,H'31,H'80,H'36,
             C0183E0C01 +                       H'36,H'30,H'03,H'07,H'C1,H'80,H'30,H'7C,H'18,H'03,H'87,H'80,H'0F,H'00,H'1C,H'00,
             80E0E03636 +                       H'01,H'83,H'C1,H'C0,H'18,H'3E,H'0C,H'00,H'C1,H'E0,H'C0,H'36,H'36,H'18,H'06,H'03,
             20018CC300 +                       H'00,H'C0,H'60,H'18
             18EC300180   
             3F019C70FC   
             00C663000C   
             661800E3F1   
             C036366000   
             FC7E000DC7   
             E000FC0FE3   
             BF33F000FC   
             3F0007E3B0   




SH SERIES C/C++ Compiler (Ver. 6.0C)                                                                 12-Apr-2021 13:38:38  PAGE   49


SCT OFFSET   CODE       C LABEL     INSTRUCTION OPERAND    COMMENT

             00733B8036   
             366000F866   
             000DC7E000   
             FC03FF1F3F   
             C000FC3300   
             06E1F00076   
             1F00363620   
             018CC30018   
             EC30018600   
             7F001E0000   
             C661800C33   
             1800633180   
             3636300307   
             C180307C18   
             0387800F00   
             1C000183C1   
             C0183E0C00   
             C1E0C03636   
             18060300C0   
             6018         
    00001028 0C06018002             .DATA.B     H'0C,H'06,H'01,H'80,H'02,H'20,H'08,H'04,H'03,H'01,H'80,H'60,H'30,H'0C,H'06,H'01,
             2008040301 +                       H'80,H'C0,H'60,H'36,H'36,H'0C,H'0C,H'00,H'00,H'60,H'E0,H'10,H'0E,H'0E,H'01,H'00,
             8060300C06 +                       H'00,H'20,H'00,H'07,H'06,H'00,H'00,H'70,H'60,H'00,H'03,H'03,H'00,H'00,H'30,H'36,
             0180C06036 +                       H'36,H'06,H'18,H'03,H'00,H'31,H'80,H'10,H'03,H'18,H'01,H'00,H'00,H'00,H'00,H'03,
             360C0C0000 +                       H'8C,H'01,H'80,H'18,H'C0,H'08,H'03,H'86,H'00,H'C0,H'18,H'36,H'36,H'23,H'B0,H'07,
             60E0100E0E +                       H'82,H'1B,H'18,H'38,H'21,H'B0,H'83,H'83,H'18,H'08,H'1C,H'11,H'F8,H'83,H'C1,H'0F,
             0100002000 +                       H'8C,H'1C,H'00,H'CC,H'41,H'C0,H'0E,H'36,H'36,H'01,H'E0,H'8F,H'C6,H'0E,H'00,H'3C,
             0706000070 +                       H'01,H'E0,H'86,H'C2,H'0F,H'04,H'3E,H'30,H'F0,H'46,H'00,H'0C,H'04,H'3E,H'10,H'78,
             6000030300 +                       H'23,H'E1,H'06,H'36,H'36,H'00,H'C0,H'0C,H'60,H'04,H'00,H'06,H'00,H'40,H'0C,H'60,
             0030363606 +                       H'06,H'00,H'63,H'00,H'60,H'00,H'00,H'00,H'00,H'73,H'00,H'30,H'03,H'30,H'02,H'36,
             1803003180 +                       H'36,H'00,H'00,H'38,H'30,H'00,H'1F,H'84,H'70,H'00,H'38,H'38,H'00,H'01,H'C1,H'80,
             1003180100 +                       H'00,H'00,H'3E,H'00,H'E0,H'01,H'C0,H'20,H'0E,H'1C,H'02,H'36,H'36,H'00,H'C0,H'30,
             000000038C +                       H'18,H'00,H'FF,H'80,H'7E,H'00,H'30,H'18,H'06,H'01,H'80,H'C0,H'60,H'03,H'FE,H'01,
             018018C008 +                       H'FC,H'00,H'C0,H'20
             038600C018   
             363623B007   
             821B183821   
             B083831808   
             1C11F883C1   
             0F8C1C00CC   
             41C00E3636   
             01E08FC60E   
             003C01E086   
             C20F043E30   
             F046000C04   
             3E107823E1   
             06363600C0   
             0C60040006   
             00400C6006   
             0063006000   
             0000007300   
             3003300236   
             3600003830   
             001F847000   
             38380001C1   
             8000003E00   
             E001C0200E   




SH SERIES C/C++ Compiler (Ver. 6.0C)                                                                 12-Apr-2021 13:38:38  PAGE   50


SCT OFFSET   CODE       C LABEL     INSTRUCTION OPERAND    COMMENT

             1C02363600   
             C0301800FF   
             807E003018   
             060180C060   
             03FE01FC00   
             C020         
    000010FC 0C0C023636             .DATA.B     H'0C,H'0C,H'02,H'36,H'36,H'41,H'E0,H'E0,H'0C,H'07,H'F1,H'80,H'EF,H'E0,H'60,H'0C,
             41E0E00C07 +                       H'0F,H'03,H'00,H'60,H'F0,H'0F,H'C6,H'01,H'FF,H'80,H'60,H'78,H'38,H'06,H'06,H'36,
             F180EFE060 +                       H'36,H'63,H'B0,H'C0,H'06,H'1F,H'87,H'FF,H'C1,H'F0,H'40,H'06,H'19,H'86,H'00,H'31,
             0C0F030060 +                       H'98,H'3E,H'0F,H'FF,H'87,H'C0,H'30,H'7C,H'70,H'03,H'0E,H'36,H'36,H'37,H'1B,H'80,
             F00FC601FF +                       H'00,H'3C,H'7F,H'FF,H'FC,H'7C,H'00,H'03,H'30,H'DC,H'00,H'1B,H'80,H'F0,H'FF,H'FF,
             8060783806 +                       H'F0,H'F0,H'19,H'CE,H'60,H'01,H'D8,H'36,H'36,H'36,H'1F,H'80,H'00,H'F1,H'F0,H'00,
             06363663B0 +                       H'0F,H'1E,H'00,H'03,H'F0,H'DC,H'00,H'3B,H'81,H'E3,H'C0,H'00,H'3C,H'3C,H'1F,H'86,
             C0061F87FF +                       H'C0,H'01,H'D8,H'36,H'36,H'63,H'31,H'80,H'01,H'E3,H'C0,H'00,H'03,H'C7,H'00,H'07,
             C1F0400619 +                       H'19,H'8C,H'00,H'71,H'C3,H'8F,H'00,H'00,H'0F,H'1E,H'18,H'CC,H'60,H'01,H'8E,H'36,
             860031983E +                       H'36,H'41,H'E0,H'C0,H'03,H'CE,H'00,H'00,H'F8,H'E3,H'C0,H'0E,H'1F,H'06,H'00,H'60,
             0FFF87C030 +                       H'8F,H'1C,H'00,H'00,H'03,H'C7,H'00,H'78,H'30,H'03,H'06,H'36,H'36,H'00,H'C0,H'60,
             7C70030E36 +                       H'07,H'1C,H'00,H'03,H'FC,H'31,H'E0,H'0C,H'0E,H'03,H'00,H'C0,H'0E,H'30,H'00,H'00,
             36371B8000 +                       H'00,H'E3,H'80,H'30,H'18,H'06,H'02,H'36,H'36,H'00,H'00,H'30,H'0E,H'38,H'00,H'0F,
             3C7FFFFC7C +                       H'CE,H'38,H'F0,H'38
             000330DC00   
             1B80F0FFFF   
             F0F019CE60   
             01D8363636   
             1F8000F1F0   
             000F1E0003   
             F0DC003B81   
             E3C0003C3C   
             1F86C001D8   
             3636633180   
             01E3C00003   
             C70007198C   
             0071C38F00   
             000F1E18CC   
             60018E3636   
             41E0C003CE   
             0000F8E3C0   
             0E1F060060   
             8F1C000003   
             C700783003   
             06363600C0   
             60071C0003   
             FC31E00C0E   
             0300C00E30   
             000000E380   
             3018060236   
             360000300E   
             38000FCE38   
             F038         
    000011D0 040181801C             .DATA.B     H'04,H'01,H'81,H'80,H'1C,H'63,H'C0,H'00,H'00,H'71,H'C0,H'20,H'0C,H'0C,H'02,H'36,
             63C0000071 +                       H'36,H'00,H'40,H'18,H'0C,H'70,H'00,H'0F,H'03,H'0C,H'70,H'70,H'04,H'00,H'C7,H'00,
             C0200C0C02 +                       H'38,H'DF,H'E0,H'00,H'00,H'38,H'E0,H'20,H'06,H'18,H'02,H'36,H'36,H'01,H'E0,H'0E,
             3636004018 +                       H'1C,H'60,H'00,H'0C,H'03,H'06,H'38,H'E2,H'06,H'04,H'7E,H'20,H'71,H'BF,H'E0,H'00,
             0C70000F03 +                       H'00,H'18,H'E0,H'30,H'03,H'31,H'06,H'36,H'36,H'23,H'F0,H'86,H'38,H'C0,H'00,H'0E,
             0C70700400 +                       H'0F,H'07,H'1C,H'C3,H'0F,H'08,H'3C,H'30,H'E3,H'30,H'60,H'00,H'00,H'0C,H'70,H'F8,
             C70038DFE0 +                       H'61,H'E0,H'86,H'36,H'36,H'03,H'18,H'02,H'30,H'C0,H'00,H'0F,H'3E,H'77,H'1C,H'00,
             000038E020 +                       H'19,H'80,H'18,H'00,H'E3,H'60,H'60,H'00,H'00,H'0E,H'31,H'CC,H'00,H'C0,H'0C,H'36,




SH SERIES C/C++ Compiler (Ver. 6.0C)                                                                 12-Apr-2021 13:38:38  PAGE   51


SCT OFFSET   CODE       C LABEL     INSTRUCTION OPERAND    COMMENT

             0618023636 +                       H'36,H'0E,H'0C,H'00,H'31,H'80,H'00,H'07,H'F8,H'67,H'8E,H'00,H'70,H'E0,H'10,H'01,
             01E00E1C60 +                       H'C2,H'60,H'E0,H'00,H'00,H'06,H'38,H'87,H'00,H'80,H'38,H'36,H'36,H'1C,H'06,H'00,
             000C030638 +                       H'61,H'80,H'00,H'03,H'F0,H'43,H'86,H'00,H'60,H'60,H'18,H'09,H'86,H'78,H'E0,H'00,
             E206047E20 +                       H'00,H'06,H'18,H'03,H'00,H'C0,H'30,H'36,H'36,H'38,H'03,H'04,H'63,H'00,H'00,H'00,
             71BFE00000 +                       H'00,H'61,H'8E,H'01,H'C0,H'30,H'3C,H'19,H'86,H'4D,H'C0,H'00,H'00,H'06,H'3C,H'01,
             18E0300331 +                       H'81,H'C0,H'60,H'36
             06363623F0   
             8638C0000E   
             0F071CC30F   
             083C30E330   
             6000000C70   
             F861E08636   
             3603180230   
             C0000F3E77   
             1C00198018   
             00E3606000   
             000E31CC00   
             C00C36360E   
             0C00318000   
             07F8678E00   
             70E01001C2   
             60E0000006   
             3887008038   
             36361C0600   
             61800003F0   
             4386006060   
             18098678E0   
             0000061803   
             00C0303636   
             3803046300   
             000000618E   
             01C0303C19   
             864DC00000   
             063C0181C0   
             6036         
    000012A4 3630038CFF             .DATA.B     H'36,H'30,H'03,H'8C,H'FF,H'00,H'00,H'00,H'07,H'FD,H'FE,H'01,H'80,H'18,H'66,H'31,
             00000007FD +                       H'FE,H'4F,H'80,H'00,H'00,H'03,H'F8,H'00,H'C3,H'70,H'C0,H'36,H'36,H'60,H'01,H'DC,
             FE01801866 +                       H'7B,H'00,H'00,H'00,H'1F,H'FD,H'E0,H'23,H'00,H'0C,H'C3,H'70,H'EE,H'6E,H'00,H'00,
             31FE4F8000 +                       H'00,H'03,H'80,H'00,H'66,H'39,H'80,H'36,H'36,H'60,H'00,H'FC,H'01,H'00,H'00,H'00,
             0003F800C3 +                       H'1C,H'19,H'02,H'36,H'00,H'0F,H'C3,H'70,H'02,H'7C,H'00,H'00,H'00,H'00,H'04,H'00,
             70C0363660 +                       H'7E,H'1F,H'00,H'36,H'36,H'60,H'01,H'8C,H'F1,H'80,H'00,H'00,H'18,H'19,H'3F,H'23,
             01DC7B0000 +                       H'00,H'0C,H'E6,H'31,H'E6,H'00,H'00,H'00,H'00,H'06,H'7C,H'00,H'63,H'31,H'80,H'36,
             001FFDE023 +                       H'36,H'30,H'03,H'04,H'FF,H'80,H'00,H'00,H'38,H'3B,H'7F,H'01,H'80,H'18,H'7C,H'13,
             000CC370EE +                       H'FE,H'00,H'00,H'00,H'00,H'07,H'FC,H'00,H'C3,H'F0,H'C0,H'36,H'36,H'18,H'06,H'00,
             6E00000003 +                       H'C1,H'80,H'00,H'00,H'30,H'33,H'43,H'00,H'C0,H'30,H'18,H'01,H'86,H'00,H'00,H'00,
             8000663980 +                       H'00,H'0C,H'0C,H'01,H'80,H'C0,H'60,H'36,H'36,H'0C,H'0C,H'00,H'C1,H'C0,H'00,H'00,
             36366000FC +                       H'30,H'72,H'47,H'00,H'60,H'60,H'10,H'01,H'87,H'00,H'00,H'00,H'00,H'0C,H'0C,H'03,
             010000001C +                       H'00,H'C0,H'30,H'26,H'36,H'06,H'18,H'00,H'E0,H'C0,H'00,H'00,H'3F,H'E6,H'47,H'00,
             190236000F +                       H'70,H'C0,H'10,H'01
             C370027C00   
             0000000400   
             7E1F003636   
             60018CF180   
             000018193F   
             23000CE631   
             E600000000   
             067C006331   




SH SERIES C/C++ Compiler (Ver. 6.0C)                                                                 12-Apr-2021 13:38:38  PAGE   52


SCT OFFSET   CODE       C LABEL     INSTRUCTION OPERAND    COMMENT

             8036363003   
             04FF800000   
             383B7F0180   
             187C13FE00   
             00000007FC   
             00C3F0C036   
             36180600C1   
             8000003033   
             4300C03018   
             0186000000   
             000C0C0180   
             C06036360C   
             0C00C1C000   
             0030724700   
             6060100187   
             000000000C   
             0C0300C030   
             2636061800   
             E0C000003F   
             E6470070C0   
             1001         
    00001378 8780000000             .DATA.B     H'87,H'80,H'00,H'00,H'00,H'18,H'0C,H'06,H'00,H'80,H'38,H'66,H'36,H'03,H'30,H'04,
             180C060080 +                       H'60,H'60,H'00,H'00,H'1F,H'CC,H'C7,H'00,H'19,H'88,H'38,H'11,H'81,H'C0,H'00,H'00,
             3866360330 +                       H'00,H'19,H'1C,H'CC,H'00,H'C0,H'00,H'EC,H'33,H'01,H'E1,H'84,H'60,H'30,H'00,H'00,
             0460600000 +                       H'00,H'1C,H'86,H'02,H'1F,H'08,H'7C,H'31,H'80,H'C0,H'00,H'00,H'00,H'33,H'1C,H'78,
             1FCCC70019 +                       H'41,H'E1,H'81,H'DC,H'1B,H'80,H'C0,H'0C,H'60,H'9C,H'00,H'00,H'00,H'39,H'0E,H'20,
             88381181C0 +                       H'06,H'00,H'C6,H'01,H'C0,H'70,H'00,H'00,H'00,H'E6,H'18,H'30,H'03,H'30,H'03,H'B8,
             000000191C +                       H'1D,H'C0,H'00,H'38,H'70,H'0E,H'00,H'00,H'00,H'73,H'0E,H'38,H'00,H'01,H'83,H'80,
             CC00C000EC +                       H'C1,H'38,H'00,H'00,H'01,H'C4,H'38,H'20,H'0E,H'1C,H'07,H'70,H'0E,H'E0,H'C0,H'30,
             3301E18460 +                       H'30,H'47,H'80,H'00,H'01,H'C6,H'1C,H'18,H'04,H'03,H'01,H'80,H'E0,H'8E,H'00,H'00,
             300000001C +                       H'07,H'8C,H'38,H'20,H'0C,H'0C,H'0E,H'E0,H'07,H'F0,H'E0,H'E0,H'38,H'31,H'E0,H'00,
             86021F087C +                       H'07,H'8C,H'1C,H'0C,H'0E,H'06,H'00,H'C0,H'70,H'47,H'80,H'00,H'1E,H'18,H'70,H'70,
             3180C00000 +                       H'18,H'06,H'1D,H'C0,H'03,H'B8,H'30,H'C0,H'1C,H'18,H'7C,H'00,H'3E,H'18,H'38,H'06,
             00331C7841 +                       H'1F,H'0E,H'00,H'60,H'70,H'61,H'F0,H'00,H'F8,H'30,H'E0,H'F8,H'70,H'00,H'3B,H'80,
             E181DC1B80 +                       H'01,H'FC,H'19,H'80
             C00C609C00   
             0000390E20   
             0600C601C0   
             70000000E6   
             1830033003   
             B81DC00038   
             700E000000   
             730E380001   
             8380C13800   
             0001C43820   
             0E1C07700E   
             E0C0303047   
             800001C61C   
             1804030180   
             E08E000007   
             8C38200C0C   
             0EE007F0E0   
             E03831E000   
             078C1C0C0E   
             0600C07047   
             80001E1870   
             7018061DC0   




SH SERIES C/C++ Compiler (Ver. 6.0C)                                                                 12-Apr-2021 13:38:38  PAGE   53


SCT OFFSET   CODE       C LABEL     INSTRUCTION OPERAND    COMMENT

             03B830C01C   
             187C003E18   
             38061F0E00   
             607061F000   
             F830E0F870   
             003B8001FC   
             1980         
    0000144C 0E0C3FFFF8             .DATA.B     H'0E,H'0C,H'3F,H'FF,H'F8,H'30,H'70,H'03,H'31,H'98,H'00,H'32,H'38,H'30,H'7F,H'FF,
             3070033198 +                       H'E0,H'C1,H'E1,H'8C,H'60,H'00,H'77,H'00,H'00,H'F6,H'1F,H'80,H'0F,H'03,H'01,H'FF,
             003238307F +                       H'80,H'C0,H'E0,H'03,H'F1,H'F8,H'00,H'3E,H'1C,H'0E,H'03,H'FF,H'03,H'83,H'C3,H'86,
             FFE0C1E18C +                       H'C0,H'00,H'EE,H'00,H'00,H'77,H'01,H'80,H'07,H'81,H'C0,H'3E,H'03,H'83,H'C0,H'03,
             6000770000 +                       H'39,H'8C,H'00,H'31,H'0F,H'07,H'00,H'7C,H'0E,H'07,H'81,H'8C,H'60,H'01,H'DC,H'00,
             F61F800F03 +                       H'00,H'3D,H'80,H'C0,H'01,H'E0,H'7C,H'00,H'7E,H'07,H'80,H'06,H'1F,H'06,H'00,H'61,
             01FF80C0E0 +                       H'87,H'81,H'F2,H'01,H'FC,H'1E,H'00,H'FC,H'30,H'03,H'B8,H'00,H'00,H'1D,H'C0,H'60,
             03F1F8003E +                       H'00,H'F0,H'1F,H'80,H'E0,H'0F,H'00,H'0C,H'0E,H'03,H'00,H'C0,H'C3,H'E0,H'37,H'01,
             1C0E03FF03 +                       H'C0,H'3C,H'00,H'78,H'38,H'07,H'70,H'00,H'00,H'0F,H'E0,H'30,H'30,H'7C,H'01,H'80,
             83C386C000 +                       H'60,H'3E,H'00,H'18,H'04,H'01,H'81,H'80,H'21,H'F8,H'06,H'01,H'80,H'F8,H'00,H'20,
             EE00007701 +                       H'0C,H'0E,H'E0,H'00,H'00,H'07,H'F0,H'18,H'70,H'1F,H'83,H'9E,H'71,H'F8,H'0C,H'30,
             800781C03E +                       H'04,H'01,H'C3,H'00,H'20,H'7E,H'06,H'79,H'C7,H'E0,H'00,H'20,H'0E,H'1D,H'C0,H'00,
             0383C00339 +                       H'00,H'03,H'F8,H'0C,H'C0,H'0F,H'F3,H'3F,H'3F,H'E0,H'06,H'60,H'0E,H'00,H'66,H'00,
             8C00310F07 +                       H'60,H'1F,H'CE,H'FC
             007C0E0781   
             8C6001DC00   
             003D80C001   
             E07C007E07   
             80061F0600   
             618781F201   
             FC1E00FC30   
             03B800001D   
             C06000F01F   
             80E00F000C   
             0E0300C0C3   
             E03701C03C   
             0078380770   
             00000FE030   
             307C018060   
             3E00180401   
             818021F806   
             0180F80020   
             0C0EE00000   
             07F018701F   
             839E71F80C   
             300401C300   
             207E0679C7   
             E000200E1D   
             C0000003F8   
             0CC00FF33F   
             3FE006600E   
             006600601F   
             CEFC         
    00001520 FFC0003004             .DATA.B     H'FF,H'C0,H'00,H'30,H'04,H'3B,H'80,H'00,H'00,H'01,H'FC,H'07,H'86,H'01,H'FF,H'18,
             3B80000001 +                       H'3F,H'00,H'03,H'C3,H'1F,H'08,H'3C,H'30,H'F0,H'07,H'FC,H'00,H'7E,H'00,H'10,H'78,
             FC078601FF +                       H'60,H'77,H'00,H'00,H'00,H'00,H'FE,H'03,H'00,H'00,H'3E,H'00,H'1C,H'00,H'01,H'80,
             183F0003C3 +                       H'31,H'80,H'18,H'11,H'D8,H'01,H'FC,H'00,H'70,H'00,H'00,H'CC,H'00,H'EE,H'00,H'00,
             1F083C30F0 +                       H'00,H'00,H'7F,H'01,H'00,H'40,H'06,H'00,H'18,H'00,H'01,H'00,H'70,H'C0,H'10,H'03,
             07FC007E00 +                       H'8C,H'00,H'1C,H'00,H'20,H'00,H'01,H'8C,H'01,H'DC,H'00,H'00,H'00,H'00,H'3F,H'83,
             1078607700 +                       H'00,H'C0,H'02,H'10,H'08,H'06,H'01,H'80,H'C0,H'60,H'18,H'06,H'06,H'00,H'08,H'70,




SH SERIES C/C++ Compiler (Ver. 6.0C)                                                                 12-Apr-2021 13:38:38  PAGE   54


SCT OFFSET   CODE       C LABEL     INSTRUCTION OPERAND    COMMENT

             000000FE03 +                       H'00,H'08,H'03,H'03,H'03,H'B8,H'00,H'00,H'00,H'00,H'1F,H'C3,H'01,H'80,H'00,H'38,
             00003E001C +                       H'00,H'03,H'03,H'81,H'80,H'30,H'38,H'0C,H'03,H'00,H'00,H'60,H'00,H'1C,H'06,H'01,
             0001803180 +                       H'87,H'70,H'00,H'00,H'00,H'00,H'0F,H'E1,H'C3,H'00,H'00,H'7C,H'00,H'01,H'86,H'E3,
             1811D801FC +                       H'80,H'18,H'7E,H'18,H'01,H'83,H'00,H'C0,H'00,H'3E,H'0C,H'01,H'0E,H'E0,H'00,H'00,
             00700000CC +                       H'00,H'00,H'07,H'F0,H'66,H'00,H'18,H'C6,H'30,H'00,H'CC,H'77,H'00,H'0C,H'C6,H'30,
             00EE000000 +                       H'00,H'C3,H'31,H'80,H'06,H'63,H'18,H'00,H'1D,H'C0,H'00,H'00,H'00,H'00,H'03,H'F8,
             007F010040 +                       H'7E,H'00,H'0F,H'C7
             0600180001   
             0070C01003   
             8C001C0020   
             00018C01DC   
             000000003F   
             8300C00210   
             08060180C0   
             6018060600   
             0870000803   
             0303B80000   
             00001FC301   
             8000380003   
             0381803038   
             0C03000060   
             001C060187   
             7000000000   
             0FE1C30000   
             7C000186E3   
             80187E1801   
             8300C0003E   
             0C010EE000   
             00000007F0   
             660018C630   
             00CC77000C   
             C63000C331   
             8006631800   
             1DC0000000   
             0003F87E00   
             0FC7         
    000015F4 E000FC3600             .DATA.B     H'E0,H'00,H'FC,H'36,H'00,H'0F,H'C3,H'70,H'00,H'6E,H'3F,H'00,H'07,H'E1,H'F0,H'00,
             0FC370006E +                       H'3B,H'80,H'00,H'00,H'00,H'00,H'01,H'CC,H'26,H'00,H'1C,H'C6,H'60,H'00,H'CC,H'63,
             3F0007E1F0 +                       H'00,H'0C,H'E3,H'30,H'00,H'6E,H'33,H'00,H'06,H'63,H'38,H'00,H'77,H'00,H'00,H'00,
             003B800000 +                       H'00,H'00,H'00,H'E6,H'03,H'00,H'38,H'7C,H'30,H'01,H'87,H'C1,H'80,H'18,H'76,H'18,
             000001CC26 +                       H'00,H'C7,H'61,H'80,H'0C,H'3E,H'1C,H'00,H'EE,H'00,H'00,H'00,H'00,H'00,H'00,H'7B,
             001CC66000 +                       H'01,H'80,H'60,H'38,H'18,H'03,H'03,H'80,H'C0,H'30,H'3C,H'0C,H'01,H'81,H'C0,H'C0,
             CC63000CE3 +                       H'18,H'1C,H'0C,H'01,H'DC,H'00,H'00,H'00,H'00,H'00,H'00,H'39,H'80,H'C0,H'60,H'10,
             30006E3300 +                       H'0C,H'06,H'01,H'00,H'60,H'60,H'18,H'06,H'03,H'00,H'80,H'60,H'30,H'08,H'06,H'03,
             0663380077 +                       H'B8,H'00,H'00,H'00,H'00,H'00,H'00,H'1D,H'C0,H'61,H'C0,H'10,H'07,H'0C,H'01,H'00,
             0000000000 +                       H'30,H'C0,H'00,H'07,H'06,H'00,H'00,H'30,H'60,H'08,H'03,H'87,H'70,H'00,H'00,H'00,
             00E6030038 +                       H'00,H'00,H'00,H'0E,H'E0,H'33,H'80,H'18,H'03,H'18,H'83,H'80,H'19,H'88,H'18,H'01,
             7C300187C1 +                       H'8C,H'01,H'80,H'18,H'C0,H'0C,H'01,H'0E,H'E0,H'00,H'00,H'00,H'00,H'00,H'00,H'07,
             8018761800 +                       H'70,H'1F,H'08,H'7C,H'21,H'F0,H'87,H'C3,H'0F,H'0C,H'3C,H'11,H'F8,H'43,H'C1,H'0F,
             C761800C3E +                       H'84,H'1E,H'10,H'1D
             1C00EE0000   
             000000007B   
             0180603818   
             030380C030   
             3C0C0181C0   
             C0181C0C01   
             DC00000000   




SH SERIES C/C++ Compiler (Ver. 6.0C)                                                                 12-Apr-2021 13:38:38  PAGE   55


SCT OFFSET   CODE       C LABEL     INSTRUCTION OPERAND    COMMENT

             00003980C0   
             60100C0601   
             0060601806   
             0300806030   
             080603B800   
             0000000000   
             1DC061C010   
             070C010030   
             C000070600   
             0030600803   
             8770000000   
             0000000EE0   
             3380180318   
             8380198818   
             018C018018   
             C00C010EE0   
             0000000000   
             0007701F08   
             7C21F087C3   
             0F0C3C11F8   
             43C10F841E   
             101D         
    000016C8 C000000000             .DATA.B     H'C0,H'00,H'00,H'00,H'00,H'00,H'00,H'03,H'B8,H'0C,H'08,H'6E,H'00,H'E0,H'0C,H'60,
             000003B80C +                       H'06,H'04,H'76,H'00,H'70,H'07,H'60,H'07,H'00,H'33,H'00,H'3B,H'80,H'00,H'00,H'00,
             086E00E00C +                       H'00,H'00,H'00,H'01,H'DC,H'04,H'00,H'C7,H'00,H'40,H'18,H'30,H'00,H'00,H'E3,H'00,
             6006047600 +                       H'20,H'0E,H'30,H'02,H'00,H'61,H'80,H'77,H'00,H'00,H'00,H'00,H'00,H'00,H'00,H'00,
             7007600700 +                       H'EE,H'04,H'03,H'81,H'80,H'40,H'30,H'18,H'04,H'01,H'81,H'80,H'20,H'1C,H'18,H'02,
             33003B8000 +                       H'00,H'C0,H'C0,H'EE,H'00,H'00,H'00,H'00,H'00,H'00,H'00,H'00,H'77,H'0C,H'03,H'00,
             0000000000 +                       H'C0,H'E0,H'60,H'0C,H'0F,H'03,H'00,H'C0,H'60,H'30,H'0C,H'07,H'01,H'80,H'61,H'FC,
             01DC0400C7 +                       H'00,H'00,H'00,H'00,H'00,H'00,H'00,H'00,H'3B,H'87,H'06,H'00,H'E1,H'F0,H'C0,H'06,
             0040183000 +                       H'1F,H'07,H'00,H'60,H'F0,H'70,H'07,H'0F,H'83,H'00,H'43,H'B8,H'00,H'00,H'00,H'00,
             00E300200E +                       H'00,H'00,H'00,H'00,H'1F,H'C1,H'8C,H'00,H'33,H'19,H'80,H'03,H'31,H'8C,H'00,H'31,
             3002006180 +                       H'98,H'E0,H'03,H'18,H'C6,H'00,H'07,H'70,H'00,H'00,H'00,H'00,H'00,H'00,H'00,H'00,
             7700000000 +                       H'0E,H'61,H'F8,H'00,H'3F,H'1F,H'80,H'03,H'F0,H'FC,H'00,H'1B,H'8F,H'C0,H'01,H'B8,
             00000000EE +                       H'EC,H'00,H'0E,H'E0,H'00,H'00,H'00,H'00,H'00,H'00,H'00,H'00,H'07,H'70,H'98,H'00,
             0403818040 +                       H'33,H'19,H'80,H'03
             3018040181   
             80201C1802   
             00C0C0EE00   
             0000000000   
             0000770C03   
             00C0E0600C   
             0F0300C060   
             300C070180   
             61FC000000   
             0000000000   
             3B870600E1   
             F0C0061F07   
             0060F07007   
             0F830043B8   
             0000000000   
             0000001FC1   
             8C00331980   
             03318C0031   
             98E00318C6   
             0007700000   
             0000000000   




SH SERIES C/C++ Compiler (Ver. 6.0C)                                                                 12-Apr-2021 13:38:38  PAGE   56


SCT OFFSET   CODE       C LABEL     INSTRUCTION OPERAND    COMMENT

             000E61F800   
             3F1F8003F0   
             FC001B8FC0   
             01B8EC000E   
             E000000000   
             0000000007   
             7098003319   
             8003         
    0000179C 30CC001B8D             .DATA.B     H'30,H'CC,H'00,H'1B,H'8D,H'C0,H'01,H'98,H'CC,H'00,H'1D,H'C0,H'00,H'00,H'00,H'00,
             C00198CC00 +                       H'00,H'00,H'00,H'00,H'03,H'98,H'0C,H'00,H'E1,H'F0,H'E0,H'06,H'19,H'86,H'00,H'31,
             1DC0000000 +                       H'D8,H'60,H'03,H'1D,H'C6,H'00,H'3B,H'80,H'00,H'00,H'00,H'00,H'00,H'00,H'00,H'00,
             0000000000 +                       H'01,H'CC,H'06,H'00,H'C0,H'E0,H'60,H'0C,H'0F,H'03,H'00,H'60,H'F0,H'70,H'06,H'0F,
             03980C00E1 +                       H'83,H'00,H'77,H'00,H'00,H'00,H'00,H'00,H'00,H'00,H'00,H'00,H'00,H'EE,H'03,H'01,
             F0E0061986 +                       H'80,H'40,H'30,H'18,H'06,H'01,H'80,H'C0,H'60,H'18,H'0C,H'02,H'01,H'80,H'EE,H'00,
             0031D86003 +                       H'00,H'00,H'00,H'00,H'00,H'00,H'00,H'00,H'00,H'73,H'01,H'87,H'00,H'00,H'18,H'30,
             1DC6003B80 +                       H'00,H'01,H'C1,H'80,H'20,H'1C,H'18,H'02,H'00,H'E1,H'DC,H'00,H'00,H'00,H'00,H'00,
             0000000000 +                       H'00,H'00,H'00,H'00,H'00,H'3B,H'80,H'C6,H'00,H'E0,H'0C,H'60,H'06,H'00,H'63,H'00,
             00000001CC +                       H'20,H'06,H'30,H'02,H'00,H'43,H'B8,H'00,H'00,H'00,H'00,H'00,H'00,H'00,H'00,H'00,
             0600C0E060 +                       H'00,H'1D,H'C0,H'7C,H'61,H'F0,H'87,H'C3,H'0F,H'04,H'3E,H'10,H'F0,H'43,H'E3,H'0F,
             0C0F030060 +                       H'86,H'07,H'70,H'00,H'00,H'00,H'00,H'00,H'00,H'00,H'00,H'00,H'00,H'0E,H'E0,H'10,
             F070060F83 +                       H'00,H'00,H'01,H'00,H'1D,H'88,H'1C,H'10,H'00,H'01,H'80,H'00,H'00,H'0E,H'E0,H'00,
             0077000000 +                       H'00,H'00,H'00,H'00
             0000000000   
             0000EE0301   
             8040301806   
             0180C06018   
             0C020180EE   
             0000000000   
             0000000000   
             7301870000   
             18300001C1   
             80201C1802   
             00E1DC0000   
             0000000000   
             0000003B80   
             C600E00C60   
             0600630020   
             0630020043   
             B800000000   
             0000000000   
             001DC07C61   
             F087C30F04   
             3E10F043E3   
             0F86077000   
             0000000000   
             000000000E   
             E010000001   
             001D881C10   
             0001800000   
             0EE0000000   
             0000         
    00001870 0000000000             .DATA.B     H'00,H'00,H'00,H'00,H'00,H'07,H'70,H'00,H'00,H'00,H'00,H'00,H'18,H'C0,H'08,H'00,
             0770000000 +                       H'00,H'00,H'00,H'00,H'00,H'1D,H'C0,H'00,H'00,H'00,H'00,H'00,H'00,H'00,H'00,H'00,
             000018C008 +                       H'00,H'03,H'98,H'00,H'00,H'00,H'00,H'00,H'00,H'60,H'08,H'00,H'00,H'00,H'00,H'00,
             0000000000 +                       H'00,H'3F,H'80,H'00,H'00,H'00,H'00,H'00,H'00,H'00,H'00,H'00,H'00,H'01,H'DF,H'FF,
             001DC00000 +                       H'FF,H'FF,H'FF,H'FF,H'80,H'30,H'18,H'07,H'FF,H'FF,H'FF,H'FF,H'FF,H'F7,H'00,H'00,
             0000000000 +                       H'00,H'00,H'00,H'00,H'00,H'00,H'00,H'00,H'00,H'00,H'E3,H'FF,H'FF,H'FF,H'FF,H'FF,




SH SERIES C/C++ Compiler (Ver. 6.0C)                                                                 12-Apr-2021 13:38:38  PAGE   57


SCT OFFSET   CODE       C LABEL     INSTRUCTION OPERAND    COMMENT

             0000000398 +                       H'88,H'7C,H'3E,H'07,H'FF,H'FF,H'FF,H'FF,H'FF,H'CE,H'00,H'00,H'00,H'00,H'00,H'00,
             0000000000 +                       H'00,H'00,H'00,H'00,H'00,H'00,H'70,H'00,H'00,H'00,H'00,H'07,H'80,H'00,H'00,H'06,
             0060080000 +                       H'C0,H'00,H'00,H'00,H'00,H'1C,H'00,H'00,H'00,H'00,H'00,H'00,H'00,H'00,H'00,H'00,
             000000003F +                       H'00,H'00,H'3F,H'FF,H'FF,H'FF,H'FF,H'FF,H'80,H'00,H'00,H'07,H'FF,H'FF,H'FF,H'FF,
             8000000000 +                       H'FF,H'F8,H'00,H'00,H'00,H'00,H'00,H'00,H'00,H'00,H'00,H'00,H'00,H'00,H'0F,H'FF,
             0000000000 +                       H'FF,H'FF,H'FF,H'FE,H'9F,H'FF,H'FF,H'E6,H'FF,H'FF,H'FF,H'FF,H'FF,H'E0,H'00,H'00,
             0001DFFFFF +                       H'00,H'00,H'00,H'00,H'00,H'00,H'00,H'00,H'00,H'00,H'00,H'00,H'00,H'00,H'00,H'0C,
             FFFFFF8030 +                       H'FF,H'FF,H'FF,H'FC
             1807FFFFFF   
             FFFFF70000   
             0000000000   
             0000000000   
             E3FFFFFFFF   
             FF887C3E07   
             FFFFFFFFFF   
             CE00000000   
             0000000000   
             0000007000   
             0000000780   
             000006C000   
             0000001C00   
             0000000000   
             0000000000   
             003FFFFFFF   
             FFFF800000   
             07FFFFFFFF   
             FFF8000000   
             0000000000   
             000000000F   
             FFFFFFFFFE   
             9FFFFFE6FF   
             FFFFFFFFE0   
             0000000000   
             0000000000   
             0000000000   
             00000CFFFF   
             FFFC         
    00001944 C000000000             .DATA.B     H'C0,H'00,H'00,H'00,H'00,H'00,H'00,H'00,H'00,H'00,H'00,H'00,H'00,H'00,H'00,H'00,
             0000000000 +                       H'00,H'00,H'00,H'00,H'00,H'00,H'00,H'0C,H'00,H'00,H'00,H'04,H'C0,H'00,H'00,H'00,
             0000000000 +                       H'00,H'00,H'00,H'00,H'00,H'00,H'00,H'00,H'00,H'00,H'00,H'00,H'00,H'00,H'00,H'00,
             0000000000 +                       H'00,H'00,H'00,H'0C,H'00,H'00,H'00,H'00,H'C0,H'00,H'00,H'00,H'00,H'00,H'00,H'00,
             0000000C00 +                       H'00,H'00,H'00,H'00,H'00,H'00,H'00,H'00,H'00,H'00,H'00,H'00,H'00,H'00,H'00,H'0C,
             000004C000 +                       H'7F,H'FF,H'FF,H'FC,H'C0,H'00,H'00,H'00,H'00,H'00,H'00,H'00,H'00,H'00,H'00,H'00,
             0000000000 +                       H'00,H'00,H'00,H'00,H'00,H'00,H'00,H'00,H'00,H'00,H'00,H'0C,H'7F,H'FF,H'FF,H'FC,
             0000000000 +                       H'C0,H'00,H'00,H'00,H'00,H'00,H'00,H'00,H'00,H'00,H'00,H'00,H'00,H'00,H'00,H'00,
             0000000000 +                       H'00,H'00,H'00,H'00,H'00,H'00,H'00,H'0C,H'7F,H'FF,H'FF,H'F8,H'C0,H'00,H'00,H'00,
             0000000000 +                       H'00,H'00,H'00,H'00,H'00,H'00,H'00,H'00
             000C000000   
             00C0000000   
             0000000000   
             0000000000   
             0000000000   
             000000000C   
             7FFFFFFCC0   
             0000000000   
             0000000000   
             0000000000   




SH SERIES C/C++ Compiler (Ver. 6.0C)                                                                 12-Apr-2021 13:38:38  PAGE   58


SCT OFFSET   CODE       C LABEL     INSTRUCTION OPERAND    COMMENT

             0000000000   
             00000C7FFF   
             FFFCC00000   
             0000000000   
             0000000000   
             0000000000   
             0000000000   
             0C7FFFFFF8   
             C000000000   
             0000000000   
             0000         
    000019DC              __$AmongIvCUs:                   ; static: AmongIvCUs
    000019DC FCE0080000             .DATA.B     H'FC,H'E0,H'08,H'00,H'00,H'00,H'3F,H'FF,H'FC,H'84,H'40,H'03,H'13,H'FF,H'04,H'00,
             003FFFFC84 +                       H'C0,H'F0,H'08,H'00,H'00,H'00,H'27,H'F3,H'B0,H'04,H'40,H'03,H'33,H'BF,H'00,H'06,
             400313FF04 +                       H'C1,H'78,H'0F,H'C0,H'04,H'C0,H'20,H'00,H'01,H'84,H'40,H'02,H'23,H'02,H'00,H'48,
             00C0F00800 +                       H'C1,H'34,H'3F,H'F0,H'0C,H'40,H'33,H'38,H'06,H'C1,H'80,H'00,H'0C,H'C2,H'00,H'08,
             000027F3B0 +                       H'E3,H'24,H'70,H'7C,H'24,H'40,H'31,H'39,H'8C,H'4E,H'00,H'01,H'D8,H'E7,H'00,H'08,
             04400333BF +                       H'E3,H'24,H'FE,H'1B,H'C0,H'00,H'18,H'1B,H'1E,H'79,H'00,H'01,H'18,H'CF,H'00,H'04,
             0006C1780F +                       H'73,H'FD,H'E7,H'11,H'C1,H'00,H'18,H'06,H'0F,H'C0,H'00,H'00,H'18,H'CE,H'78,H'00,
             C004C02000 +                       H'73,H'E1,H'83,H'19,H'C1,H'00,H'18,H'82,H'61,H'C0,H'00,H'00,H'18,H'CF,H'80,H'00,
             0184400223 +                       H'33,H'01,H'83,H'4C,H'EE,H'00,H'1C,H'C0,H'61,H'EE,H'0F,H'80,H'37,H'8C,H'81,H'FE,
             020048C134 +                       H'3F,H'81,H'83,H'44,H'C3,H'E0,H'1E,H'30,H'39,H'FC,H'20,H'80,H'23,H'10,H'81,H'10,
             3FF00C4033 +                       H'3C,H'81,H'FE,H'66,H'63,H'90,H'0E,H'30,H'18,H'38,H'20,H'80,H'20,H'10,H'E1,H'10,
             3806C18000 +                       H'65,H'81,H'FC,H'66,H'63,H'10,H'0E,H'12,H'10,H'3C,H'00,H'80,H'1C,H'7D,H'81,H'98,
             0CC20008E3 +                       H'40,H'40,H'80,H'26,H'21,H'17,H'0C,H'0F,H'98,H'3E,H'1F,H'00,H'CC,H'FF,H'3F,H'FE,
             24707C2440 +                       H'64,H'40,H'80,H'02
             31398C4E00   
             01D8E70008   
             E324FE1BC0   
             00181B1E79   
             000118CF00   
             0473FDE711   
             C10018060F   
             C0000018CE   
             780073E183   
             19C1001882   
             61C0000018   
             CF80003301   
             834CEE001C   
             C061EE0F80   
             378C81FE3F   
             818344C3E0   
             1E3039FC20   
             8023108110   
             3C81FE6663   
             900E301838   
             20802010E1   
             106581FC66   
             63100E1210   
             3C00801C7D   
             8198404080   
             2621170C0F   
             983E1F00CC   
             FF3FFE6440   
             8002         
    00001AB0 318E0C1BFF             .DATA.B     H'31,H'8E,H'0C,H'1B,H'FF,H'C6,H'10,H'F8,H'FF,H'80,H'7F,H'F8,H'7E,H'40,H'C4,H'02,
             C610F8FF80 +                       H'73,H'04,H'0E,H'18,H'07,H'06,H'00,H'C8,H'88,H'00,H'FF,H'FC,H'1F,H'80,H'4E,H'12,




SH SERIES C/C++ Compiler (Ver. 6.0C)                                                                 12-Apr-2021 13:38:38  PAGE   59


SCT OFFSET   CODE       C LABEL     INSTRUCTION OPERAND    COMMENT

             7FF87E40C4 +                       H'73,H'04,H'1C,H'3C,H'00,H'3E,H'00,H'8C,H'88,H'0F,H'F8,H'3E,H'00,H'00,H'6E,H'33,
             0273040E18 +                       H'E3,H'80,H'1C,H'7F,H'80,H'3E,H'05,H'CC,H'88,H'3F,H'E0,H'0E,H'00,H'01,H'F0,H'E3,
             070600C888 +                       H'08,H'00,H'06,H'C3,H'FF,H'E8,H'0A,H'38,H'FE,H'3F,H'00,H'0E,H'00,H'0F,H'F0,H'06,
             00FFFC1F80 +                       H'08,H'20,H'07,H'DF,H'3F,H'FE,H'00,H'18,H'0E,H'3C,H'03,H'C6,H'00,H'0C,H'70,H'3B,
             4E1273041C +                       H'00,H'03,H'86,H'DC,H'00,H'0F,H'80,H'30,H'06,H'3C,H'07,H'E6,H'00,H'0C,H'00,H'D1,
             3C003E008C +                       H'E0,H'03,H'FF,H'C0,H'30,H'03,H'ED,H'E0,H'03,H'39,H'07,H'FE,H'0D,H'0E,H'07,H'81,
             880FF83E00 +                       H'B8,H'01,H'8F,H'C3,H'FF,H'E0,H'60,H'00,H'23,H'F3,H'0E,H'1E,H'08,H'8F,H'9F,H'C1,
             006E33E380 +                       H'80,H'40,H'C3,H'07,H'07,H'FC,H'33,H'00,H'20,H'F2,H'03,H'86,H'08,H'89,H'FC,H'E1,
             1C7F803E05 +                       H'80,H'48,H'C2,H'0E,H'00,H'1F,H'32,H'03,H'85,H'F2,H'01,H'E6,H'08,H'80,H'E4,H'71,
             CC883FE00E +                       H'88,H'01,H'0C,H'4F,H'E0,H'03,H'B2,H'03,H'87,H'F8,H'60,H'06,H'FD,H'80,H'47,H'33,
             0001F0E308 +                       H'00,H'03,H'1C,H'CF,H'FF,H'E1,H'30,H'03,H'45,H'FC,H'40,H'06,H'DD,H'00,H'2C,H'1F,
             0006C3FFE8 +                       H'00,H'4E,H'38,H'C1
             0A38FE3F00   
             0E000FF006   
             082007DF3F   
             FE00180E3C   
             03C6000C70   
             3B000386DC   
             000F803006   
             3C07E6000C   
             00D1E003FF   
             C03003EDE0   
             033907FE0D   
             0E0781B801   
             8FC3FFE060   
             0023F30E1E   
             088F9FC180   
             40C30707FC   
             330020F203   
             860889FCE1   
             8048C20E00   
             1F320385F2   
             01E60880E4   
             7188010C4F   
             E003B20387   
             F86006FD80   
             473300031C   
             CFFFE13003   
             45FC4006DD   
             002C1F004E   
             38C1         
    00001B84 FFF1302047             .DATA.B     H'FF,H'F1,H'30,H'20,H'47,H'8C,H'00,H'0E,H'88,H'03,H'38,H'00,H'20,H'4C,H'70,H'E0,
             8C000E8803 +                       H'1F,H'FF,H'B0,H'20,H'07,H'0C,H'00,H'1E,H'89,H'E7,H'00,H'00,H'61,H'90,H'E0,H'F8,
             3800204C70 +                       H'01,H'FF,H'B2,H'60,H'07,H'0C,H'00,H'18,H'D9,H'06,H'07,H'32,H'61,H'31,H'C2,H'3F,
             E01FFFB020 +                       H'80,H'00,H'10,H'40,H'83,H'80,H'00,H'1E,H'F0,H'00,H'C6,H'F0,H'03,H'23,H'C7,H'CF,
             070C001E89 +                       H'FC,H'00,H'08,H'00,H'C7,H'C0,H'3C,H'1E,H'C0,H'30,H'1F,H'20,H'22,H'47,H'87,H'E0,
             E700006190 +                       H'7F,H'FF,H'C8,H'00,H'CF,H'E0,H'7C,H'0E,H'00,H'7C,H'3E,H'00,H'00,H'C7,H'0F,H'C0,
             E0F801FFB2 +                       H'07,H'FF,H'CC,H'81,H'47,H'F1,H'FC,H'4E,H'10,H'20,H'F0,H'00,H'08,H'8F,H'1F,H'C0,
             60070C0018 +                       H'00,H'00,H'0C,H'81,H'01,H'FF,H'FE,H'0E,H'12,H'23,H'C1,H'7F,H'81,H'1E,H'1F,H'80,
             D906073261 +                       H'00,H'00,H'C4,H'82,H'03,H'1F,H'FE,H'06,H'B2,H'23,H'07,H'FF,H'D3,H'1E,H'0F,H'00,
             31C23F8000 +                       H'00,H'03,H'E6,H'10,H'1E,H'00,H'3F,H'06,H'90,H'1E,H'0F,H'01,H'C3,H'3C,H'3E,H'00,
             1040838000 +                       H'00,H'03,H'E2,H'30,H'3C,H'00,H'1F,H'02,H'10,H'7F,H'7E,H'00,H'72,H'3C,H'7E,H'00,
             1EF000C6F0 +                       H'00,H'01,H'E2,H'30,H'78,H'1F,H'07,H'80,H'C0,H'00,H'78,H'3C,H'36,H'38,H'7F,H'80,
             0323C7CFFC +                       H'00,H'01,H'F2,H'20,H'F0,H'7F,H'E7,H'C6,H'03,H'F8,H'18,H'7E,H'0E,H'38,H'7E,H'00,
             000800C7C0 +                       H'00,H'01,H'73,H'21
             3C1EC0301F   
             20224787E0   




SH SERIES C/C++ Compiler (Ver. 6.0C)                                                                 12-Apr-2021 13:38:38  PAGE   60


SCT OFFSET   CODE       C LABEL     INSTRUCTION OPERAND    COMMENT

             7FFFC800CF   
             E07C0E007C   
             3E0000C70F   
             C007FFCC81   
             47F1FC4E10   
             20F000088F   
             1FC000000C   
             8101FFFE0E   
             1223C17F81   
             1E1F800000   
             C482031FFE   
             06B22307FF   
             D31E0F0000   
             03E6101E00   
             3F06901E0F   
             01C33C3E00   
             0003E2303C   
             001F02107F   
             7E00723C7E   
             000001E230   
             781F0780C0   
             00783C3638   
             7F800001F2   
             20F07FE7C6   
             03F8187E0E   
             387E000001   
             7321         
    00001C58 E06F7FFE0F             .DATA.B     H'E0,H'6F,H'7F,H'FE,H'0F,H'FF,H'CF,H'FB,H'0E,H'38,H'FC,H'03,H'06,H'00,H'73,H'23,
             FFCFFB0E38 +                       H'C0,H'DF,H'C7,H'FE,H'0C,H'00,H'E7,H'C9,H'06,H'30,H'FC,H'03,H'FF,H'E0,H'73,H'07,
             FC03060073 +                       H'C0,H'DF,H'F3,H'0E,H'0C,H'00,H'63,H'F9,H'86,H'31,H'BC,H'38,H'00,H'7F,H'F3,H'0F,
             23C0DFC7FE +                       H'80,H'C0,H'33,H'30,H'CC,H'FE,H'31,H'B1,H'86,H'31,H'7C,H'78,H'00,H'1F,H'F1,H'1B,
             0C00E7C906 +                       H'00,H'60,H'13,H'10,H'0C,H'F9,H'31,H'B1,H'86,H'31,H'7C,H'20,H'00,H'01,H'F1,H'1B,
             30FC03FFE0 +                       H'00,H'78,H'07,H'4E,H'0C,H'F7,H'30,H'FF,H'07,H'23,H'7C,H'00,H'00,H'00,H'F9,H'9E,
             7307C0DFF3 +                       H'00,H'3E,H'06,H'6E,H'0C,H'02,H'34,H'FC,H'03,H'E2,H'78,H'01,H'80,H'00,H'79,H'9E,
             0E0C0063F9 +                       H'1C,H'07,H'E6,H'26,H'8C,H'00,H'74,H'6C,H'00,H'E2,H'F0,H'33,H'80,H'00,H'79,H'9C,
             8631BC3800 +                       H'19,H'C0,H'FE,H'66,H'CF,H'FF,H'E0,H'6C,H'00,H'44,H'F2,H'38,H'81,H'E0,H'38,H'9C,
             7FF30F80C0 +                       H'00,H'00,H'7F,H'F0,H'CD,H'3F,H'80,H'6E,H'04,H'44,H'E2,H'1C,H'F3,H'F0,H'38,H'84,
             3330CCFE31 +                       H'C0,H'00,H'C0,H'00,H'C9,H'00,H'00,H'7E,H'0C,H'C4,H'E3,H'1F,H'FF,H'F8,H'78,H'86,
             B186317C78 +                       H'80,H'01,H'C0,H'06,H'8B,H'30,H'00,H'7F,H'08,H'CD,H'E3,H'8F,H'7E,H'79,H'78,H'86,
             001FF11B00 +                       H'07,H'C1,H'C0,H'06,H'FB,H'00,H'00,H'7F,H'09,H'8D,H'C7,H'80,H'00,H'03,H'F8,H'86,
             6013100CF9 +                       H'07,H'C3,H'C0,H'06
             31B186317C   
             200001F11B   
             0078074E0C   
             F730FF0723   
             7C000000F9   
             9E003E066E   
             0C0234FC03   
             E278018000   
             799E1C07E6   
             268C00746C   
             00E2F03380   
             00799C19C0   
             FE66CFFFE0   
             6C0044F238   
             81E0389C00   
             007FF0CD3F   




SH SERIES C/C++ Compiler (Ver. 6.0C)                                                                 12-Apr-2021 13:38:38  PAGE   61


SCT OFFSET   CODE       C LABEL     INSTRUCTION OPERAND    COMMENT

             806E0444E2   
             1CF3F03884   
             C000C000C9   
             00007E0CC4   
             E31FFFF878   
             868001C006   
             8B30007F08   
             CDE38F7E79   
             788607C1C0   
             06FB00007F   
             098DC78000   
             03F88607C3   
             C006         
    00001D2C C700006709             .DATA.B     H'C7,H'00,H'00,H'67,H'09,H'8D,H'8F,H'C0,H'00,H'07,H'DC,H'C6,H'07,H'E7,H'80,H'0E,
             8D8FC00007 +                       H'C7,H'20,H'00,H'4E,H'01,H'8F,H'CF,H'C3,H'FF,H'C3,H'DC,H'C6,H'07,H'F3,H'80,H'06,
             DCC607E780 +                       H'CF,H'00,H'00,H'7C,H'01,H'9B,H'CC,H'87,H'FF,H'E1,H'DC,H'C2,H'03,H'F3,H'00,H'06,
             0EC720004E +                       H'BE,H'00,H'60,H'F8,H'03,H'1B,H'CC,H'0C,H'00,H'31,H'FC,H'C3,H'01,H'F0,H'20,H'02,
             018FCFC3FF +                       H'10,H'00,H'60,H'C0,H'13,H'1B,H'CC,H'0C,H'00,H'30,H'FC,H'CF,H'01,H'C8,H'30,H'12,
             C3DCC607F3 +                       H'34,H'00,H'60,H'40,H'93,H'17,H'C8,H'18,H'33,H'18,H'FC,H'CC,H'80,H'7E,H'01,H'E2,
             8006CF0000 +                       H'E8,H'3F,H'F0,H'60,H'03,H'37,H'DA,H'18,H'00,H'18,H'7C,H'CC,H'00,H'3F,H'03,H'06,
             7C019BCC87 +                       H'60,H'70,H'F0,H'60,H'03,H'37,H'D2,H'30,H'00,H'0C,H'7C,H'CC,H'20,H'1F,H'E2,H'16,
             FFE1DCC203 +                       H'68,H'60,H'38,H'73,H'F6,H'3F,H'80,H'30,H'00,H'0C,H'7C,H'CC,H'78,H'04,H'11,H'16,
             F30006BE00 +                       H'6C,H'60,H'38,H'37,H'F6,H'3F,H'80,H'32,H'18,H'44,H'3C,H'CC,H'FC,H'00,H'11,H'E2
             60F8031BCC   
             0C0031FCC3   
             01F0200210   
             0060C0131B   
             CC0C0030FC   
             CF01C83012   
             3400604093   
             17C8183318   
             FCCC807E01   
             E2E83FF060   
             0337DA1800   
             187CCC003F   
             03066070F0   
             600337D230   
             000C7CCC20   
             1FE2166860   
             3873F63F80   
             30000C7CCC   
             780411166C   
             603837F63F   
             803218443C   
             CCFC0011E2   
    00001DCC              __$RunIvC1:                      ; static: RunIvC1
    00001DCC 00FFE00300             .DATA.B     H'00,H'FF,H'E0,H'03,H'00,H'10,H'04,H'00,H'08,H'08,H'7F,H'F8,H'10,H'A0,H'04,H'11,
             1004000808 +                       H'40,H'02,H'21,H'40,H'02,H'3F,H'40,H'02,H'41,H'40,H'02,H'7F,H'40,H'02,H'21,H'40,
             7FF810A004 +                       H'02,H'21,H'43,H'E2,H'20,H'A0,H'04,H'10,H'7F,H'F8,H'08,H'00,H'08,H'08,H'00,H'30,
             1140022140 +                       H'0F,H'80,H'10,H'08,H'80,H'10,H'07,H'00,H'10,H'04,H'00,H'10,H'08,H'00,H'08,H'08,
             023F400241 +                       H'7F,H'88,H'08,H'40,H'88,H'07,H'80,H'70
             40027F4002   
             2140022143   
             E220A00410   
             7FF8080008   
             0800300F80   
             1008801007   




SH SERIES C/C++ Compiler (Ver. 6.0C)                                                                 12-Apr-2021 13:38:38  PAGE   62


SCT OFFSET   CODE       C LABEL     INSTRUCTION OPERAND    COMMENT

             0010040010   
             080008087F   
             8808408807   
             8070         
    00001E14              __$I3:                           ; static: I3
    00001E14 07FF000800             .DATA.B     H'07,H'FF,H'00,H'08,H'00,H'C0,H'10,H'00,H'20,H'1F,H'FE,H'10,H'20,H'05,H'08,H'40,
             C01000201F +                       H'02,H'88,H'40,H'02,H'84,H'40,H'02,H'FC,H'40,H'02,H'82,H'40,H'02,H'FE,H'40,H'02,
             FE10200508 +                       H'84,H'47,H'C2,H'84,H'20,H'05,H'04,H'1F,H'FE,H'08,H'10,H'00,H'10,H'0C,H'00,H'10,
             4002884002 +                       H'08,H'01,H'F0,H'08,H'01,H'10,H'08,H'00,H'E0,H'08,H'00,H'20,H'10,H'00,H'10,H'11,
             844002FC40 +                       H'FE,H'10,H'11,H'02,H'10,H'0E,H'01,H'E0
             02824002FE   
             40028447C2   
             842005041F   
             FE08100010   
             0C00100801   
             F008011008   
             00E0080020   
             10001011FE   
             101102100E   
             01E0         
    00001E5C              __$I2:                           ; static: I2
    00001E5C 01FFF00600             .DATA.B     H'01,H'FF,H'F0,H'06,H'00,H'08,H'08,H'00,H'04,H'10,H'FF,H'FC,H'21,H'40,H'02,H'22,
             0808000410 +                       H'80,H'01,H'42,H'80,H'01,H'7E,H'80,H'01,H'82,H'80,H'01,H'FE,H'80,H'01,H'42,H'80,
             FFFC214002 +                       H'01,H'42,H'87,H'F1,H'41,H'40,H'02,H'20,H'FF,H'FC,H'10,H'00,H'04,H'1C,H'00,H'1C,
             2280014280 +                       H'20,H'00,H'0A,H'5A,H'00,H'0D,H'44,H'00,H'09,H'38,H'00,H'0E,H'08,H'3F,H'88,H'04,
             017E800182 +                       H'21,H'08,H'03,H'C1,H'10,H'00,H'01,H'E0
             8001FE8001   
             4280014287   
             F141400220   
             FFFC100004   
             1C001C2000   
             0A5A000D44   
             000938000E   
             083F880421   
             0803C11000   
             01E0         
    00001EA4              __$I4:                           ; static: I4
    00001EA4 0FFF801000             .DATA.B     H'0F,H'FF,H'80,H'10,H'00,H'60,H'20,H'00,H'10,H'3F,H'FF,H'08,H'40,H'02,H'84,H'80,
             602000103F +                       H'01,H'44,H'80,H'01,H'42,H'80,H'01,H'7E,H'80,H'01,H'41,H'80,H'01,H'7F,H'80,H'01,
             FF08400284 +                       H'42,H'8F,H'E1,H'42,H'40,H'02,H'82,H'3F,H'FF,H'04,H'20,H'00,H'08,H'38,H'00,H'38,
             8001448001 +                       H'50,H'00,H'04,H'B0,H'00,H'5A,H'90,H'00,H'22,H'70,H'00,H'1C,H'11,H'FC,H'10,H'10,
             4280017E80 +                       H'84,H'20,H'08,H'83,H'C0,H'07,H'80,H'00
             014180017F   
             8001428FE1   
             424002823F   
             FF04200008   
             3800385000   
             04B0005A90   
             002270001C   
             11FC101084   
             200883C007   
             8000         
    00001EEC              __$TerrainIvC29:                 ; static: TerrainIvC29
    00001EEC C000C7E0D8             .DATA.B     H'C0,H'00,H'C7,H'E0,H'D8,H'18,H'E0,H'07,H'C0,H'00,H'C0,H'00,H'C7,H'E0,H'DF,H'F8,
             18E007C000 +                       H'F8,H'1F,H'E0,H'07,H'C0,H'00,H'C0,H'00,H'C0,H'00,H'C0,H'00,H'C0,H'00,H'C0,H'00
             C000C7E0DF   
             F8F81FE007   




SH SERIES C/C++ Compiler (Ver. 6.0C)                                                                 12-Apr-2021 13:38:38  PAGE   63


SCT OFFSET   CODE       C LABEL     INSTRUCTION OPERAND    COMMENT

             C000C000C0   
             00C000C000   
             C000         
    00001F0C              __$TerrainIvC30:                 ; static: TerrainIvC30
    00001F0C 000007E018             .DATA.B     H'00,H'00,H'07,H'E0,H'18,H'18,H'E0,H'07,H'00,H'00,H'00,H'00,H'07,H'E0,H'1F,H'F8,
             18E0070000 +                       H'F8,H'1F,H'E0,H'07,H'00,H'00,H'00,H'00,H'00,H'00,H'00,H'00,H'00,H'00,H'00,H'00
             000007E01F   
             F8F81FE007   
             0000000000   
             0000000000   
             0000         
    00001F2C              __$TerrainIvC31:                 ; static: TerrainIvC31
    00001F2C 000107E118             .DATA.B     H'00,H'01,H'07,H'E1,H'18,H'19,H'E0,H'05,H'00,H'01,H'00,H'01,H'07,H'E1,H'1F,H'F9,
             19E0050001 +                       H'F8,H'1D,H'E0,H'05,H'00,H'01,H'00,H'01,H'00,H'01,H'00,H'01,H'00,H'01,H'00,H'01
             000107E11F   
             F9F81DE005   
             0001000100   
             0100010001   
             0001         
C$V 00000024              ___vtbl__11BoxCollider:          ; static: virtual function table for BoxCollider
    00000024 0000000000             .DATA.L     H'00000000,H'00000000
             000000       
    0000002C <00000000>             .DATA.L     ___T_11BoxCollider
    00000030 0000000000             .DATA.L     H'00000000,H'00000000
             000000       
    00000038 <00000000>             .DATA.L     _OnStart__11BoxColliderFv
    0000003C 0000000000             .DATA.L     H'00000000,H'00000000
             000000       
    00000044 <00000000>             .DATA.L     _OnUpdate__11BoxColliderFv
    00000048              ___vtbl__9Rigidbody:             ; static: virtual function table for Rigidbody
    00000048 0000000000             .DATA.L     H'00000000,H'00000000
             000000       
    00000050 <00000000>             .DATA.L     ___T_9Rigidbody
    00000054 0000000000             .DATA.L     H'00000000,H'00000000
             000000       
    0000005C <00000000>             .DATA.L     _OnStart__9RigidbodyFv
    00000060 0000000000             .DATA.L     H'00000000,H'00000000
             000000       
    00000068 <00000000>             .DATA.L     _OnUpdate__9RigidbodyFv
    0000006C              ___vtbl__19CharacterController:  ; static: virtual function table for CharacterController
    0000006C 0000000000             .DATA.L     H'00000000,H'00000000
             000000       
    00000074 <00000000>             .DATA.L     ___T_19CharacterController
    00000078 0000000000             .DATA.L     H'00000000,H'00000000
             000000       
    00000080 <00000000>             .DATA.L     _OnStart__19CharacterControllerFv
    00000084 0000000000             .DATA.L     H'00000000,H'00000000
             000000       
    0000008C <00000000>             .DATA.L     _OnUpdate__19CharacterControllerFv
    00000090              ___vtbl__15TestCompilation:      ; static: virtual function table for TestCompilation
    00000090 0000000000             .DATA.L     H'00000000,H'00000000
             000000       
    00000098 <00000000>             .DATA.L     ___T_15TestCompilation
    0000009C 0000000000             .DATA.L     H'00000000,H'00000000
             000000       
    000000A4 <00000000>             .DATA.L     _OnStart__15TestCompilationFv
    000000A8 0000000000             .DATA.L     H'00000000,H'00000000




SH SERIES C/C++ Compiler (Ver. 6.0C)                                                                 12-Apr-2021 13:38:38  PAGE   64


SCT OFFSET   CODE       C LABEL     INSTRUCTION OPERAND    COMMENT

             000000       
    000000B0 <00000000>             .DATA.L     _OnUpdate__15TestCompilationFv
C   00001F4C              L397:
    00001F4C 4465666175             .SDATA      "Default11"
             6C743131     
    00001F55 00                     .DATA.B     H'00
    00001F56 00000002               .RES.W      1
    00001F58              L398:
    00001F58 4465666175             .SDATA      "Default"
             6C74         
    00001F5F 00                     .DATA.B     H'00
    00001F60              L399:
    00001F60 4465666175             .SDATA      "Default12"
             6C743132     
    00001F69 00                     .DATA.B     H'00
    00001F6A 00000002               .RES.W      1
    00001F6C              L400:
    00001F6C 426F78                 .SDATA      "Box"
    00001F6F 00                     .DATA.B     H'00
    00001F70              L401:
    00001F70 4465666175             .SDATA      "Default1"
             6C7431       
    00001F78 00                     .DATA.B     H'00
    00001F79 00000001               .RES.B      1
    00001F7A 00000002               .RES.W      1
    00001F7C              L402:
    00001F7C 456E766972             .SDATA      "Environnement"
             6F6E6E656D   
             656E74       
    00001F89 00                     .DATA.B     H'00
    00001F8A 00000002               .RES.W      1
    00001F8C              L403:
    00001F8C 4465666175             .SDATA      "Default3"
             6C7433       
    00001F94 00                     .DATA.B     H'00
    00001F95 00000001               .RES.B      1
    00001F96 00000002               .RES.W      1
    00001F98              L404:
    00001F98 4465666175             .SDATA      "Default4"
             6C7434       
    00001FA0 00                     .DATA.B     H'00
    00001FA1 00000001               .RES.B      1
    00001FA2 00000002               .RES.W      1
    00001FA4              L405:
    00001FA4 4465666175             .SDATA      "Default5"
             6C7435       
    00001FAC 00                     .DATA.B     H'00
    00001FAD 00000001               .RES.B      1
    00001FAE 00000002               .RES.W      1
    00001FB0              L406:
    00001FB0 4465666175             .SDATA      "Default6"
             6C7436       
    00001FB8 00                     .DATA.B     H'00
    00001FB9 00000001               .RES.B      1
    00001FBA 00000002               .RES.W      1
    00001FBC              L407:
    00001FBC 4465666175             .SDATA      "Default7"




SH SERIES C/C++ Compiler (Ver. 6.0C)                                                                 12-Apr-2021 13:38:38  PAGE   65


SCT OFFSET   CODE       C LABEL     INSTRUCTION OPERAND    COMMENT

             6C7437       
    00001FC4 00                     .DATA.B     H'00
    00001FC5 00000001               .RES.B      1
    00001FC6 00000002               .RES.W      1
    00001FC8              L408:
    00001FC8 4465666175             .SDATA      "Default8"
             6C7438       
    00001FD0 00                     .DATA.B     H'00
    00001FD1 00000001               .RES.B      1
    00001FD2 00000002               .RES.W      1
    00001FD4              L409:
    00001FD4 4465666175             .SDATA      "Default9"
             6C7439       
    00001FDC 00                     .DATA.B     H'00
    00001FDD 00000001               .RES.B      1
    00001FDE 00000002               .RES.W      1
    00001FE0              L410:
    00001FE0 4465666175             .SDATA      "Default10"
             6C743130     
    00001FE9 00                     .DATA.B     H'00
    00001FEA 00000002               .RES.W      1
    00001FEC              L411:
    00001FEC 4465666175             .SDATA      "Default14"
             6C743134     
    00001FF5 00                     .DATA.B     H'00
    00001FF6 00000002               .RES.W      1
    00001FF8              L412:
    00001FF8 4465666175             .SDATA      "Default15"
             6C743135     
    00002001 00                     .DATA.B     H'00
    00002002 00000002               .RES.W      1
    00002004              L413:
    00002004 4465666175             .SDATA      "Default16"
             6C743136     
    0000200D 00                     .DATA.B     H'00
    0000200E 00000002               .RES.W      1
    00002010              L414:
    00002010 506C617965             .SDATA      "Player1"
             7231         
    00002017 00                     .DATA.B     H'00
    00002018              L415:
    00002018 506C617965             .SDATA      "Player"
             72           
    0000201E 00                     .DATA.B     H'00
    0000201F 00000001               .RES.B      1
    00002020              L441:
    00002020 4465666175             .SDATA      "Default31"
             6C743331     
    00002029 00                     .DATA.B     H'00
    0000202A 00000002               .RES.W      1
    0000202C              L442:
    0000202C 4465666175             .SDATA      "Default41"
             6C743431     
    00002035 00                     .DATA.B     H'00
    00002036 00000002               .RES.W      1
    00002038              L443:
    00002038 4465666175             .SDATA      "Default13"




SH SERIES C/C++ Compiler (Ver. 6.0C)                                                                 12-Apr-2021 13:38:38  PAGE   66


SCT OFFSET   CODE       C LABEL     INSTRUCTION OPERAND    COMMENT

             6C743133     
    00002041 00                     .DATA.B     H'00
    00002042 00000002               .RES.W      1
    00002044              L294:
    00002044 436F6D706F             .SDATA      "Component"
             6E656E74     
    0000204D 00                     .DATA.B     H'00
    0000204E 00000002               .RES.W      1
    00002050              L295:
    00002050 426F78436F             .SDATA      "BoxCollider"
             6C6C696465   
             72           
    0000205B 00                     .DATA.B     H'00
    0000205C              L296:
    0000205C 5269676964             .SDATA      "Rigidbody"
             626F6479     
    00002065 00                     .DATA.B     H'00
    00002066 00000002               .RES.W      1
    00002068              L297:
    00002068 4368617261             .SDATA      "CharacterController"
             6374657243   
             6F6E74726F   
             6C6C6572     
    0000207B 00                     .DATA.B     H'00
    0000207C              L298:
    0000207C 5465737443             .SDATA      "TestCompilation"
             6F6D70696C   
             6174696F6E   
    0000208B 00                     .DATA.B     H'00
D   00000030              __$__T_9Component:               ; static: typeinfo for Component
    00000030 <00000000>             .DATA.L     ___vtbl__Q2_3std9type_info,L294,__$__TID_9Component
             <00000000>   
             <00000000>   
    0000003C 00000000               .DATA.L     H'00000000
    00000040              ___T_11BoxCollider:              ; static: typeinfo for BoxCollider
    00000040 <00000000>             .DATA.L     ___vtbl__Q2_3std9type_info,L295,__$__TID_11BoxCollider,__$__T30041592
             <00000000>   
             <00000000>   
             <00000000>   
    00000050              ___T_9Rigidbody:                 ; static: typeinfo for Rigidbody
    00000050 <00000000>             .DATA.L     ___vtbl__Q2_3std9type_info,L296,__$__TID_9Rigidbody,__$__T30043148
             <00000000>   
             <00000000>   
             <00000000>   
    00000060              ___T_19CharacterController:      ; static: typeinfo for CharacterController
    00000060 <00000000>             .DATA.L     ___vtbl__Q2_3std9type_info,L297,__$__TID_19CharacterController,__$__T30044924
             <00000000>   
             <00000000>   
             <00000000>   
    00000070              ___T_15TestCompilation:          ; static: typeinfo for TestCompilation
    00000070 <00000000>             .DATA.L     ___vtbl__Q2_3std9type_info,L298,__$__TID_15TestCompilation,__$__T30046692
             <00000000>   
             <00000000>   
             <00000000>   
B   00000000              __$__TID_9Component:             ; static: type identifier for Component
    00000000 00000001               .RES.B      1
    00000001              __$__TID_11BoxCollider:          ; static: type identifier for BoxCollider




SH SERIES C/C++ Compiler (Ver. 6.0C)                                                                 12-Apr-2021 13:38:38  PAGE   67


SCT OFFSET   CODE       C LABEL     INSTRUCTION OPERAND    COMMENT

    00000001 00000001               .RES.B      1
    00000002              __$__TID_9Rigidbody:             ; static: type identifier for Rigidbody
    00000002 00000001               .RES.B      1
    00000003              __$__TID_19CharacterController:  ; static: type identifier for CharacterController
    00000003 00000001               .RES.B      1
    00000004              __$__TID_15TestCompilation:      ; static: type identifier for TestCompilation
    00000004 00000001               .RES.B      1






















































SH SERIES C/C++ Compiler (Ver. 6.0C)                                                                 12-Apr-2021 13:38:38  PAGE    1


******** STATISTICS INFORMATION ********


********** ERROR INFORMATION ***********

NUMBER OF ERRORS:           0
NUMBER OF WARNINGS:         0




******* SOURCE LINE INFORMATION ********

COMPILED SOURCE LINE:      357



******* SECTION SIZE INFORMATION *******

PROGRAM  SECTION (P):                               00000B68 Byte(s)
PROGRAM  SECTION (P$VTBL):                          00000000 Byte(s)
CONSTANT SECTION (C):                               0000208C Byte(s)
CONSTANT SECTION (C$VTBL):                          000000B4 Byte(s)
DATA     SECTION (D):                               00000080 Byte(s)
DATA     SECTION (D$VTBL):                          00000000 Byte(s)
BSS      SECTION (B):                               00000005 Byte(s)
BSS      SECTION (B$VTBL):                          00000000 Byte(s)

 TOTAL PROGRAM SIZE: 00002D2D Byte(s)



********** LABEL INFORMATION ***********

NUMBER OF EXTERNAL REFERENCE SYMBOLS:            5
NUMBER OF EXTERNAL DEFINITION SYMBOLS:          26
NUMBER OF INTERNAL/EXTERNAL SYMBOLS:           114


























*** COMMAND PARAMETER ***


  -subcommand=C:\Users\leofa\AppData\Local\Temp\hmk2C4C.tmp 

