SH SERIES C/C++ Compiler (Ver. 6.0C)                                                                 04-Nov-2020 00:50:49  PAGE    1

************ OBJECT LISTING ************

FILE NAME: C:\Users\leofa\OneDrive\Documents\CASIO\fx-9860G SDK\Tutoriel\LibText.c

SCT OFFSET   CODE       C LABEL     INSTRUCTION OPERAND    COMMENT

       LibText.c     1    #include <stdio.h>
       LibText.c     2    #include <stdlib.h>
       LibText.c     3    #include "LibText.h"
       LibText.c     4    
       LibText.c     5    //Thanks to Simon Lothar for this function
       LibText.c     6    typedef char*(*Txt_SC)(void);
       LibText.c     7    const unsigned int Txt_SC_VRAM[] = { 0xD201D002, 0x422B0009, 0x80010070, 0x0135 };
       LibText.c     8    #define Txt_GetVRAM (*(Txt_SC)Txt_SC_VRAM)
       LibText.c     9    char *Txt_VRAM;
       LibText.c    10    
       LibText.c    11    unsigned int *Txt_Fonts[TXT_FONTS];
       LibText.c    12    
       LibText.c    13    void Txt_Init(int fonts)
P   00000000              _Txt_Init:                       ; function: Txt_Init
                                                           ; frame size=928
                                                           ; used runtime library name:
                                                           ; __quick_mvn
    00000000 2FE6                   MOV.L       R14,@-R15
    00000002 2FD6                   MOV.L       R13,@-R15
    00000004 2FC6                   MOV.L       R12,@-R15
    00000006 2FB6                   MOV.L       R11,@-R15
    00000008 2FA6                   MOV.L       R10,@-R15
    0000000A 2F96                   MOV.L       R9,@-R15
    0000000C 2F86                   MOV.L       R8,@-R15
    0000000E 4F22                   STS.L       PR,@-R15
    00000010 908A                   MOV.W       L464,R0    ; H'FC80
    00000012 3F0C                   ADD         R0,R15
       LibText.c    14    {
       LibText.c    15      int i;
       LibText.c    16      Txt_VRAM = Txt_GetVRAM();
    00000014 D348                   MOV.L       L464+16,R3 ; _Txt_SC_VRAM
    00000016 430B                   JSR         @R3
    00000018 6B43                   MOV         R4,R11
    0000001A EE00                   MOV         #0,R14
    0000001C D247                   MOV.L       L464+20,R2 ; _Txt_VRAM
    0000001E 2202                   MOV.L       R0,@R2
    00000020 DD47                   MOV.L       L464+24,R13; _Txt_Fonts
    00000022 64D3                   MOV         R13,R4
    00000024 65D3                   MOV         R13,R5
    00000026 7528                   ADD         #40,R5
       LibText.c    17      for(i=0;i<TXT_FONTS;i++) Txt_Fonts[i] = NULL;
    00000028              L409:                             
    00000028 24E2                   MOV.L       R14,@R4
    0000002A 7404                   ADD         #4,R4
    0000002C 3452                   CMP/HS      R5,R4
    0000002E 8BFB                   BF          L409
       LibText.c    18    
       LibText.c    19      if(fonts & FONT_MINISD)
    00000030 DA44                   MOV.L       L464+28,R10; _malloc
    00000032 E201                   MOV         #1,R2
    00000034 22B8                   TST         R11,R2
    00000036 8D18                   BT/S        L410
    00000038 EC3C                   MOV         #60,R12
       LibText.c    20      {




SH SERIES C/C++ Compiler (Ver. 6.0C)                                                                 04-Nov-2020 00:50:49  PAGE    2


SCT OFFSET   CODE       C LABEL     INSTRUCTION OPERAND    COMMENT

       LibText.c    21        unsigned int FontMINISD[60] = {
       LibText.c    22        4141823955, 3682580223, 1845419005, 3086708726, 3756900315, 2142699373, 4275830199, 4218418911,
       LibText.c    23        3988773759, 3070193150, 3690838011, 1878450157, 3218833334, 4285398747, 4256693103, 37386,
       LibText.c    24        3490052053, 4092635221, 1436811305, 588403370,  6094850,    2154823681, 44070620,   2992575806,
       LibText.c    25        686520638,  1671231474, 2767708143, 941654081,  1117922190, 573207170,  3334254519, 1567855165,
       LibText.c    26        1843292668, 3526962103, 3687996563, 1438308644, 4158356918, 2875905864, 2913688939, 2297336406,
       LibText.c    27        3689788763, 2109037418, 1268071241, 823204133,  2499805191, 2281737134, 1299214898, 1567291594,
       LibText.c    28        3912944275, 1518754947, 1421565074, 3808118454, 2238323432, 493120424,  2045104738, 3687167243,
       LibText.c    29        1863658027, 678935377,  882006293,  2155380735 };
    0000003A 9976                   MOV.W       L464+2,R9  ; H'0290
    0000003C 9175                   MOV.W       L464+2,R1  ; H'0290
    0000003E 39FC                   ADD         R15,R9
    00000040 D241                   MOV.L       L464+32,R2 ; L307
    00000042 9073                   MOV.W       L464+4,R0  ; H'00F0
    00000044 D341                   MOV.L       L464+36,R3 ; __quick_mvn
    00000046 430B                   JSR         @R3
    00000048 31FC                   ADD         R15,R1
       LibText.c    30        Txt_Fonts[TXT_MINISD] = malloc(240);
    0000004A 946F                   MOV.W       L464+4,R4  ; H'00F0
    0000004C 4A0B                   JSR         @R10
    0000004E 0009                   NOP
    00000050 2D02                   MOV.L       R0,@R13
       LibText.c    31        for(i=0;i<60;i++) Txt_Fonts[TXT_MINISD][i] = FontMINISD[i];
    00000052 65E3                   MOV         R14,R5
    00000054 64E3                   MOV         R14,R4
    00000056 66D3                   MOV         R13,R6
    00000058              L411:                             
    00000058 6262                   MOV.L       @R6,R2
    0000005A 6043                   MOV         R4,R0
    0000005C 039E                   MOV.L       @(R0,R9),R3
    0000005E 7501                   ADD         #1,R5
    00000060 324C                   ADD         R4,R2
    00000062 35C3                   CMP/GE      R12,R5
    00000064 2232                   MOV.L       R3,@R2
    00000066 8FF7                   BF/S        L411
    00000068 7404                   ADD         #4,R4
    0000006A              L410:                             
       LibText.c    32      }
       LibText.c    33    
       LibText.c    34      if(fonts & FONT_7SEGMINI)
    0000006A E202                   MOV         #2,R2
    0000006C 22B8                   TST         R11,R2
    0000006E 8918                   BT          L412
       LibText.c    35      {
       LibText.c    36        unsigned int Font7SEGMINI[60] = {
       LibText.c    37        4141870527, 3682580223, 1845419005, 3086708726, 3756900315, 2142699373, 4275830199, 4218418911,
       LibText.c    38        3988773759, 3070193150, 3690838011, 1878450157, 3218833334, 4285398747, 4256693103, 37386,
       LibText.c    39        3490052052, 4090538069, 1436811346, 1149840042, 6094850, 2154823681, 44103390, 1227333439,
       LibText.c    40        1023113534, 1945958386, 1240981487, 1008762945, 1117922190, 573203074, 3302879159, 3716125309,
       LibText.c    41        1843296764, 4068044727, 3687997348, 3048921380, 4158356918, 4218419145, 3992968559, 2633929302,
       LibText.c    42        3689788763, 2109037418, 1268072338, 1896946835, 3573547015, 1140953022, 1333272178, 2112813532,
       LibText.c    43        4063940243, 3665976580, 3029818514, 3808116982, 2179931896, 1038384043, 2632574176, 1539355915,
       LibText.c    44        2097326597, 1215806289, 882006293, 2155380735 };
    00000070 995B                   MOV.W       L464+2,R9  ; H'0290
    00000072 39FC                   ADD         R15,R9
    00000074 9159                   MOV.W       L464+2,R1  ; H'0290
    00000076 D236                   MOV.L       L464+40,R2 ; L310




SH SERIES C/C++ Compiler (Ver. 6.0C)                                                                 04-Nov-2020 00:50:49  PAGE    3


SCT OFFSET   CODE       C LABEL     INSTRUCTION OPERAND    COMMENT

    00000078 9058                   MOV.W       L464+4,R0  ; H'00F0
    0000007A D334                   MOV.L       L464+36,R3 ; __quick_mvn
    0000007C 430B                   JSR         @R3
    0000007E 31FC                   ADD         R15,R1
       LibText.c    45        Txt_Fonts[TXT_7SEGMINI] = malloc(240);
    00000080 9454                   MOV.W       L464+4,R4  ; H'00F0
    00000082 4A0B                   JSR         @R10
    00000084 0009                   NOP
       LibText.c    46        for(i=0;i<60;i++) Txt_Fonts[TXT_7SEGMINI][i] = Font7SEGMINI[i];
    00000086 65E3                   MOV         R14,R5
    00000088 1D01                   MOV.L       R0,@(4,R13)
    0000008A 64E3                   MOV         R14,R4
    0000008C 66D3                   MOV         R13,R6
    0000008E 7604                   ADD         #4,R6
    00000090              L413:                             
    00000090 6262                   MOV.L       @R6,R2
    00000092 6043                   MOV         R4,R0
    00000094 039E                   MOV.L       @(R0,R9),R3
    00000096 7501                   ADD         #1,R5
    00000098 324C                   ADD         R4,R2
    0000009A 35C3                   CMP/GE      R12,R5
    0000009C 2232                   MOV.L       R3,@R2
    0000009E 8FF7                   BF/S        L413
    000000A0 7404                   ADD         #4,R4
    000000A2              L412:                             
       LibText.c    47      }
       LibText.c    48    
       LibText.c    49      if(fonts & FONT_SYSTEM)
    000000A2 E204                   MOV         #4,R2
    000000A4 9C43                   MOV.W       L464+6,R12 ; H'008C
    000000A6 22B8                   TST         R11,R2
    000000A8 8918                   BT          L414
       LibText.c    50      {
       LibText.c    51        unsigned int FontSYSTEM[140] = {
       LibText.c    52        4234352839, 4287390488, 4294020195, 536752524,  1677706801, 2357196998, 831520536,  3325165539,
       LibText.c    53        415645692,  1662568447, 2355304703, 4052509471, 4264660067, 4291178892, 2147010097, 2415859910,
       LibText.c    54        838853400,  3326082147, 415760268,  1662582769, 2355306494, 831284223,  3325135999, 4173738383,
       LibText.c    55        4279813681, 4293073094, 1073505048, 3355413603, 419426700,  1663041073, 2355363782, 831291384,
       LibText.c    56        3325136895, 415642111,  3810051647, 0,          69273664,   290082816,  2711383,    3567402638,
       LibText.c    57        797543560,  2291718442, 582118152,  2147483665, 277090376,  545530400,  78355794,   8714504,
       LibText.c    58        97,         268436448,  0,          207618594,  570455143,  1556464741, 138575313,  143167484,
       LibText.c    59        1141924577, 424867973,  4168622475, 2357754417, 2009211408, 2222220008, 3318647902, 288361568,
       LibText.c    60        415236492,  50888840,   2283831808, 2082406432, 2181597315, 2719027204, 1950538453, 3465314072,
       LibText.c    61        3352399779, 523907204,  586041905,  2360997955, 3498573576, 2047902627, 163983244,  1677248063,
       LibText.c    62        554189436,  3792733478, 1179960613, 406982788,  1058920113, 2355305686, 1904976664, 3324965987,
       LibText.c    63        3896643212, 1666791377, 2410227898, 812671727,  2424578313, 415641995,  2736309802, 610491094,
       LibText.c    64        2861323333, 1177652308, 1108599057, 286243080,  1108402241, 68174049,   138548104,  2826960896,
       LibText.c    65        31,         1627652096, 230136,     3188766307, 520097412,  585139635,  2354970682, 1065584199,
       LibText.c    66        277094400,  4173082244, 764986912,  538460728,  1076921638, 1108518441, 638616609,  469789365,
       LibText.c    67        2906655590, 830996712,  3324903485, 524419075,  3807413248, 3059812352, 260277220,  1896366668,
       LibText.c    68        4600219,    1074316618, 536942806,  2852139618, 845153362,  1650458872, 2291107972, 1091052048,
       LibText.c    69        2216757378, 272900608,  81149959,   4294967295 };
    000000AA 9941                   MOV.W       L464+8,R9  ; H'0150
    000000AC 9140                   MOV.W       L464+8,R1  ; H'0150
    000000AE 39FC                   ADD         R15,R9
    000000B0 D228                   MOV.L       L464+44,R2 ; L313
    000000B2 903E                   MOV.W       L464+10,R0 ; H'0230




SH SERIES C/C++ Compiler (Ver. 6.0C)                                                                 04-Nov-2020 00:50:49  PAGE    4


SCT OFFSET   CODE       C LABEL     INSTRUCTION OPERAND    COMMENT

    000000B4 D325                   MOV.L       L464+36,R3 ; __quick_mvn
    000000B6 430B                   JSR         @R3
    000000B8 31FC                   ADD         R15,R1
       LibText.c    70        Txt_Fonts[TXT_SYSTEM] = malloc(560);
    000000BA 943A                   MOV.W       L464+10,R4 ; H'0230
    000000BC 4A0B                   JSR         @R10
    000000BE 0009                   NOP
    000000C0 1D02                   MOV.L       R0,@(8,R13)
       LibText.c    71        for(i=0;i<140;i++) Txt_Fonts[TXT_SYSTEM][i] = FontSYSTEM[i];
    000000C2 65E3                   MOV         R14,R5
    000000C4 64E3                   MOV         R14,R4
    000000C6 66D3                   MOV         R13,R6
    000000C8 7608                   ADD         #8,R6
    000000CA              L415:                             
    000000CA 6043                   MOV         R4,R0
    000000CC 6262                   MOV.L       @R6,R2
    000000CE 7501                   ADD         #1,R5
    000000D0 039E                   MOV.L       @(R0,R9),R3
    000000D2 324C                   ADD         R4,R2
    000000D4 2232                   MOV.L       R3,@R2
    000000D6 35C3                   CMP/GE      R12,R5
    000000D8 8FF7                   BF/S        L415
    000000DA 7404                   ADD         #4,R4
    000000DC              L414:                             
       LibText.c    72      }
       LibText.c    73    
       LibText.c    74      if(fonts & FONT_7SEG)
    000000DC E208                   MOV         #8,R2
    000000DE 22B8                   TST         R11,R2
    000000E0 8918                   BT          L416
       LibText.c    75      {
       LibText.c    76        unsigned int Font7SEG[140] = {
       LibText.c    77        4234352839, 4287390488, 4294020195, 536752524, 1677706801, 2357196998, 831520536, 3325165539,
       LibText.c    78        415645692, 1662568447, 2355304703, 4052509471, 4264660067, 4291178892, 2147010097, 2415859910,
       LibText.c    79        838853400, 3326082147, 415760268, 1662582769, 2355306494, 831284223, 3325135999, 4173738383,
       LibText.c    80        4279813681, 4293073094, 1073505048, 3355413603, 419426700, 1663041073, 2355363782, 831291384,
       LibText.c    81        3325136895, 415642111, 3810051647, 0, 69273664, 290082816, 2711383, 3567402638,
       LibText.c    82        797542536, 2290669866, 582117640, 1073741858, 277094532, 277094672, 78355794, 8714504,
       LibText.c    83        33, 134218720, 0, 2097698, 570489955, 415752456, 1108379617, 266407932,
       LibText.c    84        569918456, 3326019651, 4165198095, 4278746673, 4290908292, 570188792, 3355413630, 284951552,
       LibText.c    85        134217856, 17318024, 2283831808, 2082406432, 2181597319, 3256057860, 4165204167, 4287397656,
       LibText.c    86        3354496931, 536744068, 570377777, 2357065795, 4035444488, 2115012577, 147210124, 1677248063,
       LibText.c    87        554189439, 3827370062, 1179960613, 406982788, 1058919985, 2355305686, 1905255192, 3326082147,
       LibText.c    88        4165083020, 1666807793, 2409830654, 284705791, 2424578313, 415641999, 3810051626, 610491094,
       LibText.c    89        3146536005, 1177652308, 1108599057, 286260752, 2216816705, 68174320, 2216759240, 2826960896,
       LibText.c    90        31, 1627652096, 508920, 4262496227, 528490372, 569410623, 2357067902, 1065864775,
       LibText.c    91        277094401, 4177280900, 569951776, 538460728, 1076921383, 1108518441, 638616609, 469789365,
       LibText.c    92        2906656710, 830996984, 3326017599, 532807687, 3824190464, 4230023168, 528991220, 1896366620,
       LibText.c    93        4600207, 3221800490, 536942806, 2852135586, 706741347, 4043047160, 2291112068, 1091068432,
       LibText.c    94        2216757442, 272900864, 215375879, 4294967295 };
    000000E2 9925                   MOV.W       L464+8,R9  ; H'0150
    000000E4 9124                   MOV.W       L464+8,R1  ; H'0150
    000000E6 39FC                   ADD         R15,R9
    000000E8 D21B                   MOV.L       L464+48,R2 ; L316
    000000EA 9022                   MOV.W       L464+10,R0 ; H'0230
    000000EC D317                   MOV.L       L464+36,R3 ; __quick_mvn
    000000EE 430B                   JSR         @R3




SH SERIES C/C++ Compiler (Ver. 6.0C)                                                                 04-Nov-2020 00:50:49  PAGE    5


SCT OFFSET   CODE       C LABEL     INSTRUCTION OPERAND    COMMENT

    000000F0 31FC                   ADD         R15,R1
       LibText.c    95        Txt_Fonts[TXT_7SEG] = malloc(560);
    000000F2 941E                   MOV.W       L464+10,R4 ; H'0230
    000000F4 4A0B                   JSR         @R10
    000000F6 0009                   NOP
    000000F8 1D03                   MOV.L       R0,@(12,R13)
       LibText.c    96        for(i=0;i<140;i++) Txt_Fonts[TXT_7SEG][i] = Font7SEG[i];
    000000FA 65E3                   MOV         R14,R5
    000000FC 64E3                   MOV         R14,R4
    000000FE 66D3                   MOV         R13,R6
    00000100 760C                   ADD         #12,R6
    00000102              L417:                             
    00000102 6043                   MOV         R4,R0
    00000104 6262                   MOV.L       @R6,R2
    00000106 7501                   ADD         #1,R5
    00000108 039E                   MOV.L       @(R0,R9),R3
    0000010A 324C                   ADD         R4,R2
    0000010C 2232                   MOV.L       R3,@R2
    0000010E 35C3                   CMP/GE      R12,R5
    00000110 8FF7                   BF/S        L417
    00000112 7404                   ADD         #4,R4
    00000114              L416:                             
       LibText.c    97      }
       LibText.c    98    
       LibText.c    99      if(fonts & FONT_ARCADIUM)
    00000114 E210                   MOV         #16,R2
    00000116 22B8                   TST         R11,R2
    00000118 8937                   BT          L418
       LibText.c   100      {
       LibText.c   101        unsigned int FontARCADIUM[100] = {
       LibText.c   102        4234354686, 831520536,  3355413603, 4291179007, 3810066417, 2357196998, 1073505055, 4264660991,
       LibText.c   103        415760268,  1677706801, 4293073151, 4052516856, 3326082147, 536752527,  4279814143, 2355363782,
       LibText.c   104        838853400,  4294020223, 4173742076, 1663041073, 2415859911, 4287390719, 3325165539, 419426700,
       LibText.c   105        2147010111, 16,         2214663328, 719550,     2815542774, 1682231281, 2357117472, 2232450,
       LibText.c   106        272765204,  1334920231, 3359637892, 1073868800, 202769,     286291051,  387023911,  4229383166,
       LibText.c   107        193194183,  3775914464, 4191220829, 4035478644, 1561803311, 194560049,  2349009025, 285478974,
       LibText.c   108        260113425,  283678724,  1885034298, 1066171679, 1204782112, 4282790391, 3788013552, 3827361870,
       LibText.c   109        780959512,  4236519422, 692687247,  2736275984, 4235679942, 967631592,  3324966013, 138031515,
       LibText.c   110        4246685231, 2206461840, 2216977176, 3123808905, 416721546,  2292761924, 557720099,  3997307112,
       LibText.c   111        545393540,  557353608,  31,         822345784,  797679887,  1203797024, 4035309947, 2749905361,
       LibText.c   112        3290491068, 1048949528, 2684895644, 554274948,  3106152712, 808803028,  479503367,  1177421731,
       LibText.c   113        3892441464, 1097646606, 2198194298, 275785001,  806524176,  147237382,  2290811210, 570548771,
       LibText.c   114        3324119138, 277095176,  573573548,  2181038079 };
    0000011A 9C0B                   MOV.W       L464+12,R12; H'01F0
    0000011C 910A                   MOV.W       L464+12,R1 ; H'01F0
    0000011E 3CFC                   ADD         R15,R12
    00000120 D20E                   MOV.L       L464+52,R2 ; L319
    00000122 9008                   MOV.W       L464+14,R0 ; H'0190
    00000124 A01C                   BRA         L462
    00000126 31FC                   ADD         R15,R1
    00000128              L464:                             
    00000128 FC80                   .DATA.W     H'FC80
    0000012A 0290                   .DATA.W     H'0290
    0000012C 00F0                   .DATA.W     H'00F0
    0000012E 008C                   .DATA.W     H'008C
    00000130 0150                   .DATA.W     H'0150
    00000132 0230                   .DATA.W     H'0230




SH SERIES C/C++ Compiler (Ver. 6.0C)                                                                 04-Nov-2020 00:50:49  PAGE    6


SCT OFFSET   CODE       C LABEL     INSTRUCTION OPERAND    COMMENT

    00000134 01F0                   .DATA.W     H'01F0
    00000136 0190                   .DATA.W     H'0190
    00000138 <00000000>             .DATA.L     _Txt_SC_VRAM
    0000013C <00000000>             .DATA.L     _Txt_VRAM
    00000140 <00000000>             .DATA.L     _Txt_Fonts
    00000144 <00000000>             .DATA.L     _malloc
    00000148 <00000000>             .DATA.L     L307
    0000014C <00000000>             .DATA.L     __quick_mvn
    00000150 <00000000>             .DATA.L     L310
    00000154 <00000000>             .DATA.L     L313
    00000158 <00000000>             .DATA.L     L316
    0000015C <00000000>             .DATA.L     L319
    00000160              L462:                             
    00000160 D352                   MOV.L       L465+18,R3 ; __quick_mvn
    00000162 430B                   JSR         @R3
    00000164 0009                   NOP
       LibText.c   115        Txt_Fonts[TXT_ARCADIUM] = malloc(400);
    00000166 9498                   MOV.W       L465,R4    ; H'0190
    00000168 4A0B                   JSR         @R10
    0000016A 0009                   NOP
    0000016C 1D04                   MOV.L       R0,@(16,R13)
       LibText.c   116        for(i=0;i<100;i++) Txt_Fonts[TXT_ARCADIUM][i] = FontARCADIUM[i];
    0000016E 65E3                   MOV         R14,R5
    00000170 64E3                   MOV         R14,R4
    00000172 E664                   MOV         #100,R6
    00000174 67D3                   MOV         R13,R7
    00000176 7710                   ADD         #16,R7
    00000178              L419:                             
    00000178 6272                   MOV.L       @R7,R2
    0000017A 6043                   MOV         R4,R0
    0000017C 03CE                   MOV.L       @(R0,R12),R3
    0000017E 7501                   ADD         #1,R5
    00000180 324C                   ADD         R4,R2
    00000182 3563                   CMP/GE      R6,R5
    00000184 2232                   MOV.L       R3,@R2
    00000186 8FF7                   BF/S        L419
    00000188 7404                   ADD         #4,R4
    0000018A              L418:                             
       LibText.c   117      }
       LibText.c   118    
       LibText.c   119      if(fonts & FONT_SERIF)
    0000018A E220                   MOV         #32,R2
    0000018C 9986                   MOV.W       L465+2,R9  ; H'02A0
    0000018E 22B8                   TST         R11,R2
    00000190 9C85                   MOV.W       L465+4,R12 ; H'00A8
    00000192 8917                   BT          L420
       LibText.c   120      {
       LibText.c   121        unsigned int FontSERIF[168] = {
       LibText.c   122        4263010694, 536839704, 1636302817, 2249744895, 4167140888, 2147358817, 2250243974, 409044991,
       LibText.c   123        3783661665, 4294467974, 411041304, 1636179967, 2249744775, 4292970008, 1644165217, 2249752574,
       LibText.c   124        409044511, 4286978145, 2281693574, 409075704, 1636178047, 4263010694, 536839704, 1636302817,
       LibText.c   125        2249744895, 4167140888, 2147358817, 2250243974, 409044991, 3783661665, 4294467974, 411041304,
       LibText.c   126        1636179967, 2249744775, 4292970008, 1644165217, 2249752574, 409044511, 4286978145, 2281693574,
       LibText.c   127        409075704, 1636178047, 0, 532610, 134251796, 1342177281, 1161712613, 343058972,
       LibText.c   128        715600072, 1108383846, 614533796, 1757480960, 4226, 136347912, 272696336, 2325508768,
       LibText.c   129        520, 4169269248, 12354, 3968, 0, 798736, 2216757248, 1915529882,
       LibText.c   130        654860930, 136570658, 138547451, 3775402024, 2618344740, 4165025410, 117606851, 277072034,




SH SERIES C/C++ Compiler (Ver. 6.0C)                                                                 04-Nov-2020 00:50:49  PAGE    7


SCT OFFSET   CODE       C LABEL     INSTRUCTION OPERAND    COMMENT

       LibText.c   131        1944093728, 2181591592, 2626299676, 2317845009, 2148282371, 201327372, 12650504, 1108353088,
       LibText.c   132        2147741759, 264208, 554189256, 2182119432, 1914733162, 2802067620, 1598537617, 1172591097,
       LibText.c   133        3898638856, 1593381969, 1159708485, 1192511487, 3511797008, 1105748126, 408874260, 1598365438,
       LibText.c   134        545392675, 4018675842, 675517588, 1631893985, 68174111, 4050474321, 1203687781, 1423044072,
       LibText.c   135        1636178014, 4178861633, 236881432, 1581318033, 1172640485, 3898636312, 1593483784, 545733445,
       LibText.c   136        340870382, 3510964874, 330584405, 1430948389, 139602082, 2302806049, 3483504772, 586727944,
       LibText.c   137        545393666, 67637280, 1276133636, 281154696, 0, 63, 1619066880, 385,
       LibText.c   138        479308816, 1097224568, 1870344, 2618040474, 2586279937, 3367928259, 306414608, 3771044408,
       LibText.c   139        613204228, 375723072, 537266209, 3254804610, 138609682, 1367675488, 2181570695, 173397,
       LibText.c   140        1431306457, 2488394752, 478816412, 3650376057, 68852264, 2651353088, 3649310944, 1999296,
       LibText.c   141        3158541328, 1090715651, 3025224928, 15536778, 268450629, 1430913032, 2485209216, 19172369,
       LibText.c   142        2147547714, 318292488, 1082264608, 2181570690, 202391684, 281018442, 2835350527, 4294967295 };
    00000194 9884                   MOV.W       L465+6,R8  ; H'00E0
    00000196 38FC                   ADD         R15,R8
    00000198 9182                   MOV.W       L465+6,R1  ; H'00E0
    0000019A D245                   MOV.L       L465+22,R2 ; L322
    0000019C 907E                   MOV.W       L465+2,R0  ; H'02A0
    0000019E D343                   MOV.L       L465+18,R3 ; __quick_mvn
    000001A0 430B                   JSR         @R3
    000001A2 31FC                   ADD         R15,R1
       LibText.c   143        Txt_Fonts[TXT_SERIF] = malloc(672);
    000001A4 4A0B                   JSR         @R10
    000001A6 6493                   MOV         R9,R4
    000001A8 1D05                   MOV.L       R0,@(20,R13)
       LibText.c   144        for(i=0;i<168;i++) Txt_Fonts[TXT_SERIF][i] = FontSERIF[i];
    000001AA 65E3                   MOV         R14,R5
    000001AC 64E3                   MOV         R14,R4
    000001AE 66D3                   MOV         R13,R6
    000001B0 7614                   ADD         #20,R6
    000001B2              L421:                             
    000001B2 6043                   MOV         R4,R0
    000001B4 6262                   MOV.L       @R6,R2
    000001B6 7501                   ADD         #1,R5
    000001B8 038E                   MOV.L       @(R0,R8),R3
    000001BA 324C                   ADD         R4,R2
    000001BC 2232                   MOV.L       R3,@R2
    000001BE 35C3                   CMP/GE      R12,R5
    000001C0 8FF7                   BF/S        L421
    000001C2 7404                   ADD         #4,R4
    000001C4              L420:                             
       LibText.c   145      }
       LibText.c   146    
       LibText.c   147      if(fonts & FONT_SERIFITALIC)
    000001C4 E240                   MOV         #64,R2
    000001C6 22B8                   TST         R11,R2
    000001C8 8917                   BT          L422
       LibText.c   148      {
       LibText.c   149        unsigned int FontSERIFITALIC[168] = {
       LibText.c   150        4263010694, 536839704, 1636302817, 2249744895, 4167140888, 2147358817, 2250243974, 409044991,
       LibText.c   151        3783661665, 4294467974, 411041304, 1636179967, 2249744775, 4292970008, 1644165217, 2249752574,
       LibText.c   152        409044511, 4286978145, 2281693574, 409075704, 1636178047, 4263010694, 536839704, 1636302817,
       LibText.c   153        2249744895, 4167140888, 2147358817, 2250243974, 409044991, 3783661665, 4294467974, 411041304,
       LibText.c   154        1636179967, 2249744775, 4292970008, 1644165217, 2249752574, 409044511, 4286978145, 2281693574,
       LibText.c   155        409075704, 1636178047, 0, 266434, 134284470, 2415919104, 2457816057, 607737100,
       LibText.c   156        715600528, 1124607283, 2454817444, 3904964608, 4226, 272695812, 136348688, 2236510880,
       LibText.c   157        260, 2021785600, 12354, 1920, 0, 798720, 53673984, 957769098,
       LibText.c   158        654586177, 136431489, 99098873, 4030869536, 3155731620, 4232126273, 117574595, 3493980322,




SH SERIES C/C++ Compiler (Ver. 6.0C)                                                                 04-Nov-2020 00:50:49  PAGE    8


SCT OFFSET   CODE       C LABEL     INSTRUCTION OPERAND    COMMENT

       LibText.c   159        1944618000, 2182101268, 1586112270, 1159168523, 3222024198, 402653964, 25301000, 1108353088,
       LibText.c   160        2147741759, 264208, 554189256, 2182119440, 2047885674, 2802197652, 1598535569, 1206428400,
       LibText.c   161        3830481416, 2625180769, 2318344005, 138183655, 3510767392, 2163495054, 413025556, 1660561550,
       LibText.c   162        272762913, 3280212098, 146871444, 3800638017, 69239343, 2439861346, 2317637974, 681740516,
       LibText.c   163        1367746716, 949113209, 235816216, 1651536777, 622301924, 3830460456, 2625458436, 545732933,
       LibText.c   164        342002638, 1363748116, 1672761738, 2863957301, 2355832930, 2441220163, 2278623428, 586736136,
       LibText.c   165        1090788417, 34086977, 235413764, 297863752, 0, 63, 1619066880, 224,
       LibText.c   166        2626790920, 1120707184, 935432, 2617512026, 2586279936, 3831464897, 2300822544, 3771044408,
       LibText.c   167        1226359044, 751446144, 268633121, 3254804612, 281216148, 1661609008, 1090789511, 173397,
       LibText.c   168        2862612584, 3562203136, 239474844, 3650379330, 136026663, 69320704, 1824788704, 999616,
       LibText.c   169        3156328976, 1090715651, 3026356672, 15537300, 1610627910, 445906952, 2485209216, 19172387,
       LibText.c   170        30786, 284188932, 1619135504, 1091051650, 202392464, 1124073546, 2835350527, 4294967295 };
    000001CA 9869                   MOV.W       L465+6,R8  ; H'00E0
    000001CC 9168                   MOV.W       L465+6,R1  ; H'00E0
    000001CE 38FC                   ADD         R15,R8
    000001D0 D238                   MOV.L       L465+26,R2 ; L325
    000001D2 9063                   MOV.W       L465+2,R0  ; H'02A0
    000001D4 D335                   MOV.L       L465+18,R3 ; __quick_mvn
    000001D6 430B                   JSR         @R3
    000001D8 31FC                   ADD         R15,R1
       LibText.c   171        Txt_Fonts[TXT_SERIFITALIC] = malloc(672);
    000001DA 4A0B                   JSR         @R10
    000001DC 6493                   MOV         R9,R4
       LibText.c   172        for(i=0;i<168;i++) Txt_Fonts[TXT_SERIFITALIC][i] = FontSERIFITALIC[i];
    000001DE 65E3                   MOV         R14,R5
    000001E0 1D06                   MOV.L       R0,@(24,R13)
    000001E2 64E3                   MOV         R14,R4
    000001E4 66D3                   MOV         R13,R6
    000001E6 7618                   ADD         #24,R6
    000001E8              L423:                             
    000001E8 6262                   MOV.L       @R6,R2
    000001EA 6043                   MOV         R4,R0
    000001EC 038E                   MOV.L       @(R0,R8),R3
    000001EE 7501                   ADD         #1,R5
    000001F0 324C                   ADD         R4,R2
    000001F2 35C3                   CMP/GE      R12,R5
    000001F4 2232                   MOV.L       R3,@R2
    000001F6 8FF7                   BF/S        L423
    000001F8 7404                   ADD         #4,R4
    000001FA              L422:                             
       LibText.c   173      }
       LibText.c   174    
       LibText.c   175      if(fonts & FONT_SERIFBOLD)
    000001FA 9252                   MOV.W       L465+8,R2  ; H'0080
    000001FC 22B8                   TST         R11,R2
    000001FE 8917                   BT          L424
       LibText.c   176      {
       LibText.c   177        unsigned int FontSERIFBOLD[168] = {
       LibText.c   178        4263010694, 536839704, 1636302817, 2249744895, 4167140888, 2147358817, 2250243974, 409044991,
       LibText.c   179        3783661665, 4294467974, 411041304, 1636179967, 2249744775, 4292970008, 1643903073, 2249752574,
       LibText.c   180        409044511, 4286978145, 2281693574, 409075704, 1636178047, 4263010694, 536839704, 1636302817,
       LibText.c   181        2249744895, 4167140888, 2147358817, 2250243974, 409044991, 3783661665, 4294467974, 411041304,
       LibText.c   182        1636179967, 2249744775, 4292970008, 1644165217, 2249752574, 409044511, 4286978145, 2281693574,
       LibText.c   183        409075704, 1636178047, 0, 817635, 201379254, 3623878657, 1161712613, 343629086,
       LibText.c   184        391623116, 1662570039, 3019476854, 2095156224, 12678, 409043724, 409044504, 3399250592,
       LibText.c   185        49983, 4240637952, 798786, 262080, 0, 798736, 3325135904, 2067724239,
       LibText.c   186        931950787, 204597171, 2355304957, 3972216892, 3726173606, 4234264519, 260279783, 3015961843,




SH SERIES C/C++ Compiler (Ver. 6.0C)                                                                 04-Nov-2020 00:50:49  PAGE    9


SCT OFFSET   CODE       C LABEL     INSTRUCTION OPERAND    COMMENT

       LibText.c   187        2080163376, 3272375100, 3738122142, 3476538317, 3758895107, 201327372, 12650520, 3325059265,
       LibText.c   188        2147741759, 396312, 831283692, 3273179148, 2066793326, 3080638271, 4090445721, 1709595129,
       LibText.c   189        3966812940, 1593415257, 1704968037, 2274912255, 3647071768, 1642885327, 475985302, 1600495454,
       LibText.c   190        818089009, 3884724419, 753121180, 1640479729, 2249744799, 4058996081, 3340563439, 2096352748,
       LibText.c   191        4090445022, 4187381345, 2401161020, 4264591257, 1709595125, 3975182396, 3741242124, 818396517,
       LibText.c   192        2522440942, 4056356506, 867987927, 1566232375, 2356886771, 3454209073, 4024637638, 838714904,
       LibText.c   193        1636179075, 101455920, 1310220678, 417471706, 536870912, 63, 1891729408, 449,
       LibText.c   194        2660891696, 3278795256, 2019084, 3725340891, 2654453761, 3967730163, 2573452824, 4056524408,
       LibText.c   195        1771881228, 921115712, 12590129, 3808456899, 744688690, 3549246064, 3272356039, 2147659125,
       LibText.c   196        3612344539, 2624709632, 516898014, 3684463099, 203136568, 3742134272, 3989182704, 2015712,
       LibText.c   197        3731080728, 1636007939, 3161572832, 15668890, 805321671, 1566179340, 3727813824, 40475699,
       LibText.c   198        2147548771, 436003596, 1623395888, 3272356035, 472957324, 834666570, 2835350527, 4294967295 };
    00000200 984E                   MOV.W       L465+6,R8  ; H'00E0
    00000202 38FC                   ADD         R15,R8
    00000204 914C                   MOV.W       L465+6,R1  ; H'00E0
    00000206 D22C                   MOV.L       L465+30,R2 ; L328
    00000208 9048                   MOV.W       L465+2,R0  ; H'02A0
    0000020A D328                   MOV.L       L465+18,R3 ; __quick_mvn
    0000020C 430B                   JSR         @R3
    0000020E 31FC                   ADD         R15,R1
       LibText.c   199        Txt_Fonts[TXT_SERIFBOLD] = malloc(672);
    00000210 4A0B                   JSR         @R10
    00000212 6493                   MOV         R9,R4
    00000214 1D07                   MOV.L       R0,@(28,R13)
       LibText.c   200        for(i=0;i<168;i++) Txt_Fonts[TXT_SERIFBOLD][i] = FontSERIFBOLD[i];
    00000216 65E3                   MOV         R14,R5
    00000218 64E3                   MOV         R14,R4
    0000021A 66D3                   MOV         R13,R6
    0000021C 761C                   ADD         #28,R6
    0000021E              L425:                             
    0000021E 6043                   MOV         R4,R0
    00000220 6262                   MOV.L       @R6,R2
    00000222 7501                   ADD         #1,R5
    00000224 038E                   MOV.L       @(R0,R8),R3
    00000226 324C                   ADD         R4,R2
    00000228 2232                   MOV.L       R3,@R2
    0000022A 35C3                   CMP/GE      R12,R5
    0000022C 8FF7                   BF/S        L425
    0000022E 7404                   ADD         #4,R4
    00000230              L424:                             
       LibText.c   201      }
       LibText.c   202    
       LibText.c   203      if(fonts & FONT_SERIFBOLDITALIC)
    00000230 9238                   MOV.W       L465+10,R2 ; H'0100
    00000232 22B8                   TST         R11,R2
    00000234 8917                   BT          L426
       LibText.c   204      {
       LibText.c   205        unsigned int FontSERIFBOLDITALIC[168] = {
       LibText.c   206        4263010694, 536839704, 1636302817, 2249744895, 4167140888, 2147358817, 2250243974, 409044991,
       LibText.c   207        3783661665, 4294467974, 411041304, 1636179967, 2249744775, 4292970008, 1644165217, 2249752574,
       LibText.c   208        409044511, 4286978145, 2281693574, 409075704, 1636178047, 4263010694, 536839704, 1636302817,
       LibText.c   209        2249744895, 4167140888, 2147358817, 2250243974, 409044991, 3783661665, 4294467974, 411041304,
       LibText.c   210        1636179967, 2249744775, 4292970008, 1644165217, 2249752574, 409044511, 4286978145, 2281693574,
       LibText.c   211        409075704, 1636178047, 0, 399587, 201426651, 3680501760, 2457816057, 612062540,
       LibText.c   212        2864165592, 1124625715, 2454817444, 3921876992, 6339, 409043724, 409046065, 2236510880,
       LibText.c   213        49982, 4186308608, 28870, 257920, 0, 798720, 3488808960, 966161867,
       LibText.c   214        654719075, 2352080771, 233582833, 4039536737, 3155997926, 4234256225, 2273513443, 3630296307,




SH SERIES C/C++ Compiler (Ver. 6.0C)                                                                 04-Nov-2020 00:50:49  PAGE   10


SCT OFFSET   CODE       C LABEL     INSTRUCTION OPERAND    COMMENT

       LibText.c   215        2079901208, 3273144726, 1590372126, 3476522523, 3222024198, 402653964, 25301016, 3325059265,
       LibText.c   216        2147741759, 396312, 831283692, 3273179160, 2050016110, 3876482486, 4292568985, 1743565552,
       LibText.c   217        3864576780, 2625214065, 3408863077, 2410728423, 3647204400, 3237370063, 480179606, 2127244958,
       LibText.c   218        818354275, 3284539627, 1013036763, 4224562017, 2251342639, 2439861346, 2317770095, 481478886,
       LibText.c   219        1506225308, 953375097, 2400085404, 1919972237, 899127796, 3864539241, 2633945884, 1636777317,
       LibText.c   220        2524105679, 1500096284, 1672761738, 2863975271, 141781427, 4259519587, 3487766726, 838656780,
       LibText.c   221        1636179041, 2198614113, 2383962892, 834735725, 805306368, 63, 1891729408, 224,
       LibText.c   222        3751394320, 2196562808, 943884, 2618044630, 3127345152, 3839853505, 2368988696, 4041593660,
       LibText.c   223        1771880708, 785333440, 402884145, 3808456902, 417531094, 1938765368, 1636184263, 2147657045,
       LibText.c   224        2862612584, 3562203136, 240007580, 3652509250, 136027703, 2251415552, 1824921840, 2023905,
       LibText.c   225        4264682264, 1636007939, 3035011520, 15545558, 1879063366, 714342412, 3727813824, 20237875,
       LibText.c   226        2147515491, 418964236, 3783662616, 1636577475, 236479448, 1669333066, 2835350527, 4294967295 };
    00000236 9833                   MOV.W       L465+6,R8  ; H'00E0
    00000238 9132                   MOV.W       L465+6,R1  ; H'00E0
    0000023A 38FC                   ADD         R15,R8
    0000023C D21F                   MOV.L       L465+34,R2 ; L331
    0000023E 902D                   MOV.W       L465+2,R0  ; H'02A0
    00000240 D31A                   MOV.L       L465+18,R3 ; __quick_mvn
    00000242 430B                   JSR         @R3
    00000244 31FC                   ADD         R15,R1
       LibText.c   227        Txt_Fonts[TXT_SERIFBOLDITALIC] = malloc(672);
    00000246 4A0B                   JSR         @R10
    00000248 6493                   MOV         R9,R4
       LibText.c   228        for(i=0;i<168;i++) Txt_Fonts[TXT_SERIFBOLDITALIC][i] = FontSERIFBOLDITALIC[i];
    0000024A 65E3                   MOV         R14,R5
    0000024C 1D08                   MOV.L       R0,@(32,R13)
    0000024E 64E3                   MOV         R14,R4
    00000250 66D3                   MOV         R13,R6
    00000252 7620                   ADD         #32,R6
    00000254              L427:                             
    00000254 6262                   MOV.L       @R6,R2
    00000256 6043                   MOV         R4,R0
    00000258 038E                   MOV.L       @(R0,R8),R3
    0000025A 7501                   ADD         #1,R5
    0000025C 324C                   ADD         R4,R2
    0000025E 35C3                   CMP/GE      R12,R5
    00000260 2232                   MOV.L       R3,@R2
    00000262 8FF7                   BF/S        L427
    00000264 7404                   ADD         #4,R4
    00000266              L426:                             
       LibText.c   229      }
       LibText.c   230    
       LibText.c   231      if(fonts & FONT_RUNES)
    00000266 921E                   MOV.W       L465+12,R2 ; H'0200
    00000268 2B28                   TST         R2,R11
    0000026A 892E                   BT          L428
       LibText.c   232      {
       LibText.c   233        unsigned int FontRUNES[224] = {
       LibText.c   234        0, 84, 3668859510, 1360793681, 1378110090, 134754467, 1166678048, 3187432,
       LibText.c   235        780802108, 2252313636, 2231631985, 341669343, 469763068, 3102378504, 6365763, 67899392,
       LibText.c   236        1629733382, 135791074, 1199836176, 805338386, 608735612, 7460030, 4200012800, 551727082,
       LibText.c   237        2382953734, 3436724192, 4279259475, 1699383816, 128031, 4066443008, 33030128, 1627324472,
       LibText.c   238        2333750178, 939580415, 4293889544, 14318841, 4019062784, 3665623531, 2382889178, 2096752778,
       LibText.c   239        134273612, 405309960, 798375, 2319344640, 541101794, 67633184, 1095525636, 134217732,
       LibText.c   240        1204879360, 2130443, 3431533568, 17907976, 2315784273, 276990080, 7153162, 674388736,
       LibText.c   241        33295, 3892838400, 2109408, 2181038112, 3802202628, 134225984, 2164952584, 8303,
       LibText.c   242        3783393280, 8589292, 134217760, 3823174148, 134225984, 2165280264, 12698567, 3474731008,




SH SERIES C/C++ Compiler (Ver. 6.0C)                                                                 04-Nov-2020 00:50:49  PAGE   11


SCT OFFSET   CODE       C LABEL     INSTRUCTION OPERAND    COMMENT

       LibText.c   243        410118087, 2265317376, 1103618047, 2147614715, 3816947712, 41519, 3901358096, 1901101322,
       LibText.c   244        2382888960, 2742021514, 1077744, 2165280264, 8462887, 3766616064, 143798216, 134217968,
       LibText.c   245        541238146, 30849, 177080320, 1053684, 1225785344, 1091036228, 2164260880, 1901101342,
       LibText.c   246        16837, 1107562240, 8462951, 3783393280, 143863756, 134217968, 541320066, 30849,
       LibText.c   247        260966400, 1061876, 3373268992, 1099425348, 2164260880, 1911587102, 16839, 3255045888,
       LibText.c   248        238, 0, 1086407174, 168820800, 3242394892, 268451969, 33950242, 17243481,
       LibText.c   249        896647424, 2310186056, 2434924713, 2456258576, 536871442, 1124471362, 37346, 1200169472,
       LibText.c   250        4227330, 67633152, 1082196484, 268443712, 2164458769, 4243778, 67637248, 2310186696,
       LibText.c   251        2434924576, 1115914884, 134255042, 76419104, 5284290, 118100992, 2310186058, 2602696768,
       LibText.c   252        3242395146, 301998145, 58786824, 2155173, 1107560448, 2172814473, 304349184, 2434942220,
       LibText.c   253        268436052, 2840900932, 11096513, 33818624, 4044498890, 2504130592, 1082197781, 704647458,
       LibText.c   254        3800109594, 8458819, 169582592, 2174788169, 304087084, 1218955812, 1744855075, 3825733378,
       LibText.c   255        5284295, 3656891904, 1352746969, 4156424272, 2705608823, 3187691681, 1146118334, 5284399,
       LibText.c   256        4193762816, 1352804411, 4156424272, 2720542839, 3187691682, 674259134, 5284391, 3416202240,
       LibText.c   257        2705606807, 1043857488, 2720286879, 469782690, 608735516, 798378, 2318035968, 3978994346,
       LibText.c   258        1809842200, 1364538864, 3112, 2726963296, 1853586, 3391643648, 68702500, 2457337856,
       LibText.c   259        1885422640, 536899860, 2683457820, 33426581, 1217005568, 547579213, 2315780217, 207178821,
       LibText.c   260        67109299, 2452132376, 32, 2315790336, 131, 2334130176, 2146954, 939524096,
       LibText.c   261        545392672, 96, 3255312384, 255045, 67108864, 21416081, 1040187393, 1116246300 };
    0000026C D214                   MOV.L       L465+38,R2 ; L334
    0000026E 6CF3                   MOV         R15,R12
    00000270 901A                   MOV.W       L465+14,R0 ; H'0380
    00000272 D30E                   MOV.L       L465+18,R3 ; __quick_mvn
    00000274 430B                   JSR         @R3
    00000276 61F3                   MOV         R15,R1
       LibText.c   262        Txt_Fonts[TXT_RUNES] = malloc(896);
    00000278 9416                   MOV.W       L465+14,R4 ; H'0380
    0000027A 4A0B                   JSR         @R10
    0000027C 0009                   NOP
       LibText.c   263        for(i=0;i<224;i++) Txt_Fonts[TXT_RUNES][i] = FontRUNES[i];
    0000027E 67E3                   MOV         R14,R7
    00000280 950E                   MOV.W       L465+6,R5  ; H'00E0
    00000282 66D3                   MOV         R13,R6
    00000284 1D09                   MOV.L       R0,@(36,R13)
    00000286 64E3                   MOV         R14,R4
    00000288 7624                   ADD         #36,R6
    0000028A              L429:                             
    0000028A 6043                   MOV         R4,R0
    0000028C 6262                   MOV.L       @R6,R2
    0000028E 7701                   ADD         #1,R7
    00000290 03CE                   MOV.L       @(R0,R12),R3
    00000292 324C                   ADD         R4,R2
    00000294 2232                   MOV.L       R3,@R2
    00000296 A015                   BRA         L463
    00000298 7404                   ADD         #4,R4
    0000029A              L465:                             
    0000029A 0190                   .DATA.W     H'0190
    0000029C 02A0                   .DATA.W     H'02A0
    0000029E 00A8                   .DATA.W     H'00A8
    000002A0 00E0                   .DATA.W     H'00E0
    000002A2 0080                   .DATA.W     H'0080
    000002A4 0100                   .DATA.W     H'0100
    000002A6 0200                   .DATA.W     H'0200
    000002A8 0380                   .DATA.W     H'0380
    000002AA 0000                   .DATA.W     0
    000002AC <00000000>             .DATA.L     __quick_mvn
    000002B0 <00000000>             .DATA.L     L322




SH SERIES C/C++ Compiler (Ver. 6.0C)                                                                 04-Nov-2020 00:50:49  PAGE   12


SCT OFFSET   CODE       C LABEL     INSTRUCTION OPERAND    COMMENT

    000002B4 <00000000>             .DATA.L     L325
    000002B8 <00000000>             .DATA.L     L328
    000002BC <00000000>             .DATA.L     L331
    000002C0 <00000000>             .DATA.L     L334
    000002C4              L463:                             
    000002C4 3753                   CMP/GE      R5,R7
    000002C6 8FE0                   BF/S        L429
    000002C8 0009                   NOP
    000002CA              L428:                             
       LibText.c   264      }
       LibText.c   265    }
    000002CA 9177                   MOV.W       L466,R1    ; H'0380
    000002CC 3F1C                   ADD         R1,R15
    000002CE 4F26                   LDS.L       @R15+,PR
    000002D0 68F6                   MOV.L       @R15+,R8
    000002D2 69F6                   MOV.L       @R15+,R9
    000002D4 6AF6                   MOV.L       @R15+,R10
    000002D6 6BF6                   MOV.L       @R15+,R11
    000002D8 6CF6                   MOV.L       @R15+,R12
    000002DA 6DF6                   MOV.L       @R15+,R13
    000002DC 000B                   RTS
    000002DE 6EF6                   MOV.L       @R15+,R14
       LibText.c   266    
       LibText.c   267    void Txt_Pixel(int x, int y, int v)
    000002E0              _Txt_Pixel:                      ; function: Txt_Pixel
                                                           ; frame size=4
    000002E0 2FE6                   MOV.L       R14,@-R15
       LibText.c   268    {
       LibText.c   269      if(x&~127 || y&~63) return;
    000002E2 E380                   MOV         #-128,R3
    000002E4 2348                   TST         R4,R3
    000002E6 8B1B                   BF          L432
    000002E8 E1C0                   MOV         #-64,R1
    000002EA 2158                   TST         R5,R1
    000002EC 8B18                   BF          L432
    000002EE 4508                   SHLL2       R5
    000002F0 D333                   MOV.L       L466+4,R3  ; _Txt_VRAM
    000002F2 E107                   MOV         #7,R1
    000002F4 9E63                   MOV.W       L466+2,R14 ; H'0080
    000002F6 6743                   MOV         R4,R7
    000002F8 6232                   MOV.L       @R3,R2
    000002FA 4508                   SHLL2       R5
    000002FC 4721                   SHAR        R7
    000002FE 4721                   SHAR        R7
    00000300 4721                   SHAR        R7
    00000302 375C                   ADD         R5,R7
    00000304 372C                   ADD         R2,R7
    00000306 2149                   AND         R4,R1
    00000308 611B                   NEG         R1,R1
    0000030A 2668                   TST         R6,R6
    0000030C 8D04                   BT/S        L433
    0000030E 4E1C                   SHAD        R1,R14
       LibText.c   270      if(v) *(Txt_VRAM+(y<<4)+(x>>3)) |=  (128>>(x&7));
    00000310 6070                   MOV.B       @R7,R0
    00000312 20EB                   OR          R14,R0
    00000314 A004                   BRA         L432
    00000316 2700                   MOV.B       R0,@R7




SH SERIES C/C++ Compiler (Ver. 6.0C)                                                                 04-Nov-2020 00:50:49  PAGE   13


SCT OFFSET   CODE       C LABEL     INSTRUCTION OPERAND    COMMENT

    00000318              L433:                             
       LibText.c   271      else  *(Txt_VRAM+(y<<4)+(x>>3)) &= ~(128>>(x&7));
    00000318 6170                   MOV.B       @R7,R1
    0000031A 6EE7                   NOT         R14,R14
    0000031C 21E9                   AND         R14,R1
    0000031E 2710                   MOV.B       R1,@R7
       LibText.c   272    }
    00000320              L432:                             
    00000320 000B                   RTS
    00000322 6EF6                   MOV.L       @R15+,R14
       LibText.c   273    
       LibText.c   274    void Txt_Point(int x, int y, int v, int m)
    00000324              _Txt_Point:                      ; function: Txt_Point
                                                           ; frame size=16
    00000324 2FE6                   MOV.L       R14,@-R15
       LibText.c   275    {
       LibText.c   276      switch(m)
    00000326 6073                   MOV         R7,R0
    00000328 2FD6                   MOV.L       R13,@-R15
    0000032A 6E43                   MOV         R4,R14
    0000032C 2FC6                   MOV.L       R12,@-R15
    0000032E 6D53                   MOV         R5,R13
    00000330 4F22                   STS.L       PR,@-R15
    00000332 8801                   CMP/EQ      #1,R0
    00000334 8D0A                   BT/S        L402
    00000336 6C63                   MOV         R6,R12
    00000338 8802                   CMP/EQ      #2,R0
    0000033A 8911                   BT          L403
    0000033C 8804                   CMP/EQ      #4,R0
    0000033E 8917                   BT          L404
    00000340 8808                   CMP/EQ      #8,R0
    00000342 891F                   BT          L405
    00000344 8810                   CMP/EQ      #16,R0
    00000346 8926                   BT          L406
    00000348 A033                   BRA         L435
    0000034A 0009                   NOP
    0000034C              L402:                            ; case label 
       LibText.c   277      {
       LibText.c   278        case TXT_OR:  if(v) Txt_Pixel(x,y,1); break;
    0000034C 2CC8                   TST         R12,R12
    0000034E 8930                   BT          L435
    00000350 4F26                   LDS.L       @R15+,PR
    00000352 E601                   MOV         #1,R6
    00000354 6CF6                   MOV.L       @R15+,R12
    00000356 65D3                   MOV         R13,R5
    00000358 6DF6                   MOV.L       @R15+,R13
    0000035A 64E3                   MOV         R14,R4
    0000035C AFC0                   BRA         _Txt_Pixel
    0000035E 6EF6                   MOV.L       @R15+,R14
    00000360              L403:                            ; case label 
       LibText.c   279        case TXT_ON:  Txt_Pixel(x,y,v); break;
    00000360 4F26                   LDS.L       @R15+,PR
    00000362 66C3                   MOV         R12,R6
    00000364 6CF6                   MOV.L       @R15+,R12
    00000366 65D3                   MOV         R13,R5
    00000368 6DF6                   MOV.L       @R15+,R13
    0000036A 64E3                   MOV         R14,R4




SH SERIES C/C++ Compiler (Ver. 6.0C)                                                                 04-Nov-2020 00:50:49  PAGE   14


SCT OFFSET   CODE       C LABEL     INSTRUCTION OPERAND    COMMENT

    0000036C AFB8                   BRA         _Txt_Pixel
    0000036E 6EF6                   MOV.L       @R15+,R14
    00000370              L404:                            ; case label 
       LibText.c   280        case TXT_AND: if(v) Txt_Pixel(x,y,0); break;
    00000370 2CC8                   TST         R12,R12
    00000372 891E                   BT          L435
    00000374 4F26                   LDS.L       @R15+,PR
    00000376 E600                   MOV         #0,R6
    00000378 6CF6                   MOV.L       @R15+,R12
    0000037A 65D3                   MOV         R13,R5
    0000037C 6DF6                   MOV.L       @R15+,R13
    0000037E 64E3                   MOV         R14,R4
    00000380 AFAE                   BRA         _Txt_Pixel
    00000382 6EF6                   MOV.L       @R15+,R14
    00000384              L405:                            ; case label 
       LibText.c   281        case TXT_REV: Txt_Pixel(x,y,!v); break;
    00000384 4F26                   LDS.L       @R15+,PR
    00000386 2CC8                   TST         R12,R12
    00000388 6CF6                   MOV.L       @R15+,R12
    0000038A 0629                   MOVT        R6
    0000038C 65D3                   MOV         R13,R5
    0000038E 64E3                   MOV         R14,R4
    00000390 6DF6                   MOV.L       @R15+,R13
    00000392 AFA5                   BRA         _Txt_Pixel
    00000394 6EF6                   MOV.L       @R15+,R14
    00000396              L406:                            ; case label 
       LibText.c   282        case TXT_XOR: if(v) Txt_Pixel(x,y,!Txt_Get(x,y)); break;
    00000396 2CC8                   TST         R12,R12
    00000398 890B                   BT          L435
    0000039A 65D3                   MOV         R13,R5
    0000039C B012                   BSR         _Txt_Get
    0000039E 64E3                   MOV         R14,R4
    000003A0 4F26                   LDS.L       @R15+,PR
    000003A2 2008                   TST         R0,R0
    000003A4 6CF6                   MOV.L       @R15+,R12
    000003A6 65D3                   MOV         R13,R5
    000003A8 6DF6                   MOV.L       @R15+,R13
    000003AA 0629                   MOVT        R6
    000003AC 64E3                   MOV         R14,R4
    000003AE AF97                   BRA         _Txt_Pixel
    000003B0 6EF6                   MOV.L       @R15+,R14
    000003B2              L435:                             
       LibText.c   283      }
       LibText.c   284    }
    000003B2 4F26                   LDS.L       @R15+,PR
    000003B4 6CF6                   MOV.L       @R15+,R12
    000003B6 6DF6                   MOV.L       @R15+,R13
    000003B8 000B                   RTS
    000003BA 6EF6                   MOV.L       @R15+,R14
    000003BC              L466:                             
    000003BC 0380                   .DATA.W     H'0380
    000003BE 0080                   .DATA.W     H'0080
    000003C0 <00000000>             .DATA.L     _Txt_VRAM
       LibText.c   285    
       LibText.c   286    int Txt_Get(int x, int y)
    000003C4              _Txt_Get:                        ; function: Txt_Get
                                                           ; frame size=0




SH SERIES C/C++ Compiler (Ver. 6.0C)                                                                 04-Nov-2020 00:50:49  PAGE   15


SCT OFFSET   CODE       C LABEL     INSTRUCTION OPERAND    COMMENT

       LibText.c   287    {
       LibText.c   288      return (*(Txt_VRAM+(y<<4)+(x>>3)) >> (~x&7))&1;
    000003C4 D373                   MOV.L       L467,R3    ; _Txt_VRAM
    000003C6 4508                   SHLL2       R5
    000003C8 6232                   MOV.L       @R3,R2
    000003CA 6043                   MOV         R4,R0
    000003CC 4508                   SHLL2       R5
    000003CE 4021                   SHAR        R0
    000003D0 4021                   SHAR        R0
    000003D2 4021                   SHAR        R0
    000003D4 305C                   ADD         R5,R0
    000003D6 002C                   MOV.B       @(R0,R2),R0
    000003D8 6103                   MOV         R0,R1
    000003DA 6047                   NOT         R4,R0
    000003DC C907                   AND         #7,R0
    000003DE 600B                   NEG         R0,R0
    000003E0 410C                   SHAD        R0,R1
    000003E2 E001                   MOV         #1,R0
       LibText.c   289    }
    000003E4 000B                   RTS
    000003E6 2019                   AND         R1,R0
       LibText.c   290    
       LibText.c   291    void Txt_Char(char c, int x, int y, int f, int w, int h, int m,int startY,int endY)
    000003E8              _Txt_Char:                       ; function: Txt_Char
                                                           ; frame size=56
    000003E8 2FE6                   MOV.L       R14,@-R15
       LibText.c   292    {
       LibText.c   293    int i;
       LibText.c   294      unsigned int *font = Txt_Fonts[f];
    000003EA 4708                   SHLL2       R7
    000003EC D06A                   MOV.L       L467+4,R0  ; _Txt_Fonts
       LibText.c   295      unsigned char a,b,v;
       LibText.c   296      int offbyte = (c*w*h)>>5;
    000003EE E1FB                   MOV         #-5,R1
    000003F0 2FD6                   MOV.L       R13,@-R15
       LibText.c   297      int offbit  = (c*w*h)&31;
    000003F2 ED1F                   MOV         #31,R13
    000003F4 2FC6                   MOV.L       R12,@-R15
    000003F6 2FB6                   MOV.L       R11,@-R15
    000003F8 2FA6                   MOV.L       R10,@-R15
    000003FA 2F96                   MOV.L       R9,@-R15
    000003FC 2F86                   MOV.L       R8,@-R15
    000003FE 4F22                   STS.L       PR,@-R15
    00000400 4F12                   STS.L       MACL,@-R15
    00000402 7FEC                   ADD         #-20,R15
    00000404 1F53                   MOV.L       R5,@(12,R15)
    00000406 654E                   EXTS.B      R4,R5
    00000408 1F64                   MOV.L       R6,@(16,R15)
    0000040A 59FE                   MOV.L       @(56,R15),R9
    0000040C 037E                   MOV.L       @(R0,R7),R3
    0000040E 2F32                   MOV.L       R3,@R15
    00000410 0597                   MUL.L       R9,R5
       LibText.c   298      if(!font) return;
    00000412 2338                   TST         R3,R3
    00000414 52FF                   MOV.L       @(60,R15),R2
    00000416 051A                   STS         MACL,R5
    00000418 0527                   MUL.L       R2,R5




SH SERIES C/C++ Compiler (Ver. 6.0C)                                                                 04-Nov-2020 00:50:49  PAGE   16


SCT OFFSET   CODE       C LABEL     INSTRUCTION OPERAND    COMMENT

    0000041A 051A                   STS         MACL,R5
    0000041C 6B53                   MOV         R5,R11
    0000041E 4B1C                   SHAD        R1,R11
    00000420 8D49                   BT/S        L443
    00000422 2D59                   AND         R5,R13
       LibText.c   299    if(endY<h)h = endY;
    00000424 53FF                   MOV.L       @(60,R15),R3
    00000426 E048                   MOV         #72,R0
    00000428 02FE                   MOV.L       @(R0,R15),R2
    0000042A 3233                   CMP/GE      R3,R2
    0000042C 8D03                   BT/S        L444
       LibText.c   300    for(i = 0;i<startY*w;i++)if(offbit++==31) offbyte++, offbit=0;
    0000042E EE00                   MOV         #0,R14
    00000430 E048                   MOV         #72,R0
    00000432 02FE                   MOV.L       @(R0,R15),R2
    00000434 1F2F                   MOV.L       R2,@(60,R15)
    00000436              L444:                             
    00000436 E044                   MOV         #68,R0
    00000438 05FE                   MOV.L       @(R0,R15),R5
    0000043A 0957                   MUL.L       R5,R9
    0000043C 051A                   STS         MACL,R5
    0000043E 4515                   CMP/PL      R5
    00000440 8F09                   BF/S        L445
    00000442 64E3                   MOV         R14,R4
    00000444              L446:                             
    00000444 60D3                   MOV         R13,R0
    00000446 881F                   CMP/EQ      #31,R0
    00000448 8F02                   BF/S        L447
    0000044A 7D01                   ADD         #1,R13
    0000044C 7B01                   ADD         #1,R11
    0000044E 6DE3                   MOV         R14,R13
    00000450              L447:                             
    00000450 7401                   ADD         #1,R4
    00000452 3453                   CMP/GE      R5,R4
    00000454 8BF6                   BF          L446
    00000456              L445:                             
       LibText.c   301      for(b=startY;b<h;b++)
    00000456 E044                   MOV         #68,R0
    00000458 A029                   BRA         L448
    0000045A 08FE                   MOV.L       @(R0,R15),R8
    0000045C              L449:                             
    0000045C 5CF3                   MOV.L       @(12,R15),R12
    0000045E 638C                   EXTU.B      R8,R3
    00000460 52F4                   MOV.L       @(16,R15),R2
       LibText.c   302      {
       LibText.c   303        for(a=0;a<w;a++)
    00000462 4915                   CMP/PL      R9
    00000464 6AE3                   MOV         R14,R10
    00000466 332C                   ADD         R2,R3
    00000468 8F20                   BF/S        L450
    0000046A 1F31                   MOV.L       R3,@(4,R15)
    0000046C              L451:                             
       LibText.c   304        {
       LibText.c   305          v = (font[offbyte]&(1<<(31-offbit)))!=0;
    0000046C 63F2                   MOV.L       @R15,R3
    0000046E E21F                   MOV         #31,R2
    00000470 60B3                   MOV         R11,R0




SH SERIES C/C++ Compiler (Ver. 6.0C)                                                                 04-Nov-2020 00:50:49  PAGE   17


SCT OFFSET   CODE       C LABEL     INSTRUCTION OPERAND    COMMENT

    00000472 4008                   SHLL2       R0
    00000474 003E                   MOV.L       @(R0,R3),R0
    00000476 32D8                   SUB         R13,R2
    00000478 E101                   MOV         #1,R1
    0000047A 412C                   SHAD        R2,R1
    0000047C 2019                   AND         R1,R0
    0000047E 2008                   TST         R0,R0
    00000480 0029                   MOVT        R0
    00000482 CA01                   XOR         #1,R0
    00000484 80F8                   MOV.B       R0,@(8,R15)
       LibText.c   306          Txt_Point(x+a,y+b,v,m);
    00000486 E040                   MOV         #64,R0
    00000488 55F1                   MOV.L       @(4,R15),R5
    0000048A 07FE                   MOV.L       @(R0,R15),R7
    0000048C 84F8                   MOV.B       @(8,R15),R0
    0000048E 6603                   MOV         R0,R6
    00000490 666C                   EXTU.B      R6,R6
    00000492 BF47                   BSR         _Txt_Point
    00000494 64C3                   MOV         R12,R4
       LibText.c   307          if(offbit++==31) offbyte++, offbit=0;
    00000496 60D3                   MOV         R13,R0
    00000498 881F                   CMP/EQ      #31,R0
    0000049A 8F02                   BF/S        L453
    0000049C 7D01                   ADD         #1,R13
    0000049E 7B01                   ADD         #1,R11
    000004A0 6DE3                   MOV         R14,R13
    000004A2              L453:                             
    000004A2 7A01                   ADD         #1,R10
    000004A4 62AC                   EXTU.B      R10,R2
    000004A6 3293                   CMP/GE      R9,R2
    000004A8 8FE0                   BF/S        L451
    000004AA 7C01                   ADD         #1,R12
    000004AC              L450:                             
    000004AC 7801                   ADD         #1,R8
    000004AE              L448:                             
    000004AE 628C                   EXTU.B      R8,R2
    000004B0 53FF                   MOV.L       @(60,R15),R3
    000004B2 3233                   CMP/GE      R3,R2
    000004B4 8BD2                   BF          L449
    000004B6              L443:                             
       LibText.c   308        }
       LibText.c   309      }
       LibText.c   310    }
    000004B6 7F14                   ADD         #20,R15
    000004B8 4F16                   LDS.L       @R15+,MACL
    000004BA 4F26                   LDS.L       @R15+,PR
    000004BC 68F6                   MOV.L       @R15+,R8
    000004BE 69F6                   MOV.L       @R15+,R9
    000004C0 6AF6                   MOV.L       @R15+,R10
    000004C2 6BF6                   MOV.L       @R15+,R11
    000004C4 6CF6                   MOV.L       @R15+,R12
    000004C6 6DF6                   MOV.L       @R15+,R13
    000004C8 000B                   RTS
    000004CA 6EF6                   MOV.L       @R15+,R14
       LibText.c   311    
       LibText.c   312    void Txt_text_taille(const char *s, int x, int y, int f, int m,int startY,int endY)
    000004CC              _Txt_text_taille:                ; function: Txt_text_taille




SH SERIES C/C++ Compiler (Ver. 6.0C)                                                                 04-Nov-2020 00:50:49  PAGE   18


SCT OFFSET   CODE       C LABEL     INSTRUCTION OPERAND    COMMENT

                                                           ; frame size=88
                                                           ; used runtime library name:
                                                           ; __slow_mvn
    000004CC 2FE6                   MOV.L       R14,@-R15
    000004CE E044                   MOV         #68,R0
       LibText.c   313    {
       LibText.c   314    const unsigned char Txt_Widths[TXT_FONTS]  = { 3, 3, 5, 5, 5, 6, 6, 6, 6, 7 };
    000004D0 D232                   MOV.L       L467+8,R2  ; L376
    000004D2 2FD6                   MOV.L       R13,@-R15
    000004D4 2FC6                   MOV.L       R12,@-R15
    000004D6 6D53                   MOV         R5,R13
    000004D8 D331                   MOV.L       L467+12,R3 ; __slow_mvn
    000004DA 2FB6                   MOV.L       R11,@-R15
    000004DC 2FA6                   MOV.L       R10,@-R15
    000004DE 2F96                   MOV.L       R9,@-R15
    000004E0 2F86                   MOV.L       R8,@-R15
    000004E2 6873                   MOV         R7,R8
    000004E4 4F22                   STS.L       PR,@-R15
    000004E6 7FDC                   ADD         #-36,R15
    000004E8 2F62                   MOV.L       R6,@R15
    000004EA 61F3                   MOV         R15,R1
    000004EC 09FE                   MOV.L       @(R0,R15),R9
    000004EE 66F3                   MOV         R15,R6
    000004F0 7618                   ADD         #24,R6
    000004F2 7118                   ADD         #24,R1
    000004F4 430B                   JSR         @R3
    000004F6 E00A                   MOV         #10,R0
       LibText.c   315    const unsigned char Txt_Heights[TXT_FONTS] = { 5, 5, 7, 7, 5, 7, 7, 7, 7, 8 };
    000004F8 D22A                   MOV.L       L467+16,R2 ; L378
    000004FA 65F3                   MOV         R15,R5
    000004FC D328                   MOV.L       L467+12,R3 ; __slow_mvn
    000004FE 61F3                   MOV         R15,R1
    00000500 750C                   ADD         #12,R5
    00000502 710C                   ADD         #12,R1
    00000504 430B                   JSR         @R3
    00000506 E00A                   MOV         #10,R0
       LibText.c   316    const unsigned char w = Txt_Widths[f];
    00000508 6083                   MOV         R8,R0
    0000050A 61F3                   MOV         R15,R1
    0000050C 036C                   MOV.B       @(R0,R6),R3
    0000050E 7108                   ADD         #8,R1
    00000510 2130                   MOV.B       R3,@R1
       LibText.c   317    const unsigned char h = Txt_Heights[f];
    00000512 61F3                   MOV         R15,R1
    00000514 025C                   MOV.B       @(R0,R5),R2
    00000516 7104                   ADD         #4,R1
    00000518 2120                   MOV.B       R2,@R1
       LibText.c   318    char *p = (char *)s;
       LibText.c   319    int i;
       LibText.c   320    if(startY<0)startY = 0;
    0000051A E048                   MOV         #72,R0
    0000051C 03FE                   MOV.L       @(R0,R15),R3
    0000051E 4311                   CMP/PZ      R3
    00000520 8D2B                   BT/S        L455
    00000522 6C43                   MOV         R4,R12
    00000524 E300                   MOV         #0,R3
    00000526 E048                   MOV         #72,R0




SH SERIES C/C++ Compiler (Ver. 6.0C)                                                                 04-Nov-2020 00:50:49  PAGE   19


SCT OFFSET   CODE       C LABEL     INSTRUCTION OPERAND    COMMENT

       LibText.c   321    while(*p)
    00000528 A027                   BRA         L455
    0000052A 0F36                   MOV.L       R3,@(R0,R15)
    0000052C              L456:                             
       LibText.c   322        {
       LibText.c   323        Txt_Char(*p,x,y,f,w,h,m,startY,endY);
    0000052C E04C                   MOV         #76,R0
    0000052E 6783                   MOV         R8,R7
    00000530 01FE                   MOV.L       @(R0,R15),R1
    00000532 65D3                   MOV         R13,R5
    00000534 2F16                   MOV.L       R1,@-R15
    00000536 E04C                   MOV         #76,R0
    00000538 03FE                   MOV.L       @(R0,R15),R3
    0000053A E010                   MOV         #16,R0
    0000053C 2F36                   MOV.L       R3,@-R15
    0000053E 2F96                   MOV.L       R9,@-R15
    00000540 0AFC                   MOV.B       @(R0,R15),R10
    00000542 E018                   MOV         #24,R0
    00000544 6AAC                   EXTU.B      R10,R10
    00000546 2FA6                   MOV.L       R10,@-R15
    00000548 0EFC                   MOV.B       @(R0,R15),R14
    0000054A 6EEC                   EXTU.B      R14,R14
    0000054C 2FE6                   MOV.L       R14,@-R15
    0000054E 56F5                   MOV.L       @(20,R15),R6
    00000550 BF4A                   BSR         _Txt_Char
    00000552 64C4                   MOV.B       @R12+,R4
    00000554 7F14                   ADD         #20,R15
       LibText.c   324        p++;
       LibText.c   325        x += w;
       LibText.c   326        if(*p) for(i=0;i<h;i++) Txt_Point(x,y+i,0,m);
    00000556 62C0                   MOV.B       @R12,R2
    00000558 2228                   TST         R2,R2
    0000055A 8D0D                   BT/S        L457
    0000055C 3DEC                   ADD         R14,R13
    0000055E EB00                   MOV         #0,R11
    00000560 4A15                   CMP/PL      R10
    00000562 8F09                   BF/S        L457
    00000564 6EF2                   MOV.L       @R15,R14
    00000566              L459:                             
    00000566 6793                   MOV         R9,R7
    00000568 E600                   MOV         #0,R6
    0000056A 65E3                   MOV         R14,R5
    0000056C BEDA                   BSR         _Txt_Point
    0000056E 64D3                   MOV         R13,R4
    00000570 7B01                   ADD         #1,R11
    00000572 3BA3                   CMP/GE      R10,R11
    00000574 8FF7                   BF/S        L459
    00000576 7E01                   ADD         #1,R14
    00000578              L457:                             
       LibText.c   327        x++;
    00000578 7D01                   ADD         #1,R13
    0000057A              L455:                             
    0000057A 62C0                   MOV.B       @R12,R2
    0000057C 2228                   TST         R2,R2
    0000057E 8BD5                   BF          L456
       LibText.c   328        }
       LibText.c   329    }




SH SERIES C/C++ Compiler (Ver. 6.0C)                                                                 04-Nov-2020 00:50:49  PAGE   20


SCT OFFSET   CODE       C LABEL     INSTRUCTION OPERAND    COMMENT

    00000580 7F24                   ADD         #36,R15
    00000582 4F26                   LDS.L       @R15+,PR
    00000584 68F6                   MOV.L       @R15+,R8
    00000586 69F6                   MOV.L       @R15+,R9
    00000588 6AF6                   MOV.L       @R15+,R10
    0000058A 6BF6                   MOV.L       @R15+,R11
    0000058C 6CF6                   MOV.L       @R15+,R12
    0000058E 6DF6                   MOV.L       @R15+,R13
    00000590 000B                   RTS
    00000592 6EF6                   MOV.L       @R15+,R14
    00000594              L467:                             
    00000594 <00000000>             .DATA.L     _Txt_VRAM
    00000598 <00000000>             .DATA.L     _Txt_Fonts
    0000059C <00000000>             .DATA.L     L376
    000005A0 <00000000>             .DATA.L     __slow_mvn
    000005A4 <00000000>             .DATA.L     L378
       LibText.c   330    
       LibText.c   331    
       LibText.c   332    void Txt_Text(const char *s, int x, int y, int f, int m)
    000005A8              _Txt_Text:                       ; function: Txt_Text
                                                           ; frame size=16
    000005A8 4F22                   STS.L       PR,@-R15
       LibText.c   333    {
       LibText.c   334    Txt_text_taille(s,x,y,f,m,0,500);
    000005AA E200                   MOV         #0,R2
    000005AC 9324                   MOV.W       L468,R3    ; H'01F4
    000005AE 2F36                   MOV.L       R3,@-R15
    000005B0 2F26                   MOV.L       R2,@-R15
    000005B2 51F3                   MOV.L       @(12,R15),R1
    000005B4 2F16                   MOV.L       R1,@-R15
    000005B6 BF89                   BSR         _Txt_text_taille
    000005B8 0009                   NOP
       LibText.c   335    }
    000005BA 7F0C                   ADD         #12,R15
    000005BC 4F26                   LDS.L       @R15+,PR
    000005BE 000B                   RTS
    000005C0 0009                   NOP
       LibText.c   336    
       LibText.c   337    void Txt_Quit(void)
    000005C2              _Txt_Quit:                       ; function: Txt_Quit
                                                           ; frame size=20
    000005C2 2FE6                   MOV.L       R14,@-R15
    000005C4 2FD6                   MOV.L       R13,@-R15
    000005C6 2FC6                   MOV.L       R12,@-R15
    000005C8 2FB6                   MOV.L       R11,@-R15
    000005CA 4F22                   STS.L       PR,@-R15
    000005CC D50B                   MOV.L       L468+4,R5  ; _Txt_Fonts
    000005CE 6453                   MOV         R5,R4
    000005D0 DB0B                   MOV.L       L468+8,R11 ; _free
    000005D2 6C53                   MOV         R5,R12
    000005D4 6D53                   MOV         R5,R13
    000005D6 6E53                   MOV         R5,R14
    000005D8 7C28                   ADD         #40,R12
       LibText.c   338    {
       LibText.c   339      int i;
       LibText.c   340      for(i=0;i<TXT_FONTS;i++) if(Txt_Fonts[i]) free(Txt_Fonts[i]);
    000005DA              L460:                             




SH SERIES C/C++ Compiler (Ver. 6.0C)                                                                 04-Nov-2020 00:50:49  PAGE   21


SCT OFFSET   CODE       C LABEL     INSTRUCTION OPERAND    COMMENT

    000005DA 63E2                   MOV.L       @R14,R3
    000005DC 2338                   TST         R3,R3
    000005DE 8901                   BT          L461
    000005E0 4B0B                   JSR         @R11
    000005E2 64D2                   MOV.L       @R13,R4
    000005E4              L461:                             
    000005E4 7E04                   ADD         #4,R14
    000005E6 3EC2                   CMP/HS      R12,R14
    000005E8 8FF7                   BF/S        L460
    000005EA 7D04                   ADD         #4,R13
       LibText.c   341    }
    000005EC 4F26                   LDS.L       @R15+,PR
    000005EE 6BF6                   MOV.L       @R15+,R11
    000005F0 6CF6                   MOV.L       @R15+,R12
    000005F2 6DF6                   MOV.L       @R15+,R13
    000005F4 000B                   RTS
    000005F6 6EF6                   MOV.L       @R15+,R14
    000005F8              L468:                             
    000005F8 01F4                   .DATA.W     H'01F4
    000005FA 0000                   .DATA.W     0
    000005FC <00000000>             .DATA.L     _Txt_Fonts
    00000600 <00000000>             .DATA.L     _free
C   00000000              _Txt_SC_VRAM:                    ; static: Txt_SC_VRAM
    00000000 D201D00242             .DATA.L     H'D201D002,H'422B0009,H'80010070,H'00000135
             2B00098001   
             0070000001   
             35           
    00000010              L307:
    00000010 F6DF37D3DB             .DATA.L     H'F6DF37D3,H'DB7FB6FF,H'6DFEDBFD,H'B7FB6FF6,H'DFEDBFDB,H'7FB6FF6D,H'FEDBFDB7,
             7FB6FF6DFE +                       H'FB6FF6DF,H'EDBFDB7F,H'B6FF6DFE,H'DBFDB7FB,H'6FF6DFED,H'BFDB7FB6,H'FF6DFEDB,
             DBFDB7FB6F +                       H'FDB7FB6F,H'0000920A,H'D005F7D5,H'F3F0A855,H'55A40029,H'231252AA,H'005D0002,
             F6DFEDBFDB +                       H'80700001,H'02A076DC,H'B25F153E,H'28EB793E,H'639CF7F2,H'A4F7DFEF,H'38208041,
             7FB6FF6DFE +                       H'42A2238E,H'222A7282,H'C6BCAFB7,H'5D73923D,H'6DDE69FC,H'D2392BB7,H'DBD25C93,
             DBFDB7FB6F +                       H'55BAD924,H'F7DB7DB6,H'AB6AD748,H'ADAB5D6B,H'88EE9256,H'DBEDB55B,H'7DB55B6A,
             F6DFEDBFDB +                       H'4B953B49,H'31111925,H'95000007,H'88008BAE,H'4D707232,H'5D6AF8CA,H'E93ACA93,
             7FB6FF6DFE +                       H'5A865C83,H'54BB5C92,H'E2FB46B6,H'856A1AE8,H'1D646BA8,H'79E5D262,H'DBC5B50B,
             DBFDB7FB6F +                       H'6F152A2B,H'2877BB51,H'34925915,H'80787FFF
             F6DFEDBFDB   
             7FB6FF6DFE   
             DBFDB7FB6F   
             0000920AD0   
             05F7D5F3F0   
             A85555A400   
             29231252AA   
             005D000280   
             70000102A0   
             76DCB25F15   
             3E28EB793E   
             639CF7F2A4   
             F7DFEF3820   
             804142A223   
             8E222A7282   
             C6BCAFB75D   
             73923D6DDE   
             69FCD2392B   
             B7DBD25C93   
             55BAD924F7   




SH SERIES C/C++ Compiler (Ver. 6.0C)                                                                 04-Nov-2020 00:50:49  PAGE   22


SCT OFFSET   CODE       C LABEL     INSTRUCTION OPERAND    COMMENT

             DB7DB6AB6A   
             D748ADAB5D   
             6B88EE9256   
             DBEDB55B7D   
             B55B6A4B95   
             3B49311119   
             2595000007   
             88008BAE4D   
             7072325D6A   
             F8CAE93ACA   
             935A865C83   
             54BB5C92E2   
             FB46B6856A   
             1AE81D646B   
             A879E5D262   
             DBC5B50B6F   
             152A2B2877   
             BB51349259   
             1580787FFF   
    00000100              L310:
    00000100 F6DFEDBFDB             .DATA.L     H'F6DFEDBF,H'DB7FB6FF,H'6DFEDBFD,H'B7FB6FF6,H'DFEDBFDB,H'7FB6FF6D,H'FEDBFDB7,
             7FB6FF6DFE +                       H'FB6FF6DF,H'EDBFDB7F,H'B6FF6DFE,H'DBFDB7FB,H'6FF6DFED,H'BFDB7FB6,H'FF6DFEDB,
             DBFDB7FB6F +                       H'FDB7FB6F,H'0000920A,H'D005F7D4,H'F3D0A855,H'55A40052,H'44892AAA,H'005D0002,
             F6DFEDBFDB +                       H'80700001,H'02A0F6DE,H'49279F3F,H'3CFB793E,H'73FCF7F2,H'49F7DFEF,H'3C208041,
             7FB6FF6DFE +                       H'42A2238E,H'222A6282,H'C4DDEFB7,H'DD7F927D,H'6DDE79FC,H'F2796FB7,H'DBD25FA4,
             DBFDB7FB6F +                       H'B5BAD924,H'F7DB7DB6,H'FB6FF7C9,H'EDFFDD6F,H'9CFE9256,H'DBEDB55B,H'7DB55B6A,
             F6DFEDBFDB +                       H'4B953F92,H'71111C93,H'D5000007,H'44018FBE,H'4F781E72,H'7DEEF9DC,H'F23ACE93,
             7FB6FF6DFE +                       H'DA825D04,H'B4975C92,H'E2FB40F6,H'81EF1EF8,H'3DE47BAB,H'9CE9E4E0,H'5BC0B50B,
             DBFDB7FB6F +                       H'7D02AA05,H'4877BB51,H'34925915,H'80787FFF
             F6DFEDBFDB   
             7FB6FF6DFE   
             DBFDB7FB6F   
             0000920AD0   
             05F7D4F3D0   
             A85555A400   
             5244892AAA   
             005D000280   
             70000102A0   
             F6DE49279F   
             3F3CFB793E   
             73FCF7F249   
             F7DFEF3C20   
             804142A223   
             8E222A6282   
             C4DDEFB7DD   
             7F927D6DDE   
             79FCF2796F   
             B7DBD25FA4   
             B5BAD924F7   
             DB7DB6FB6F   
             F7C9EDFFDD   
             6F9CFE9256   
             DBEDB55B7D   
             B55B6A4B95   
             3F9271111C   
             93D5000007   
             44018FBE4F   




SH SERIES C/C++ Compiler (Ver. 6.0C)                                                                 04-Nov-2020 00:50:49  PAGE   23


SCT OFFSET   CODE       C LABEL     INSTRUCTION OPERAND    COMMENT

             781E727DEE   
             F9DCF23ACE   
             93DA825D04   
             B4975C92E2   
             FB40F681EF   
             1EF83DE47B   
             AB9CE9E4E0   
             5BC0B50B7D   
             02AA054877   
             BB51349259   
             1580787FFF   
    000001F0              L313:
    000001F0 FC6318C7FF             .DATA.L     H'FC6318C7,H'FF8C6318,H'FFF18C63,H'1FFE318C,H'63FFC631,H'8C7FF8C6,H'318FFF18,
             8C6318FFF1 +                       H'C631FFE3,H'18C63FFC,H'6318C7FF,H'8C6318FF,H'F18C631F,H'FE318C63,H'FFC6318C,
             8C631FFE31 +                       H'7FF8C631,H'8FFF18C6,H'31FFE318,H'C63FFC63,H'18C7FF8C,H'6318FFF1,H'8C631FFE,
             8C63FFC631 +                       H'318C63FF,H'C6318C7F,H'F8C6318F,H'FF18C631,H'FFE318C6,H'3FFC6318,H'C7FF8C63,
             8C7FF8C631 +                       H'18FFF18C,H'631FFE31,H'8C63FFC6,H'318C7FF8,H'C6318FFF,H'18C631FF,H'E318C63F,
             8FFF18C631 +                       H'00000000,H'04210840,H'114A5000,H'00295F57,H'D4A23E8E,H'2F898C88,H'8898D92A,
             FFE318C63F +                       H'22B26B08,H'80000011,H'10841048,H'20842220,H'04AB9D52,H'0084F908,H'00000061,
             FC6318C7FF +                       H'100003E0,H'00000000,H'0C600222,H'22007467,H'5CC5C465,H'08427DD1,H'08888FFC,
             8C6318FFF1 +                       H'441062E1,H'1952F885,H'F878218B,H'8C887A31,H'77C22210,H'847462E8,H'C5CE8C5E,
             8C631FFE31 +                       H'11300C60,H'18C0018C,H'03088088,H'88208200,H'7C1F0020,H'82088883,H'A2111004,
             8C63FFC631 +                       H'7442DAD5,H'CE8C7F18,H'C7D18FA3,H'1F3A3084,H'22EE4A31,H'8CB9F843,H'D087FF08,
             8C7FF8C631 +                       H'7A1083A3,H'09C62F8C,H'63F8C63F,H'2108427C,H'E2108526,H'4654C525,H'18421084,
             8FFF18C631 +                       H'3F1DD6B1,H'8C631CD6,H'718BA318,H'C62EF463,H'E8420E8C,H'635937D1,H'8FA928BA,
             FFE318C63F +                       H'307062EF,H'90842109,H'18C6318B,H'A318C62A,H'24635AD6,H'AA8C5445,H'46318C54,
             FC6318C7FF +                       H'4213E111,H'110FB908,H'4210E041,H'041040E1,H'08421388,H'A8800000,H'0000001F,
             8C6318FFF1 +                       H'61040000,H'000382F8,H'BE10B663,H'1F000E84,H'22E085B3,H'8C5E003A,H'3F838647,
             8C631FFE31 +                       H'10842000,H'F8BC2E84,H'2D98C620,H'20184238,H'40308526,H'4212A629,H'26108421,
             8C63FFC631 +                       H'1C006AB5,H'AD400B66,H'318800E8,H'C62E003D,H'1F420003,H'E2F08400,H'B6610800,
             8C7FF8C631 +                       H'0F8383E4,H'7108424C,H'0046319B,H'4008C54A,H'200118D6,H'AA003262,H'32600452,
             8FFF18C631 +                       H'626000F8,H'888F8884,H'41082210,H'84210882,H'10442200,H'04D64007,H'FFFFFFFF
             FFE318C63F   
             FC6318C7FF   
             8C6318FFF1   
             8C631FFE31   
             8C63FFC631   
             8C7FF8C631   
             8FFF18C631   
             FFE318C63F   
             0000000004   
             210840114A   
             500000295F   
             57D4A23E8E   
             2F898C8888   
             98D92A22B2   
             6B08800000   
             1110841048   
             2084222004   
             AB9D520084   
             F908000000   
             61100003E0   
             000000000C   
             6002222200   
             74675CC5C4   
             6508427DD1   
             08888FFC44   




SH SERIES C/C++ Compiler (Ver. 6.0C)                                                                 04-Nov-2020 00:50:49  PAGE   24


SCT OFFSET   CODE       C LABEL     INSTRUCTION OPERAND    COMMENT

             1062E11952   
             F885F87821   
             8B8C887A31   
             77C2221084   
             7462E8C5CE   
             8C5E11300C   
             6018C0018C   
             0308808888   
             2082007C1F   
             0020820888   
             83A2111004   
             7442DAD5CE   
             8C7F18C7D1   
             8FA31F3A30   
             8422EE4A31   
             8CB9F843D0   
             87FF087A10   
             83A309C62F   
             8C63F8C63F   
             2108427CE2   
             1085264654   
             C525184210   
             843F1DD6B1   
             8C631CD671   
             8BA318C62E   
             F463E8420E   
             8C635937D1   
             8FA928BA30   
             7062EF9084   
             210918C631   
             8BA318C62A   
             24635AD6AA   
             8C54454631   
             8C544213E1   
             11110FB908   
             4210E04104   
             1040E10842   
             1388A88000   
             000000001F   
             6104000000   
             0382F8BE10   
             B6631F000E   
             8422E085B3   
             8C5E003A3F   
             8386471084   
             2000F8BC2E   
             842D98C620   
             2018423840   
             3085264212   
             A629261084   
             211C006AB5   
             AD400B6631   
             8800E8C62E   
             003D1F4200   
             03E2F08400   
             B66108000F   
             8383E47108   




SH SERIES C/C++ Compiler (Ver. 6.0C)                                                                 04-Nov-2020 00:50:49  PAGE   25


SCT OFFSET   CODE       C LABEL     INSTRUCTION OPERAND    COMMENT

             424C004631   
             9B4008C54A   
             200118D6AA   
             0032623260   
             0452626000   
             F8888F8884   
             4108221084   
             2108821044   
             220004D640   
             07FFFFFFFF   
    00000420              L316:
    00000420 FC6318C7FF             .DATA.L     H'FC6318C7,H'FF8C6318,H'FFF18C63,H'1FFE318C,H'63FFC631,H'8C7FF8C6,H'318FFF18,
             8C6318FFF1 +                       H'C631FFE3,H'18C63FFC,H'6318C7FF,H'8C6318FF,H'F18C631F,H'FE318C63,H'FFC6318C,
             8C631FFE31 +                       H'7FF8C631,H'8FFF18C6,H'31FFE318,H'C63FFC63,H'18C7FF8C,H'6318FFF1,H'8C631FFE,
             8C63FFC631 +                       H'318C63FF,H'C6318C7F,H'F8C6318F,H'FF18C631,H'FFE318C6,H'3FFC6318,H'C7FF8C63,
             8C7FF8C631 +                       H'18FFF18C,H'631FFE31,H'8C63FFC6,H'318C7FF8,H'C6318FFF,H'18C631FF,H'E318C63F,
             8FFF18C631 +                       H'00000000,H'04210840,H'114A5000,H'00295F57,H'D4A23E8E,H'2F898888,H'8888D92A,
             FFE318C63F +                       H'22B26908,H'40000022,H'10842084,H'10842110,H'04AB9D52,H'0084F908,H'00000021,
             FC6318C7FF +                       H'080003E0,H'00000000,H'00200222,H'2200FC63,H'18C7E108,H'421087E1,H'0FE10FFC,
             8C6318FFF1 +                       H'21F843F8,H'C63F0843,H'F843E10F,H'FF087E31,H'FFC21084,H'21FC63F8,H'C7FF8C7E,
             8C631FFE31 +                       H'10FC0400,H'08000080,H'01084088,H'88208200,H'7C1F0020,H'82088887,H'C2138004,
             8C63FFC631 +                       H'F843F8C7,H'FF8C7F18,H'C7F18FA3,H'1FFE1084,H'21FF4631,H'8C7DF843,H'F087FF08,
             8C7FF8C631 +                       H'7E1087E1,H'08C63F8C,H'63F8C63F,H'2108427F,H'E421084E,H'4654C525,H'18421084,
             8FFF18C631 +                       H'3F1DD631,H'8C631CD6,H'718FE318,H'C63FFC63,H'F8421F8C,H'635977F1,H'8FA318FE,
             FFE318C63F +                       H'10F843FF,H'90842109,H'18C6318F,H'E318C62A,H'24635AD6,H'BB8C5445,H'46318C54,
             FC6318C7FF +                       H'4213E111,H'110FFE10,H'8421F041,H'041041F0,H'84210FC8,H'A8800000,H'0000001F,
             8C6318FFF1 +                       H'61040000,H'0007C3F8,H'FE1087E3,H'1F801F84,H'21F0843F,H'8C7E007E,H'3F87CE47,
             8C631FFE31 +                       H'10842001,H'F8FC3F84,H'21F8C620,H'20184238,H'40308427,H'4212A629,H'26108421,
             8C63FFC631 +                       H'1C006AB5,H'AD400FC6,H'318801F8,H'C63F003F,H'1FC20007,H'E3F08400,H'FC210800,
             8C7FF8C631 +                       H'1F87C3F4,H'7108421C,H'0046318F,H'C008C62A,H'200118D6,H'AA0022A2,H'2A200463,
             8FFF18C631 +                       H'F0FC00F8,H'888F9884,H'41086210,H'842108C2,H'10442300,H'0CD66007,H'FFFFFFFF
             FFE318C63F   
             FC6318C7FF   
             8C6318FFF1   
             8C631FFE31   
             8C63FFC631   
             8C7FF8C631   
             8FFF18C631   
             FFE318C63F   
             0000000004   
             210840114A   
             500000295F   
             57D4A23E8E   
             2F89888888   
             88D92A22B2   
             6908400000   
             2210842084   
             1084211004   
             AB9D520084   
             F908000000   
             21080003E0   
             0000000000   
             2002222200   
             FC6318C7E1   
             08421087E1   
             0FE10FFC21   
             F843F8C63F   




SH SERIES C/C++ Compiler (Ver. 6.0C)                                                                 04-Nov-2020 00:50:49  PAGE   26


SCT OFFSET   CODE       C LABEL     INSTRUCTION OPERAND    COMMENT

             0843F843E1   
             0FFF087E31   
             FFC2108421   
             FC63F8C7FF   
             8C7E10FC04   
             0008000080   
             0108408888   
             2082007C1F   
             0020820888   
             87C2138004   
             F843F8C7FF   
             8C7F18C7F1   
             8FA31FFE10   
             8421FF4631   
             8C7DF843F0   
             87FF087E10   
             87E108C63F   
             8C63F8C63F   
             2108427FE4   
             21084E4654   
             C525184210   
             843F1DD631   
             8C631CD671   
             8FE318C63F   
             FC63F8421F   
             8C635977F1   
             8FA318FE10   
             F843FF9084   
             210918C631   
             8FE318C62A   
             24635AD6BB   
             8C54454631   
             8C544213E1   
             11110FFE10   
             8421F04104   
             1041F08421   
             0FC8A88000   
             000000001F   
             6104000000   
             07C3F8FE10   
             87E31F801F   
             8421F0843F   
             8C7E007E3F   
             87CE471084   
             2001F8FC3F   
             8421F8C620   
             2018423840   
             3084274212   
             A629261084   
             211C006AB5   
             AD400FC631   
             8801F8C63F   
             003F1FC200   
             07E3F08400   
             FC2108001F   
             87C3F47108   
             421C004631   




SH SERIES C/C++ Compiler (Ver. 6.0C)                                                                 04-Nov-2020 00:50:49  PAGE   27


SCT OFFSET   CODE       C LABEL     INSTRUCTION OPERAND    COMMENT

             8FC008C62A   
             200118D6AA   
             0022A22A20   
             0463F0FC00   
             F8888F9884   
             4108621084   
             2108C21044   
             23000CD660   
             07FFFFFFFF   
    00000650              L319:
    00000650 FC631FFE31             .DATA.L     H'FC631FFE,H'318FFF18,H'C7FF8C63,H'FFC631FF,H'E318FFF1,H'8C7FF8C6,H'3FFC631F,
             8FFF18C7FF +                       H'FE318FFF,H'18C7FF8C,H'63FFC631,H'FFE318FF,H'F18C7FF8,H'C63FFC63,H'1FFE318F,
             8C63FFC631 +                       H'FF18C7FF,H'8C63FFC6,H'31FFE318,H'FFF18C7F,H'F8C63FFC,H'631FFE31,H'8FFF18C7,
             FFE318FFF1 +                       H'FF8C63FF,H'C631FFE3,H'18FFF18C,H'7FF8C63F,H'00000010,H'840114A0,H'000AFABE,
             8C7FF8C63F +                       H'A7D1C5F6,H'6444CFF1,H'8C7EC220,H'00221082,H'10421114,H'4F914427,H'C8400184,
             FC631FFE31 +                       H'4001F000,H'00031811,H'1110746B,H'17118427,H'FC1743FE,H'0B83E8C7,H'E10FE1E0,
             8FFF18C7FF +                       H'F9D0F45D,H'F0888474,H'5D173A2F,H'0B98C031,H'8C030881,H'1104103E,H'0F810411,
             8C63FFC631 +                       H'10E89804,H'705B573A,H'3F8C7D1F,H'47CF8420,H'FF4631F7,H'E1C87FF0,H'E420E84E,
             FFE318FFF1 +                       H'2E8C7F18,H'FC8427FE,H'2949918F,H'A3184210,H'FC7758C6,H'39ACE2E8,H'C62EF47D,
             8C7FF8C63F +                       H'083A319B,H'FD1F462F,H'8383EF90,H'84246318,H'BA318A89,H'18D6AA8A,H'88A8C544,
             FC631FFE31 +                       H'213E2223,H'EE4210E8,H'20820B84,H'21388A88,H'0000001F,H'31040038,H'2F8BA10F,
             8FFF18C7FF +                       H'47C07C20,H'F085F17B,H'A3E839D1,H'C420E8BC,H'3E85B318,H'A008419C,H'21099084,
             8C63FFC631 +                       H'B9242108,H'30355AD4,H'1C94A407,H'462E07A3,H'E801F178,H'416CC20E,H'8305C87A,
             FFE318FFF1 +                       H'10702529,H'30129510,H'08C6AA06,H'888B014A,H'2201E223,H'C6220862,H'10842308,
             8C7FF8C63F +                       H'223009AC,H'81FFFFFF
             FC631FFE31   
             8FFF18C7FF   
             8C63FFC631   
             FFE318FFF1   
             8C7FF8C63F   
             0000001084   
             0114A0000A   
             FABEA7D1C5   
             F66444CFF1   
             8C7EC22000   
             2210821042   
             11144F9144   
             27C8400184   
             4001F00000   
             0318111110   
             746B171184   
             27FC1743FE   
             0B83E8C7E1   
             0FE1E0F9D0   
             F45DF08884   
             745D173A2F   
             0B98C0318C   
             0308811104   
             103E0F8104   
             1110E89804   
             705B573A3F   
             8C7D1F47CF   
             8420FF4631   
             F7E1C87FF0   
             E420E84E2E   
             8C7F18FC84   
             27FE294991   




SH SERIES C/C++ Compiler (Ver. 6.0C)                                                                 04-Nov-2020 00:50:49  PAGE   28


SCT OFFSET   CODE       C LABEL     INSTRUCTION OPERAND    COMMENT

             8FA3184210   
             FC7758C639   
             ACE2E8C62E   
             F47D083A31   
             9BFD1F462F   
             8383EF9084   
             246318BA31   
             8A8918D6AA   
             8A88A8C544   
             213E2223EE   
             4210E82082   
             0B8421388A   
             880000001F   
             310400382F   
             8BA10F47C0   
             7C20F085F1   
             7BA3E839D1   
             C420E8BC3E   
             85B318A008   
             419C210990   
             84B9242108   
             30355AD41C   
             94A407462E   
             07A3E801F1   
             78416CC20E   
             8305C87A10   
             7025293012   
             951008C6AA   
             06888B014A   
             2201E223C6   
             2208621084   
             2308223009   
             AC81FFFFFF   
    000007E0              L322:
    000007E0 FE1861861F             .DATA.L     H'FE186186,H'1FFF8618,H'6187FFE1,H'861861FF,H'F8618618,H'7FFE1861,H'861FFF86,
             FF86186187 +                       H'186187FF,H'E1861861,H'FFF86186,H'187FFE18,H'61861FFF,H'86186187,H'FFE18618,
             FFE1861861 +                       H'61FFF861,H'86187FFE,H'1861861F,H'FF861861,H'87FFE186,H'1861FFF8,H'6186187F,
             FFF8618618 +                       H'FE186186,H'1FFF8618,H'6187FFE1,H'861861FF,H'F8618618,H'7FFE1861,H'861FFF86,
             7FFE186186 +                       H'186187FF,H'E1861861,H'FFF86186,H'187FFE18,H'61861FFF,H'86186187,H'FFE18618,
             1FFF861861 +                       H'61FFF861,H'86187FFE,H'1861861F,H'FF861861,H'87FFE186,H'1861FFF8,H'6186187F,
             87FFE18618 +                       H'00000000,H'00082082,H'08008514,H'50000001,H'453E53E5,H'1472AA1C,H'2AA730C8,
             61FFF86186 +                       H'42109866,H'24A10AA4,H'68C10800,H'00001082,H'08208108,H'10410410,H'8A9C72A0,
             187FFE1861 +                       H'00000208,H'F8820000,H'00003042,H'00000F80,H'00000000,H'000C3010,H'84210800,
             861FFF8618 +                       H'722CAA9A,H'27086282,H'0823E722,H'084210FB,H'E1081028,H'9C10C524,H'F8413E82,
             6187FFE186 +                       H'070289C3,H'1083C8A2,H'73E08420,H'82087228,H'9C8A271C,H'8A278211,H'800C3003,
             1861FFF861 +                       H'0C00030C,H'00C10808,H'42102040,H'8003F03F,H'00040810,H'210841C8,H'82108008,
             86187FFE18 +                       H'7220826A,H'A70428A4,H'5F47BF91,H'45E451F9,H'E8608208,H'5EF91451,H'451FBF45,
             61861FFF86 +                       H'471447FF,H'D151C510,H'41E8609E,H'185EED14,H'5F451EFE,H'20820823,H'EF882082,
             186187FFE1 +                       H'28439494,H'6144B9E1,H'0410411F,H'F16D5551,H'47BED165,H'54D1EDE8,H'6186185E,
             861861FFF8 +                       H'F9145E41,H'0E1E8618,H'5E40FF91,H'45E512E5,H'E8607818,H'5EFAA208,H'20873B45,
             6186187FFE +                       H'145144EE,H'D145128A,H'13B45155,H'554A8A25,H'085228A2,H'89420821,H'CFA21084,
             1861861FFF +                       H'22F8C208,H'20820C02,H'04081020,H'4C104104,H'10C21488,H'00000000,H'0000003F,
             86186187FF +                       H'60810000,H'00000181,H'1C91AC10,H'41665178,H'001C8A08,H'9C0C209A,H'9A278001,
             E1861861FF +                       H'C8BE81C3,H'12438410,H'E0C59238,H'248CC104,H'16651440,H'20060821,H'C2006082,
             F86186187F +                       H'08430412,H'51851260,H'82082087,H'0002A555,H'555000D9,H'9451E400,H'1C8A289C,
             FE1861861F +                       H'D9945179,H'041A9A28,H'9E087000,H'D98410E0,H'001E81C0,H'BC438410,H'41030003,
             FF86186187 +                       H'B45144E0,H'00ED128A,H'10003B45,H'554A0008,H'94214880,H'01248C11,H'8000FA42,




SH SERIES C/C++ Compiler (Ver. 6.0C)                                                                 04-Nov-2020 00:50:49  PAGE   29


SCT OFFSET   CODE       C LABEL     INSTRUCTION OPERAND    COMMENT

             FFE1861861 +                       H'12F8C208,H'40820C20,H'82082082,H'0C104084,H'10C0004A,H'A90003FF,H'FFFFFFFF
             FFF8618618   
             7FFE186186   
             1FFF861861   
             87FFE18618   
             61FFF86186   
             187FFE1861   
             861FFF8618   
             6187FFE186   
             1861FFF861   
             86187F0000   
             0000000820   
             8208008514   
             5000000145   
             3E53E51472   
             AA1C2AA730   
             C842109866   
             24A10AA468   
             C108000000   
             1082082081   
             0810410410   
             8A9C72A000   
             000208F882   
             0000000030   
             4200000F80   
             0000000000   
             0C30108421   
             0800722CAA   
             9A27086282   
             0823E72208   
             4210FBE108   
             10289C10C5   
             24F8413E82   
             070289C310   
             83C8A273E0   
             8420820872   
             289C8A271C   
             8A27821180   
             0C30030C00   
             030C00C108   
             0842102040   
             8003F03F00   
             0408102108   
             41C8821080   
             087220826A   
             A70428A45F   
             47BF9145E4   
             51F9E86082   
             085EF91451   
             451FBF4547   
             1447FFD151   
             C51041E860   
             9E185EED14   
             5F451EFE20   
             820823EF88   
             2082284394   
             946144B9E1   




SH SERIES C/C++ Compiler (Ver. 6.0C)                                                                 04-Nov-2020 00:50:49  PAGE   30


SCT OFFSET   CODE       C LABEL     INSTRUCTION OPERAND    COMMENT

             0410411FF1   
             6D555147BE   
             D16554D1ED   
             E86186185E   
             F9145E410E   
             1E86185E40   
             FF9145E512   
             E5E8607818   
             5EFAA20820   
             873B451451   
             44EED14512   
             8A13B45155   
             554A8A2508   
             5228A28942   
             0821CFA210   
             8422F8C208   
             20820C0204   
             0810204C10   
             410410C214   
             8800000000   
             0000003F60   
             8100000000   
             01811C91AC   
             1041665178   
             001C8A089C   
             0C209A9A27   
             8001C8BE81   
             C312438410   
             E0C5923824   
             8CC1041665   
             1440200608   
             21C2006082   
             0843041251   
             8512608208   
             20870002A5   
             55555000D9   
             9451E4001C   
             8A289CD994   
             5179041A9A   
             289E087000   
             D98410E000   
             1E81C0BC43   
             8410410300   
             03B45144E0   
             00ED128A10   
             003B45554A   
             0008942148   
             8001248C11   
             8000FA4212   
             F8C2084082   
             0C20820820   
             820C104084   
             10C0004AA9   
             0003FFFFFF   
             FFFF         
    00000A80              L325:
    00000A80 FE1861861F             .DATA.L     H'FE186186,H'1FFF8618,H'6187FFE1,H'861861FF,H'F8618618,H'7FFE1861,H'861FFF86,




SH SERIES C/C++ Compiler (Ver. 6.0C)                                                                 04-Nov-2020 00:50:49  PAGE   31


SCT OFFSET   CODE       C LABEL     INSTRUCTION OPERAND    COMMENT

             FF86186187 +                       H'186187FF,H'E1861861,H'FFF86186,H'187FFE18,H'61861FFF,H'86186187,H'FFE18618,
             FFE1861861 +                       H'61FFF861,H'86187FFE,H'1861861F,H'FF861861,H'87FFE186,H'1861FFF8,H'6186187F,
             FFF8618618 +                       H'FE186186,H'1FFF8618,H'6187FFE1,H'861861FF,H'F8618618,H'7FFE1861,H'861FFF86,
             7FFE186186 +                       H'186187FF,H'E1861861,H'FFF86186,H'187FFE18,H'61861FFF,H'86186187,H'FFE18618,
             1FFF861861 +                       H'61FFF861,H'86187FFE,H'1861861F,H'FF861861,H'87FFE186,H'1861FFF8,H'6186187F,
             87FFE18618 +                       H'00000000,H'000410C2,H'080104B6,H'90000000,H'927F4BF9,H'2439550C,H'2AA73290,
             61FFF86186 +                       H'43082533,H'92518AA4,H'E8C10800,H'00001082,H'10410204,H'08208410,H'854E72A0,
             187FFE1861 +                       H'00000104,H'78820000,H'00003042,H'00000780,H'00000000,H'000C3000,H'03330000,
             861FFF8618 +                       H'3916658A,H'27043141,H'0821C781,H'05E820F9,H'F0423020,H'BC18A4A4,H'FC411F41,
             6187FFE186 +                       H'07020BC3,H'D041E8A2,H'73E88410,H'82103914,H'5E8A270E,H'4517820B,H'C00C3006,
             1861FFF861 +                       H'1800030C,H'01821008,H'42102040,H'8003F03F,H'00040810,H'210841C8,H'82108010,
             86187FFE18 +                       H'7A10416A,H'A7062494,H'5F47B791,H'47E8A2F0,H'E4508208,H'9C791461,H'8A2F1F45,
             61861FFF86 +                       H'083C83E7,H'D1420F20,H'80F4508E,H'189E4514,H'62FA288E,H'10420821,H'C3841082,
             186187FFE1 +                       H'08C11494,H'E2892241,H'0420822F,H'916D5462,H'8A245956,H'28A288E4,H'5186289C,
             861861FFF8 +                       H'38925179,H'0E0E4518,H'62707389,H'251792E4,H'E4503028,H'9C7D5104,H'20873945,
             6186187FFE +                       H'14628BCE,H'51492514,H'63B4518A,H'AAB48535,H'8C6B2862,H'91821043,H'87D108C4,
             1861861FFF +                       H'22F8E208,H'41041C41,H'02082041,H'0E082104,H'11C10A48,H'00000000,H'0000003F,
             86186187FF +                       H'60810000,H'000000E0,H'9C91A608,H'42CCA270,H'000E4608,H'9C04105A,H'9A278000,
             E1861861FF +                       H'E45F83C1,H'8923C410,H'E0C59238,H'4918C104,H'2CCA2880,H'10030421,H'C2006084,
             F86186187F +                       H'10C30494,H'630A2430,H'41042087,H'0002A555,H'AAA00068,H'D452E800,H'0E46189C,
             FE1861861F +                       H'D9945E42,H'081B9A27,H'0421C000,H'6CC410E0,H'000F40C0,H'BC21C210,H'41030003,
             FF86186187 +                       H'B46289C0,H'00ED1494,H'60003B46,H'1A940008,H'94214880,H'01248C23,H'00007842,
             FFE1861861 +                       H'10F06104,H'60820C10,H'41082082,H'0C104390,H'4300004A,H'A90003FF,H'FFFFFFFF
             FFF8618618   
             7FFE186186   
             1FFF861861   
             87FFE18618   
             61FFF86186   
             187FFE1861   
             861FFF8618   
             6187FFE186   
             1861FFF861   
             86187F0000   
             0000000410   
             C2080104B6   
             9000000092   
             7F4BF92439   
             550C2AA732   
             9043082533   
             92518AA4E8   
             C108000000   
             1082104102   
             0408208410   
             854E72A000   
             0001047882   
             0000000030   
             4200000780   
             0000000000   
             0C30000333   
             0000391665   
             8A27043141   
             0821C78105   
             E820F9F042   
             3020BC18A4   
             A4FC411F41   
             07020BC3D0   
             41E8A273E8   




SH SERIES C/C++ Compiler (Ver. 6.0C)                                                                 04-Nov-2020 00:50:49  PAGE   32


SCT OFFSET   CODE       C LABEL     INSTRUCTION OPERAND    COMMENT

             8410821039   
             145E8A270E   
             4517820BC0   
             0C30061800   
             030C018210   
             0842102040   
             8003F03F00   
             0408102108   
             41C8821080   
             107A10416A   
             A70624945F   
             47B79147E8   
             A2F0E45082   
             089C791461   
             8A2F1F4508   
             3C83E7D142   
             0F2080F450   
             8E189E4514   
             62FA288E10   
             420821C384   
             108208C114   
             94E2892241   
             0420822F91   
             6D54628A24   
             595628A288   
             E45186289C   
             389251790E   
             0E45186270   
             7389251792   
             E4E4503028   
             9C7D510420   
             8739451462   
             8BCE514925   
             1463B4518A   
             AAB485358C   
             6B28629182   
             104387D108   
             C422F8E208   
             41041C4102   
             0820410E08   
             210411C10A   
             4800000000   
             0000003F60   
             8100000000   
             00E09C91A6   
             0842CCA270   
             000E46089C   
             04105A9A27   
             8000E45F83   
             C18923C410   
             E0C5923849   
             18C1042CCA   
             2880100304   
             21C2006084   
             10C3049463   
             0A24304104   
             20870002A5   




SH SERIES C/C++ Compiler (Ver. 6.0C)                                                                 04-Nov-2020 00:50:49  PAGE   33


SCT OFFSET   CODE       C LABEL     INSTRUCTION OPERAND    COMMENT

             55AAA00068   
             D452E8000E   
             46189CD994   
             5E42081B9A   
             270421C000   
             6CC410E000   
             0F40C0BC21   
             C210410300   
             03B46289C0   
             00ED149460   
             003B461A94   
             0008942148   
             8001248C23   
             0000784210   
             F061046082   
             0C10410820   
             820C104390   
             4300004AA9   
             0003FFFFFF   
             FFFF         
    00000D20              L328:
    00000D20 FE1861861F             .DATA.L     H'FE186186,H'1FFF8618,H'6187FFE1,H'861861FF,H'F8618618,H'7FFE1861,H'861FFF86,
             FF86186187 +                       H'186187FF,H'E1861861,H'FFF86186,H'187FFE18,H'61861FFF,H'86186187,H'FFE18618,
             FFE1861861 +                       H'61FBF861,H'86187FFE,H'1861861F,H'FF861861,H'87FFE186,H'1861FFF8,H'6186187F,
             FFF8618618 +                       H'FE186186,H'1FFF8618,H'6187FFE1,H'861861FF,H'F8618618,H'7FFE1861,H'861FFF86,
             7FFE186186 +                       H'186187FF,H'E1861861,H'FFF86186,H'187FFE18,H'61861FFF,H'86186187,H'FFE18618,
             1FFF861861 +                       H'61FFF861,H'86187FFE,H'1861861F,H'FF861861,H'87FFE186,H'1861FFF8,H'6186187F,
             87FFE18618 +                       H'00000000,H'000C79E3,H'0C00CDB6,H'D8000001,H'453E53E5,H'147B5D1E,H'1757B1CC,
             61FFF86186 +                       H'6318CE37,H'B3F98F76,H'7CE18C00,H'00003186,H'1861830C,H'18618618,H'CA9C72A0,
             187FFE1861 +                       H'0000C33F,H'FCC30000,H'000C3042,H'0003FFC0,H'00000000,H'000C3010,H'C6318C20,
             861FFF8618 +                       H'7B3EF7CF,H'378C70C3,H'0C31E7B3,H'8C6319FD,H'ECC3383C,H'DE18E5A6,H'FC61BFC7,
             6187FFE186 +                       H'0F838DE7,H'B3C3ECF3,H'7BFCC630,H'C30C7B3C,H'DECF379E,H'CF37C3CD,H'E00C3003,
             1861FBF861 +                       H'0C00030C,H'00C10818,H'C63060C1,H'8003F03F,H'00060C18,H'318C61EC,H'C318C00C,
             86187FFE18 +                       H'7B30C36E,H'B79ECF3F,H'F3CF3F99,H'65E659F9,H'EC70C30C,H'5EF99659,H'659FBF65,
             61861FFF86 +                       H'879867FF,H'D961E618,H'61EC70CF,H'1C5EF596,H'5F659F5E,H'30C30C31,H'E78C30C3,
             186187FFE1 +                       H'2CE3B79C,H'61C7BBF1,H'8618619F,H'F1EF5D71,H'C71CF3EF,H'7CF3CDEC,H'F3CF3CDE,
             861861FFF8 +                       H'F9965E61,H'8F1ECF3C,H'FE307F99,H'65E659F5,H'ECF0783C,H'DEFED30C,H'30C7BD65,
             6186187FFE +                       H'965964EE,H'F1C7169A,H'33BC71D7,H'5D5ACF37,H'8C7B3CF3,H'CDE30C31,H'EFE318C6,
             1861861FFF +                       H'31FDC618,H'61861C83,H'060C1830,H'4E186186,H'18E21CDA,H'20000000,H'0000003F,
             86186187FF +                       H'70C18000,H'000001C1,H'9E99FC30,H'C36E71F8,H'001ECF0C,H'DE0C30DB,H'9E37C001,
             E1861861FF +                       H'EC7EC1F3,H'9963C618,H'F1C9A678,H'699CC30C,H'36E71C40,H'00C01C31,H'E30070C3,
             F86186187F +                       H'2C630C32,H'D38D3270,H'C30C30C7,H'8002AD75,H'D75000DB,H'9C71E400,H'1ECF3CDE,
             FE1861861F +                       H'DB9C71FB,H'0C1B9E38,H'DF0C7000,H'EDC618F0,H'001EC1E0,H'DE63C618,H'61838003,
             FF86186187 +                       H'BC71C5E0,H'00EF169A,H'30003BC7,H'5D5A000C,H'DE31ECC0,H'02699C33,H'8000FE63,
             FFE1861861 +                       H'19FCE30C,H'60C30E30,H'C30C30C3,H'1C30C18C,H'31C0004A,H'A90003FF,H'FFFFFFFF
             FFF8618618   
             7FFE186186   
             1FFF861861   
             87FFE18618   
             61FFF86186   
             187FFE1861   
             861FFF8618   
             6187FFE186   
             1861FFF861   
             86187F0000   
             0000000C79   
             E30C00CDB6   




SH SERIES C/C++ Compiler (Ver. 6.0C)                                                                 04-Nov-2020 00:50:49  PAGE   34


SCT OFFSET   CODE       C LABEL     INSTRUCTION OPERAND    COMMENT

             D800000145   
             3E53E5147B   
             5D1E1757B1   
             CC6318CE37   
             B3F98F767C   
             E18C000000   
             3186186183   
             0C18618618   
             CA9C72A000   
             00C33FFCC3   
             0000000C30   
             420003FFC0   
             0000000000   
             0C3010C631   
             8C207B3EF7   
             CF378C70C3   
             0C31E7B38C   
             6319FDECC3   
             383CDE18E5   
             A6FC61BFC7   
             0F838DE7B3   
             C3ECF37BFC   
             C630C30C7B   
             3CDECF379E   
             CF37C3CDE0   
             0C30030C00   
             030C00C108   
             18C63060C1   
             8003F03F00   
             060C18318C   
             61ECC318C0   
             0C7B30C36E   
             B79ECF3FF3   
             CF3F9965E6   
             59F9EC70C3   
             0C5EF99659   
             659FBF6587   
             9867FFD961   
             E61861EC70   
             CF1C5EF596   
             5F659F5E30   
             C30C31E78C   
             30C32CE3B7   
             9C61C7BBF1   
             8618619FF1   
             EF5D71C71C   
             F3EF7CF3CD   
             ECF3CF3CDE   
             F9965E618F   
             1ECF3CFE30   
             7F9965E659   
             F5ECF0783C   
             DEFED30C30   
             C7BD659659   
             64EEF1C716   
             9A33BC71D7   
             5D5ACF378C   




SH SERIES C/C++ Compiler (Ver. 6.0C)                                                                 04-Nov-2020 00:50:49  PAGE   35


SCT OFFSET   CODE       C LABEL     INSTRUCTION OPERAND    COMMENT

             7B3CF3CDE3   
             0C31EFE318   
             C631FDC618   
             61861C8306   
             0C18304E18   
             618618E21C   
             DA20000000   
             0000003F70   
             C180000000   
             01C19E99FC   
             30C36E71F8   
             001ECF0CDE   
             0C30DB9E37   
             C001EC7EC1   
             F39963C618   
             F1C9A67869   
             9CC30C36E7   
             1C4000C01C   
             31E30070C3   
             2C630C32D3   
             8D3270C30C   
             30C78002AD   
             75D75000DB   
             9C71E4001E   
             CF3CDEDB9C   
             71FB0C1B9E   
             38DF0C7000   
             EDC618F000   
             1EC1E0DE63   
             C618618380   
             03BC71C5E0   
             00EF169A30   
             003BC75D5A   
             000CDE31EC   
             C002699C33   
             8000FE6319   
             FCE30C60C3   
             0E30C30C30   
             C31C30C18C   
             31C0004AA9   
             0003FFFFFF   
             FFFF         
    00000FC0              L331:
    00000FC0 FE1861861F             .DATA.L     H'FE186186,H'1FFF8618,H'6187FFE1,H'861861FF,H'F8618618,H'7FFE1861,H'861FFF86,
             FF86186187 +                       H'186187FF,H'E1861861,H'FFF86186,H'187FFE18,H'61861FFF,H'86186187,H'FFE18618,
             FFE1861861 +                       H'61FFF861,H'86187FFE,H'1861861F,H'FF861861,H'87FFE186,H'1861FFF8,H'6186187F,
             FFF8618618 +                       H'FE186186,H'1FFF8618,H'6187FFE1,H'861861FF,H'F8618618,H'7FFE1861,H'861FFF86,
             7FFE186186 +                       H'186187FF,H'E1861861,H'FFF86186,H'187FFE18,H'61861FFF,H'86186187,H'FFE18618,
             1FFF861861 +                       H'61FFF861,H'86187FFE,H'1861861F,H'FF861861,H'87FFE186,H'1861FFF8,H'6186187F,
             87FFE18618 +                       H'00000000,H'000618E3,H'0C0186DB,H'DB600000,H'927F4BF9,H'247B554C,H'AAB7B2D8,
             61FFF86186 +                       H'43086D33,H'92518AA4,H'E9C31800,H'000018C3,H'1861830C,H'18618C31,H'854E72A0,
             187FFE1861 +                       H'0000C33E,H'F9860000,H'000070C6,H'0003EF80,H'00000000,H'000C3000,H'CFF30000,
             861FFF8618 +                       H'399675CB,H'27063863,H'8C31E783,H'0DEC30F1,H'F0C67061,H'BC1CB4E6,H'FC619F61,
             6187FFE186 +                       H'87830FE3,H'D861ECF3,H'7BF8C618,H'C3183996,H'5ECB271E,H'CF37861B,H'C00C3006,
             1861FFF861 +                       H'1800030C,H'01821018,H'C63060C1,H'8003F03F,H'00060C18,H'318C61EC,H'C318C018,
             86187FFE18 +                       H'7A30C36E,H'E70E6DB6,H'FFDB6799,H'67ECB2F0,H'E658C30C,H'9C799671,H'CB2F1F65,
             61861FFF86 +                       H'8FB0CBE7,H'D963EC30,H'C0F658CF,H'1C9EF596,H'7ECB2E9E,H'30C71863,H'C3C618EB,




SH SERIES C/C++ Compiler (Ver. 6.0C)                                                                 04-Nov-2020 00:50:49  PAGE   36


SCT OFFSET   CODE       C LABEL     INSTRUCTION OPERAND    COMMENT

             186187FFE1 +                       H'3C61B6DB,H'FBCDB361,H'8630C32F,H'916D5462,H'8A265D6F,H'1CB2C8E6,H'59C72C9C,
             861861FFF8 +                       H'38D35979,H'8F0E659C,H'7270738D,H'359799F4,H'E6583069,H'9CFED31C,H'618F3D65,
             6186187FFE +                       H'9672CBCF,H'5969A71C,H'63B4518A,H'AAB4CB67,H'087369B3,H'FDE31C63,H'CFE318C6,
             1861861FFF +                       H'31FCE30C,H'61861C61,H'830C3061,H'8E18630C,H'31C10E6D,H'30000000,H'0000003F,
             86186187FF +                       H'70C18000,H'000000E0,H'DF99BC10,H'82ECE378,H'000E670C,H'9C0C30D6,H'BA678000,
             E1861861FF +                       H'E4DF83C1,H'8D33E618,H'F0E5D33C,H'699CC104,H'2ECF3CC0,H'18038631,H'E30070C6,
             F86186187F +                       H'18E304D6,H'738F3638,H'618630C7,H'8002A555,H'AAA00068,H'D452E800,H'0E4E399C,
             FE1861861F +                       H'D9B4DE42,H'081B9E37,H'8631E000,H'6CC618F0,H'001EE1E1,H'FE31E318,H'61838003,
             FF86186187 +                       H'B4E699C0,H'00ED34D6,H'70003B46,H'2A94000C,H'DE31ECC0,H'0134CE33,H'80007C63,
             FFE1861861 +                       H'18F8E30C,H'E1861C18,H'618C30C3,H'0E1863D8,H'6380004A,H'A90003FF,H'FFFFFFFF
             FFF8618618   
             7FFE186186   
             1FFF861861   
             87FFE18618   
             61FFF86186   
             187FFE1861   
             861FFF8618   
             6187FFE186   
             1861FFF861   
             86187F0000   
             0000000618   
             E30C0186DB   
             DB60000092   
             7F4BF9247B   
             554CAAB7B2   
             D843086D33   
             92518AA4E9   
             C318000000   
             18C3186183   
             0C18618C31   
             854E72A000   
             00C33EF986   
             0000000070   
             C60003EF80   
             0000000000   
             0C3000CFF3   
             0000399675   
             CB27063863   
             8C31E7830D   
             EC30F1F0C6   
             7061BC1CB4   
             E6FC619F61   
             87830FE3D8   
             61ECF37BF8   
             C618C31839   
             965ECB271E   
             CF37861BC0   
             0C30061800   
             030C018210   
             18C63060C1   
             8003F03F00   
             060C18318C   
             61ECC318C0   
             187A30C36E   
             E70E6DB6FF   
             DB679967EC   
             B2F0E658C3   




SH SERIES C/C++ Compiler (Ver. 6.0C)                                                                 04-Nov-2020 00:50:49  PAGE   37


SCT OFFSET   CODE       C LABEL     INSTRUCTION OPERAND    COMMENT

             0C9C799671   
             CB2F1F658F   
             B0CBE7D963   
             EC30C0F658   
             CF1C9EF596   
             7ECB2E9E30   
             C71863C3C6   
             18EB3C61B6   
             DBFBCDB361   
             8630C32F91   
             6D54628A26   
             5D6F1CB2C8   
             E659C72C9C   
             38D359798F   
             0E659C7270   
             738D359799   
             F4E6583069   
             9CFED31C61   
             8F3D659672   
             CBCF5969A7   
             1C63B4518A   
             AAB4CB6708   
             7369B3FDE3   
             1C63CFE318   
             C631FCE30C   
             61861C6183   
             0C30618E18   
             630C31C10E   
             6D30000000   
             0000003F70   
             C180000000   
             00E0DF99BC   
             1082ECE378   
             000E670C9C   
             0C30D6BA67   
             8000E4DF83   
             C18D33E618   
             F0E5D33C69   
             9CC1042ECF   
             3CC0180386   
             31E30070C6   
             18E304D673   
             8F36386186   
             30C78002A5   
             55AAA00068   
             D452E8000E   
             4E399CD9B4   
             DE42081B9E   
             378631E000   
             6CC618F000   
             1EE1E1FE31   
             E318618380   
             03B4E699C0   
             00ED34D670   
             003B462A94   
             000CDE31EC   
             C00134CE33   




SH SERIES C/C++ Compiler (Ver. 6.0C)                                                                 04-Nov-2020 00:50:49  PAGE   38


SCT OFFSET   CODE       C LABEL     INSTRUCTION OPERAND    COMMENT

             80007C6318   
             F8E30CE186   
             1C18618C30   
             C30E1863D8   
             6380004AA9   
             0003FFFFFF   
             FFFF         
    00001260              L334:
    00001260 0000000000             .DATA.L     H'00000000,H'00000054,H'DAAE5A76,H'511C1051,H'52244A8A,H'080830A3,H'458A1820,
             000054DAAE +                       H'0030A2E8,H'2E8A183C,H'863F9424,H'85040071,H'145D75DF,H'1C0003FC,H'B8EA8A08,
             5A76511C10 +                       H'00612243,H'040C1000,H'6123C206,H'081801E2,H'47840C10,H'30007D12,H'2448917C,
             5152244A8A +                       H'0071D4BE,H'FA571C00,H'20E2AFEA,H'8E08FD06,H'CCD83FE0,H'FF105153,H'654A8A08,
             080830A345 +                       H'0001F41F,H'F260FF00,H'01F7FFF0,H'60FF0038,H'8B1A33A2,H'3800DBFF,H'FFEF8E08,
             8A18200030 +                       H'00DA7CF9,H'EF8E0800,H'DA7CF9EB,H'8E0800DA,H'7CF9E88A,H'0800DA4C,H'18288A08,
             A2E82E8A18 +                       H'000C2EA7,H'8A3E6400,H'20408EE2,H'04080020,H'414C6504,H'08000004,H'47D10000,
             3C863F9424 +                       H'0020820B,H'CC890C00,H'01114108,H'8A081051,H'10828880,H'006D260A,H'28325B00,
             8504007114 +                       H'0000820F,H'E8080000,H'00202FE0,H'82000020,H'E2A10204,H'08002040,H'810A8E08,
             5D75DF1C00 +                       H'0000206F,H'E1820000,H'00830FEC,H'08000020,H'E3E10204,H'08002040,H'810F8E08,
             03FCB8EA8A +                       H'00C1C3C7,H'CF1C3000,H'1871E7C7,H'87060000,H'41C7DFFF,H'8001FFFB,H'E3820000,
             0800612243 +                       H'0000A22F,H'E88A0010,H'7150810A,H'8E080000,H'A36FED8A,H'001071F0,H'810F8E08,
             040C100061 +                       H'00812227,H'E0820000,H'08922FC8,H'080000F0,H'2042A382,H'00007881,H'0A8E0800,
             23C2060818 +                       H'001013F4,H'49100000,H'4107E444,H'81000010,H'7150811E,H'000041C5,H'42040F00,
             01E247840C +                       H'00812267,H'E1820000,H'08932FCC,H'080000F0,H'2043E382,H'00007881,H'0F8E0800,
             1030007D12 +                       H'001033F4,H'C9100000,H'4187E644,H'81000010,H'71F0811E,H'000041C7,H'C2040F00,
             2448917C00 +                       H'000000EE,H'00000000,H'40C14206,H'0A100040,H'C143050C,H'10004081,H'02060A22,
             71D4BEFA57 +                       H'01071D59,H'3571C100,H'89B2A448,H'912200A9,H'92678810,H'20000212,H'43061242,
             1C0020E2AF +                       H'000091E2,H'47892200,H'00408102,H'04080000,H'40810204,H'10002040,H'81030511,
             EA8E08FD06 +                       H'0040C142,H'04081000,H'89B2A6C8,H'91220020,H'42838284,H'080091C2,H'048E1020,
             CCD83FE0FF +                       H'0050A1C2,H'070A1400,H'89B2A44A,H'9B220040,H'C143060A,H'12002041,H'03810408,
             105153654A +                       H'0020E2A5,H'42040800,H'81828489,H'12240000,H'9122450C,H'10000254,H'A954B544,
             8A080001F4 +                       H'00A951C1,H'02040800,H'F11227CA,H'95420020,H'40810715,H'2A001122,H'E281121A,
             1FF260FF00 +                       H'00811243,H'0A1BA000,H'81A0A249,H'1220002C,H'48A7CA24,H'68006023,H'E4080F02,
             01F7FFF060 +                       H'0050A1C7,H'D9F7BE00,H'50A147D9,H'F7BE0050,H'A1445077,H'BE0050A1,H'445060BE,
             FF00388B1A +                       H'0050A22F,H'F9F7BE00,H'50A2283B,H'F7BE0050,H'A2283077,H'BE0050A2,H'283060BE,
             33A23800DB +                       H'0050A227,H'CB9F1C00,H'A1444897,H'3E380050,H'A224489F,H'1C0050A2,H'2448911C,
             FFFFEF8E08 +                       H'000C2EAA,H'8A2A6C00,H'ED2AA2AA,H'6BE00018,H'515535F0,H'00000C28,H'A28A2860,
             00DA7CF9EF +                       H'001C4892,H'CA286000,H'04185124,H'92780000,H'70614430,H'20007114,H'9FF2511C,
             8E0800DA7C +                       H'01FE0C95,H'488A0800,H'20A3654D,H'8A080079,H'0C594C45,H'040001B3,H'92289218,
             F9EB8E0800 +                       H'00000020,H'8A082800
             DA7CF9E88A   
             0800DA4C18   
             288A08000C   
             2EA78A3E64   
             0020408EE2   
             0408002041   
             4C65040800   
             000447D100   
             000020820B   
             CC890C0001   
             1141088A08   
             1051108288   
             80006D260A   
             28325B0000   
             00820FE808   
             000000202F   
             E082000020   
             E2A1020408   




SH SERIES C/C++ Compiler (Ver. 6.0C)                                                                 04-Nov-2020 00:50:49  PAGE   39


SCT OFFSET   CODE       C LABEL     INSTRUCTION OPERAND    COMMENT

             002040810A   
             8E08000020   
             6FE1820000   
             00830FEC08   
             000020E3E1   
             0204080020   
             40810F8E08   
             00C1C3C7CF   
             1C30001871   
             E7C7870600   
             0041C7DFFF   
             8001FFFBE3   
             8200000000   
             A22FE88A00   
             107150810A   
             8E080000A3   
             6FED8A0010   
             71F0810F8E   
             0800812227   
             E082000008   
             922FC80800   
             00F02042A3   
             8200007881   
             0A8E080000   
             1013F44910   
             00004107E4   
             4481000010   
             7150811E00   
             0041C54204   
             0F00008122   
             67E1820000   
             08932FCC08   
             0000F02043   
             E382000078   
             810F8E0800   
             001033F4C9   
             1000004187   
             E644810000   
             1071F0811E   
             000041C7C2   
             040F000000   
             00EE000000   
             0040C14206   
             0A100040C1   
             43050C1000   
             408102060A   
             2201071D59   
             3571C10089   
             B2A4489122   
             00A9926788   
             1020000212   
             4306124200   
             0091E24789   
             2200004081   
             0204080000   
             4081020410   
             0020408103   




SH SERIES C/C++ Compiler (Ver. 6.0C)                                                                 04-Nov-2020 00:50:49  PAGE   40


SCT OFFSET   CODE       C LABEL     INSTRUCTION OPERAND    COMMENT

             05110040C1   
             4204081000   
             89B2A6C891   
             2200204283   
             8284080091   
             C2048E1020   
             0050A1C207   
             0A140089B2   
             A44A9B2200   
             40C143060A   
             1200204103   
             8104080020   
             E2A5420408   
             0081828489   
             1224000091   
             22450C1000   
             0254A954B5   
             4400A951C1   
             02040800F1   
             1227CA9542   
             0020408107   
             152A001122   
             E281121A00   
             8112430A1B   
             A00081A0A2   
             491220002C   
             48A7CA2468   
             006023E408   
             0F020050A1   
             C7D9F7BE00   
             50A147D9F7   
             BE0050A144   
             5077BE0050   
             A1445060BE   
             0050A22FF9   
             F7BE0050A2   
             283BF7BE00   
             50A2283077   
             BE0050A228   
             3060BE0050   
             A227CB9F1C   
             00A1444897   
             3E380050A2   
             24489F1C00   
             50A2244891   
             1C000C2EAA   
             8A2A6C00ED   
             2AA2AA6BE0   
             0018515535   
             F000000C28   
             A28A286000   
             1C4892CA28   
             6000041851   
             2492780000   
             7061443020   
             0071149FF2   
             511C01FE0C   




SH SERIES C/C++ Compiler (Ver. 6.0C)                                                                 04-Nov-2020 00:50:49  PAGE   41


SCT OFFSET   CODE       C LABEL     INSTRUCTION OPERAND    COMMENT

             95488A0800   
             20A3654D8A   
             0800790C59   
             4C45040001   
             B392289218   
             000000208A   
             082800       
    000015B0 000000838B             .DATA.L     H'00000083,H'8B200000,H'0020C28A,H'38000000,H'20820820,H'00000060,H'C2082000,
             2000000020 +                       H'0003E445,H'04000000,H'0146C891,H'3E000001,H'4288911C
             C28A380000   
             0020820820   
             00000060C2   
             0820000003   
             E445040000   
             000146C891   
             3E00000142   
             88911C       
    000015E0              L376:
    000015E0 0303050505             .DATA.B     H'03,H'03,H'05,H'05,H'05,H'06,H'06,H'06,H'06,H'07
             0606060607   
    000015EA              L378:
    000015EA 0505070705             .DATA.B     H'05,H'05,H'07,H'07,H'05,H'07,H'07,H'07,H'07,H'08
             0707070708   
B   00000000              _Txt_VRAM:                       ; static: Txt_VRAM
    00000000 00000004               .RES.L      1
    00000004              _Txt_Fonts:                      ; static: Txt_Fonts
    00000004 00000028               .RES.L      10


































SH SERIES C/C++ Compiler (Ver. 6.0C)                                                                 04-Nov-2020 00:50:49  PAGE    1


******** STATISTICS INFORMATION ********


********** ERROR INFORMATION ***********

NUMBER OF ERRORS:           0
NUMBER OF WARNINGS:         0




******* SOURCE LINE INFORMATION ********

COMPILED SOURCE LINE:      341



******* SECTION SIZE INFORMATION *******

PROGRAM  SECTION (P):                               00000604 Byte(s)
CONSTANT SECTION (C):                               000015F4 Byte(s)
DATA     SECTION (D):                               00000000 Byte(s)
BSS      SECTION (B):                               0000002C Byte(s)

 TOTAL PROGRAM SIZE: 00001C24 Byte(s)



********** LABEL INFORMATION ***********

NUMBER OF EXTERNAL REFERENCE SYMBOLS:            4
NUMBER OF EXTERNAL DEFINITION SYMBOLS:          11
NUMBER OF INTERNAL/EXTERNAL SYMBOLS:            79






























*** COMMAND PARAMETER ***


  -subcommand=C:\Users\leofa\AppData\Local\Temp\hmk759F.tmp 

