SH SERIES C/C++ Compiler (Ver. 6.0C)                                                                 09-Nov-2021 18:50:40  PAGE    1

************ OBJECT LISTING ************

FILE NAME: C:\Users\leofa\OneDrive\Documents\PycharmProjects\Particule-Casio\Glacial Project\Temp\Compile\ParticuleEngine.cpp

SCT OFFSET   CODE       C LABEL     INSTRUCTION OPERAND    COMMENT

      ParticuleE     1    extern "C"
      ParticuleE     2    {
      ParticuleE     3    #include "keybios.h"
      ParticuleE     4    #include "fxlib.h"
      ParticuleE     5    #include <stdio.h>
      ParticuleE     6    #include "stdio.h"
      ParticuleE     7    #include "stdlib.h"
      ParticuleE     8    
      ParticuleE     9    #include "string.h"
      ParticuleE    10    #include "time.h"
      ParticuleE    11    }
      ParticuleE    12    #include "Announcement.h"
      ParticuleE    13    #include "MonochromeLib.h"
      ParticuleE    14    #include "List.h"
      ParticuleE    15    #include <iostream>
      ParticuleE    16    #include <math.h>
      ParticuleE    17    #include "usefull.h"
      ParticuleE    18    #include "Ressources.h"
      ParticuleE    19    #include "ParticuleEngine.hpp"
      ParticuleE    20    
      ParticuleE    21    int LenChar(char* txt) {
P   00000000              _LenChar__FPc:                   ; function: LenChar(char *)
                                                           ; frame size=4
    00000000 4F22                   STS.L       PR,@-R15
      ParticuleE    22        return strlen(txt);
    00000002 D3A5                   MOV.L       L1807,R3   ; _strlen
    00000004 430B                   JSR         @R3
    00000006 0009                   NOP
      ParticuleE    23    }
    00000008 4F26                   LDS.L       @R15+,PR
    0000000A 000B                   RTS
    0000000C 0009                   NOP
      ParticuleE    24    
      ParticuleE    25    int mod(int x, int m) {
    0000000E              _mod__FiT1:                      ; function: mod(int, int)
                                                           ; frame size=4
                                                           ; used runtime library name:
                                                           ; __modls
      ParticuleE    26        return (x % m + m) % m;
    0000000E 6143                   MOV         R4,R1
    00000010 D3A2                   MOV.L       L1807+4,R3 ; __modls
    00000012 4F22                   STS.L       PR,@-R15
    00000014 430B                   JSR         @R3
    00000016 6053                   MOV         R5,R0
    00000018 D3A0                   MOV.L       L1807+4,R3 ; __modls
    0000001A 6103                   MOV         R0,R1
    0000001C 315C                   ADD         R5,R1
    0000001E 430B                   JSR         @R3
    00000020 6053                   MOV         R5,R0
      ParticuleE    27    }
    00000022 4F26                   LDS.L       @R15+,PR
    00000024 000B                   RTS
    00000026 0009                   NOP
      ParticuleE    28    




SH SERIES C/C++ Compiler (Ver. 6.0C)                                                                 09-Nov-2021 18:50:40  PAGE    2


SCT OFFSET   CODE       C LABEL     INSTRUCTION OPERAND    COMMENT

      ParticuleE    29    enum Tag
      ParticuleE    30    {
      ParticuleE    31        Untagged = 0,
      ParticuleE    32        Respawn = 1,
      ParticuleE    33        Finish = 2,
      ParticuleE    34        EditorOnly = 3,
      ParticuleE    35        MainCamera = 4,
      ParticuleE    36        Player = 5,
      ParticuleE    37        GameController = 6
      ParticuleE    38    };
      ParticuleE    39    
      ParticuleE    40    enum Layer
      ParticuleE    41    {
      ParticuleE    42        Default = 0,
      ParticuleE    43        TransparentFX = 1,
      ParticuleE    44        IgnoreRaycast = 2,
      ParticuleE    45        Water = 3,
      ParticuleE    46        UI = 4
      ParticuleE    47    };
      ParticuleE    48    
      ParticuleE    49    Vector2::Vector2() {
      ParticuleE    50        this->x = 0;
      ParticuleE    51        this->y = 0;
      ParticuleE    52    }
      ParticuleE    53    Vector2::Vector2(float x, float y) {
      ParticuleE    54        this->x = x;
      ParticuleE    55        this->y = y;
      ParticuleE    56    };
      ParticuleE    57    void Vector2::Set(float x, float y) {
      ParticuleE    58        this->x = x;
      ParticuleE    59        this->y = y;
      ParticuleE    60    };
      ParticuleE    61    void Vector2::Set(Vector2 vect) {
      ParticuleE    62        this->x = vect.x;
      ParticuleE    63        this->y = vect.y;
      ParticuleE    64    };
      ParticuleE    65    
      ParticuleE    66    bool Vector2::operator==(const Vector2& other) {
      ParticuleE    67        return this->x == other.x && this->y == other.y;
      ParticuleE    68    }
      ParticuleE    69    
      ParticuleE    70    bool Vector2::operator!=(const Vector2& other) {
      ParticuleE    71        return !(this->x == other.x && this->y == other.y);
      ParticuleE    72    }
      ParticuleE    73    
      ParticuleE    74    Vector2 Vector2::operator+(const Vector2& other) {
      ParticuleE    75        return Vector2(this->x + other.x, this->y + other.y);
      ParticuleE    76    }
      ParticuleE    77    
      ParticuleE    78    Vector2 Vector2::operator-(const Vector2& other) {
      ParticuleE    79        return Vector2(this->x - other.x, this->y - other.y);
      ParticuleE    80    }
      ParticuleE    81    
      ParticuleE    82    Vector2 Vector2::operator*(const Vector2& other) {
      ParticuleE    83        return Vector2(this->x * other.x, this->y * other.y);
      ParticuleE    84    }
      ParticuleE    85    




SH SERIES C/C++ Compiler (Ver. 6.0C)                                                                 09-Nov-2021 18:50:40  PAGE    3


SCT OFFSET   CODE       C LABEL     INSTRUCTION OPERAND    COMMENT

      ParticuleE    86    Vector2 Vector2::operator/(const Vector2& other) {
      ParticuleE    87        return Vector2(this->x / other.x, this->y / other.y);
      ParticuleE    88    }
      ParticuleE    89    
      ParticuleE    90    
      ParticuleE    91    
      ParticuleE    92    Object::Object(const char* name, const char* UUID) {
      ParticuleE    93        this->name = (unsigned char*)name;
      ParticuleE    94        this->ID = (unsigned char*)UUID;
      ParticuleE    95    };
      ParticuleE    96    
      ParticuleE    97    
      ParticuleE    98    unsigned char* Object::GetInstanceID() {
      ParticuleE    99        return ID;
      ParticuleE   100    };
      ParticuleE   101    unsigned char* Object::ToString() {
      ParticuleE   102        return name;
      ParticuleE   103    };
      ParticuleE   104    
      ParticuleE   105    
      ParticuleE   106    // Overload operator
      ParticuleE   107    bool Object::operator==(const Object& obj) {
      ParticuleE   108        return this->ID == obj.ID;
      ParticuleE   109    }
      ParticuleE   110    
      ParticuleE   111    bool Object::operator!=(const Object& obj) {
      ParticuleE   112        return this->ID != obj.ID;
      ParticuleE   113    }
      ParticuleE   114    
      ParticuleE   115    Component::Component(const char* name, GameObject* gameObject, const char* UUID) : Object(name, UUID)
      ParticuleE   116    {
      ParticuleE   117        this->gameObject = gameObject;
      ParticuleE   118    };
      ParticuleE   119    
      ParticuleE   120    Component::~Component() {
      ParticuleE   121        delete tag;
      ParticuleE   122    }
      ParticuleE   123    
      ParticuleE   124    
      ParticuleE   125    Transform::Transform(GameObject* gameObject, const char* UUID, const char* name) : Component(name, gameObj
                         +ect, UUID) {
      ParticuleE   126        childCount = 0;
      ParticuleE   127        //eulerAngles = new Vector2();
      ParticuleE   128        //forward = None
      ParticuleE   129        hasChanged = NULL;
      ParticuleE   130        hierarchyCapacity = NULL;
      ParticuleE   131        hierarchyCount = NULL;
      ParticuleE   132        //localEulerAngles = new Vector2();
      ParticuleE   133        localPosition = new Vector2();
      ParticuleE   134        //localRotation = NULL;
      ParticuleE   135        localScale = new Vector2(1, 1);
      ParticuleE   136        //localToWorldMatrix = NULL;
      ParticuleE   137        lossyScale = new Vector2(1, 1);
      ParticuleE   138        parent = NULL;
      ParticuleE   139        //children = []
      ParticuleE   140        position = new Vector2();
      ParticuleE   141        //self.right = None




SH SERIES C/C++ Compiler (Ver. 6.0C)                                                                 09-Nov-2021 18:50:40  PAGE    4


SCT OFFSET   CODE       C LABEL     INSTRUCTION OPERAND    COMMENT

      ParticuleE   142        root = NULL;
      ParticuleE   143        //rotation = NULL;
      ParticuleE   144        //self.up = None
      ParticuleE   145        //worldToLocalMatrix = NULL;
      ParticuleE   146        lastPosition = new Vector2();
      ParticuleE   147    };
      ParticuleE   148    
      ParticuleE   149    Transform::~Transform() {
      ParticuleE   150        //delete localRotation;
      ParticuleE   151        //delete localToWorldMatrix;
      ParticuleE   152        delete parent;
      ParticuleE   153        delete root;
      ParticuleE   154        //delete rotation;
      ParticuleE   155        //delete worldToLocalMatrix;
      ParticuleE   156    }
      ParticuleE   157    
      ParticuleE   158    void Transform::SetParent(Transform* transform) {
      ParticuleE   159        if (parent != NULL) {
      ParticuleE   160            parent->children.Remove(this);
      ParticuleE   161        }
      ParticuleE   162        transform->children.Add(this);
      ParticuleE   163        parent = transform;
      ParticuleE   164    }
      ParticuleE   165    
      ParticuleE   166    void Transform::Start() {
      ParticuleE   167        lastPosition->x = position->x;
      ParticuleE   168        lastPosition->y = position->y;
      ParticuleE   169    }
      ParticuleE   170    
      ParticuleE   171    void Transform::Update() {
      ParticuleE   172        childCount = children.Count;
      ParticuleE   173    
      ParticuleE   174        if (parent == NULL) {
      ParticuleE   175    
      ParticuleE   176            if (*position != *localPosition) {
      ParticuleE   177                if (*localPosition != *lastPosition) {
      ParticuleE   178                    position->x = localPosition->x;
      ParticuleE   179                    position->y = localPosition->y;
      ParticuleE   180                }
      ParticuleE   181            }
      ParticuleE   182            localPosition->x = position->x;
      ParticuleE   183            localPosition->y = position->y;
      ParticuleE   184        }
      ParticuleE   185        else
      ParticuleE   186        {
      ParticuleE   187            //return;
      ParticuleE   188            if ((*position != *lastPosition) && (*position == (*localPosition + *parent->position))) {
      ParticuleE   189                localPosition->Set(*localPosition + (*lastPosition - *position));
      ParticuleE   190            }
      ParticuleE   191            position->Set(*localPosition + *parent->position);
      ParticuleE   192    
      ParticuleE   193        }
      ParticuleE   194        lastPosition->x = position->x;
      ParticuleE   195        lastPosition->y = position->y;
      ParticuleE   196    }
      ParticuleE   197    
      ParticuleE   198    




SH SERIES C/C++ Compiler (Ver. 6.0C)                                                                 09-Nov-2021 18:50:40  PAGE    5


SCT OFFSET   CODE       C LABEL     INSTRUCTION OPERAND    COMMENT

      ParticuleE   199    Behaviour::Behaviour(const char* name, GameObject* gameObject, const char* UUID) : Component(name, gameObj
                         +ect, UUID) {
      ParticuleE   200        enabled = true;
      ParticuleE   201        isActiveAndEnabled = true;
      ParticuleE   202    };
      ParticuleE   203    
      ParticuleE   204    /*
      ParticuleE   205    enum ScaleMode
      ParticuleE   206    {
      ParticuleE   207        //https://docs.unity3d.com/ScriptReference/ScaleMode.html
      ParticuleE   208        StretchToFill,
      ParticuleE   209        ScaleAndCrop,
      ParticuleE   210        ScaleToFit,
      ParticuleE   211    };
      ParticuleE   212    class CallbackEventHandler{
      ParticuleE   213        //https://docs.unity3d.com/ScriptReference/UIElements.CallbackEventHandler.html
      ParticuleE   214    
      ParticuleE   215    };
      ParticuleE   216    
      ParticuleE   217    class Focusable : public CallbackEventHandler {
      ParticuleE   218        //https://docs.unity3d.com/ScriptReference/UIElements.Focusable.html
      ParticuleE   219    
      ParticuleE   220    };
      ParticuleE   221    
      ParticuleE   222    class VisualElement : public Focusable {
      ParticuleE   223        //https://docs.unity3d.com/ScriptReference/UIElements.VisualElement.html
      ParticuleE   224    
      ParticuleE   225    };
      ParticuleE   226    */
      ParticuleE   227    
      ParticuleE   228    
      ParticuleE   229    enum TextureDimension
      ParticuleE   230    {
      ParticuleE   231        Unknown,
      ParticuleE   232        None,
      ParticuleE   233        Any,
      ParticuleE   234        Tex2D,
      ParticuleE   235        Tex3D,
      ParticuleE   236        Cube,
      ParticuleE   237        Tex2DArray,
      ParticuleE   238        CubeArray
      ParticuleE   239    };
      ParticuleE   240    
      ParticuleE   241    enum FilterMode
      ParticuleE   242    {
      ParticuleE   243        Point,
      ParticuleE   244        Bilinear,
      ParticuleE   245        Trilinear
      ParticuleE   246    };
      ParticuleE   247    
      ParticuleE   248    Texture::Texture() : Object("None", NULL) {
      ParticuleE   249        textureData = "";
      ParticuleE   250        this->width = 0;
      ParticuleE   251        this->height = 0;
      ParticuleE   252    };
      ParticuleE   253    Texture::Texture(const char* name, int width, int height, const unsigned char* Data, const char* UUID) : O
                         +bject(name, UUID) {




SH SERIES C/C++ Compiler (Ver. 6.0C)                                                                 09-Nov-2021 18:50:40  PAGE    6


SCT OFFSET   CODE       C LABEL     INSTRUCTION OPERAND    COMMENT

      ParticuleE   254        textureData = (unsigned char*)Data;
      ParticuleE   255        this->width = width;
      ParticuleE   256        this->height = height;
      ParticuleE   257    };
      ParticuleE   258    
      ParticuleE   259    MonoBehaviour::MonoBehaviour(const char* name, GameObject* gameObject, const char* UUID) : Behaviour(name,
                         + gameObject, UUID) {
      ParticuleE   260        useGUILayout = true;
      ParticuleE   261    };
      ParticuleE   262    
      ParticuleE   263    
      ParticuleE   264    GameObject::GameObject(Scene* scene, const char* name, const char* UUID) : Object(name, UUID)
      ParticuleE   265    {
      ParticuleE   266        this->scene = scene;
      ParticuleE   267        this->transform = new Transform(this);
      ParticuleE   268        activeInHierarchy = true;
      ParticuleE   269        activeSelf = true;
      ParticuleE   270        isStatic = false;
      ParticuleE   271        layer = Default;
      ParticuleE   272        sceneCullingMask = NULL;
      ParticuleE   273        tag = Untagged;
      ParticuleE   274        //ListOfComponent.Add(transform);
      ParticuleE   275    };
      ParticuleE   276    
      ParticuleE   277    GameObject::~GameObject() {
      ParticuleE   278        delete transform;
      ParticuleE   279    }
      ParticuleE   280    
      ParticuleE   281    bool GameObject::IsActive() {
      ParticuleE   282        if (!activeSelf) {
      ParticuleE   283            activeInHierarchy = false;
      ParticuleE   284            return false;
      ParticuleE   285        }
      ParticuleE   286        if (transform->parent != NULL) {
      ParticuleE   287            if (!transform->parent->gameObject->activeInHierarchy || !transform->parent->gameObject->activeSel
                         +f) {
      ParticuleE   288                activeInHierarchy = false;
      ParticuleE   289                return false;
      ParticuleE   290            }
      ParticuleE   291        }
      ParticuleE   292        activeInHierarchy = true;
      ParticuleE   293        return true;
      ParticuleE   294    }
      ParticuleE   295    
      ParticuleE   296    void GameObject::Update() {
      ParticuleE   297        this->transform->Update();
      ParticuleE   298        if (!IsActive()) {
      ParticuleE   299            return;
      ParticuleE   300        }
      ParticuleE   301        for (int i = 0; i < ListOfComponent.Count; i++)
      ParticuleE   302        {
      ParticuleE   303            ListOfComponent[i]->Update();
      ParticuleE   304        }
      ParticuleE   305    };
      ParticuleE   306    
      ParticuleE   307    void GameObject::Start() {
      ParticuleE   308        this->transform->Start();




SH SERIES C/C++ Compiler (Ver. 6.0C)                                                                 09-Nov-2021 18:50:40  PAGE    7


SCT OFFSET   CODE       C LABEL     INSTRUCTION OPERAND    COMMENT

      ParticuleE   309        if (!IsActive()) {
      ParticuleE   310            return;
      ParticuleE   311        }
      ParticuleE   312        for (int i = 0; i < ListOfComponent.Count; i++)
      ParticuleE   313        {
      ParticuleE   314            ListOfComponent[i]->Start();
      ParticuleE   315        }
      ParticuleE   316    };
      ParticuleE   317    
      ParticuleE   318    void GameObject::AddComponent(Component* component) {
      ParticuleE   319        ListOfComponent.Add(component);
      ParticuleE   320    };
      ParticuleE   321    Component* GameObject::GetComponent(const char* name) {
      ParticuleE   322        for (int i = 0; i < ListOfComponent.Count; i++)
      ParticuleE   323        {
      ParticuleE   324            if (ListOfComponent[i]->name == (unsigned char*)name)
      ParticuleE   325                return ListOfComponent[i];
      ParticuleE   326        }
      ParticuleE   327        return NULL;
      ParticuleE   328    };
      ParticuleE   329    
      ParticuleE   330    
      ParticuleE   331    GameObject* GameObject::Find(unsigned char* name) {
      ParticuleE   332        return FindWithName(name, this);
      ParticuleE   333    };
      ParticuleE   334    
      ParticuleE   335    
      ParticuleE   336    void Scene::AddGameObject(GameObject* gObj) {
      ParticuleE   337        AllGameObject.Add(gObj);
      ParticuleE   338    };
      ParticuleE   339    
      ParticuleE   340    void Scene::Update() {
      ParticuleE   341        for (int i = 0; i < AllGameObject.Count; i++)
      ParticuleE   342        {
      ParticuleE   343            AllGameObject[i]->Update();
      ParticuleE   344        }
      ParticuleE   345    };
      ParticuleE   346    
      ParticuleE   347    void Scene::Start() {
      ParticuleE   348        for (int i = 0; i < AllGameObject.Count; i++)
      ParticuleE   349        {
      ParticuleE   350            AllGameObject[i]->Start();
      ParticuleE   351        }
      ParticuleE   352    };
      ParticuleE   353    
      ParticuleE   354    Camera::Camera(GameObject* gameObject, const char* UUID) : Behaviour("Camera", gameObject, UUID) {
      ParticuleE   355        gameObject->scene->AllCameras.Add(this);
      ParticuleE   356    }
      ParticuleE   357    
      ParticuleE   358    Image::Image(GameObject* gameObject, Texture* image, const char* UUID) : MonoBehaviour("Image", gameObject
                         +, UUID) {
      ParticuleE   359        this->image = image;
      ParticuleE   360    };
      ParticuleE   361    
      ParticuleE   362    void Image::Update() {
      ParticuleE   363        float posX = gameObject->transform->position->x;
      ParticuleE   364        float posY = gameObject->transform->position->y;




SH SERIES C/C++ Compiler (Ver. 6.0C)                                                                 09-Nov-2021 18:50:40  PAGE    8


SCT OFFSET   CODE       C LABEL     INSTRUCTION OPERAND    COMMENT

      ParticuleE   365        float camX = gameObject->scene->AllCameras[0]->gameObject->transform->position->x;
      ParticuleE   366        float camY = gameObject->scene->AllCameras[0]->gameObject->transform->position->y;
      ParticuleE   367        if (posX - camX + image->height > 0 && posX - camX < 128 && posY - camY + image->height>0 && posY - ca
                         +mY < 64)
      ParticuleE   368            ML_bmp_or_cl((const unsigned char*)image->textureData, (int)(posX - camX), (int)(posY - camY), ima
                         +ge->width, image->height);
      ParticuleE   369    };
      ParticuleE   370    
      ParticuleE   371    Sprite::Sprite(GameObject* gameObject, Texture* image, const char* UUID) : MonoBehaviour("Sprite", gameObj
                         +ect, UUID) {
      ParticuleE   372        this->image = image;
      ParticuleE   373    };
      ParticuleE   374    
      ParticuleE   375    void Sprite::Update() {
      ParticuleE   376        float posX = gameObject->transform->position->x;
      ParticuleE   377        float posY = gameObject->transform->position->y;
      ParticuleE   378        float camX = gameObject->scene->AllCameras[0]->gameObject->transform->position->x;
      ParticuleE   379        float camY = gameObject->scene->AllCameras[0]->gameObject->transform->position->y;
      ParticuleE   380        if (posX - camX + image->height > 0 && posX - camX < 128 && posY - camY + image->height>0 && posY - ca
                         +mY < 64)
      ParticuleE   381            ML_bmp_or_cl((const unsigned char*)image->textureData, (int)(posX - camX), (int)(posY - camY), ima
                         +ge->width, image->height);
      ParticuleE   382    };
      ParticuleE   383    
      ParticuleE   384    
      ParticuleE   385    Rigidbody::Rigidbody(GameObject* gameObject, float Mass, bool UseGravity, bool IsKinematic, const char* UU
                         +ID) : MonoBehaviour("Rigidbody", gameObject, UUID) {
      ParticuleE   386        this->Mass = Mass;
      ParticuleE   387        this->UseGravity = UseGravity;
      ParticuleE   388        this->IsKinematic = IsKinematic;
      ParticuleE   389        this->velocity = new Vector2();
      ParticuleE   390    
      ParticuleE   391    };
      ParticuleE   392    
      ParticuleE   393    Rigidbody::~Rigidbody() {
      ParticuleE   394        delete velocity;
      ParticuleE   395    }
      ParticuleE   396    
      ParticuleE   397    void Rigidbody::Start() {
      ParticuleE   398        this->velocity->Set(0, 0);
      ParticuleE   399    }
      ParticuleE   400    
      ParticuleE   401    
      ParticuleE   402    Text::Text(GameObject* gameObject, unsigned char* text, const char* UUID) : MonoBehaviour("Text", gameObje
                         +ct, UUID) {
      ParticuleE   403        this->text = text;
      ParticuleE   404    
      ParticuleE   405    };
      ParticuleE   406    
      ParticuleE   407    void Text::Update() {
      ParticuleE   408        float posX = gameObject->transform->position->x;
      ParticuleE   409        float posY = gameObject->transform->position->y;
      ParticuleE   410        float camX = gameObject->scene->AllCameras[0]->gameObject->transform->position->x;
      ParticuleE   411        float camY = gameObject->scene->AllCameras[0]->gameObject->transform->position->y;
      ParticuleE   412        PrintMini((int)(posX - camX), (int)(posY - camY), (unsigned char*)this->text, MINI_OVER);
      ParticuleE   413    }
      ParticuleE   414    




SH SERIES C/C++ Compiler (Ver. 6.0C)                                                                 09-Nov-2021 18:50:40  PAGE    9


SCT OFFSET   CODE       C LABEL     INSTRUCTION OPERAND    COMMENT

      ParticuleE   415    Tilemap::Tilemap(GameObject* gameObject, Vector2* sizeTilemap, Vector2* sizeCase, const char* UUID) : Mono
                         +Behaviour("Tilemap", gameObject, UUID) {
      ParticuleE   416        this->sizeTilemap = sizeTilemap;
      ParticuleE   417        this->sizeCase = sizeCase;
      ParticuleE   418    };
      ParticuleE   419    
      ParticuleE   420    Tilemap::~Tilemap() {
      ParticuleE   421        delete[] images;
      ParticuleE   422        delete[] Datas;
      ParticuleE   423    }
      ParticuleE   424    
      ParticuleE   425    void Tilemap::Update() {
      ParticuleE   426        float posX = gameObject->transform->position->x;
      ParticuleE   427        float posY = gameObject->transform->position->y;
      ParticuleE   428        float camX = gameObject->scene->AllCameras[0]->gameObject->transform->position->x;
      ParticuleE   429        float camY = gameObject->scene->AllCameras[0]->gameObject->transform->position->y;
      ParticuleE   430        for (int h = 0; h < sizeTilemap->y; h++) {
      ParticuleE   431            int x = 0;
      ParticuleE   432            for (int w = h * sizeTilemap->x; w < (h + 1) * sizeTilemap->x; w++) {
      ParticuleE   433                int tempx = (int)((posX - camX) + x * sizeCase->x);
      ParticuleE   434                int tempy = (int)((posY - camY) + h * sizeCase->y);
      ParticuleE   435                if (tempx + sizeCase->x > 0 && tempx < 128 && tempy + sizeCase->y>0 && tempy < 64)
      ParticuleE   436                    ML_bmp_or_cl((const unsigned char*)(images[Datas[w]])->textureData, tempx, tempy, (images[
                         +Datas[w]])->width, (images[Datas[w]])->height);
      ParticuleE   437                x++;
      ParticuleE   438            }
      ParticuleE   439        }
      ParticuleE   440    
      ParticuleE   441    };
      ParticuleE   442    
      ParticuleE   443    
      ParticuleE   444    
      ParticuleE   445    
      ParticuleE   446    void SceneManager::LoadScene(int index) {
      ParticuleE   447        AllSceneLoaded.Clear();
      ParticuleE   448        AllSceneLoaded.Add(GetSceneInBuild(index));
      ParticuleE   449    };
      ParticuleE   450    void SceneManager::LoadScene(unsigned char* name) {
      ParticuleE   451        AllSceneLoaded.Clear();
      ParticuleE   452        AllSceneLoaded.Add(GetSceneInBuild(name));
      ParticuleE   453    };
      ParticuleE   454    
      ParticuleE   455    GameObject* SceneManager::FindWithName(unsigned char* name) {
      ParticuleE   456        for (int i = 0; i < AllSceneLoaded.Count; i++)
      ParticuleE   457        {
      ParticuleE   458            for (int o = 0; o < AllSceneLoaded[i]->AllGameObject.Count; o++) {
      ParticuleE   459                if (AllSceneLoaded[i]->AllGameObject[o]->name == name) {
      ParticuleE   460                    return AllSceneLoaded[i]->AllGameObject[o];
      ParticuleE   461                }
      ParticuleE   462            }
      ParticuleE   463        }
      ParticuleE   464        return NULL;
      ParticuleE   465    }
      ParticuleE   466    
      ParticuleE   467    
      ParticuleE   468    void SceneManager::UpdateScene() {
      ParticuleE   469        for (int i = 0; i < AllSceneLoaded.Count; i++)




SH SERIES C/C++ Compiler (Ver. 6.0C)                                                                 09-Nov-2021 18:50:40  PAGE   10


SCT OFFSET   CODE       C LABEL     INSTRUCTION OPERAND    COMMENT

      ParticuleE   470        {
      ParticuleE   471            AllSceneLoaded[i]->Update();
      ParticuleE   472        }
      ParticuleE   473    };
      ParticuleE   474    
      ParticuleE   475    void SceneManager::StartScene() {
      ParticuleE   476        for (int i = 0; i < AllSceneLoaded.Count; i++)
      ParticuleE   477        {
      ParticuleE   478            AllSceneLoaded[i]->Start();
      ParticuleE   479        }
      ParticuleE   480    }
      ParticuleE   481    
      ParticuleE   482    Scene* SceneManager::GetSceneInBuild(unsigned char* name) {
      ParticuleE   483        unsigned char* AllName[] = { "Main" };
      ParticuleE   484        int count = 0;
      ParticuleE   485        for (int i = 0; i < count; i++)
      ParticuleE   486        {
      ParticuleE   487            if (name == AllName[i]) {
      ParticuleE   488                return GetSceneInBuild(i);
      ParticuleE   489            }
      ParticuleE   490        }
      ParticuleE   491        return NULL;
      ParticuleE   492    }
      ParticuleE   493    
      ParticuleE   494    
      ParticuleE   495    void LoadScene(Scene* scene, int nb) {
    00000028              _LoadScene__FP5Scenei:           ; function: LoadScene(Scene *, int)
                                                           ; frame size=8
    00000028 4F22                   STS.L       PR,@-R15
    0000002A 7FFC                   ADD         #-4,R15
      ParticuleE   496        scene->sceneManager->LoadScene(nb);
    0000002C D39C                   MOV.L       L1807+8,R3 ; _LoadScene__12SceneManagerFi
    0000002E 2F42                   MOV.L       R4,@R15
    00000030 430B                   JSR         @R3
    00000032 5443                   MOV.L       @(12,R4),R4
      ParticuleE   497        scene->sceneManager->StartScene();
    00000034 64F2                   MOV.L       @R15,R4
    00000036 5443                   MOV.L       @(12,R4),R4
    00000038 D39A                   MOV.L       L1807+12,R3; _StartScene__12SceneManagerFv
    0000003A 7F04                   ADD         #4,R15
    0000003C 432B                   JMP         @R3
    0000003E 4F26                   LDS.L       @R15+,PR
      ParticuleE   498    };
      ParticuleE   499    
      ParticuleE   500    GameObject* FindWithName(unsigned char* name, GameObject* gameObject) {
    00000040              _FindWithName__FPUcP10GameObject:
                                                           ; function: FindWithName(unsigned char *, GameObject *)
                                                           ; frame size=8
      ParticuleE   501        return gameObject->scene->sceneManager->FindWithName(name);
    00000040 D399                   MOV.L       L1807+16,R3; _FindWithName__12SceneManagerFPUc
    00000042 7FF8                   ADD         #-8,R15
    00000044 1F41                   MOV.L       R4,@(4,R15)
    00000046 2F52                   MOV.L       R5,@R15
    00000048 55F1                   MOV.L       @(4,R15),R5
    0000004A 64F2                   MOV.L       @R15,R4
    0000004C 544A                   MOV.L       @(40,R4),R4
    0000004E 5443                   MOV.L       @(12,R4),R4




SH SERIES C/C++ Compiler (Ver. 6.0C)                                                                 09-Nov-2021 18:50:40  PAGE   11


SCT OFFSET   CODE       C LABEL     INSTRUCTION OPERAND    COMMENT

    00000050 432B                   JMP         @R3
    00000052 7F08                   ADD         #8,R15
    00000054              ___ct__7Vector2Fv:               ; function: Vector2::Vector2()
                                                           ; frame size=8
    00000054 4F22                   STS.L       PR,@-R15
    00000056 6343                   MOV         R4,R3
    00000058 7FFC                   ADD         #-4,R15
    0000005A 2338                   TST         R3,R3
    0000005C 8F06                   BF/S        L1435
    0000005E 2F42                   MOV.L       R4,@R15
    00000060 D392                   MOV.L       L1807+20,R3; ___nw__FUl
    00000062 430B                   JSR         @R3
    00000064 E408                   MOV         #8,R4
    00000066 2008                   TST         R0,R0
    00000068 8D05                   BT/S        L1434
    0000006A 2F02                   MOV.L       R0,@R15
    0000006C              L1435:                            
    0000006C 62F2                   MOV.L       @R15,R2
    0000006E E300                   MOV         #0,R3
    00000070 2232                   MOV.L       R3,@R2
    00000072 62F2                   MOV.L       @R15,R2
    00000074 1231                   MOV.L       R3,@(4,R2)
    00000076              L1434:                            
    00000076 60F2                   MOV.L       @R15,R0
    00000078 7F04                   ADD         #4,R15
    0000007A 4F26                   LDS.L       @R15+,PR
    0000007C 000B                   RTS
    0000007E 0009                   NOP
    00000080              ___ct__7Vector2FfT1:             ; function: Vector2::Vector2(float, float)
                                                           ; frame size=16
    00000080 4F22                   STS.L       PR,@-R15
    00000082 7FF4                   ADD         #-12,R15
    00000084 2F42                   MOV.L       R4,@R15
    00000086 1F52                   MOV.L       R5,@(8,R15)
    00000088 1F61                   MOV.L       R6,@(4,R15)
    0000008A 63F2                   MOV.L       @R15,R3
    0000008C 2338                   TST         R3,R3
    0000008E 8B05                   BF          L1438
    00000090 D386                   MOV.L       L1807+20,R3; ___nw__FUl
    00000092 430B                   JSR         @R3
    00000094 E408                   MOV         #8,R4
    00000096 2008                   TST         R0,R0
    00000098 8D06                   BT/S        L1437
    0000009A 2F02                   MOV.L       R0,@R15
    0000009C              L1438:                            
    0000009C 62F2                   MOV.L       @R15,R2
    0000009E 53F2                   MOV.L       @(8,R15),R3
    000000A0 2232                   MOV.L       R3,@R2
    000000A2 62F2                   MOV.L       @R15,R2
    000000A4 53F1                   MOV.L       @(4,R15),R3
    000000A6 1231                   MOV.L       R3,@(4,R2)
    000000A8              L1437:                            
    000000A8 60F2                   MOV.L       @R15,R0
    000000AA 7F0C                   ADD         #12,R15
    000000AC 4F26                   LDS.L       @R15+,PR
    000000AE 000B                   RTS
    000000B0 0009                   NOP




SH SERIES C/C++ Compiler (Ver. 6.0C)                                                                 09-Nov-2021 18:50:40  PAGE   12


SCT OFFSET   CODE       C LABEL     INSTRUCTION OPERAND    COMMENT

    000000B2              _Set__7Vector2FfT1:              ; function: Vector2::Set(float, float)
                                                           ; frame size=0
    000000B2 2452                   MOV.L       R5,@R4
    000000B4 000B                   RTS
    000000B6 1461                   MOV.L       R6,@(4,R4)
    000000B8              _Set__7Vector2F7Vector2:         ; function: Vector2::Set(Vector2)
                                                           ; frame size=0
    000000B8 65F3                   MOV         R15,R5
    000000BA 6352                   MOV.L       @R5,R3
    000000BC 2432                   MOV.L       R3,@R4
    000000BE 5251                   MOV.L       @(4,R5),R2
    000000C0 000B                   RTS
    000000C2 1421                   MOV.L       R2,@(4,R4)
    000000C4              ___eq__7Vector2FRC7Vector2:      ; function: Vector2::operator ==(const Vector2 &)
                                                           ; frame size=4
                                                           ; used runtime library name:
                                                           ; __nes
    000000C4 4F22                   STS.L       PR,@-R15
    000000C6 6142                   MOV.L       @R4,R1
    000000C8 D379                   MOV.L       L1807+24,R3; __nes
    000000CA 430B                   JSR         @R3
    000000CC 6052                   MOV.L       @R5,R0
    000000CE 8800                   CMP/EQ      #0,R0
    000000D0 8B08                   BF          L1442
    000000D2 5141                   MOV.L       @(4,R4),R1
    000000D4 D276                   MOV.L       L1807+24,R2; __nes
    000000D6 420B                   JSR         @R2
    000000D8 5051                   MOV.L       @(4,R5),R0
    000000DA 8800                   CMP/EQ      #0,R0
    000000DC 8B02                   BF          L1442
    000000DE 4F26                   LDS.L       @R15+,PR
    000000E0 000B                   RTS
    000000E2 E001                   MOV         #1,R0
    000000E4              L1442:                            
    000000E4 E000                   MOV         #0,R0
    000000E6              L1444:                            
    000000E6 4F26                   LDS.L       @R15+,PR
    000000E8 000B                   RTS
    000000EA 0009                   NOP
    000000EC              ___ne__7Vector2FRC7Vector2:      ; function: Vector2::operator !=(const Vector2 &)
                                                           ; frame size=4
                                                           ; used runtime library name:
                                                           ; __nes
    000000EC 4F22                   STS.L       PR,@-R15
    000000EE 6142                   MOV.L       @R4,R1
    000000F0 D36F                   MOV.L       L1807+24,R3; __nes
    000000F2 430B                   JSR         @R3
    000000F4 6052                   MOV.L       @R5,R0
    000000F6 8800                   CMP/EQ      #0,R0
    000000F8 8B08                   BF          L1445
    000000FA 5141                   MOV.L       @(4,R4),R1
    000000FC D26C                   MOV.L       L1807+24,R2; __nes
    000000FE 420B                   JSR         @R2
    00000100 5051                   MOV.L       @(4,R5),R0
    00000102 8800                   CMP/EQ      #0,R0
    00000104 8B02                   BF          L1445
    00000106 4F26                   LDS.L       @R15+,PR




SH SERIES C/C++ Compiler (Ver. 6.0C)                                                                 09-Nov-2021 18:50:40  PAGE   13


SCT OFFSET   CODE       C LABEL     INSTRUCTION OPERAND    COMMENT

    00000108 000B                   RTS
    0000010A E000                   MOV         #0,R0
    0000010C              L1445:                            
    0000010C E001                   MOV         #1,R0
    0000010E              L1447:                            
    0000010E 4F26                   LDS.L       @R15+,PR
    00000110 000B                   RTS
    00000112 0009                   NOP
    00000114              ___pl__7Vector2FRC7Vector2:      ; function: Vector2::operator +(const Vector2 &)
                                                           ; frame size=20
                                                           ; used runtime library name:
                                                           ; __adds, __quick_evn_mvn
    00000114 4F22                   STS.L       PR,@-R15
    00000116 6053                   MOV         R5,R0
    00000118 D366                   MOV.L       L1807+28,R3; __adds
    0000011A 7FF0                   ADD         #-16,R15
    0000011C 1F41                   MOV.L       R4,@(4,R15)
    0000011E 2F52                   MOV.L       R5,@R15
    00000120 51F1                   MOV.L       @(4,R15),R1
    00000122 5111                   MOV.L       @(4,R1),R1
    00000124 430B                   JSR         @R3
    00000126 5001                   MOV.L       @(4,R0),R0
    00000128 51F1                   MOV.L       @(4,R15),R1
    0000012A 6603                   MOV         R0,R6
    0000012C D361                   MOV.L       L1807+28,R3; __adds
    0000012E 60F2                   MOV.L       @R15,R0
    00000130 6112                   MOV.L       @R1,R1
    00000132 430B                   JSR         @R3
    00000134 6002                   MOV.L       @R0,R0
    00000136 6503                   MOV         R0,R5
    00000138 64F3                   MOV         R15,R4
    0000013A BFA1                   BSR         ___ct__7Vector2FfT1
    0000013C 7408                   ADD         #8,R4
    0000013E 62F3                   MOV         R15,R2
    00000140 D35D                   MOV.L       L1807+32,R3; __quick_evn_mvn
    00000142 7208                   ADD         #8,R2
    00000144 51F5                   MOV.L       @(20,R15),R1
    00000146 430B                   JSR         @R3
    00000148 E008                   MOV         #8,R0
    0000014A 7F10                   ADD         #16,R15
    0000014C 4F26                   LDS.L       @R15+,PR
    0000014E 000B                   RTS
    00000150 0009                   NOP
    00000152              ___mi__7Vector2FRC7Vector2:      ; function: Vector2::operator -(const Vector2 &)
                                                           ; frame size=20
                                                           ; used runtime library name:
                                                           ; __subs, __quick_evn_mvn
    00000152 6053                   MOV         R5,R0
    00000154 D359                   MOV.L       L1807+36,R3; __subs
    00000156 4F22                   STS.L       PR,@-R15
    00000158 7FF0                   ADD         #-16,R15
    0000015A 1F41                   MOV.L       R4,@(4,R15)
    0000015C 2F52                   MOV.L       R5,@R15
    0000015E 51F1                   MOV.L       @(4,R15),R1
    00000160 5111                   MOV.L       @(4,R1),R1
    00000162 430B                   JSR         @R3
    00000164 5001                   MOV.L       @(4,R0),R0




SH SERIES C/C++ Compiler (Ver. 6.0C)                                                                 09-Nov-2021 18:50:40  PAGE   14


SCT OFFSET   CODE       C LABEL     INSTRUCTION OPERAND    COMMENT

    00000166 6603                   MOV         R0,R6
    00000168 51F1                   MOV.L       @(4,R15),R1
    0000016A 60F2                   MOV.L       @R15,R0
    0000016C 6112                   MOV.L       @R1,R1
    0000016E D353                   MOV.L       L1807+36,R3; __subs
    00000170 430B                   JSR         @R3
    00000172 6002                   MOV.L       @R0,R0
    00000174 6503                   MOV         R0,R5
    00000176 64F3                   MOV         R15,R4
    00000178 BF82                   BSR         ___ct__7Vector2FfT1
    0000017A 7408                   ADD         #8,R4
    0000017C 51F5                   MOV.L       @(20,R15),R1
    0000017E 62F3                   MOV         R15,R2
    00000180 D34D                   MOV.L       L1807+32,R3; __quick_evn_mvn
    00000182 7208                   ADD         #8,R2
    00000184 430B                   JSR         @R3
    00000186 E008                   MOV         #8,R0
    00000188 7F10                   ADD         #16,R15
    0000018A 4F26                   LDS.L       @R15+,PR
    0000018C 000B                   RTS
    0000018E 0009                   NOP
    00000190              ___ml__7Vector2FRC7Vector2:      ; function: Vector2::operator *(const Vector2 &)
                                                           ; frame size=20
                                                           ; used runtime library name:
                                                           ; __muls, __quick_evn_mvn
    00000190 4F22                   STS.L       PR,@-R15
    00000192 6053                   MOV         R5,R0
    00000194 D34A                   MOV.L       L1807+40,R3; __muls
    00000196 7FF0                   ADD         #-16,R15
    00000198 1F41                   MOV.L       R4,@(4,R15)
    0000019A 2F52                   MOV.L       R5,@R15
    0000019C 51F1                   MOV.L       @(4,R15),R1
    0000019E 5111                   MOV.L       @(4,R1),R1
    000001A0 430B                   JSR         @R3
    000001A2 5001                   MOV.L       @(4,R0),R0
    000001A4 51F1                   MOV.L       @(4,R15),R1
    000001A6 6603                   MOV         R0,R6
    000001A8 D345                   MOV.L       L1807+40,R3; __muls
    000001AA 60F2                   MOV.L       @R15,R0
    000001AC 6112                   MOV.L       @R1,R1
    000001AE 430B                   JSR         @R3
    000001B0 6002                   MOV.L       @R0,R0
    000001B2 6503                   MOV         R0,R5
    000001B4 64F3                   MOV         R15,R4
    000001B6 BF63                   BSR         ___ct__7Vector2FfT1
    000001B8 7408                   ADD         #8,R4
    000001BA 62F3                   MOV         R15,R2
    000001BC D33E                   MOV.L       L1807+32,R3; __quick_evn_mvn
    000001BE 7208                   ADD         #8,R2
    000001C0 51F5                   MOV.L       @(20,R15),R1
    000001C2 430B                   JSR         @R3
    000001C4 E008                   MOV         #8,R0
    000001C6 7F10                   ADD         #16,R15
    000001C8 4F26                   LDS.L       @R15+,PR
    000001CA 000B                   RTS
    000001CC 0009                   NOP
    000001CE              ___dv__7Vector2FRC7Vector2:      ; function: Vector2::operator /(const Vector2 &)




SH SERIES C/C++ Compiler (Ver. 6.0C)                                                                 09-Nov-2021 18:50:40  PAGE   15


SCT OFFSET   CODE       C LABEL     INSTRUCTION OPERAND    COMMENT

                                                           ; frame size=20
                                                           ; used runtime library name:
                                                           ; __divs, __quick_evn_mvn
    000001CE 6053                   MOV         R5,R0
    000001D0 D33C                   MOV.L       L1807+44,R3; __divs
    000001D2 4F22                   STS.L       PR,@-R15
    000001D4 7FF0                   ADD         #-16,R15
    000001D6 1F41                   MOV.L       R4,@(4,R15)
    000001D8 2F52                   MOV.L       R5,@R15
    000001DA 51F1                   MOV.L       @(4,R15),R1
    000001DC 5111                   MOV.L       @(4,R1),R1
    000001DE 430B                   JSR         @R3
    000001E0 5001                   MOV.L       @(4,R0),R0
    000001E2 6603                   MOV         R0,R6
    000001E4 51F1                   MOV.L       @(4,R15),R1
    000001E6 60F2                   MOV.L       @R15,R0
    000001E8 6112                   MOV.L       @R1,R1
    000001EA D336                   MOV.L       L1807+44,R3; __divs
    000001EC 430B                   JSR         @R3
    000001EE 6002                   MOV.L       @R0,R0
    000001F0 6503                   MOV         R0,R5
    000001F2 64F3                   MOV         R15,R4
    000001F4 BF44                   BSR         ___ct__7Vector2FfT1
    000001F6 7408                   ADD         #8,R4
    000001F8 51F5                   MOV.L       @(20,R15),R1
    000001FA 62F3                   MOV         R15,R2
    000001FC D32E                   MOV.L       L1807+32,R3; __quick_evn_mvn
    000001FE 7208                   ADD         #8,R2
    00000200 430B                   JSR         @R3
    00000202 E008                   MOV         #8,R0
    00000204 7F10                   ADD         #16,R15
    00000206 4F26                   LDS.L       @R15+,PR
    00000208 000B                   RTS
    0000020A 0009                   NOP
    0000020C              ___ct__6ObjectFPCcT1:            ; function: Object::Object(const char *, const char *)
                                                           ; frame size=16
    0000020C 4F22                   STS.L       PR,@-R15
    0000020E 7FF4                   ADD         #-12,R15
    00000210 2F42                   MOV.L       R4,@R15
    00000212 1F52                   MOV.L       R5,@(8,R15)
    00000214 1F61                   MOV.L       R6,@(4,R15)
    00000216 63F2                   MOV.L       @R15,R3
    00000218 2338                   TST         R3,R3
    0000021A 8B05                   BF          L1453
    0000021C D323                   MOV.L       L1807+20,R3; ___nw__FUl
    0000021E 430B                   JSR         @R3
    00000220 E40C                   MOV         #12,R4
    00000222 2008                   TST         R0,R0
    00000224 8D09                   BT/S        L1452
    00000226 2F02                   MOV.L       R0,@R15
    00000228              L1453:                            
    00000228 62F2                   MOV.L       @R15,R2
    0000022A D327                   MOV.L       L1807+48,R3; __$__vtbl__6Object
    0000022C 1232                   MOV.L       R3,@(8,R2)
    0000022E 62F2                   MOV.L       @R15,R2
    00000230 53F2                   MOV.L       @(8,R15),R3
    00000232 2232                   MOV.L       R3,@R2




SH SERIES C/C++ Compiler (Ver. 6.0C)                                                                 09-Nov-2021 18:50:40  PAGE   16


SCT OFFSET   CODE       C LABEL     INSTRUCTION OPERAND    COMMENT

    00000234 62F2                   MOV.L       @R15,R2
    00000236 53F1                   MOV.L       @(4,R15),R3
    00000238 1231                   MOV.L       R3,@(4,R2)
    0000023A              L1452:                            
    0000023A 60F2                   MOV.L       @R15,R0
    0000023C 7F0C                   ADD         #12,R15
    0000023E 4F26                   LDS.L       @R15+,PR
    00000240 000B                   RTS
    00000242 0009                   NOP
      ParticuleE   502    };
    00000244              __$__dt__6ObjectFv:              ; function: Object::~Object()
                                                           ; frame size=4
    00000244 2FE6                   MOV.L       R14,@-R15
    00000246 6E43                   MOV         R4,R14
    00000248 2EE8                   TST         R14,R14
    0000024A 8908                   BT          L1457
    0000024C D21E                   MOV.L       L1807+48,R2; __$__vtbl__6Object
    0000024E E301                   MOV         #1,R3
    00000250 1E22                   MOV.L       R2,@(8,R14)
    00000252 2538                   TST         R3,R5
    00000254 8903                   BT          L1457
    00000256 64E3                   MOV         R14,R4
    00000258 D11C                   MOV.L       L1807+52,R1; ___dl__FPv
    0000025A 412B                   JMP         @R1
    0000025C 6EF6                   MOV.L       @R15+,R14
    0000025E              L1457:                            
    0000025E 000B                   RTS
    00000260 6EF6                   MOV.L       @R15+,R14
    00000262              _GetInstanceID__6ObjectFv:       ; function: Object::GetInstanceID()
                                                           ; frame size=0
    00000262 000B                   RTS
    00000264 5041                   MOV.L       @(4,R4),R0
    00000266              _ToString__6ObjectFv:            ; function: Object::ToString()
                                                           ; frame size=0
    00000266 000B                   RTS
    00000268 6042                   MOV.L       @R4,R0
    0000026A              __$Destroy__6ObjectFv:           ; function: Object::Destroy()
                                                           ; frame size=0
    0000026A 000B                   RTS
    0000026C 0009                   NOP
    0000026E              __$DestroyImmediate__6ObjectFv:  ; function: Object::DestroyImmediate()
                                                           ; frame size=0
    0000026E 000B                   RTS
    00000270 0009                   NOP
    00000272              __$DontDestroyOnLoad__6ObjectFv: ; function: Object::DontDestroyOnLoad()
                                                           ; frame size=0
    00000272 000B                   RTS
    00000274 0009                   NOP
    00000276              __$FindObjectOfType__6ObjectFv:  ; function: Object::FindObjectOfType()
                                                           ; frame size=0
    00000276 000B                   RTS
    00000278 0009                   NOP
    0000027A              __$FindObjectsOfType__6ObjectFv: ; function: Object::FindObjectsOfType()
                                                           ; frame size=0
    0000027A 000B                   RTS
    0000027C 0009                   NOP
    0000027E              __$Instantiate__6ObjectFv:       ; function: Object::Instantiate()




SH SERIES C/C++ Compiler (Ver. 6.0C)                                                                 09-Nov-2021 18:50:40  PAGE   17


SCT OFFSET   CODE       C LABEL     INSTRUCTION OPERAND    COMMENT

                                                           ; frame size=0
    0000027E 000B                   RTS
    00000280 0009                   NOP
    00000282              ___eq__6ObjectFRC6Object:        ; function: Object::operator ==(const Object &)
                                                           ; frame size=0
    00000282 5351                   MOV.L       @(4,R5),R3
    00000284 5241                   MOV.L       @(4,R4),R2
    00000286 3230                   CMP/EQ      R3,R2
    00000288 000B                   RTS
    0000028A 0029                   MOVT        R0
    0000028C              ___ne__6ObjectFRC6Object:        ; function: Object::operator !=(const Object &)
                                                           ; frame size=0
    0000028C 5151                   MOV.L       @(4,R5),R1
    0000028E 5041                   MOV.L       @(4,R4),R0
    00000290 3010                   CMP/EQ      R1,R0
    00000292 0029                   MOVT        R0
    00000294 000B                   RTS
    00000296 CA01                   XOR         #1,R0
    00000298              L1807:                            
    00000298 <00000000>             .DATA.L     _strlen
    0000029C <00000000>             .DATA.L     __modls
    000002A0 <00000000>             .DATA.L     _LoadScene__12SceneManagerFi
    000002A4 <00000000>             .DATA.L     _StartScene__12SceneManagerFv
    000002A8 <00000000>             .DATA.L     _FindWithName__12SceneManagerFPUc
    000002AC <00000000>             .DATA.L     ___nw__FUl
    000002B0 <00000000>             .DATA.L     __nes
    000002B4 <00000000>             .DATA.L     __adds
    000002B8 <00000000>             .DATA.L     __quick_evn_mvn
    000002BC <00000000>             .DATA.L     __subs
    000002C0 <00000000>             .DATA.L     __muls
    000002C4 <00000000>             .DATA.L     __divs
    000002C8 <00000000>             .DATA.L     __$__vtbl__6Object
    000002CC <00000000>             .DATA.L     ___dl__FPv
    000002D0              ___ct__9ComponentFPCcP10GameObjectT1:
                                                           ; function: Component::Component(const char *, GameObject *, const char *
                        +                                  )
                                                           ; frame size=20
    000002D0 4F22                   STS.L       PR,@-R15
    000002D2 7FF0                   ADD         #-16,R15
    000002D4 2F42                   MOV.L       R4,@R15
    000002D6 1F52                   MOV.L       R5,@(8,R15)
    000002D8 1F61                   MOV.L       R6,@(4,R15)
    000002DA 1F73                   MOV.L       R7,@(12,R15)
    000002DC 63F2                   MOV.L       @R15,R3
    000002DE 2338                   TST         R3,R3
    000002E0 8B05                   BF          L1469
    000002E2 D3AE                   MOV.L       L1808,R3   ; ___nw__FUl
    000002E4 430B                   JSR         @R3
    000002E6 E418                   MOV         #24,R4
    000002E8 2008                   TST         R0,R0
    000002EA 8D0A                   BT/S        L1468
    000002EC 2F02                   MOV.L       R0,@R15
    000002EE              L1469:                            
    000002EE 56F3                   MOV.L       @(12,R15),R6
    000002F0 55F2                   MOV.L       @(8,R15),R5
    000002F2 BF8B                   BSR         ___ct__6ObjectFPCcT1
    000002F4 64F2                   MOV.L       @R15,R4




SH SERIES C/C++ Compiler (Ver. 6.0C)                                                                 09-Nov-2021 18:50:40  PAGE   18


SCT OFFSET   CODE       C LABEL     INSTRUCTION OPERAND    COMMENT

    000002F6 62F2                   MOV.L       @R15,R2
    000002F8 D3A9                   MOV.L       L1808+4,R3 ; ___vtbl__9Component
    000002FA 1232                   MOV.L       R3,@(8,R2)
    000002FC 62F2                   MOV.L       @R15,R2
    000002FE 53F1                   MOV.L       @(4,R15),R3
    00000300 1234                   MOV.L       R3,@(16,R2)
    00000302              L1468:                            
    00000302 60F2                   MOV.L       @R15,R0
    00000304 7F10                   ADD         #16,R15
    00000306 4F26                   LDS.L       @R15+,PR
    00000308 000B                   RTS
    0000030A 0009                   NOP
    0000030C              ___dt__9ComponentFv:             ; function: Component::~Component()
                                                           ; frame size=12
    0000030C 2FE6                   MOV.L       R14,@-R15
    0000030E 6E43                   MOV         R4,R14
    00000310 4F22                   STS.L       PR,@-R15
    00000312 2EE8                   TST         R14,R14
    00000314 7FFC                   ADD         #-4,R15
    00000316 8D10                   BT/S        L1473
    00000318 2F52                   MOV.L       R5,@R15
    0000031A D2A1                   MOV.L       L1808+4,R2 ; ___vtbl__9Component
    0000031C D3A1                   MOV.L       L1808+8,R3 ; ___dl__FPv
    0000031E 1E22                   MOV.L       R2,@(8,R14)
    00000320 430B                   JSR         @R3
    00000322 54E3                   MOV.L       @(12,R14),R4
    00000324 D2A0                   MOV.L       L1808+12,R2; __$__vtbl__6Object
    00000326 1E22                   MOV.L       R2,@(8,R14)
    00000328 60F2                   MOV.L       @R15,R0
    0000032A C801                   TST         #1,R0
    0000032C 8905                   BT          L1473
    0000032E 64E3                   MOV         R14,R4
    00000330 D29C                   MOV.L       L1808+8,R2 ; ___dl__FPv
    00000332 7F04                   ADD         #4,R15
    00000334 4F26                   LDS.L       @R15+,PR
    00000336 422B                   JMP         @R2
    00000338 6EF6                   MOV.L       @R15+,R14
    0000033A              L1473:                            
    0000033A 7F04                   ADD         #4,R15
    0000033C 4F26                   LDS.L       @R15+,PR
    0000033E 000B                   RTS
    00000340 6EF6                   MOV.L       @R15+,R14
    00000342              __$Awake__9ComponentFv:          ; function: Component::Awake()
                                                           ; frame size=0
    00000342 000B                   RTS
    00000344 0009                   NOP
    00000346              __$FixedUpdate__9ComponentFv:    ; function: Component::FixedUpdate()
                                                           ; frame size=0
    00000346 000B                   RTS
    00000348 0009                   NOP
    0000034A              __$LateUpdate__9ComponentFv:     ; function: Component::LateUpdate()
                                                           ; frame size=0
    0000034A 000B                   RTS
    0000034C 0009                   NOP
    0000034E              __$OnAnimatorIK__9ComponentFv:   ; function: Component::OnAnimatorIK()
                                                           ; frame size=0
    0000034E 000B                   RTS




SH SERIES C/C++ Compiler (Ver. 6.0C)                                                                 09-Nov-2021 18:50:40  PAGE   19


SCT OFFSET   CODE       C LABEL     INSTRUCTION OPERAND    COMMENT

    00000350 0009                   NOP
    00000352              __$OnAnimatorMove__9ComponentFv: ; function: Component::OnAnimatorMove()
                                                           ; frame size=0
    00000352 000B                   RTS
    00000354 0009                   NOP
    00000356              __$OnApplicationFocus__9ComponentFv:
                                                           ; function: Component::OnApplicationFocus()
                                                           ; frame size=0
    00000356 000B                   RTS
    00000358 0009                   NOP
    0000035A              __$OnApplicationPause__9ComponentFv:
                                                           ; function: Component::OnApplicationPause()
                                                           ; frame size=0
    0000035A 000B                   RTS
    0000035C 0009                   NOP
    0000035E              __$OnApplicationQuit__9ComponentFv:
                                                           ; function: Component::OnApplicationQuit()
                                                           ; frame size=0
    0000035E 000B                   RTS
    00000360 0009                   NOP
    00000362              __$OnAudioFilterRead__9ComponentFv:
                                                           ; function: Component::OnAudioFilterRead()
                                                           ; frame size=0
    00000362 000B                   RTS
    00000364 0009                   NOP
    00000366              __$OnBecameInvisible__9ComponentFv:
                                                           ; function: Component::OnBecameInvisible()
                                                           ; frame size=0
    00000366 000B                   RTS
    00000368 0009                   NOP
    0000036A              __$OnBecameVisible__9ComponentFv:
                                                           ; function: Component::OnBecameVisible()
                                                           ; frame size=0
    0000036A 000B                   RTS
    0000036C 0009                   NOP
    0000036E              __$OnCollisionEnter__9ComponentFv:
                                                           ; function: Component::OnCollisionEnter()
                                                           ; frame size=0
    0000036E 000B                   RTS
    00000370 0009                   NOP
    00000372              __$OnCollisionEnter2D__9ComponentFv:
                                                           ; function: Component::OnCollisionEnter2D()
                                                           ; frame size=0
    00000372 000B                   RTS
    00000374 0009                   NOP
    00000376              __$OnCollisionExit__9ComponentFv:
                                                           ; function: Component::OnCollisionExit()
                                                           ; frame size=0
    00000376 000B                   RTS
    00000378 0009                   NOP
    0000037A              __$OnCollisionExit2D__9ComponentFv:
                                                           ; function: Component::OnCollisionExit2D()
                                                           ; frame size=0
    0000037A 000B                   RTS
    0000037C 0009                   NOP
    0000037E              __$OnCollisionStay__9ComponentFv:
                                                           ; function: Component::OnCollisionStay()




SH SERIES C/C++ Compiler (Ver. 6.0C)                                                                 09-Nov-2021 18:50:40  PAGE   20


SCT OFFSET   CODE       C LABEL     INSTRUCTION OPERAND    COMMENT

                                                           ; frame size=0
    0000037E 000B                   RTS
    00000380 0009                   NOP
    00000382              __$OnCollisionStay2D__9ComponentFv:
                                                           ; function: Component::OnCollisionStay2D()
                                                           ; frame size=0
    00000382 000B                   RTS
    00000384 0009                   NOP
    00000386              __$OnConnectedToServer__9ComponentFv:
                                                           ; function: Component::OnConnectedToServer()
                                                           ; frame size=0
    00000386 000B                   RTS
    00000388 0009                   NOP
    0000038A              __$OnControllerColliderHit__9ComponentFv:
                                                           ; function: Component::OnControllerColliderHit()
                                                           ; frame size=0
    0000038A 000B                   RTS
    0000038C 0009                   NOP
    0000038E              __$OnDestroy__9ComponentFv:      ; function: Component::OnDestroy()
                                                           ; frame size=0
    0000038E 000B                   RTS
    00000390 0009                   NOP
    00000392              __$OnDisable__9ComponentFv:      ; function: Component::OnDisable()
                                                           ; frame size=0
    00000392 000B                   RTS
    00000394 0009                   NOP
    00000396              __$OnDisconnectedFromServer__9ComponentFv:
                                                           ; function: Component::OnDisconnectedFromServer()
                                                           ; frame size=0
    00000396 000B                   RTS
    00000398 0009                   NOP
    0000039A              __$OnDrawGizmos__9ComponentFv:   ; function: Component::OnDrawGizmos()
                                                           ; frame size=0
    0000039A 000B                   RTS
    0000039C 0009                   NOP
    0000039E              __$OnDrawGizmosSelected__9ComponentFv:
                                                           ; function: Component::OnDrawGizmosSelected()
                                                           ; frame size=0
    0000039E 000B                   RTS
    000003A0 0009                   NOP
    000003A2              __$OnEnable__9ComponentFv:       ; function: Component::OnEnable()
                                                           ; frame size=0
    000003A2 000B                   RTS
    000003A4 0009                   NOP
    000003A6              __$OnFailedToConnect__9ComponentFv:
                                                           ; function: Component::OnFailedToConnect()
                                                           ; frame size=0
    000003A6 000B                   RTS
    000003A8 0009                   NOP
    000003AA              __$OnFailedToConnectToMasterServer__9ComponentFv:
                                                           ; function: Component::OnFailedToConnectToMasterServer()
                                                           ; frame size=0
    000003AA 000B                   RTS
    000003AC 0009                   NOP
    000003AE              __$OnGUI__9ComponentFv:          ; function: Component::OnGUI()
                                                           ; frame size=0
    000003AE 000B                   RTS




SH SERIES C/C++ Compiler (Ver. 6.0C)                                                                 09-Nov-2021 18:50:40  PAGE   21


SCT OFFSET   CODE       C LABEL     INSTRUCTION OPERAND    COMMENT

    000003B0 0009                   NOP
    000003B2              __$OnJointBreak__9ComponentFv:   ; function: Component::OnJointBreak()
                                                           ; frame size=0
    000003B2 000B                   RTS
    000003B4 0009                   NOP
    000003B6              __$OnJointBreak2D__9ComponentFv: ; function: Component::OnJointBreak2D()
                                                           ; frame size=0
    000003B6 000B                   RTS
    000003B8 0009                   NOP
    000003BA              __$OnMasterServerEvent__9ComponentFv:
                                                           ; function: Component::OnMasterServerEvent()
                                                           ; frame size=0
    000003BA 000B                   RTS
    000003BC 0009                   NOP
    000003BE              __$OnMouseDown__9ComponentFv:    ; function: Component::OnMouseDown()
                                                           ; frame size=0
    000003BE 000B                   RTS
    000003C0 0009                   NOP
    000003C2              __$OnMouseDrag__9ComponentFv:    ; function: Component::OnMouseDrag()
                                                           ; frame size=0
    000003C2 000B                   RTS
    000003C4 0009                   NOP
    000003C6              __$OnMouseEnter__9ComponentFv:   ; function: Component::OnMouseEnter()
                                                           ; frame size=0
    000003C6 000B                   RTS
    000003C8 0009                   NOP
    000003CA              __$OnMouseExit__9ComponentFv:    ; function: Component::OnMouseExit()
                                                           ; frame size=0
    000003CA 000B                   RTS
    000003CC 0009                   NOP
    000003CE              __$OnMouseOver__9ComponentFv:    ; function: Component::OnMouseOver()
                                                           ; frame size=0
    000003CE 000B                   RTS
    000003D0 0009                   NOP
    000003D2              __$OnMouseUp__9ComponentFv:      ; function: Component::OnMouseUp()
                                                           ; frame size=0
    000003D2 000B                   RTS
    000003D4 0009                   NOP
    000003D6              __$OnMouseUpAsButton__9ComponentFv:
                                                           ; function: Component::OnMouseUpAsButton()
                                                           ; frame size=0
    000003D6 000B                   RTS
    000003D8 0009                   NOP
    000003DA              __$OnNetworkInstantiate__9ComponentFv:
                                                           ; function: Component::OnNetworkInstantiate()
                                                           ; frame size=0
    000003DA 000B                   RTS
    000003DC 0009                   NOP
    000003DE              __$OnParticleCollision__9ComponentFv:
                                                           ; function: Component::OnParticleCollision()
                                                           ; frame size=0
    000003DE 000B                   RTS
    000003E0 0009                   NOP
    000003E2              __$OnParticleSystemStopped__9ComponentFv:
                                                           ; function: Component::OnParticleSystemStopped()
                                                           ; frame size=0
    000003E2 000B                   RTS




SH SERIES C/C++ Compiler (Ver. 6.0C)                                                                 09-Nov-2021 18:50:40  PAGE   22


SCT OFFSET   CODE       C LABEL     INSTRUCTION OPERAND    COMMENT

    000003E4 0009                   NOP
    000003E6              __$OnParticleTrigger__9ComponentFv:
                                                           ; function: Component::OnParticleTrigger()
                                                           ; frame size=0
    000003E6 000B                   RTS
    000003E8 0009                   NOP
    000003EA              __$OnParticleUpdateJobScheduled__9ComponentFv:
                                                           ; function: Component::OnParticleUpdateJobScheduled()
                                                           ; frame size=0
    000003EA 000B                   RTS
    000003EC 0009                   NOP
    000003EE              __$OnPlayerConnected__9ComponentFv:
                                                           ; function: Component::OnPlayerConnected()
                                                           ; frame size=0
    000003EE 000B                   RTS
    000003F0 0009                   NOP
    000003F2              __$OnPlayerDisconnected__9ComponentFv:
                                                           ; function: Component::OnPlayerDisconnected()
                                                           ; frame size=0
    000003F2 000B                   RTS
    000003F4 0009                   NOP
    000003F6              __$OnPostRender__9ComponentFv:   ; function: Component::OnPostRender()
                                                           ; frame size=0
    000003F6 000B                   RTS
    000003F8 0009                   NOP
    000003FA              __$OnPreCull__9ComponentFv:      ; function: Component::OnPreCull()
                                                           ; frame size=0
    000003FA 000B                   RTS
    000003FC 0009                   NOP
    000003FE              __$OnPreRender__9ComponentFv:    ; function: Component::OnPreRender()
                                                           ; frame size=0
    000003FE 000B                   RTS
    00000400 0009                   NOP
    00000402              __$OnRenderImage__9ComponentFv:  ; function: Component::OnRenderImage()
                                                           ; frame size=0
    00000402 000B                   RTS
    00000404 0009                   NOP
    00000406              __$OnRenderObject__9ComponentFv: ; function: Component::OnRenderObject()
                                                           ; frame size=0
    00000406 000B                   RTS
    00000408 0009                   NOP
    0000040A              __$OnSerializeNetworkView__9ComponentFv:
                                                           ; function: Component::OnSerializeNetworkView()
                                                           ; frame size=0
    0000040A 000B                   RTS
    0000040C 0009                   NOP
    0000040E              __$OnServerInitialized__9ComponentFv:
                                                           ; function: Component::OnServerInitialized()
                                                           ; frame size=0
    0000040E 000B                   RTS
    00000410 0009                   NOP
    00000412              __$OnTransformChildrenChanged__9ComponentFv:
                                                           ; function: Component::OnTransformChildrenChanged()
                                                           ; frame size=0
    00000412 000B                   RTS
    00000414 0009                   NOP
    00000416              __$OnTransformParentChanged__9ComponentFv:




SH SERIES C/C++ Compiler (Ver. 6.0C)                                                                 09-Nov-2021 18:50:40  PAGE   23


SCT OFFSET   CODE       C LABEL     INSTRUCTION OPERAND    COMMENT

                                                           ; function: Component::OnTransformParentChanged()
                                                           ; frame size=0
    00000416 000B                   RTS
    00000418 0009                   NOP
    0000041A              __$OnTriggerEnter__9ComponentFv: ; function: Component::OnTriggerEnter()
                                                           ; frame size=0
    0000041A 000B                   RTS
    0000041C 0009                   NOP
    0000041E              __$OnTriggerEnter2D__9ComponentFv:
                                                           ; function: Component::OnTriggerEnter2D()
                                                           ; frame size=0
    0000041E 000B                   RTS
    00000420 0009                   NOP
    00000422              __$OnTriggerExit__9ComponentFv:  ; function: Component::OnTriggerExit()
                                                           ; frame size=0
    00000422 000B                   RTS
    00000424 0009                   NOP
    00000426              __$OnTriggerExit2D__9ComponentFv:
                                                           ; function: Component::OnTriggerExit2D()
                                                           ; frame size=0
    00000426 000B                   RTS
    00000428 0009                   NOP
    0000042A              __$OnTriggerStay__9ComponentFv:  ; function: Component::OnTriggerStay()
                                                           ; frame size=0
    0000042A 000B                   RTS
    0000042C 0009                   NOP
    0000042E              __$OnTriggerStay2D__9ComponentFv:
                                                           ; function: Component::OnTriggerStay2D()
                                                           ; frame size=0
    0000042E 000B                   RTS
    00000430 0009                   NOP
    00000432              __$OnValidate__9ComponentFv:     ; function: Component::OnValidate()
                                                           ; frame size=0
    00000432 000B                   RTS
    00000434 0009                   NOP
    00000436              __$OnWillRenderObject__9ComponentFv:
                                                           ; function: Component::OnWillRenderObject()
                                                           ; frame size=0
    00000436 000B                   RTS
    00000438 0009                   NOP
    0000043A              __$Reset__9ComponentFv:          ; function: Component::Reset()
                                                           ; frame size=0
    0000043A 000B                   RTS
    0000043C 0009                   NOP
    0000043E              __$Start__9ComponentFv:          ; function: Component::Start()
                                                           ; frame size=0
    0000043E 000B                   RTS
    00000440 0009                   NOP
    00000442              __$Update__9ComponentFv:         ; function: Component::Update()
                                                           ; frame size=0
    00000442 000B                   RTS
    00000444 0009                   NOP
    00000446              ___ct__9TransformFP10GameObjectPCcT2:
                                                           ; function: Transform::Transform(GameObject *, const char *, const char *
                        +                                  )
                                                           ; frame size=28
    00000446 2FE6                   MOV.L       R14,@-R15




SH SERIES C/C++ Compiler (Ver. 6.0C)                                                                 09-Nov-2021 18:50:40  PAGE   24


SCT OFFSET   CODE       C LABEL     INSTRUCTION OPERAND    COMMENT

    00000448 2F86                   MOV.L       R8,@-R15
    0000044A 4F22                   STS.L       PR,@-R15
    0000044C 7FF0                   ADD         #-16,R15
    0000044E 2F42                   MOV.L       R4,@R15
    00000450 1F51                   MOV.L       R5,@(4,R15)
    00000452 1F63                   MOV.L       R6,@(12,R15)
    00000454 1F72                   MOV.L       R7,@(8,R15)
    00000456 63F2                   MOV.L       @R15,R3
    00000458 2338                   TST         R3,R3
    0000045A 8B05                   BF          L1540
    0000045C D34F                   MOV.L       L1808,R3   ; ___nw__FUl
    0000045E 430B                   JSR         @R3
    00000460 E450                   MOV         #80,R4
    00000462 2008                   TST         R0,R0
    00000464 8D3A                   BT/S        L1539
    00000466 2F02                   MOV.L       R0,@R15
    00000468              L1540:                            
    00000468 57F3                   MOV.L       @(12,R15),R7
    0000046A 56F1                   MOV.L       @(4,R15),R6
    0000046C 55F2                   MOV.L       @(8,R15),R5
    0000046E BF2F                   BSR         ___ct__9ComponentFPCcP10GameObjectT1
    00000470 64F2                   MOV.L       @R15,R4
    00000472 EE00                   MOV         #0,R14
    00000474 62F2                   MOV.L       @R15,R2
    00000476 D34D                   MOV.L       L1808+16,R3; ___vtbl__9Transform
    00000478 1232                   MOV.L       R3,@(8,R2)
    0000047A 62F2                   MOV.L       @R15,R2
    0000047C 12E9                   MOV.L       R14,@(36,R2)
    0000047E 63F2                   MOV.L       @R15,R3
    00000480 13E7                   MOV.L       R14,@(28,R3)
    00000482 63F2                   MOV.L       @R15,R3
    00000484 13E8                   MOV.L       R14,@(32,R3)
    00000486 63F2                   MOV.L       @R15,R3
    00000488 13EA                   MOV.L       R14,@(40,R3)
    0000048A 63F2                   MOV.L       @R15,R3
    0000048C 13EB                   MOV.L       R14,@(44,R3)
    0000048E 63F2                   MOV.L       @R15,R3
    00000490 13EC                   MOV.L       R14,@(48,R3)
    00000492 63F2                   MOV.L       @R15,R3
    00000494 13ED                   MOV.L       R14,@(52,R3)
    00000496 68F2                   MOV.L       @R15,R8
    00000498 7838                   ADD         #56,R8
    0000049A BDDB                   BSR         ___ct__7Vector2Fv
    0000049C 64E3                   MOV         R14,R4
    0000049E 2802                   MOV.L       R0,@R8
    000004A0 68F2                   MOV.L       @R15,R8
    000004A2 783C                   ADD         #60,R8
    000004A4 D642                   MOV.L       L1808+20,R6; H'3F800000
    000004A6 6563                   MOV         R6,R5
    000004A8 BDEA                   BSR         ___ct__7Vector2FfT1
    000004AA 64E3                   MOV         R14,R4
    000004AC 2802                   MOV.L       R0,@R8
    000004AE 68F2                   MOV.L       @R15,R8
    000004B0 D63F                   MOV.L       L1808+20,R6; H'3F800000
    000004B2 7840                   ADD         #64,R8
    000004B4 6563                   MOV         R6,R5
    000004B6 BDE3                   BSR         ___ct__7Vector2FfT1




SH SERIES C/C++ Compiler (Ver. 6.0C)                                                                 09-Nov-2021 18:50:40  PAGE   25


SCT OFFSET   CODE       C LABEL     INSTRUCTION OPERAND    COMMENT

    000004B8 64E3                   MOV         R14,R4
    000004BA 2802                   MOV.L       R0,@R8
    000004BC 63F2                   MOV.L       @R15,R3
    000004BE E044                   MOV         #68,R0
    000004C0 03E6                   MOV.L       R14,@(R0,R3)
    000004C2 68F2                   MOV.L       @R15,R8
    000004C4 7848                   ADD         #72,R8
    000004C6 BDC5                   BSR         ___ct__7Vector2Fv
    000004C8 64E3                   MOV         R14,R4
    000004CA 2802                   MOV.L       R0,@R8
    000004CC 63F2                   MOV.L       @R15,R3
    000004CE E04C                   MOV         #76,R0
    000004D0 03E6                   MOV.L       R14,@(R0,R3)
    000004D2 68F2                   MOV.L       @R15,R8
    000004D4 7818                   ADD         #24,R8
    000004D6 BDBD                   BSR         ___ct__7Vector2Fv
    000004D8 64E3                   MOV         R14,R4
    000004DA 2802                   MOV.L       R0,@R8
    000004DC              L1539:                            
    000004DC 60F2                   MOV.L       @R15,R0
    000004DE 7F10                   ADD         #16,R15
    000004E0 4F26                   LDS.L       @R15+,PR
    000004E2 68F6                   MOV.L       @R15+,R8
    000004E4 000B                   RTS
    000004E6 6EF6                   MOV.L       @R15+,R14
    000004E8              ___dt__9TransformFv:             ; function: Transform::~Transform()
                                                           ; frame size=20
    000004E8 2FE6                   MOV.L       R14,@-R15
    000004EA 6E43                   MOV         R4,R14
    000004EC 2FD6                   MOV.L       R13,@-R15
    000004EE 2EE8                   TST         R14,R14
    000004F0 4F22                   STS.L       PR,@-R15
    000004F2 7FF8                   ADD         #-8,R15
    000004F4 8D29                   BT/S        L1548
    000004F6 1F51                   MOV.L       R5,@(4,R15)
    000004F8 D22C                   MOV.L       L1808+16,R2; ___vtbl__9Transform
    000004FA E044                   MOV         #68,R0
    000004FC 1E22                   MOV.L       R2,@(8,R14)
    000004FE 0DEE                   MOV.L       @(R0,R14),R13
    00000500 2DD8                   TST         R13,R13
    00000502 8908                   BT          L1544
    00000504 52D2                   MOV.L       @(8,R13),R2
    00000506 E503                   MOV         #3,R5
    00000508 720C                   ADD         #12,R2
    0000050A 6423                   MOV         R2,R4
    0000050C 2F22                   MOV.L       R2,@R15
    0000050E 5322                   MOV.L       @(8,R2),R3
    00000510 6442                   MOV.L       @R4,R4
    00000512 430B                   JSR         @R3
    00000514 34DC                   ADD         R13,R4
    00000516              L1544:                            
    00000516 E04C                   MOV         #76,R0
    00000518 0DEE                   MOV.L       @(R0,R14),R13
    0000051A 2DD8                   TST         R13,R13
    0000051C 8908                   BT          L1546
    0000051E E503                   MOV         #3,R5
    00000520 52D2                   MOV.L       @(8,R13),R2




SH SERIES C/C++ Compiler (Ver. 6.0C)                                                                 09-Nov-2021 18:50:40  PAGE   26


SCT OFFSET   CODE       C LABEL     INSTRUCTION OPERAND    COMMENT

    00000522 720C                   ADD         #12,R2
    00000524 2F22                   MOV.L       R2,@R15
    00000526 6423                   MOV         R2,R4
    00000528 5322                   MOV.L       @(8,R2),R3
    0000052A 6442                   MOV.L       @R4,R4
    0000052C 430B                   JSR         @R3
    0000052E 34DC                   ADD         R13,R4
    00000530              L1546:                            
    00000530 E500                   MOV         #0,R5
    00000532 BEEB                   BSR         ___dt__9ComponentFv
    00000534 64E3                   MOV         R14,R4
    00000536 50F1                   MOV.L       @(4,R15),R0
    00000538 C801                   TST         #1,R0
    0000053A 8906                   BT          L1548
    0000053C D219                   MOV.L       L1808+8,R2 ; ___dl__FPv
    0000053E 64E3                   MOV         R14,R4
    00000540 7F08                   ADD         #8,R15
    00000542 4F26                   LDS.L       @R15+,PR
    00000544 6DF6                   MOV.L       @R15+,R13
    00000546 422B                   JMP         @R2
    00000548 6EF6                   MOV.L       @R15+,R14
    0000054A              L1548:                            
    0000054A 7F08                   ADD         #8,R15
    0000054C 4F26                   LDS.L       @R15+,PR
    0000054E 6DF6                   MOV.L       @R15+,R13
    00000550 000B                   RTS
    00000552 6EF6                   MOV.L       @R15+,R14
    00000554              _SetParent__9TransformFP9Transform:
                                                           ; function: Transform::SetParent(Transform *)
                                                           ; frame size=16
    00000554 2FE6                   MOV.L       R14,@-R15
    00000556 E044                   MOV         #68,R0
    00000558 2FD6                   MOV.L       R13,@-R15
    0000055A 6D43                   MOV         R4,R13
    0000055C 2FC6                   MOV.L       R12,@-R15
    0000055E 4F22                   STS.L       PR,@-R15
    00000560 03DE                   MOV.L       @(R0,R13),R3
    00000562 2338                   TST         R3,R3
    00000564 8D04                   BT/S        L1549
    00000566 6E53                   MOV         R5,R14
    00000568 04DE                   MOV.L       @(R0,R13),R4
    0000056A 65D3                   MOV         R13,R5
    0000056C B0CA                   BSR         __$Remove__24List__tm__12_P9TransformFZ1Z_Z1Z
    0000056E 741C                   ADD         #28,R4
    00000570              L1549:                            
    00000570 D20A                   MOV.L       L1808,R2   ; ___nw__FUl
    00000572 420B                   JSR         @R2
    00000574 E40C                   MOV         #12,R4
    00000576 2008                   TST         R0,R0
    00000578 8D06                   BT/S        L1550
    0000057A 6C03                   MOV         R0,R12
    0000057C D20D                   MOV.L       L1808+24,R2; ___memzero
    0000057E E50C                   MOV         #12,R5
    00000580 420B                   JSR         @R2
    00000582 64C3                   MOV         R12,R4
    00000584 A001                   BRA         L1551
    00000586 64C3                   MOV         R12,R4




SH SERIES C/C++ Compiler (Ver. 6.0C)                                                                 09-Nov-2021 18:50:40  PAGE   27


SCT OFFSET   CODE       C LABEL     INSTRUCTION OPERAND    COMMENT

    00000588              L1550:                            
    00000588 E400                   MOV         #0,R4
    0000058A              L1551:                            
    0000058A 24D2                   MOV.L       R13,@R4
    0000058C 52E9                   MOV.L       @(36,R14),R2
    0000058E 7201                   ADD         #1,R2
    00000590 1E29                   MOV.L       R2,@(36,R14)
    00000592 53E7                   MOV.L       @(28,R14),R3
    00000594 2338                   TST         R3,R3
    00000596 8B0F                   BF          L1552
    00000598 A012                   BRA         L1233
    0000059A 1E47                   MOV.L       R4,@(28,R14)
    0000059C              L1808:                            
    0000059C <00000000>             .DATA.L     ___nw__FUl
    000005A0 <00000000>             .DATA.L     ___vtbl__9Component
    000005A4 <00000000>             .DATA.L     ___dl__FPv
    000005A8 <00000000>             .DATA.L     __$__vtbl__6Object
    000005AC <00000000>             .DATA.L     ___vtbl__9Transform
    000005B0 3F800000               .DATA.L     H'3F800000
    000005B4 <00000000>             .DATA.L     ___memzero
    000005B8              L1552:                            
    000005B8 53E8                   MOV.L       @(32,R14),R3
    000005BA 1432                   MOV.L       R3,@(8,R4)
    000005BC 52E8                   MOV.L       @(32,R14),R2
    000005BE 1241                   MOV.L       R4,@(4,R2)
    000005C0              L1233:
    000005C0 1E48                   MOV.L       R4,@(32,R14)
    000005C2 E044                   MOV         #68,R0
    000005C4 0DE6                   MOV.L       R14,@(R0,R13)
    000005C6 4F26                   LDS.L       @R15+,PR
    000005C8 6CF6                   MOV.L       @R15+,R12
    000005CA 6DF6                   MOV.L       @R15+,R13
    000005CC 000B                   RTS
    000005CE 6EF6                   MOV.L       @R15+,R14
    000005D0              _Start__9TransformFv:            ; function: Transform::Start()
                                                           ; frame size=0
    000005D0 5346                   MOV.L       @(24,R4),R3
    000005D2 E048                   MOV         #72,R0
    000005D4 024E                   MOV.L       @(R0,R4),R2
    000005D6 6122                   MOV.L       @R2,R1
    000005D8 2312                   MOV.L       R1,@R3
    000005DA 5346                   MOV.L       @(24,R4),R3
    000005DC 024E                   MOV.L       @(R0,R4),R2
    000005DE 5121                   MOV.L       @(4,R2),R1
    000005E0 000B                   RTS
    000005E2 1311                   MOV.L       R1,@(4,R3)
    000005E4              _Update__9TransformFv:           ; function: Transform::Update()
                                                           ; frame size=36
    000005E4 2FE6                   MOV.L       R14,@-R15
    000005E6 E044                   MOV         #68,R0
    000005E8 4F22                   STS.L       PR,@-R15
    000005EA 6E43                   MOV         R4,R14
    000005EC 7FF0                   ADD         #-16,R15
    000005EE 53E9                   MOV.L       @(36,R14),R3
    000005F0 1E3A                   MOV.L       R3,@(40,R14)
    000005F2 02EE                   MOV.L       @(R0,R14),R2
    000005F4 2228                   TST         R2,R2




SH SERIES C/C++ Compiler (Ver. 6.0C)                                                                 09-Nov-2021 18:50:40  PAGE   28


SCT OFFSET   CODE       C LABEL     INSTRUCTION OPERAND    COMMENT

    000005F6 8B1E                   BF          L1556
    000005F8 55EE                   MOV.L       @(56,R14),R5
    000005FA E048                   MOV         #72,R0
    000005FC BD76                   BSR         ___ne__7Vector2FRC7Vector2
    000005FE 04EE                   MOV.L       @(R0,R14),R4
    00000600 2008                   TST         R0,R0
    00000602 890D                   BT          L1557
    00000604 55E6                   MOV.L       @(24,R14),R5
    00000606 BD71                   BSR         ___ne__7Vector2FRC7Vector2
    00000608 54EE                   MOV.L       @(56,R14),R4
    0000060A 2008                   TST         R0,R0
    0000060C 8908                   BT          L1557
    0000060E E048                   MOV         #72,R0
    00000610 52EE                   MOV.L       @(56,R14),R2
    00000612 03EE                   MOV.L       @(R0,R14),R3
    00000614 6122                   MOV.L       @R2,R1
    00000616 2312                   MOV.L       R1,@R3
    00000618 03EE                   MOV.L       @(R0,R14),R3
    0000061A 52EE                   MOV.L       @(56,R14),R2
    0000061C 5121                   MOV.L       @(4,R2),R1
    0000061E 1311                   MOV.L       R1,@(4,R3)
    00000620              L1557:                            
    00000620 53EE                   MOV.L       @(56,R14),R3
    00000622 E048                   MOV         #72,R0
    00000624 02EE                   MOV.L       @(R0,R14),R2
    00000626 6122                   MOV.L       @R2,R1
    00000628 2312                   MOV.L       R1,@R3
    0000062A 53EE                   MOV.L       @(56,R14),R3
    0000062C 02EE                   MOV.L       @(R0,R14),R2
    0000062E 5121                   MOV.L       @(4,R2),R1
    00000630 1311                   MOV.L       R1,@(4,R3)
    00000632 A036                   BRA         L1559
    00000634 0009                   NOP
    00000636              L1556:                            
    00000636 E048                   MOV         #72,R0
    00000638 55E6                   MOV.L       @(24,R14),R5
    0000063A BD57                   BSR         ___ne__7Vector2FRC7Vector2
    0000063C 04EE                   MOV.L       @(R0,R14),R4
    0000063E 2008                   TST         R0,R0
    00000640 8922                   BT          L1560
    00000642 E044                   MOV         #68,R0
    00000644 54EE                   MOV.L       @(56,R14),R4
    00000646 63F3                   MOV         R15,R3
    00000648 05EE                   MOV.L       @(R0,R14),R5
    0000064A 7308                   ADD         #8,R3
    0000064C E048                   MOV         #72,R0
    0000064E 055E                   MOV.L       @(R0,R5),R5
    00000650 BD60                   BSR         ___pl__7Vector2FRC7Vector2
    00000652 2F36                   MOV.L       R3,@-R15
    00000654 7F04                   ADD         #4,R15
    00000656 65F3                   MOV         R15,R5
    00000658 7508                   ADD         #8,R5
    0000065A E048                   MOV         #72,R0
    0000065C BD32                   BSR         ___eq__7Vector2FRC7Vector2
    0000065E 04EE                   MOV.L       @(R0,R14),R4
    00000660 2008                   TST         R0,R0
    00000662 8911                   BT          L1560




SH SERIES C/C++ Compiler (Ver. 6.0C)                                                                 09-Nov-2021 18:50:40  PAGE   29


SCT OFFSET   CODE       C LABEL     INSTRUCTION OPERAND    COMMENT

    00000664 7FF8                   ADD         #-8,R15
    00000666 E048                   MOV         #72,R0
    00000668 54E6                   MOV.L       @(24,R14),R4
    0000066A 63F3                   MOV         R15,R3
    0000066C 05EE                   MOV.L       @(R0,R14),R5
    0000066E 7308                   ADD         #8,R3
    00000670 BD6F                   BSR         ___mi__7Vector2FRC7Vector2
    00000672 2F36                   MOV.L       R3,@-R15
    00000674 7F04                   ADD         #4,R15
    00000676 65F3                   MOV         R15,R5
    00000678 54EE                   MOV.L       @(56,R14),R4
    0000067A 7508                   ADD         #8,R5
    0000067C BD4A                   BSR         ___pl__7Vector2FRC7Vector2
    0000067E 2FF6                   MOV.L       R15,@-R15
    00000680 7F04                   ADD         #4,R15
    00000682 BD19                   BSR         _Set__7Vector2F7Vector2
    00000684 54EE                   MOV.L       @(56,R14),R4
    00000686 7F08                   ADD         #8,R15
    00000688              L1560:                            
    00000688 7FF8                   ADD         #-8,R15
    0000068A E044                   MOV         #68,R0
    0000068C 54EE                   MOV.L       @(56,R14),R4
    0000068E 05EE                   MOV.L       @(R0,R14),R5
    00000690 E048                   MOV         #72,R0
    00000692 055E                   MOV.L       @(R0,R5),R5
    00000694 BD3E                   BSR         ___pl__7Vector2FRC7Vector2
    00000696 2FF6                   MOV.L       R15,@-R15
    00000698 7F04                   ADD         #4,R15
    0000069A E048                   MOV         #72,R0
    0000069C BD0C                   BSR         _Set__7Vector2F7Vector2
    0000069E 04EE                   MOV.L       @(R0,R14),R4
    000006A0 7F08                   ADD         #8,R15
    000006A2              L1559:                            
    000006A2 E048                   MOV         #72,R0
    000006A4 52E6                   MOV.L       @(24,R14),R2
    000006A6 03EE                   MOV.L       @(R0,R14),R3
    000006A8 6132                   MOV.L       @R3,R1
    000006AA 2212                   MOV.L       R1,@R2
    000006AC 53E6                   MOV.L       @(24,R14),R3
    000006AE 02EE                   MOV.L       @(R0,R14),R2
    000006B0 5121                   MOV.L       @(4,R2),R1
    000006B2 1311                   MOV.L       R1,@(4,R3)
    000006B4 7F10                   ADD         #16,R15
    000006B6 4F26                   LDS.L       @R15+,PR
    000006B8 000B                   RTS
    000006BA 6EF6                   MOV.L       @R15+,R14
    000006BC              __$get_node__24List__tm__12_P9TransformFi_P15Node__tm__4_Z1Z:
                                                           ; function: Node<T1> *List<T1>::get_node(int) [with T1=Transform *]
                                                           ; frame size=0
    000006BC E700                   MOV         #0,R7
    000006BE A002                   BRA         L1562
    000006C0 6642                   MOV.L       @R4,R6
    000006C2              L1563:                            
    000006C2 7701                   ADD         #1,R7
    000006C4 5661                   MOV.L       @(4,R6),R6
    000006C6              L1562:                            
    000006C6 2668                   TST         R6,R6




SH SERIES C/C++ Compiler (Ver. 6.0C)                                                                 09-Nov-2021 18:50:40  PAGE   30


SCT OFFSET   CODE       C LABEL     INSTRUCTION OPERAND    COMMENT

    000006C8 8901                   BT          L1564
    000006CA 3750                   CMP/EQ      R5,R7
    000006CC 8BF9                   BF          L1563
    000006CE              L1564:                            
    000006CE 000B                   RTS
    000006D0 6063                   MOV         R6,R0
    000006D2              __$prepop__24List__tm__12_P9TransformFv_Z1Z:
                                                           ; function: T1 List<T1>::prepop() [with T1=Transform *]
                                                           ; frame size=0
    000006D2 6342                   MOV.L       @R4,R3
    000006D4 2338                   TST         R3,R3
    000006D6 8B01                   BF          L1566
    000006D8 000B                   RTS
    000006DA E000                   MOV         #0,R0
    000006DC              L1566:                            
    000006DC 6642                   MOV.L       @R4,R6
    000006DE 6762                   MOV.L       @R6,R7
    000006E0 5341                   MOV.L       @(4,R4),R3
    000006E2 3630                   CMP/EQ      R3,R6
    000006E4 8F03                   BF/S        L1568
    000006E6 E500                   MOV         #0,R5
    000006E8 2452                   MOV.L       R5,@R4
    000006EA A005                   BRA         L1569
    000006EC 1451                   MOV.L       R5,@(4,R4)
    000006EE              L1568:                            
    000006EE 6242                   MOV.L       @R4,R2
    000006F0 5321                   MOV.L       @(4,R2),R3
    000006F2 2432                   MOV.L       R3,@R4
    000006F4 6233                   MOV         R3,R2
    000006F6 1252                   MOV.L       R5,@(8,R2)
    000006F8              L1569:                            
    000006F8 5342                   MOV.L       @(8,R4),R3
    000006FA 6073                   MOV         R7,R0
    000006FC 73FF                   ADD         #-1,R3
    000006FE 1432                   MOV.L       R3,@(8,R4)
    00000700              L1567:                            
    00000700 000B                   RTS
    00000702 0009                   NOP
    00000704              __$Remove__24List__tm__12_P9TransformFZ1Z_Z1Z:
                                                           ; function: T1 List<T1>::Remove(T1) [with T1=Transform *]
                                                           ; frame size=12
    00000704 2FE6                   MOV.L       R14,@-R15
    00000706 4F22                   STS.L       PR,@-R15
    00000708 7FFC                   ADD         #-4,R15
    0000070A B040                   BSR         __$IndexOf__24List__tm__12_P9TransformFZ1Z_i
    0000070C 6E43                   MOV         R4,R14
    0000070E 6503                   MOV         R0,R5
    00000710 4511                   CMP/PZ      R5
    00000712 8B0B                   BF          L1234
    00000714 2558                   TST         R5,R5
    00000716 8B04                   BF          L1572
    00000718 64E3                   MOV         R14,R4
    0000071A 7F04                   ADD         #4,R15
    0000071C 4F26                   LDS.L       @R15+,PR
    0000071E AFD8                   BRA         __$prepop__24List__tm__12_P9TransformFv_Z1Z
    00000720 6EF6                   MOV.L       @R15+,R14
    00000722              L1572:                            




SH SERIES C/C++ Compiler (Ver. 6.0C)                                                                 09-Nov-2021 18:50:40  PAGE   31


SCT OFFSET   CODE       C LABEL     INSTRUCTION OPERAND    COMMENT

    00000722 BFCB                   BSR         __$get_node__24List__tm__12_P9TransformFi_P15Node__tm__4_Z1Z
    00000724 64E3                   MOV         R14,R4
    00000726 6403                   MOV         R0,R4
    00000728 2448                   TST         R4,R4
    0000072A 8B04                   BF          L1573
    0000072C              L1234:
    0000072C E000                   MOV         #0,R0
    0000072E 7F04                   ADD         #4,R15
    00000730 4F26                   LDS.L       @R15+,PR
    00000732 000B                   RTS
    00000734 6EF6                   MOV.L       @R15+,R14
    00000736              L1573:                            
    00000736 5241                   MOV.L       @(4,R4),R2
    00000738 2228                   TST         R2,R2
    0000073A 8B15                   BF          L1574
    0000073C 54E1                   MOV.L       @(4,R14),R4
    0000073E 63E2                   MOV.L       @R14,R3
    00000740 3340                   CMP/EQ      R4,R3
    00000742 8F04                   BF/S        L1575
    00000744 6542                   MOV.L       @R4,R5
    00000746 E000                   MOV         #0,R0
    00000748 2E02                   MOV.L       R0,@R14
    0000074A A005                   BRA         L1576
    0000074C 1E01                   MOV.L       R0,@(4,R14)
    0000074E              L1575:                            
    0000074E E300                   MOV         #0,R3
    00000750 50E1                   MOV.L       @(4,R14),R0
    00000752 5002                   MOV.L       @(8,R0),R0
    00000754 1E01                   MOV.L       R0,@(4,R14)
    00000756 1031                   MOV.L       R3,@(4,R0)
    00000758              L1576:                            
    00000758 50E2                   MOV.L       @(8,R14),R0
    0000075A 70FF                   ADD         #-1,R0
    0000075C 1E02                   MOV.L       R0,@(8,R14)
    0000075E 6053                   MOV         R5,R0
    00000760 7F04                   ADD         #4,R15
    00000762 4F26                   LDS.L       @R15+,PR
    00000764 000B                   RTS
    00000766 6EF6                   MOV.L       @R15+,R14
    00000768              L1574:                            
    00000768 6342                   MOV.L       @R4,R3
    0000076A 2F32                   MOV.L       R3,@R15
    0000076C 5241                   MOV.L       @(4,R4),R2
    0000076E 5342                   MOV.L       @(8,R4),R3
    00000770 1232                   MOV.L       R3,@(8,R2)
    00000772 5242                   MOV.L       @(8,R4),R2
    00000774 5341                   MOV.L       @(4,R4),R3
    00000776 1231                   MOV.L       R3,@(4,R2)
    00000778 D221                   MOV.L       L1809,R2   ; ___dl__FPv
    0000077A 420B                   JSR         @R2
    0000077C 0009                   NOP
    0000077E 53E2                   MOV.L       @(8,R14),R3
    00000780 73FF                   ADD         #-1,R3
    00000782 1E32                   MOV.L       R3,@(8,R14)
    00000784 60F2                   MOV.L       @R15,R0
    00000786              L1571:                            
    00000786 7F04                   ADD         #4,R15




SH SERIES C/C++ Compiler (Ver. 6.0C)                                                                 09-Nov-2021 18:50:40  PAGE   32


SCT OFFSET   CODE       C LABEL     INSTRUCTION OPERAND    COMMENT

    00000788 4F26                   LDS.L       @R15+,PR
    0000078A 000B                   RTS
    0000078C 6EF6                   MOV.L       @R15+,R14
    0000078E              __$IndexOf__24List__tm__12_P9TransformFZ1Z_i:
                                                           ; function: int List<T1>::IndexOf(T1) [with T1=Transform *]
                                                           ; frame size=8
    0000078E E600                   MOV         #0,R6
    00000790 2FE6                   MOV.L       R14,@-R15
    00000792 4F22                   STS.L       PR,@-R15
    00000794 A009                   BRA         L1577
    00000796 6E42                   MOV.L       @R4,R14
    00000798              L1578:                            
    00000798 62E2                   MOV.L       @R14,R2
    0000079A 3250                   CMP/EQ      R5,R2
    0000079C 8B03                   BF          L1579
    0000079E 6063                   MOV         R6,R0
    000007A0 4F26                   LDS.L       @R15+,PR
    000007A2 000B                   RTS
    000007A4 6EF6                   MOV.L       @R15+,R14
    000007A6              L1579:                            
    000007A6 7601                   ADD         #1,R6
    000007A8 5EE1                   MOV.L       @(4,R14),R14
    000007AA              L1577:                            
    000007AA 53E1                   MOV.L       @(4,R14),R3
    000007AC 2338                   TST         R3,R3
    000007AE 8BF3                   BF          L1578
    000007B0 D313                   MOV.L       L1809,R3   ; ___dl__FPv
    000007B2 430B                   JSR         @R3
    000007B4 64E3                   MOV         R14,R4
    000007B6 E0FF                   MOV         #-1,R0
    000007B8              L1580:                            
    000007B8 4F26                   LDS.L       @R15+,PR
    000007BA 000B                   RTS
    000007BC 6EF6                   MOV.L       @R15+,R14
    000007BE              ___ct__9BehaviourFPCcP10GameObjectT1:
                                                           ; function: Behaviour::Behaviour(const char *, GameObject *, const char *
                        +                                  )
                                                           ; frame size=20
    000007BE 4F22                   STS.L       PR,@-R15
    000007C0 7FF0                   ADD         #-16,R15
    000007C2 2F42                   MOV.L       R4,@R15
    000007C4 1F52                   MOV.L       R5,@(8,R15)
    000007C6 1F61                   MOV.L       R6,@(4,R15)
    000007C8 1F73                   MOV.L       R7,@(12,R15)
    000007CA 63F2                   MOV.L       @R15,R3
    000007CC 2338                   TST         R3,R3
    000007CE 8B05                   BF          L1583
    000007D0 D30C                   MOV.L       L1809+4,R3 ; ___nw__FUl
    000007D2 430B                   JSR         @R3
    000007D4 E420                   MOV         #32,R4
    000007D6 2008                   TST         R0,R0
    000007D8 8D0D                   BT/S        L1582
    000007DA 2F02                   MOV.L       R0,@R15
    000007DC              L1583:                            
    000007DC 57F3                   MOV.L       @(12,R15),R7
    000007DE 56F1                   MOV.L       @(4,R15),R6
    000007E0 55F2                   MOV.L       @(8,R15),R5




SH SERIES C/C++ Compiler (Ver. 6.0C)                                                                 09-Nov-2021 18:50:40  PAGE   33


SCT OFFSET   CODE       C LABEL     INSTRUCTION OPERAND    COMMENT

    000007E2 BD75                   BSR         ___ct__9ComponentFPCcP10GameObjectT1
    000007E4 64F2                   MOV.L       @R15,R4
    000007E6 E401                   MOV         #1,R4
    000007E8 62F2                   MOV.L       @R15,R2
    000007EA D307                   MOV.L       L1809+8,R3 ; __$__vtbl__9Behaviour
    000007EC 1232                   MOV.L       R3,@(8,R2)
    000007EE 62F2                   MOV.L       @R15,R2
    000007F0 1246                   MOV.L       R4,@(24,R2)
    000007F2 63F2                   MOV.L       @R15,R3
    000007F4 1347                   MOV.L       R4,@(28,R3)
    000007F6              L1582:                            
    000007F6 60F2                   MOV.L       @R15,R0
    000007F8 7F10                   ADD         #16,R15
    000007FA 4F26                   LDS.L       @R15+,PR
    000007FC 000B                   RTS
    000007FE 0009                   NOP
    00000800              L1809:                            
    00000800 <00000000>             .DATA.L     ___dl__FPv
    00000804 <00000000>             .DATA.L     ___nw__FUl
    00000808 <00000000>             .DATA.L     __$__vtbl__9Behaviour
    0000080C              __$__dt__9BehaviourFv:           ; function: Behaviour::~Behaviour()
                                                           ; frame size=12
    0000080C 2FE6                   MOV.L       R14,@-R15
    0000080E 6E43                   MOV         R4,R14
    00000810 4F22                   STS.L       PR,@-R15
    00000812 2EE8                   TST         R14,R14
    00000814 7FFC                   ADD         #-4,R15
    00000816 8D0F                   BT/S        L1587
    00000818 2F52                   MOV.L       R5,@R15
    0000081A E500                   MOV         #0,R5
    0000081C D28F                   MOV.L       L1810,R2   ; __$__vtbl__9Behaviour
    0000081E 1E22                   MOV.L       R2,@(8,R14)
    00000820 D38F                   MOV.L       L1810+4,R3 ; ___dt__9ComponentFv
    00000822 430B                   JSR         @R3
    00000824 64E3                   MOV         R14,R4
    00000826 60F2                   MOV.L       @R15,R0
    00000828 C801                   TST         #1,R0
    0000082A 8905                   BT          L1587
    0000082C D28D                   MOV.L       L1810+8,R2 ; ___dl__FPv
    0000082E 64E3                   MOV         R14,R4
    00000830 7F04                   ADD         #4,R15
    00000832 4F26                   LDS.L       @R15+,PR
    00000834 422B                   JMP         @R2
    00000836 6EF6                   MOV.L       @R15+,R14
    00000838              L1587:                            
    00000838 7F04                   ADD         #4,R15
    0000083A 4F26                   LDS.L       @R15+,PR
    0000083C 000B                   RTS
    0000083E 6EF6                   MOV.L       @R15+,R14
    00000840              ___ct__7TextureFv:               ; function: Texture::Texture()
                                                           ; frame size=8
    00000840 4F22                   STS.L       PR,@-R15
    00000842 6343                   MOV         R4,R3
    00000844 7FFC                   ADD         #-4,R15
    00000846 2338                   TST         R3,R3
    00000848 8F06                   BF/S        L1589
    0000084A 2F42                   MOV.L       R4,@R15




SH SERIES C/C++ Compiler (Ver. 6.0C)                                                                 09-Nov-2021 18:50:40  PAGE   34


SCT OFFSET   CODE       C LABEL     INSTRUCTION OPERAND    COMMENT

    0000084C D386                   MOV.L       L1810+12,R3; ___nw__FUl
    0000084E 430B                   JSR         @R3
    00000850 E424                   MOV         #36,R4
    00000852 2008                   TST         R0,R0
    00000854 8D0F                   BT/S        L1588
    00000856 2F02                   MOV.L       R0,@R15
    00000858              L1589:                            
    00000858 D584                   MOV.L       L1810+16,R5; L781
    0000085A E600                   MOV         #0,R6
    0000085C BCD6                   BSR         ___ct__6ObjectFPCcT1
    0000085E 64F2                   MOV.L       @R15,R4
    00000860 62F2                   MOV.L       @R15,R2
    00000862 E400                   MOV         #0,R4
    00000864 D382                   MOV.L       L1810+20,R3; __$__vtbl__7Texture
    00000866 1232                   MOV.L       R3,@(8,R2)
    00000868 62F2                   MOV.L       @R15,R2
    0000086A D382                   MOV.L       L1810+24,R3; L782
    0000086C 1233                   MOV.L       R3,@(12,R2)
    0000086E 62F2                   MOV.L       @R15,R2
    00000870 1248                   MOV.L       R4,@(32,R2)
    00000872 63F2                   MOV.L       @R15,R3
    00000874 1346                   MOV.L       R4,@(24,R3)
    00000876              L1588:                            
    00000876 60F2                   MOV.L       @R15,R0
    00000878 7F04                   ADD         #4,R15
    0000087A 4F26                   LDS.L       @R15+,PR
    0000087C 000B                   RTS
    0000087E 0009                   NOP
    00000880              ___ct__7TextureFPCciT2PCUcT1:    ; function: Texture::Texture(const char *, int, int, const unsigned char 
                        +                                  *, const char *)
                                                           ; frame size=20
    00000880 4F22                   STS.L       PR,@-R15
    00000882 7FF0                   ADD         #-16,R15
    00000884 2F42                   MOV.L       R4,@R15
    00000886 1F53                   MOV.L       R5,@(12,R15)
    00000888 1F62                   MOV.L       R6,@(8,R15)
    0000088A 1F71                   MOV.L       R7,@(4,R15)
    0000088C 63F2                   MOV.L       @R15,R3
    0000088E 2338                   TST         R3,R3
    00000890 8B05                   BF          L1592
    00000892 D375                   MOV.L       L1810+12,R3; ___nw__FUl
    00000894 430B                   JSR         @R3
    00000896 E424                   MOV         #36,R4
    00000898 2008                   TST         R0,R0
    0000089A 8D10                   BT/S        L1591
    0000089C 2F02                   MOV.L       R0,@R15
    0000089E              L1592:                            
    0000089E 56F6                   MOV.L       @(24,R15),R6
    000008A0 55F3                   MOV.L       @(12,R15),R5
    000008A2 BCB3                   BSR         ___ct__6ObjectFPCcT1
    000008A4 64F2                   MOV.L       @R15,R4
    000008A6 62F2                   MOV.L       @R15,R2
    000008A8 D371                   MOV.L       L1810+20,R3; __$__vtbl__7Texture
    000008AA 1232                   MOV.L       R3,@(8,R2)
    000008AC 62F2                   MOV.L       @R15,R2
    000008AE 53F5                   MOV.L       @(20,R15),R3
    000008B0 1233                   MOV.L       R3,@(12,R2)




SH SERIES C/C++ Compiler (Ver. 6.0C)                                                                 09-Nov-2021 18:50:40  PAGE   35


SCT OFFSET   CODE       C LABEL     INSTRUCTION OPERAND    COMMENT

    000008B2 62F2                   MOV.L       @R15,R2
    000008B4 53F2                   MOV.L       @(8,R15),R3
    000008B6 1238                   MOV.L       R3,@(32,R2)
    000008B8 62F2                   MOV.L       @R15,R2
    000008BA 53F1                   MOV.L       @(4,R15),R3
    000008BC 1236                   MOV.L       R3,@(24,R2)
    000008BE              L1591:                            
    000008BE 60F2                   MOV.L       @R15,R0
    000008C0 7F10                   ADD         #16,R15
    000008C2 4F26                   LDS.L       @R15+,PR
    000008C4 000B                   RTS
    000008C6 0009                   NOP
    000008C8              __$__dt__7TextureFv:             ; function: Texture::~Texture()
                                                           ; frame size=4
    000008C8 2FE6                   MOV.L       R14,@-R15
    000008CA 6E43                   MOV         R4,R14
    000008CC 2EE8                   TST         R14,R14
    000008CE 8909                   BT          L1596
    000008D0 D267                   MOV.L       L1810+20,R2; __$__vtbl__7Texture
    000008D2 D369                   MOV.L       L1810+28,R3; __$__vtbl__6Object
    000008D4 1E32                   MOV.L       R3,@(8,R14)
    000008D6 E201                   MOV         #1,R2
    000008D8 2528                   TST         R2,R5
    000008DA 8903                   BT          L1596
    000008DC D161                   MOV.L       L1810+8,R1 ; ___dl__FPv
    000008DE 64E3                   MOV         R14,R4
    000008E0 412B                   JMP         @R1
    000008E2 6EF6                   MOV.L       @R15+,R14
    000008E4              L1596:                            
    000008E4 000B                   RTS
    000008E6 6EF6                   MOV.L       @R15+,R14
    000008E8              ___ct__13MonoBehaviourFPCcP10GameObjectT1:
                                                           ; function: MonoBehaviour::MonoBehaviour(const char *, GameObject *, cons
                        +                                  t char *)
                                                           ; frame size=20
    000008E8 4F22                   STS.L       PR,@-R15
    000008EA 7FF0                   ADD         #-16,R15
    000008EC 2F42                   MOV.L       R4,@R15
    000008EE 1F51                   MOV.L       R5,@(4,R15)
    000008F0 1F62                   MOV.L       R6,@(8,R15)
    000008F2 1F73                   MOV.L       R7,@(12,R15)
    000008F4 63F2                   MOV.L       @R15,R3
    000008F6 2338                   TST         R3,R3
    000008F8 8B05                   BF          L1598
    000008FA D35B                   MOV.L       L1810+12,R3; ___nw__FUl
    000008FC 430B                   JSR         @R3
    000008FE E424                   MOV         #36,R4
    00000900 2008                   TST         R0,R0
    00000902 8D0B                   BT/S        L1597
    00000904 2F02                   MOV.L       R0,@R15
    00000906              L1598:                            
    00000906 57F3                   MOV.L       @(12,R15),R7
    00000908 56F2                   MOV.L       @(8,R15),R6
    0000090A 55F1                   MOV.L       @(4,R15),R5
    0000090C BF57                   BSR         ___ct__9BehaviourFPCcP10GameObjectT1
    0000090E 64F2                   MOV.L       @R15,R4
    00000910 62F2                   MOV.L       @R15,R2




SH SERIES C/C++ Compiler (Ver. 6.0C)                                                                 09-Nov-2021 18:50:40  PAGE   36


SCT OFFSET   CODE       C LABEL     INSTRUCTION OPERAND    COMMENT

    00000912 D35A                   MOV.L       L1810+32,R3; __$__vtbl__13MonoBehaviour
    00000914 1232                   MOV.L       R3,@(8,R2)
    00000916 E301                   MOV         #1,R3
    00000918 62F2                   MOV.L       @R15,R2
    0000091A 1238                   MOV.L       R3,@(32,R2)
    0000091C              L1597:                            
    0000091C 60F2                   MOV.L       @R15,R0
    0000091E 7F10                   ADD         #16,R15
    00000920 4F26                   LDS.L       @R15+,PR
    00000922 000B                   RTS
    00000924 0009                   NOP
    00000926              __$__dt__13MonoBehaviourFv:      ; function: MonoBehaviour::~MonoBehaviour()
                                                           ; frame size=12
    00000926 2FE6                   MOV.L       R14,@-R15
    00000928 4F22                   STS.L       PR,@-R15
    0000092A 6E43                   MOV         R4,R14
    0000092C 7FFC                   ADD         #-4,R15
    0000092E 2EE8                   TST         R14,R14
    00000930 8D10                   BT/S        L1602
    00000932 2F52                   MOV.L       R5,@R15
    00000934 D251                   MOV.L       L1810+32,R2; __$__vtbl__13MonoBehaviour
    00000936 E500                   MOV         #0,R5
    00000938 D348                   MOV.L       L1810,R3   ; __$__vtbl__9Behaviour
    0000093A 1E32                   MOV.L       R3,@(8,R14)
    0000093C D248                   MOV.L       L1810+4,R2 ; ___dt__9ComponentFv
    0000093E 420B                   JSR         @R2
    00000940 64E3                   MOV         R14,R4
    00000942 60F2                   MOV.L       @R15,R0
    00000944 C801                   TST         #1,R0
    00000946 8905                   BT          L1602
    00000948 D246                   MOV.L       L1810+8,R2 ; ___dl__FPv
    0000094A 64E3                   MOV         R14,R4
    0000094C 7F04                   ADD         #4,R15
    0000094E 4F26                   LDS.L       @R15+,PR
    00000950 422B                   JMP         @R2
    00000952 6EF6                   MOV.L       @R15+,R14
    00000954              L1602:                            
    00000954 7F04                   ADD         #4,R15
    00000956 4F26                   LDS.L       @R15+,PR
    00000958 000B                   RTS
    0000095A 6EF6                   MOV.L       @R15+,R14
    0000095C              ___ct__10GameObjectFP5ScenePCcT2:
                                                           ; function: GameObject::GameObject(Scene *, const char *, const char *)
                                                           ; frame size=28
    0000095C 2FE6                   MOV.L       R14,@-R15
    0000095E 2F86                   MOV.L       R8,@-R15
    00000960 4F22                   STS.L       PR,@-R15
    00000962 7FF0                   ADD         #-16,R15
    00000964 2F42                   MOV.L       R4,@R15
    00000966 1F51                   MOV.L       R5,@(4,R15)
    00000968 1F62                   MOV.L       R6,@(8,R15)
    0000096A 1F73                   MOV.L       R7,@(12,R15)
    0000096C 63F2                   MOV.L       @R15,R3
    0000096E 2338                   TST         R3,R3
    00000970 8B05                   BF          L1604
    00000972 D33D                   MOV.L       L1810+12,R3; ___nw__FUl
    00000974 430B                   JSR         @R3




SH SERIES C/C++ Compiler (Ver. 6.0C)                                                                 09-Nov-2021 18:50:40  PAGE   37


SCT OFFSET   CODE       C LABEL     INSTRUCTION OPERAND    COMMENT

    00000976 E438                   MOV         #56,R4
    00000978 2008                   TST         R0,R0
    0000097A 8D26                   BT/S        L1603
    0000097C 2F02                   MOV.L       R0,@R15
    0000097E              L1604:                            
    0000097E 56F3                   MOV.L       @(12,R15),R6
    00000980 55F2                   MOV.L       @(8,R15),R5
    00000982 BC43                   BSR         ___ct__6ObjectFPCcT1
    00000984 64F2                   MOV.L       @R15,R4
    00000986 EE00                   MOV         #0,R14
    00000988 D73E                   MOV.L       L1810+40,R7; L466
    0000098A 66E3                   MOV         R14,R6
    0000098C 62F2                   MOV.L       @R15,R2
    0000098E D33C                   MOV.L       L1810+36,R3; ___vtbl__10GameObject
    00000990 1232                   MOV.L       R3,@(8,R2)
    00000992 62F2                   MOV.L       @R15,R2
    00000994 12E5                   MOV.L       R14,@(20,R2)
    00000996 63F2                   MOV.L       @R15,R3
    00000998 13E3                   MOV.L       R14,@(12,R3)
    0000099A 63F2                   MOV.L       @R15,R3
    0000099C 13E4                   MOV.L       R14,@(16,R3)
    0000099E 63F2                   MOV.L       @R15,R3
    000009A0 52F1                   MOV.L       @(4,R15),R2
    000009A2 132A                   MOV.L       R2,@(40,R3)
    000009A4 68F2                   MOV.L       @R15,R8
    000009A6 7834                   ADD         #52,R8
    000009A8 65F2                   MOV.L       @R15,R5
    000009AA BD4C                   BSR         ___ct__9TransformFP10GameObjectPCcT2
    000009AC 64E3                   MOV         R14,R4
    000009AE E401                   MOV         #1,R4
    000009B0 2802                   MOV.L       R0,@R8
    000009B2 63F2                   MOV.L       @R15,R3
    000009B4 1346                   MOV.L       R4,@(24,R3)
    000009B6 63F2                   MOV.L       @R15,R3
    000009B8 1347                   MOV.L       R4,@(28,R3)
    000009BA 63F2                   MOV.L       @R15,R3
    000009BC 13E8                   MOV.L       R14,@(32,R3)
    000009BE 63F2                   MOV.L       @R15,R3
    000009C0 13E9                   MOV.L       R14,@(36,R3)
    000009C2 63F2                   MOV.L       @R15,R3
    000009C4 13EB                   MOV.L       R14,@(44,R3)
    000009C6 63F2                   MOV.L       @R15,R3
    000009C8 13EC                   MOV.L       R14,@(48,R3)
    000009CA              L1603:                            
    000009CA 60F2                   MOV.L       @R15,R0
    000009CC 7F10                   ADD         #16,R15
    000009CE 4F26                   LDS.L       @R15+,PR
    000009D0 68F6                   MOV.L       @R15+,R8
    000009D2 000B                   RTS
    000009D4 6EF6                   MOV.L       @R15+,R14
    000009D6              ___dt__10GameObjectFv:           ; function: GameObject::~GameObject()
                                                           ; frame size=20
    000009D6 2FE6                   MOV.L       R14,@-R15
    000009D8 2FD6                   MOV.L       R13,@-R15
    000009DA 6E43                   MOV         R4,R14
    000009DC 4F22                   STS.L       PR,@-R15
    000009DE 2EE8                   TST         R14,R14




SH SERIES C/C++ Compiler (Ver. 6.0C)                                                                 09-Nov-2021 18:50:40  PAGE   38


SCT OFFSET   CODE       C LABEL     INSTRUCTION OPERAND    COMMENT

    000009E0 7FF8                   ADD         #-8,R15
    000009E2 8D1A                   BT/S        L1610
    000009E4 1F51                   MOV.L       R5,@(4,R15)
    000009E6 D226                   MOV.L       L1810+36,R2; ___vtbl__10GameObject
    000009E8 1E22                   MOV.L       R2,@(8,R14)
    000009EA 5DED                   MOV.L       @(52,R14),R13
    000009EC 2DD8                   TST         R13,R13
    000009EE 8908                   BT          L1608
    000009F0 52D2                   MOV.L       @(8,R13),R2
    000009F2 E503                   MOV         #3,R5
    000009F4 720C                   ADD         #12,R2
    000009F6 6423                   MOV         R2,R4
    000009F8 2F22                   MOV.L       R2,@R15
    000009FA 5322                   MOV.L       @(8,R2),R3
    000009FC 6442                   MOV.L       @R4,R4
    000009FE 430B                   JSR         @R3
    00000A00 34DC                   ADD         R13,R4
    00000A02              L1608:                            
    00000A02 D21D                   MOV.L       L1810+28,R2; __$__vtbl__6Object
    00000A04 1E22                   MOV.L       R2,@(8,R14)
    00000A06 50F1                   MOV.L       @(4,R15),R0
    00000A08 C801                   TST         #1,R0
    00000A0A 8906                   BT          L1610
    00000A0C D215                   MOV.L       L1810+8,R2 ; ___dl__FPv
    00000A0E 64E3                   MOV         R14,R4
    00000A10 7F08                   ADD         #8,R15
    00000A12 4F26                   LDS.L       @R15+,PR
    00000A14 6DF6                   MOV.L       @R15+,R13
    00000A16 422B                   JMP         @R2
    00000A18 6EF6                   MOV.L       @R15+,R14
    00000A1A              L1610:                            
    00000A1A 7F08                   ADD         #8,R15
    00000A1C 4F26                   LDS.L       @R15+,PR
    00000A1E 6DF6                   MOV.L       @R15+,R13
    00000A20 000B                   RTS
    00000A22 6EF6                   MOV.L       @R15+,R14
    00000A24              _IsActive__10GameObjectFv:       ; function: GameObject::IsActive()
                                                           ; frame size=8
    00000A24 7FF8                   ADD         #-8,R15
    00000A26 5347                   MOV.L       @(28,R4),R3
    00000A28 2338                   TST         R3,R3
    00000A2A 8910                   BT          L1235
    00000A2C 524D                   MOV.L       @(52,R4),R2
    00000A2E E044                   MOV         #68,R0
    00000A30 032E                   MOV.L       @(R0,R2),R3
    00000A32 2338                   TST         R3,R3
    00000A34 890D                   BT          L1613
    00000A36 E044                   MOV         #68,R0
    00000A38 554D                   MOV.L       @(52,R4),R5
    00000A3A 2F52                   MOV.L       R5,@R15
    00000A3C 055E                   MOV.L       @(R0,R5),R5
    00000A3E 1F51                   MOV.L       R5,@(4,R15)
    00000A40 5554                   MOV.L       @(16,R5),R5
    00000A42 5356                   MOV.L       @(24,R5),R3
    00000A44 2338                   TST         R3,R3
    00000A46 8902                   BT          L1235
    00000A48 5357                   MOV.L       @(28,R5),R3




SH SERIES C/C++ Compiler (Ver. 6.0C)                                                                 09-Nov-2021 18:50:40  PAGE   39


SCT OFFSET   CODE       C LABEL     INSTRUCTION OPERAND    COMMENT

    00000A4A 2338                   TST         R3,R3
    00000A4C 8B01                   BF          L1613
    00000A4E              L1235:
    00000A4E A001                   BRA         L1799
    00000A50 E500                   MOV         #0,R5
    00000A52              L1613:                            
    00000A52 E501                   MOV         #1,R5
    00000A54              L1799:                            
    00000A54 1456                   MOV.L       R5,@(24,R4)
    00000A56 6053                   MOV         R5,R0
    00000A58 000B                   RTS
    00000A5A 7F08                   ADD         #8,R15
    00000A5C              L1810:                            
    00000A5C <00000000>             .DATA.L     __$__vtbl__9Behaviour
    00000A60 <00000000>             .DATA.L     ___dt__9ComponentFv
    00000A64 <00000000>             .DATA.L     ___dl__FPv
    00000A68 <00000000>             .DATA.L     ___nw__FUl
    00000A6C <00000000>             .DATA.L     L781
    00000A70 <00000000>             .DATA.L     __$__vtbl__7Texture
    00000A74 <00000000>             .DATA.L     L782
    00000A78 <00000000>             .DATA.L     __$__vtbl__6Object
    00000A7C <00000000>             .DATA.L     __$__vtbl__13MonoBehaviour
    00000A80 <00000000>             .DATA.L     ___vtbl__10GameObject
    00000A84 <00000000>             .DATA.L     L466
    00000A88              _Update__10GameObjectFv:         ; function: GameObject::Update()
                                                           ; frame size=28
    00000A88 2FE6                   MOV.L       R14,@-R15
    00000A8A 6E43                   MOV         R4,R14
    00000A8C 2FD6                   MOV.L       R13,@-R15
    00000A8E 2FC6                   MOV.L       R12,@-R15
    00000A90 2FB6                   MOV.L       R11,@-R15
    00000A92 2FA6                   MOV.L       R10,@-R15
    00000A94 4F22                   STS.L       PR,@-R15
    00000A96 7FFC                   ADD         #-4,R15
    00000A98 9B83                   MOV.W       L1811,R11  ; H'0360
    00000A9A 5DED                   MOV.L       @(52,R14),R13
    00000A9C 2FD2                   MOV.L       R13,@R15
    00000A9E 5DD2                   MOV.L       @(8,R13),R13
    00000AA0 64F2                   MOV.L       @R15,R4
    00000AA2 3DBC                   ADD         R11,R13
    00000AA4 53D2                   MOV.L       @(8,R13),R3
    00000AA6 62D2                   MOV.L       @R13,R2
    00000AA8 430B                   JSR         @R3
    00000AAA 342C                   ADD         R2,R4
    00000AAC BFBA                   BSR         _IsActive__10GameObjectFv
    00000AAE 64E3                   MOV         R14,R4
    00000AB0 2008                   TST         R0,R0
    00000AB2 8910                   BT          L1617
    00000AB4 A00C                   BRA         L1618
    00000AB6 ED00                   MOV         #0,R13
    00000AB8              L1619:                            
    00000AB8 65D3                   MOV         R13,R5
    00000ABA 64E3                   MOV         R14,R4
    00000ABC B0A5                   BSR         __$get__24List__tm__12_P9ComponentFi_Z1Z
    00000ABE 740C                   ADD         #12,R4
    00000AC0 5C02                   MOV.L       @(8,R0),R12
    00000AC2 6A03                   MOV         R0,R10




SH SERIES C/C++ Compiler (Ver. 6.0C)                                                                 09-Nov-2021 18:50:40  PAGE   40


SCT OFFSET   CODE       C LABEL     INSTRUCTION OPERAND    COMMENT

    00000AC4 3CBC                   ADD         R11,R12
    00000AC6 53C2                   MOV.L       @(8,R12),R3
    00000AC8 64C2                   MOV.L       @R12,R4
    00000ACA 430B                   JSR         @R3
    00000ACC 34AC                   ADD         R10,R4
    00000ACE 7D01                   ADD         #1,R13
    00000AD0              L1618:                            
    00000AD0 52E5                   MOV.L       @(20,R14),R2
    00000AD2 3D23                   CMP/GE      R2,R13
    00000AD4 8BF0                   BF          L1619
    00000AD6              L1617:                            
    00000AD6 7F04                   ADD         #4,R15
    00000AD8 4F26                   LDS.L       @R15+,PR
    00000ADA 6AF6                   MOV.L       @R15+,R10
    00000ADC 6BF6                   MOV.L       @R15+,R11
    00000ADE 6CF6                   MOV.L       @R15+,R12
    00000AE0 6DF6                   MOV.L       @R15+,R13
    00000AE2 000B                   RTS
    00000AE4 6EF6                   MOV.L       @R15+,R14
    00000AE6              _Start__10GameObjectFv:          ; function: GameObject::Start()
                                                           ; frame size=28
    00000AE6 2FE6                   MOV.L       R14,@-R15
    00000AE8 2FD6                   MOV.L       R13,@-R15
    00000AEA 6E43                   MOV         R4,R14
    00000AEC 2FC6                   MOV.L       R12,@-R15
    00000AEE 2FB6                   MOV.L       R11,@-R15
    00000AF0 2FA6                   MOV.L       R10,@-R15
    00000AF2 4F22                   STS.L       PR,@-R15
    00000AF4 9B56                   MOV.W       L1811+2,R11; H'0354
    00000AF6 7FFC                   ADD         #-4,R15
    00000AF8 5DED                   MOV.L       @(52,R14),R13
    00000AFA 2FD2                   MOV.L       R13,@R15
    00000AFC 5DD2                   MOV.L       @(8,R13),R13
    00000AFE 3DBC                   ADD         R11,R13
    00000B00 53D2                   MOV.L       @(8,R13),R3
    00000B02 62D2                   MOV.L       @R13,R2
    00000B04 64F2                   MOV.L       @R15,R4
    00000B06 430B                   JSR         @R3
    00000B08 342C                   ADD         R2,R4
    00000B0A BF8B                   BSR         _IsActive__10GameObjectFv
    00000B0C 64E3                   MOV         R14,R4
    00000B0E 2008                   TST         R0,R0
    00000B10 8910                   BT          L1621
    00000B12 A00C                   BRA         L1622
    00000B14 ED00                   MOV         #0,R13
    00000B16              L1623:                            
    00000B16 65D3                   MOV         R13,R5
    00000B18 64E3                   MOV         R14,R4
    00000B1A B076                   BSR         __$get__24List__tm__12_P9ComponentFi_Z1Z
    00000B1C 740C                   ADD         #12,R4
    00000B1E 6A03                   MOV         R0,R10
    00000B20 5C02                   MOV.L       @(8,R0),R12
    00000B22 3CBC                   ADD         R11,R12
    00000B24 53C2                   MOV.L       @(8,R12),R3
    00000B26 64C2                   MOV.L       @R12,R4
    00000B28 430B                   JSR         @R3
    00000B2A 34AC                   ADD         R10,R4




SH SERIES C/C++ Compiler (Ver. 6.0C)                                                                 09-Nov-2021 18:50:40  PAGE   41


SCT OFFSET   CODE       C LABEL     INSTRUCTION OPERAND    COMMENT

    00000B2C 7D01                   ADD         #1,R13
    00000B2E              L1622:                            
    00000B2E 52E5                   MOV.L       @(20,R14),R2
    00000B30 3D23                   CMP/GE      R2,R13
    00000B32 8BF0                   BF          L1623
    00000B34              L1621:                            
    00000B34 7F04                   ADD         #4,R15
    00000B36 4F26                   LDS.L       @R15+,PR
    00000B38 6AF6                   MOV.L       @R15+,R10
    00000B3A 6BF6                   MOV.L       @R15+,R11
    00000B3C 6CF6                   MOV.L       @R15+,R12
    00000B3E 6DF6                   MOV.L       @R15+,R13
    00000B40 000B                   RTS
    00000B42 6EF6                   MOV.L       @R15+,R14
    00000B44              _AddComponent__10GameObjectFP9Component:
                                                           ; function: GameObject::AddComponent(Component *)
                                                           ; frame size=16
    00000B44 2FE6                   MOV.L       R14,@-R15
    00000B46 6E43                   MOV         R4,R14
    00000B48 D317                   MOV.L       L1811+6,R3 ; ___nw__FUl
    00000B4A 2FD6                   MOV.L       R13,@-R15
    00000B4C 4F22                   STS.L       PR,@-R15
    00000B4E 7FFC                   ADD         #-4,R15
    00000B50 2F52                   MOV.L       R5,@R15
    00000B52 430B                   JSR         @R3
    00000B54 E40C                   MOV         #12,R4
    00000B56 2008                   TST         R0,R0
    00000B58 8D06                   BT/S        L1624
    00000B5A 6D03                   MOV         R0,R13
    00000B5C D313                   MOV.L       L1811+10,R3; ___memzero
    00000B5E E50C                   MOV         #12,R5
    00000B60 430B                   JSR         @R3
    00000B62 64D3                   MOV         R13,R4
    00000B64 A001                   BRA         L1625
    00000B66 64D3                   MOV         R13,R4
    00000B68              L1624:                            
    00000B68 E400                   MOV         #0,R4
    00000B6A              L1625:                            
    00000B6A 63F2                   MOV.L       @R15,R3
    00000B6C 2432                   MOV.L       R3,@R4
    00000B6E 52E5                   MOV.L       @(20,R14),R2
    00000B70 7201                   ADD         #1,R2
    00000B72 1E25                   MOV.L       R2,@(20,R14)
    00000B74 53E3                   MOV.L       @(12,R14),R3
    00000B76 2338                   TST         R3,R3
    00000B78 8B01                   BF          L1626
    00000B7A A004                   BRA         L1236
    00000B7C 1E43                   MOV.L       R4,@(12,R14)
    00000B7E              L1626:                            
    00000B7E 53E4                   MOV.L       @(16,R14),R3
    00000B80 1432                   MOV.L       R3,@(8,R4)
    00000B82 52E4                   MOV.L       @(16,R14),R2
    00000B84 1241                   MOV.L       R4,@(4,R2)
    00000B86              L1236:
    00000B86 1E44                   MOV.L       R4,@(16,R14)
    00000B88 7F04                   ADD         #4,R15
    00000B8A 4F26                   LDS.L       @R15+,PR




SH SERIES C/C++ Compiler (Ver. 6.0C)                                                                 09-Nov-2021 18:50:40  PAGE   42


SCT OFFSET   CODE       C LABEL     INSTRUCTION OPERAND    COMMENT

    00000B8C 6DF6                   MOV.L       @R15+,R13
    00000B8E 000B                   RTS
    00000B90 6EF6                   MOV.L       @R15+,R14
    00000B92              _GetComponent__10GameObjectFPCc: ; function: GameObject::GetComponent(const char *)
                                                           ; frame size=16
    00000B92 2FE6                   MOV.L       R14,@-R15
    00000B94 2FD6                   MOV.L       R13,@-R15
    00000B96 6D43                   MOV         R4,R13
    00000B98 4F22                   STS.L       PR,@-R15
    00000B9A 7FFC                   ADD         #-4,R15
    00000B9C 2F52                   MOV.L       R5,@R15
    00000B9E A018                   BRA         L1629
    00000BA0 EE00                   MOV         #0,R14
    00000BA2              L1811:                            
    00000BA2 0360                   .DATA.W     H'0360
    00000BA4 0354                   .DATA.W     H'0354
    00000BA6 0000                   .DATA.W     0
    00000BA8 <00000000>             .DATA.L     ___nw__FUl
    00000BAC <00000000>             .DATA.L     ___memzero
    00000BB0              L1630:                            
    00000BB0 65E3                   MOV         R14,R5
    00000BB2 64D3                   MOV         R13,R4
    00000BB4 B029                   BSR         __$get__24List__tm__12_P9ComponentFi_Z1Z
    00000BB6 740C                   ADD         #12,R4
    00000BB8 63F2                   MOV.L       @R15,R3
    00000BBA 6202                   MOV.L       @R0,R2
    00000BBC 3230                   CMP/EQ      R3,R2
    00000BBE 8B07                   BF          L1631
    00000BC0 65E3                   MOV         R14,R5
    00000BC2 64D3                   MOV         R13,R4
    00000BC4 740C                   ADD         #12,R4
    00000BC6 7F04                   ADD         #4,R15
    00000BC8 4F26                   LDS.L       @R15+,PR
    00000BCA 6DF6                   MOV.L       @R15+,R13
    00000BCC A01D                   BRA         __$get__24List__tm__12_P9ComponentFi_Z1Z
    00000BCE 6EF6                   MOV.L       @R15+,R14
    00000BD0              L1631:                            
    00000BD0 7E01                   ADD         #1,R14
    00000BD2              L1629:                            
    00000BD2 52D5                   MOV.L       @(20,R13),R2
    00000BD4 3E23                   CMP/GE      R2,R14
    00000BD6 8BEB                   BF          L1630
    00000BD8 E000                   MOV         #0,R0
    00000BDA 7F04                   ADD         #4,R15
    00000BDC 4F26                   LDS.L       @R15+,PR
    00000BDE 6DF6                   MOV.L       @R15+,R13
    00000BE0 000B                   RTS
    00000BE2 6EF6                   MOV.L       @R15+,R14
    00000BE4              _Find__10GameObjectFPUc:         ; function: GameObject::Find(unsigned char *)
                                                           ; frame size=8
    00000BE4 D071                   MOV.L       L1812+2,R0 ; _FindWithName__FPUcP10GameObject
    00000BE6 7FF8                   ADD         #-8,R15
    00000BE8 1F41                   MOV.L       R4,@(4,R15)
    00000BEA 2F52                   MOV.L       R5,@R15
    00000BEC 55F1                   MOV.L       @(4,R15),R5
    00000BEE 64F2                   MOV.L       @R15,R4
    00000BF0 402B                   JMP         @R0




SH SERIES C/C++ Compiler (Ver. 6.0C)                                                                 09-Nov-2021 18:50:40  PAGE   43


SCT OFFSET   CODE       C LABEL     INSTRUCTION OPERAND    COMMENT

    00000BF2 7F08                   ADD         #8,R15
    00000BF4              __$get_node__24List__tm__12_P9ComponentFi_P15Node__tm__4_Z1Z:
                                                           ; function: Node<T1> *List<T1>::get_node(int) [with T1=Component *]
                                                           ; frame size=0
    00000BF4 E700                   MOV         #0,R7
    00000BF6 A002                   BRA         L1634
    00000BF8 6642                   MOV.L       @R4,R6
    00000BFA              L1635:                            
    00000BFA 7701                   ADD         #1,R7
    00000BFC 5661                   MOV.L       @(4,R6),R6
    00000BFE              L1634:                            
    00000BFE 2668                   TST         R6,R6
    00000C00 8901                   BT          L1636
    00000C02 3750                   CMP/EQ      R5,R7
    00000C04 8BF9                   BF          L1635
    00000C06              L1636:                            
    00000C06 000B                   RTS
    00000C08 6063                   MOV         R6,R0
    00000C0A              __$get__24List__tm__12_P9ComponentFi_Z1Z:
                                                           ; function: T1 List<T1>::get(int) [with T1=Component *]
                                                           ; frame size=4
    00000C0A E3FF                   MOV         #-1,R3
    00000C0C 4F22                   STS.L       PR,@-R15
    00000C0E 3533                   CMP/GE      R3,R5
    00000C10 8B04                   BF          L1237
    00000C12 BFEF                   BSR         __$get_node__24List__tm__12_P9ComponentFi_P15Node__tm__4_Z1Z
    00000C14 0009                   NOP
    00000C16 6403                   MOV         R0,R4
    00000C18 2448                   TST         R4,R4
    00000C1A 8B02                   BF          L1640
    00000C1C              L1237:
    00000C1C 4F26                   LDS.L       @R15+,PR
    00000C1E 000B                   RTS
    00000C20 E000                   MOV         #0,R0
    00000C22              L1640:                            
    00000C22 6042                   MOV.L       @R4,R0
    00000C24              L1639:                            
    00000C24 4F26                   LDS.L       @R15+,PR
    00000C26 000B                   RTS
    00000C28 0009                   NOP
    00000C2A              _AddGameObject__5SceneFP10GameObject:
                                                           ; function: Scene::AddGameObject(GameObject *)
                                                           ; frame size=16
    00000C2A 2FE6                   MOV.L       R14,@-R15
    00000C2C 2FD6                   MOV.L       R13,@-R15
    00000C2E 6E43                   MOV         R4,R14
    00000C30 D35F                   MOV.L       L1812+6,R3 ; ___nw__FUl
    00000C32 4F22                   STS.L       PR,@-R15
    00000C34 7FFC                   ADD         #-4,R15
    00000C36 2F52                   MOV.L       R5,@R15
    00000C38 430B                   JSR         @R3
    00000C3A E40C                   MOV         #12,R4
    00000C3C 2008                   TST         R0,R0
    00000C3E 8D06                   BT/S        L1641
    00000C40 6D03                   MOV         R0,R13
    00000C42 E50C                   MOV         #12,R5
    00000C44 D35B                   MOV.L       L1812+10,R3; ___memzero




SH SERIES C/C++ Compiler (Ver. 6.0C)                                                                 09-Nov-2021 18:50:40  PAGE   44


SCT OFFSET   CODE       C LABEL     INSTRUCTION OPERAND    COMMENT

    00000C46 430B                   JSR         @R3
    00000C48 64D3                   MOV         R13,R4
    00000C4A A001                   BRA         L1642
    00000C4C 64D3                   MOV         R13,R4
    00000C4E              L1641:                            
    00000C4E E400                   MOV         #0,R4
    00000C50              L1642:                            
    00000C50 63F2                   MOV.L       @R15,R3
    00000C52 2432                   MOV.L       R3,@R4
    00000C54 52E2                   MOV.L       @(8,R14),R2
    00000C56 7201                   ADD         #1,R2
    00000C58 1E22                   MOV.L       R2,@(8,R14)
    00000C5A 63E2                   MOV.L       @R14,R3
    00000C5C 2338                   TST         R3,R3
    00000C5E 8B01                   BF          L1643
    00000C60 A004                   BRA         L1238
    00000C62 2E42                   MOV.L       R4,@R14
    00000C64              L1643:                            
    00000C64 53E1                   MOV.L       @(4,R14),R3
    00000C66 1432                   MOV.L       R3,@(8,R4)
    00000C68 52E1                   MOV.L       @(4,R14),R2
    00000C6A 1241                   MOV.L       R4,@(4,R2)
    00000C6C              L1238:
    00000C6C 1E41                   MOV.L       R4,@(4,R14)
    00000C6E 7F04                   ADD         #4,R15
    00000C70 4F26                   LDS.L       @R15+,PR
    00000C72 6DF6                   MOV.L       @R15+,R13
    00000C74 000B                   RTS
    00000C76 6EF6                   MOV.L       @R15+,R14
    00000C78              _Update__5SceneFv:               ; function: Scene::Update()
                                                           ; frame size=12
    00000C78 2FE6                   MOV.L       R14,@-R15
    00000C7A 2FD6                   MOV.L       R13,@-R15
    00000C7C 4F22                   STS.L       PR,@-R15
    00000C7E 6D43                   MOV         R4,R13
    00000C80 A006                   BRA         L1646
    00000C82 EE00                   MOV         #0,R14
    00000C84              L1647:                            
    00000C84 65E3                   MOV         R14,R5
    00000C86 B028                   BSR         __$get__26List__tm__14_P10GameObjectFi_Z1Z
    00000C88 64D3                   MOV         R13,R4
    00000C8A BEFD                   BSR         _Update__10GameObjectFv
    00000C8C 6403                   MOV         R0,R4
    00000C8E 7E01                   ADD         #1,R14
    00000C90              L1646:                            
    00000C90 52D2                   MOV.L       @(8,R13),R2
    00000C92 3E23                   CMP/GE      R2,R14
    00000C94 8BF6                   BF          L1647
    00000C96 4F26                   LDS.L       @R15+,PR
    00000C98 6DF6                   MOV.L       @R15+,R13
    00000C9A 000B                   RTS
    00000C9C 6EF6                   MOV.L       @R15+,R14
    00000C9E              _Start__5SceneFv:                ; function: Scene::Start()
                                                           ; frame size=12
    00000C9E 2FE6                   MOV.L       R14,@-R15
    00000CA0 2FD6                   MOV.L       R13,@-R15
    00000CA2 6D43                   MOV         R4,R13




SH SERIES C/C++ Compiler (Ver. 6.0C)                                                                 09-Nov-2021 18:50:40  PAGE   45


SCT OFFSET   CODE       C LABEL     INSTRUCTION OPERAND    COMMENT

    00000CA4 4F22                   STS.L       PR,@-R15
    00000CA6 A006                   BRA         L1649
    00000CA8 EE00                   MOV         #0,R14
    00000CAA              L1650:                            
    00000CAA 65E3                   MOV         R14,R5
    00000CAC B015                   BSR         __$get__26List__tm__14_P10GameObjectFi_Z1Z
    00000CAE 64D3                   MOV         R13,R4
    00000CB0 BF19                   BSR         _Start__10GameObjectFv
    00000CB2 6403                   MOV         R0,R4
    00000CB4 7E01                   ADD         #1,R14
    00000CB6              L1649:                            
    00000CB6 52D2                   MOV.L       @(8,R13),R2
    00000CB8 3E23                   CMP/GE      R2,R14
    00000CBA 8BF6                   BF          L1650
    00000CBC 4F26                   LDS.L       @R15+,PR
    00000CBE 6DF6                   MOV.L       @R15+,R13
    00000CC0 000B                   RTS
    00000CC2 6EF6                   MOV.L       @R15+,R14
    00000CC4              __$get_node__26List__tm__14_P10GameObjectFi_P15Node__tm__4_Z1Z:
                                                           ; function: Node<T1> *List<T1>::get_node(int) [with T1=GameObject *]
                                                           ; frame size=0
    00000CC4 E700                   MOV         #0,R7
    00000CC6 A002                   BRA         L1652
    00000CC8 6642                   MOV.L       @R4,R6
    00000CCA              L1653:                            
    00000CCA 7701                   ADD         #1,R7
    00000CCC 5661                   MOV.L       @(4,R6),R6
    00000CCE              L1652:                            
    00000CCE 2668                   TST         R6,R6
    00000CD0 8901                   BT          L1654
    00000CD2 3750                   CMP/EQ      R5,R7
    00000CD4 8BF9                   BF          L1653
    00000CD6              L1654:                            
    00000CD6 000B                   RTS
    00000CD8 6063                   MOV         R6,R0
    00000CDA              __$get__26List__tm__14_P10GameObjectFi_Z1Z:
                                                           ; function: T1 List<T1>::get(int) [with T1=GameObject *]
                                                           ; frame size=4
    00000CDA E3FF                   MOV         #-1,R3
    00000CDC 4F22                   STS.L       PR,@-R15
    00000CDE 3533                   CMP/GE      R3,R5
    00000CE0 8B04                   BF          L1239
    00000CE2 BFEF                   BSR         __$get_node__26List__tm__14_P10GameObjectFi_P15Node__tm__4_Z1Z
    00000CE4 0009                   NOP
    00000CE6 6403                   MOV         R0,R4
    00000CE8 2448                   TST         R4,R4
    00000CEA 8B02                   BF          L1658
    00000CEC              L1239:
    00000CEC 4F26                   LDS.L       @R15+,PR
    00000CEE 000B                   RTS
    00000CF0 E000                   MOV         #0,R0
    00000CF2              L1658:                            
    00000CF2 6042                   MOV.L       @R4,R0
    00000CF4              L1657:                            
    00000CF4 4F26                   LDS.L       @R15+,PR
    00000CF6 000B                   RTS
    00000CF8 0009                   NOP




SH SERIES C/C++ Compiler (Ver. 6.0C)                                                                 09-Nov-2021 18:50:40  PAGE   46


SCT OFFSET   CODE       C LABEL     INSTRUCTION OPERAND    COMMENT

    00000CFA              __$get_node__20List__tm__9_P6CameraFi_P15Node__tm__4_Z1Z:
                                                           ; function: Node<T1> *List<T1>::get_node(int) [with T1=Camera *]
                                                           ; frame size=0
    00000CFA E700                   MOV         #0,R7
    00000CFC A002                   BRA         L1659
    00000CFE 6642                   MOV.L       @R4,R6
    00000D00              L1660:                            
    00000D00 5661                   MOV.L       @(4,R6),R6
    00000D02 7701                   ADD         #1,R7
    00000D04              L1659:                            
    00000D04 2668                   TST         R6,R6
    00000D06 8901                   BT          L1661
    00000D08 3750                   CMP/EQ      R5,R7
    00000D0A 8BF9                   BF          L1660
    00000D0C              L1661:                            
    00000D0C 000B                   RTS
    00000D0E 6063                   MOV         R6,R0
    00000D10              __$get__20List__tm__9_P6CameraFi_Z1Z:
                                                           ; function: T1 List<T1>::get(int) [with T1=Camera *]
                                                           ; frame size=4
    00000D10 4F22                   STS.L       PR,@-R15
    00000D12 E3FF                   MOV         #-1,R3
    00000D14 3533                   CMP/GE      R3,R5
    00000D16 8B04                   BF          L1240
    00000D18 BFEF                   BSR         __$get_node__20List__tm__9_P6CameraFi_P15Node__tm__4_Z1Z
    00000D1A 0009                   NOP
    00000D1C 6403                   MOV         R0,R4
    00000D1E 2448                   TST         R4,R4
    00000D20 8B02                   BF          L1665
    00000D22              L1240:
    00000D22 4F26                   LDS.L       @R15+,PR
    00000D24 000B                   RTS
    00000D26 E000                   MOV         #0,R0
    00000D28              L1665:                            
    00000D28 6042                   MOV.L       @R4,R0
    00000D2A              L1664:                            
    00000D2A 4F26                   LDS.L       @R15+,PR
    00000D2C 000B                   RTS
    00000D2E 0009                   NOP
    00000D30              ___ct__6CameraFP10GameObjectPCc: ; function: Camera::Camera(GameObject *, const char *)
                                                           ; frame size=24
    00000D30 2FE6                   MOV.L       R14,@-R15
    00000D32 2FD6                   MOV.L       R13,@-R15
    00000D34 4F22                   STS.L       PR,@-R15
    00000D36 7FF4                   ADD         #-12,R15
    00000D38 2F42                   MOV.L       R4,@R15
    00000D3A 1F51                   MOV.L       R5,@(4,R15)
    00000D3C 1F62                   MOV.L       R6,@(8,R15)
    00000D3E 63F2                   MOV.L       @R15,R3
    00000D40 2338                   TST         R3,R3
    00000D42 8B05                   BF          L1667
    00000D44 D31A                   MOV.L       L1812+6,R3 ; ___nw__FUl
    00000D46 430B                   JSR         @R3
    00000D48 E420                   MOV         #32,R4
    00000D4A 2008                   TST         R0,R0
    00000D4C 8D27                   BT/S        L1666
    00000D4E 2F02                   MOV.L       R0,@R15




SH SERIES C/C++ Compiler (Ver. 6.0C)                                                                 09-Nov-2021 18:50:40  PAGE   47


SCT OFFSET   CODE       C LABEL     INSTRUCTION OPERAND    COMMENT

    00000D50              L1667:                            
    00000D50 57F2                   MOV.L       @(8,R15),R7
    00000D52 56F1                   MOV.L       @(4,R15),R6
    00000D54 D518                   MOV.L       L1812+14,R5; L471
    00000D56 BD32                   BSR         ___ct__9BehaviourFPCcP10GameObjectT1
    00000D58 64F2                   MOV.L       @R15,R4
    00000D5A 62F2                   MOV.L       @R15,R2
    00000D5C D317                   MOV.L       L1812+18,R3; __$__vtbl__6Camera
    00000D5E 1232                   MOV.L       R3,@(8,R2)
    00000D60 5EF1                   MOV.L       @(4,R15),R14
    00000D62 5EEA                   MOV.L       @(40,R14),R14
    00000D64 D312                   MOV.L       L1812+6,R3 ; ___nw__FUl
    00000D66 7E24                   ADD         #36,R14
    00000D68 430B                   JSR         @R3
    00000D6A E40C                   MOV         #12,R4
    00000D6C 2008                   TST         R0,R0
    00000D6E 8D06                   BT/S        L1668
    00000D70 6D03                   MOV         R0,R13
    00000D72 E50C                   MOV         #12,R5
    00000D74 D30F                   MOV.L       L1812+10,R3; ___memzero
    00000D76 430B                   JSR         @R3
    00000D78 64D3                   MOV         R13,R4
    00000D7A A001                   BRA         L1669
    00000D7C 64D3                   MOV         R13,R4
    00000D7E              L1668:                            
    00000D7E E400                   MOV         #0,R4
    00000D80              L1669:                            
    00000D80 63F2                   MOV.L       @R15,R3
    00000D82 2432                   MOV.L       R3,@R4
    00000D84 52E2                   MOV.L       @(8,R14),R2
    00000D86 7201                   ADD         #1,R2
    00000D88 1E22                   MOV.L       R2,@(8,R14)
    00000D8A 63E2                   MOV.L       @R14,R3
    00000D8C 2338                   TST         R3,R3
    00000D8E 8B01                   BF          L1670
    00000D90 A004                   BRA         L1241
    00000D92 2E42                   MOV.L       R4,@R14
    00000D94              L1670:                            
    00000D94 53E1                   MOV.L       @(4,R14),R3
    00000D96 1432                   MOV.L       R3,@(8,R4)
    00000D98 52E1                   MOV.L       @(4,R14),R2
    00000D9A 1241                   MOV.L       R4,@(4,R2)
    00000D9C              L1241:
    00000D9C 1E41                   MOV.L       R4,@(4,R14)
    00000D9E              L1666:                            
    00000D9E 60F2                   MOV.L       @R15,R0
    00000DA0 7F0C                   ADD         #12,R15
    00000DA2 4F26                   LDS.L       @R15+,PR
    00000DA4 6DF6                   MOV.L       @R15+,R13
    00000DA6 000B                   RTS
    00000DA8 6EF6                   MOV.L       @R15+,R14
    00000DAA              L1812:                            
    00000DAA 0000                   .DATA.W     0
    00000DAC <00000000>             .DATA.L     _FindWithName__FPUcP10GameObject
    00000DB0 <00000000>             .DATA.L     ___nw__FUl
    00000DB4 <00000000>             .DATA.L     ___memzero
    00000DB8 <00000000>             .DATA.L     L471




SH SERIES C/C++ Compiler (Ver. 6.0C)                                                                 09-Nov-2021 18:50:40  PAGE   48


SCT OFFSET   CODE       C LABEL     INSTRUCTION OPERAND    COMMENT

    00000DBC <00000000>             .DATA.L     __$__vtbl__6Camera
    00000DC0              __$__dt__6CameraFv:              ; function: Camera::~Camera()
                                                           ; frame size=12
    00000DC0 2FE6                   MOV.L       R14,@-R15
    00000DC2 6E43                   MOV         R4,R14
    00000DC4 4F22                   STS.L       PR,@-R15
    00000DC6 2EE8                   TST         R14,R14
    00000DC8 7FFC                   ADD         #-4,R15
    00000DCA 8D10                   BT/S        L1675
    00000DCC 2F52                   MOV.L       R5,@R15
    00000DCE E500                   MOV         #0,R5
    00000DD0 D270                   MOV.L       L1813,R2   ; __$__vtbl__6Camera
    00000DD2 D371                   MOV.L       L1813+4,R3 ; __$__vtbl__9Behaviour
    00000DD4 D271                   MOV.L       L1813+8,R2 ; ___dt__9ComponentFv
    00000DD6 1E32                   MOV.L       R3,@(8,R14)
    00000DD8 420B                   JSR         @R2
    00000DDA 64E3                   MOV         R14,R4
    00000DDC 60F2                   MOV.L       @R15,R0
    00000DDE C801                   TST         #1,R0
    00000DE0 8905                   BT          L1675
    00000DE2 64E3                   MOV         R14,R4
    00000DE4 D26E                   MOV.L       L1813+12,R2; ___dl__FPv
    00000DE6 7F04                   ADD         #4,R15
    00000DE8 4F26                   LDS.L       @R15+,PR
    00000DEA 422B                   JMP         @R2
    00000DEC 6EF6                   MOV.L       @R15+,R14
    00000DEE              L1675:                            
    00000DEE 7F04                   ADD         #4,R15
    00000DF0 4F26                   LDS.L       @R15+,PR
    00000DF2 000B                   RTS
    00000DF4 6EF6                   MOV.L       @R15+,R14
    00000DF6              ___ct__5ImageFP10GameObjectP7TexturePCc:
                                                           ; function: Image::Image(GameObject *, Texture *, const char *)
                                                           ; frame size=20
    00000DF6 4F22                   STS.L       PR,@-R15
    00000DF8 7FF0                   ADD         #-16,R15
    00000DFA 2F42                   MOV.L       R4,@R15
    00000DFC 1F52                   MOV.L       R5,@(8,R15)
    00000DFE 1F61                   MOV.L       R6,@(4,R15)
    00000E00 1F73                   MOV.L       R7,@(12,R15)
    00000E02 63F2                   MOV.L       @R15,R3
    00000E04 2338                   TST         R3,R3
    00000E06 8B05                   BF          L1677
    00000E08 D366                   MOV.L       L1813+16,R3; ___nw__FUl
    00000E0A 430B                   JSR         @R3
    00000E0C E428                   MOV         #40,R4
    00000E0E 2008                   TST         R0,R0
    00000E10 8D0B                   BT/S        L1676
    00000E12 2F02                   MOV.L       R0,@R15
    00000E14              L1677:                            
    00000E14 57F3                   MOV.L       @(12,R15),R7
    00000E16 56F2                   MOV.L       @(8,R15),R6
    00000E18 D563                   MOV.L       L1813+20,R5; L472
    00000E1A BD65                   BSR         ___ct__13MonoBehaviourFPCcP10GameObjectT1
    00000E1C 64F2                   MOV.L       @R15,R4
    00000E1E 62F2                   MOV.L       @R15,R2
    00000E20 D362                   MOV.L       L1813+24,R3; ___vtbl__5Image




SH SERIES C/C++ Compiler (Ver. 6.0C)                                                                 09-Nov-2021 18:50:40  PAGE   49


SCT OFFSET   CODE       C LABEL     INSTRUCTION OPERAND    COMMENT

    00000E22 1232                   MOV.L       R3,@(8,R2)
    00000E24 62F2                   MOV.L       @R15,R2
    00000E26 53F1                   MOV.L       @(4,R15),R3
    00000E28 1239                   MOV.L       R3,@(36,R2)
    00000E2A              L1676:                            
    00000E2A 60F2                   MOV.L       @R15,R0
    00000E2C 7F10                   ADD         #16,R15
    00000E2E 4F26                   LDS.L       @R15+,PR
    00000E30 000B                   RTS
    00000E32 0009                   NOP
    00000E34              _Update__5ImageFv:               ; function: Image::Update()
                                                           ; frame size=44
                                                           ; used runtime library name:
                                                           ; __adds, __subs, __stoi, __itos, __gts, __lts
    00000E34 2FE6                   MOV.L       R14,@-R15
    00000E36 E048                   MOV         #72,R0
    00000E38 2FD6                   MOV.L       R13,@-R15
    00000E3A 6E43                   MOV         R4,R14
    00000E3C 2FC6                   MOV.L       R12,@-R15
    00000E3E E500                   MOV         #0,R5
    00000E40 2FB6                   MOV.L       R11,@-R15
    00000E42 2FA6                   MOV.L       R10,@-R15
    00000E44 4F22                   STS.L       PR,@-R15
    00000E46 7FF0                   ADD         #-16,R15
    00000E48 54E4                   MOV.L       @(16,R14),R4
    00000E4A 1F41                   MOV.L       R4,@(4,R15)
    00000E4C 544D                   MOV.L       @(52,R4),R4
    00000E4E 1F42                   MOV.L       R4,@(8,R15)
    00000E50 044E                   MOV.L       @(R0,R4),R4
    00000E52 6342                   MOV.L       @R4,R3
    00000E54 1F33                   MOV.L       R3,@(12,R15)
    00000E56 5C41                   MOV.L       @(4,R4),R12
    00000E58 53F1                   MOV.L       @(4,R15),R3
    00000E5A 513A                   MOV.L       @(40,R3),R1
    00000E5C 7124                   ADD         #36,R1
    00000E5E 2F12                   MOV.L       R1,@R15
    00000E60 BF56                   BSR         __$get__20List__tm__9_P6CameraFi_Z1Z
    00000E62 6413                   MOV         R1,R4
    00000E64 5204                   MOV.L       @(16,R0),R2
    00000E66 E500                   MOV         #0,R5
    00000E68 532D                   MOV.L       @(52,R2),R3
    00000E6A E048                   MOV         #72,R0
    00000E6C 013E                   MOV.L       @(R0,R3),R1
    00000E6E 6212                   MOV.L       @R1,R2
    00000E70 1F21                   MOV.L       R2,@(4,R15)
    00000E72 5DE4                   MOV.L       @(16,R14),R13
    00000E74 5DDA                   MOV.L       @(40,R13),R13
    00000E76 7D24                   ADD         #36,R13
    00000E78 2FD2                   MOV.L       R13,@R15
    00000E7A BF49                   BSR         __$get__20List__tm__9_P6CameraFi_Z1Z
    00000E7C 64D3                   MOV         R13,R4
    00000E7E 5D04                   MOV.L       @(16,R0),R13
    00000E80 51F3                   MOV.L       @(12,R15),R1
    00000E82 E048                   MOV         #72,R0
    00000E84 D34A                   MOV.L       L1813+28,R3; __subs
    00000E86 5DDD                   MOV.L       @(52,R13),R13
    00000E88 0DDE                   MOV.L       @(R0,R13),R13




SH SERIES C/C++ Compiler (Ver. 6.0C)                                                                 09-Nov-2021 18:50:40  PAGE   50


SCT OFFSET   CODE       C LABEL     INSTRUCTION OPERAND    COMMENT

    00000E8A 5DD1                   MOV.L       @(4,R13),R13
    00000E8C 430B                   JSR         @R3
    00000E8E 50F1                   MOV.L       @(4,R15),R0
    00000E90 D348                   MOV.L       L1813+32,R3; __itos
    00000E92 6B03                   MOV         R0,R11
    00000E94 50E9                   MOV.L       @(36,R14),R0
    00000E96 430B                   JSR         @R3
    00000E98 5006                   MOV.L       @(24,R0),R0
    00000E9A 6403                   MOV         R0,R4
    00000E9C D246                   MOV.L       L1813+36,R2; __adds
    00000E9E 420B                   JSR         @R2
    00000EA0 61B3                   MOV         R11,R1
    00000EA2 D346                   MOV.L       L1813+40,R3; __lts
    00000EA4 430B                   JSR         @R3
    00000EA6 E100                   MOV         #0,R1
    00000EA8 8800                   CMP/EQ      #0,R0
    00000EAA 8930                   BT          L1680
    00000EAC D044                   MOV.L       L1813+44,R0; H'43000000
    00000EAE D243                   MOV.L       L1813+40,R2; __lts
    00000EB0 420B                   JSR         @R2
    00000EB2 61B3                   MOV         R11,R1
    00000EB4 8800                   CMP/EQ      #0,R0
    00000EB6 892A                   BT          L1680
    00000EB8 D33F                   MOV.L       L1813+36,R3; __adds
    00000EBA 6143                   MOV         R4,R1
    00000EBC 430B                   JSR         @R3
    00000EBE 60C3                   MOV         R12,R0
    00000EC0 D23B                   MOV.L       L1813+28,R2; __subs
    00000EC2 6103                   MOV         R0,R1
    00000EC4 420B                   JSR         @R2
    00000EC6 60D3                   MOV         R13,R0
    00000EC8 D33C                   MOV.L       L1813+40,R3; __lts
    00000ECA 430B                   JSR         @R3
    00000ECC E100                   MOV         #0,R1
    00000ECE 8800                   CMP/EQ      #0,R0
    00000ED0 891D                   BT          L1680
    00000ED2 61C3                   MOV         R12,R1
    00000ED4 D236                   MOV.L       L1813+28,R2; __subs
    00000ED6 420B                   JSR         @R2
    00000ED8 60D3                   MOV         R13,R0
    00000EDA D13A                   MOV.L       L1813+48,R1; H'42800000
    00000EDC D33A                   MOV.L       L1813+52,R3; __gts
    00000EDE 430B                   JSR         @R3
    00000EE0 0009                   NOP
    00000EE2 8800                   CMP/EQ      #0,R0
    00000EE4 8913                   BT          L1680
    00000EE6 61C3                   MOV         R12,R1
    00000EE8 D331                   MOV.L       L1813+28,R3; __subs
    00000EEA 5AE9                   MOV.L       @(36,R14),R10
    00000EEC 52A6                   MOV.L       @(24,R10),R2
    00000EEE 2F26                   MOV.L       R2,@-R15
    00000EF0 57A8                   MOV.L       @(32,R10),R7
    00000EF2 430B                   JSR         @R3
    00000EF4 60D3                   MOV         R13,R0
    00000EF6 D235                   MOV.L       L1813+56,R2; __stoi
    00000EF8 420B                   JSR         @R2
    00000EFA 0009                   NOP




SH SERIES C/C++ Compiler (Ver. 6.0C)                                                                 09-Nov-2021 18:50:40  PAGE   51


SCT OFFSET   CODE       C LABEL     INSTRUCTION OPERAND    COMMENT

    00000EFC D333                   MOV.L       L1813+56,R3; __stoi
    00000EFE 6603                   MOV         R0,R6
    00000F00 430B                   JSR         @R3
    00000F02 60B3                   MOV         R11,R0
    00000F04 D232                   MOV.L       L1813+60,R2; _ML_bmp_or_cl
    00000F06 6503                   MOV         R0,R5
    00000F08 420B                   JSR         @R2
    00000F0A 54A3                   MOV.L       @(12,R10),R4
    00000F0C 7F04                   ADD         #4,R15
    00000F0E              L1680:                            
    00000F0E 7F10                   ADD         #16,R15
    00000F10 4F26                   LDS.L       @R15+,PR
    00000F12 6AF6                   MOV.L       @R15+,R10
    00000F14 6BF6                   MOV.L       @R15+,R11
    00000F16 6CF6                   MOV.L       @R15+,R12
    00000F18 6DF6                   MOV.L       @R15+,R13
    00000F1A 000B                   RTS
    00000F1C 6EF6                   MOV.L       @R15+,R14
    00000F1E              __$__dt__5ImageFv:               ; function: Image::~Image()
                                                           ; frame size=12
    00000F1E 2FE6                   MOV.L       R14,@-R15
    00000F20 4F22                   STS.L       PR,@-R15
    00000F22 6E43                   MOV         R4,R14
    00000F24 7FFC                   ADD         #-4,R15
    00000F26 2EE8                   TST         R14,R14
    00000F28 8D11                   BT/S        L1683
    00000F2A 2F52                   MOV.L       R5,@R15
    00000F2C D21F                   MOV.L       L1813+24,R2; ___vtbl__5Image
    00000F2E E500                   MOV         #0,R5
    00000F30 D328                   MOV.L       L1813+64,R3; __$__vtbl__13MonoBehaviour
    00000F32 D219                   MOV.L       L1813+4,R2 ; __$__vtbl__9Behaviour
    00000F34 D319                   MOV.L       L1813+8,R3 ; ___dt__9ComponentFv
    00000F36 1E22                   MOV.L       R2,@(8,R14)
    00000F38 430B                   JSR         @R3
    00000F3A 64E3                   MOV         R14,R4
    00000F3C 60F2                   MOV.L       @R15,R0
    00000F3E C801                   TST         #1,R0
    00000F40 8905                   BT          L1683
    00000F42 64E3                   MOV         R14,R4
    00000F44 D216                   MOV.L       L1813+12,R2; ___dl__FPv
    00000F46 7F04                   ADD         #4,R15
    00000F48 4F26                   LDS.L       @R15+,PR
    00000F4A 422B                   JMP         @R2
    00000F4C 6EF6                   MOV.L       @R15+,R14
    00000F4E              L1683:                            
    00000F4E 7F04                   ADD         #4,R15
    00000F50 4F26                   LDS.L       @R15+,PR
    00000F52 000B                   RTS
    00000F54 6EF6                   MOV.L       @R15+,R14
    00000F56              ___ct__6SpriteFP10GameObjectP7TexturePCc:
                                                           ; function: Sprite::Sprite(GameObject *, Texture *, const char *)
                                                           ; frame size=20
    00000F56 4F22                   STS.L       PR,@-R15
    00000F58 7FF0                   ADD         #-16,R15
    00000F5A 2F42                   MOV.L       R4,@R15
    00000F5C 1F52                   MOV.L       R5,@(8,R15)
    00000F5E 1F61                   MOV.L       R6,@(4,R15)




SH SERIES C/C++ Compiler (Ver. 6.0C)                                                                 09-Nov-2021 18:50:40  PAGE   52


SCT OFFSET   CODE       C LABEL     INSTRUCTION OPERAND    COMMENT

    00000F60 1F73                   MOV.L       R7,@(12,R15)
    00000F62 63F2                   MOV.L       @R15,R3
    00000F64 2338                   TST         R3,R3
    00000F66 8B05                   BF          L1685
    00000F68 D30E                   MOV.L       L1813+16,R3; ___nw__FUl
    00000F6A 430B                   JSR         @R3
    00000F6C E428                   MOV         #40,R4
    00000F6E 2008                   TST         R0,R0
    00000F70 8D0B                   BT/S        L1684
    00000F72 2F02                   MOV.L       R0,@R15
    00000F74              L1685:                            
    00000F74 57F3                   MOV.L       @(12,R15),R7
    00000F76 56F2                   MOV.L       @(8,R15),R6
    00000F78 D517                   MOV.L       L1813+68,R5; L473
    00000F7A BCB5                   BSR         ___ct__13MonoBehaviourFPCcP10GameObjectT1
    00000F7C 64F2                   MOV.L       @R15,R4
    00000F7E 62F2                   MOV.L       @R15,R2
    00000F80 D316                   MOV.L       L1813+72,R3; ___vtbl__6Sprite
    00000F82 1232                   MOV.L       R3,@(8,R2)
    00000F84 62F2                   MOV.L       @R15,R2
    00000F86 53F1                   MOV.L       @(4,R15),R3
    00000F88 1239                   MOV.L       R3,@(36,R2)
    00000F8A              L1684:                            
    00000F8A 60F2                   MOV.L       @R15,R0
    00000F8C 7F10                   ADD         #16,R15
    00000F8E 4F26                   LDS.L       @R15+,PR
    00000F90 000B                   RTS
    00000F92 0009                   NOP
    00000F94              L1813:                            
    00000F94 <00000000>             .DATA.L     __$__vtbl__6Camera
    00000F98 <00000000>             .DATA.L     __$__vtbl__9Behaviour
    00000F9C <00000000>             .DATA.L     ___dt__9ComponentFv
    00000FA0 <00000000>             .DATA.L     ___dl__FPv
    00000FA4 <00000000>             .DATA.L     ___nw__FUl
    00000FA8 <00000000>             .DATA.L     L472
    00000FAC <00000000>             .DATA.L     ___vtbl__5Image
    00000FB0 <00000000>             .DATA.L     __subs
    00000FB4 <00000000>             .DATA.L     __itos
    00000FB8 <00000000>             .DATA.L     __adds
    00000FBC <00000000>             .DATA.L     __lts
    00000FC0 43000000               .DATA.L     H'43000000
    00000FC4 42800000               .DATA.L     H'42800000
    00000FC8 <00000000>             .DATA.L     __gts
    00000FCC <00000000>             .DATA.L     __stoi
    00000FD0 <00000000>             .DATA.L     _ML_bmp_or_cl
    00000FD4 <00000000>             .DATA.L     __$__vtbl__13MonoBehaviour
    00000FD8 <00000000>             .DATA.L     L473
    00000FDC <00000000>             .DATA.L     ___vtbl__6Sprite
    00000FE0              _Update__6SpriteFv:              ; function: Sprite::Update()
                                                           ; frame size=44
                                                           ; used runtime library name:
                                                           ; __adds, __subs, __stoi, __itos, __gts, __lts
    00000FE0 2FE6                   MOV.L       R14,@-R15
    00000FE2 E048                   MOV         #72,R0
    00000FE4 2FD6                   MOV.L       R13,@-R15
    00000FE6 6E43                   MOV         R4,R14
    00000FE8 2FC6                   MOV.L       R12,@-R15




SH SERIES C/C++ Compiler (Ver. 6.0C)                                                                 09-Nov-2021 18:50:40  PAGE   53


SCT OFFSET   CODE       C LABEL     INSTRUCTION OPERAND    COMMENT

    00000FEA E500                   MOV         #0,R5
    00000FEC 2FB6                   MOV.L       R11,@-R15
    00000FEE 2FA6                   MOV.L       R10,@-R15
    00000FF0 4F22                   STS.L       PR,@-R15
    00000FF2 7FF0                   ADD         #-16,R15
    00000FF4 54E4                   MOV.L       @(16,R14),R4
    00000FF6 1F41                   MOV.L       R4,@(4,R15)
    00000FF8 544D                   MOV.L       @(52,R4),R4
    00000FFA 1F42                   MOV.L       R4,@(8,R15)
    00000FFC 044E                   MOV.L       @(R0,R4),R4
    00000FFE 6342                   MOV.L       @R4,R3
    00001000 1F33                   MOV.L       R3,@(12,R15)
    00001002 5C41                   MOV.L       @(4,R4),R12
    00001004 53F1                   MOV.L       @(4,R15),R3
    00001006 513A                   MOV.L       @(40,R3),R1
    00001008 7124                   ADD         #36,R1
    0000100A 2F12                   MOV.L       R1,@R15
    0000100C BE80                   BSR         __$get__20List__tm__9_P6CameraFi_Z1Z
    0000100E 6413                   MOV         R1,R4
    00001010 5204                   MOV.L       @(16,R0),R2
    00001012 E500                   MOV         #0,R5
    00001014 532D                   MOV.L       @(52,R2),R3
    00001016 E048                   MOV         #72,R0
    00001018 013E                   MOV.L       @(R0,R3),R1
    0000101A 6212                   MOV.L       @R1,R2
    0000101C 1F21                   MOV.L       R2,@(4,R15)
    0000101E 5DE4                   MOV.L       @(16,R14),R13
    00001020 5DDA                   MOV.L       @(40,R13),R13
    00001022 7D24                   ADD         #36,R13
    00001024 2FD2                   MOV.L       R13,@R15
    00001026 BE73                   BSR         __$get__20List__tm__9_P6CameraFi_Z1Z
    00001028 64D3                   MOV         R13,R4
    0000102A 5D04                   MOV.L       @(16,R0),R13
    0000102C 51F3                   MOV.L       @(12,R15),R1
    0000102E E048                   MOV         #72,R0
    00001030 D38D                   MOV.L       L1814+2,R3 ; __subs
    00001032 5DDD                   MOV.L       @(52,R13),R13
    00001034 0DDE                   MOV.L       @(R0,R13),R13
    00001036 5DD1                   MOV.L       @(4,R13),R13
    00001038 430B                   JSR         @R3
    0000103A 50F1                   MOV.L       @(4,R15),R0
    0000103C D38B                   MOV.L       L1814+6,R3 ; __itos
    0000103E 6B03                   MOV         R0,R11
    00001040 50E9                   MOV.L       @(36,R14),R0
    00001042 430B                   JSR         @R3
    00001044 5006                   MOV.L       @(24,R0),R0
    00001046 6403                   MOV         R0,R4
    00001048 D289                   MOV.L       L1814+10,R2; __adds
    0000104A 420B                   JSR         @R2
    0000104C 61B3                   MOV         R11,R1
    0000104E D389                   MOV.L       L1814+14,R3; __lts
    00001050 430B                   JSR         @R3
    00001052 E100                   MOV         #0,R1
    00001054 8800                   CMP/EQ      #0,R0
    00001056 8930                   BT          L1688
    00001058 D087                   MOV.L       L1814+18,R0; H'43000000
    0000105A D286                   MOV.L       L1814+14,R2; __lts




SH SERIES C/C++ Compiler (Ver. 6.0C)                                                                 09-Nov-2021 18:50:40  PAGE   54


SCT OFFSET   CODE       C LABEL     INSTRUCTION OPERAND    COMMENT

    0000105C 420B                   JSR         @R2
    0000105E 61B3                   MOV         R11,R1
    00001060 8800                   CMP/EQ      #0,R0
    00001062 892A                   BT          L1688
    00001064 D382                   MOV.L       L1814+10,R3; __adds
    00001066 6143                   MOV         R4,R1
    00001068 430B                   JSR         @R3
    0000106A 60C3                   MOV         R12,R0
    0000106C D27E                   MOV.L       L1814+2,R2 ; __subs
    0000106E 6103                   MOV         R0,R1
    00001070 420B                   JSR         @R2
    00001072 60D3                   MOV         R13,R0
    00001074 D37F                   MOV.L       L1814+14,R3; __lts
    00001076 430B                   JSR         @R3
    00001078 E100                   MOV         #0,R1
    0000107A 8800                   CMP/EQ      #0,R0
    0000107C 891D                   BT          L1688
    0000107E 61C3                   MOV         R12,R1
    00001080 D279                   MOV.L       L1814+2,R2 ; __subs
    00001082 420B                   JSR         @R2
    00001084 60D3                   MOV         R13,R0
    00001086 D17D                   MOV.L       L1814+22,R1; H'42800000
    00001088 D37D                   MOV.L       L1814+26,R3; __gts
    0000108A 430B                   JSR         @R3
    0000108C 0009                   NOP
    0000108E 8800                   CMP/EQ      #0,R0
    00001090 8913                   BT          L1688
    00001092 61C3                   MOV         R12,R1
    00001094 D374                   MOV.L       L1814+2,R3 ; __subs
    00001096 5AE9                   MOV.L       @(36,R14),R10
    00001098 52A6                   MOV.L       @(24,R10),R2
    0000109A 2F26                   MOV.L       R2,@-R15
    0000109C 57A8                   MOV.L       @(32,R10),R7
    0000109E 430B                   JSR         @R3
    000010A0 60D3                   MOV         R13,R0
    000010A2 D278                   MOV.L       L1814+30,R2; __stoi
    000010A4 420B                   JSR         @R2
    000010A6 0009                   NOP
    000010A8 D376                   MOV.L       L1814+30,R3; __stoi
    000010AA 6603                   MOV         R0,R6
    000010AC 430B                   JSR         @R3
    000010AE 60B3                   MOV         R11,R0
    000010B0 D275                   MOV.L       L1814+34,R2; _ML_bmp_or_cl
    000010B2 6503                   MOV         R0,R5
    000010B4 420B                   JSR         @R2
    000010B6 54A3                   MOV.L       @(12,R10),R4
    000010B8 7F04                   ADD         #4,R15
    000010BA              L1688:                            
    000010BA 7F10                   ADD         #16,R15
    000010BC 4F26                   LDS.L       @R15+,PR
    000010BE 6AF6                   MOV.L       @R15+,R10
    000010C0 6BF6                   MOV.L       @R15+,R11
    000010C2 6CF6                   MOV.L       @R15+,R12
    000010C4 6DF6                   MOV.L       @R15+,R13
    000010C6 000B                   RTS
    000010C8 6EF6                   MOV.L       @R15+,R14
    000010CA              __$__dt__6SpriteFv:              ; function: Sprite::~Sprite()




SH SERIES C/C++ Compiler (Ver. 6.0C)                                                                 09-Nov-2021 18:50:40  PAGE   55


SCT OFFSET   CODE       C LABEL     INSTRUCTION OPERAND    COMMENT

                                                           ; frame size=12
    000010CA 2FE6                   MOV.L       R14,@-R15
    000010CC 4F22                   STS.L       PR,@-R15
    000010CE 6E43                   MOV         R4,R14
    000010D0 7FFC                   ADD         #-4,R15
    000010D2 2EE8                   TST         R14,R14
    000010D4 8D11                   BT/S        L1691
    000010D6 2F52                   MOV.L       R5,@R15
    000010D8 D26C                   MOV.L       L1814+38,R2; ___vtbl__6Sprite
    000010DA E500                   MOV         #0,R5
    000010DC D36C                   MOV.L       L1814+42,R3; __$__vtbl__13MonoBehaviour
    000010DE D26D                   MOV.L       L1814+46,R2; __$__vtbl__9Behaviour
    000010E0 D36D                   MOV.L       L1814+50,R3; ___dt__9ComponentFv
    000010E2 1E22                   MOV.L       R2,@(8,R14)
    000010E4 430B                   JSR         @R3
    000010E6 64E3                   MOV         R14,R4
    000010E8 60F2                   MOV.L       @R15,R0
    000010EA C801                   TST         #1,R0
    000010EC 8905                   BT          L1691
    000010EE 64E3                   MOV         R14,R4
    000010F0 D26A                   MOV.L       L1814+54,R2; ___dl__FPv
    000010F2 7F04                   ADD         #4,R15
    000010F4 4F26                   LDS.L       @R15+,PR
    000010F6 422B                   JMP         @R2
    000010F8 6EF6                   MOV.L       @R15+,R14
    000010FA              L1691:                            
    000010FA 7F04                   ADD         #4,R15
    000010FC 4F26                   LDS.L       @R15+,PR
    000010FE 000B                   RTS
    00001100 6EF6                   MOV.L       @R15+,R14
    00001102              ___ct__9RigidbodyFP10GameObjectfbT3PCc:
                                                           ; function: Rigidbody::Rigidbody(GameObject *, float, bool, bool, const c
                        +                                  har *)
                                                           ; frame size=24
    00001102 2F86                   MOV.L       R8,@-R15
    00001104 4F22                   STS.L       PR,@-R15
    00001106 7FF0                   ADD         #-16,R15
    00001108 2F42                   MOV.L       R4,@R15
    0000110A 1F53                   MOV.L       R5,@(12,R15)
    0000110C 1F62                   MOV.L       R6,@(8,R15)
    0000110E 1F71                   MOV.L       R7,@(4,R15)
    00001110 63F2                   MOV.L       @R15,R3
    00001112 2338                   TST         R3,R3
    00001114 8B05                   BF          L1693
    00001116 D362                   MOV.L       L1814+58,R3; ___nw__FUl
    00001118 430B                   JSR         @R3
    0000111A E434                   MOV         #52,R4
    0000111C 2008                   TST         R0,R0
    0000111E 8D17                   BT/S        L1692
    00001120 2F02                   MOV.L       R0,@R15
    00001122              L1693:                            
    00001122 57F7                   MOV.L       @(28,R15),R7
    00001124 56F3                   MOV.L       @(12,R15),R6
    00001126 D55F                   MOV.L       L1814+62,R5; L474
    00001128 BBDE                   BSR         ___ct__13MonoBehaviourFPCcP10GameObjectT1
    0000112A 64F2                   MOV.L       @R15,R4
    0000112C 62F2                   MOV.L       @R15,R2




SH SERIES C/C++ Compiler (Ver. 6.0C)                                                                 09-Nov-2021 18:50:40  PAGE   56


SCT OFFSET   CODE       C LABEL     INSTRUCTION OPERAND    COMMENT

    0000112E D35E                   MOV.L       L1814+66,R3; ___vtbl__9Rigidbody
    00001130 1232                   MOV.L       R3,@(8,R2)
    00001132 62F2                   MOV.L       @R15,R2
    00001134 53F2                   MOV.L       @(8,R15),R3
    00001136 1239                   MOV.L       R3,@(36,R2)
    00001138 62F2                   MOV.L       @R15,R2
    0000113A 53F1                   MOV.L       @(4,R15),R3
    0000113C 123A                   MOV.L       R3,@(40,R2)
    0000113E 62F2                   MOV.L       @R15,R2
    00001140 53F6                   MOV.L       @(24,R15),R3
    00001142 123B                   MOV.L       R3,@(44,R2)
    00001144 68F2                   MOV.L       @R15,R8
    00001146 7830                   ADD         #48,R8
    00001148 D358                   MOV.L       L1814+70,R3; ___ct__7Vector2Fv
    0000114A 430B                   JSR         @R3
    0000114C E400                   MOV         #0,R4
    0000114E 2802                   MOV.L       R0,@R8
    00001150              L1692:                            
    00001150 60F2                   MOV.L       @R15,R0
    00001152 7F10                   ADD         #16,R15
    00001154 4F26                   LDS.L       @R15+,PR
    00001156 000B                   RTS
    00001158 68F6                   MOV.L       @R15+,R8
    0000115A              ___dt__9RigidbodyFv:             ; function: Rigidbody::~Rigidbody()
                                                           ; frame size=12
    0000115A 2FE6                   MOV.L       R14,@-R15
    0000115C 4F22                   STS.L       PR,@-R15
    0000115E 6E43                   MOV         R4,R14
    00001160 7FFC                   ADD         #-4,R15
    00001162 2EE8                   TST         R14,R14
    00001164 8D15                   BT/S        L1697
    00001166 2F52                   MOV.L       R5,@R15
    00001168 D24F                   MOV.L       L1814+66,R2; ___vtbl__9Rigidbody
    0000116A 1E22                   MOV.L       R2,@(8,R14)
    0000116C D34B                   MOV.L       L1814+54,R3; ___dl__FPv
    0000116E 430B                   JSR         @R3
    00001170 54EC                   MOV.L       @(48,R14),R4
    00001172 E500                   MOV         #0,R5
    00001174 D246                   MOV.L       L1814+42,R2; __$__vtbl__13MonoBehaviour
    00001176 D347                   MOV.L       L1814+46,R3; __$__vtbl__9Behaviour
    00001178 D247                   MOV.L       L1814+50,R2; ___dt__9ComponentFv
    0000117A 1E32                   MOV.L       R3,@(8,R14)
    0000117C 420B                   JSR         @R2
    0000117E 64E3                   MOV         R14,R4
    00001180 60F2                   MOV.L       @R15,R0
    00001182 C801                   TST         #1,R0
    00001184 8905                   BT          L1697
    00001186 64E3                   MOV         R14,R4
    00001188 D244                   MOV.L       L1814+54,R2; ___dl__FPv
    0000118A 7F04                   ADD         #4,R15
    0000118C 4F26                   LDS.L       @R15+,PR
    0000118E 422B                   JMP         @R2
    00001190 6EF6                   MOV.L       @R15+,R14
    00001192              L1697:                            
    00001192 7F04                   ADD         #4,R15
    00001194 4F26                   LDS.L       @R15+,PR
    00001196 000B                   RTS




SH SERIES C/C++ Compiler (Ver. 6.0C)                                                                 09-Nov-2021 18:50:40  PAGE   57


SCT OFFSET   CODE       C LABEL     INSTRUCTION OPERAND    COMMENT

    00001198 6EF6                   MOV.L       @R15+,R14
    0000119A              _Start__9RigidbodyFv:            ; function: Rigidbody::Start()
                                                           ; frame size=4
    0000119A 7FFC                   ADD         #-4,R15
    0000119C D344                   MOV.L       L1814+74,R3; _Set__7Vector2FfT1
    0000119E E600                   MOV         #0,R6
    000011A0 2F42                   MOV.L       R4,@R15
    000011A2 6563                   MOV         R6,R5
    000011A4 544C                   MOV.L       @(48,R4),R4
    000011A6 432B                   JMP         @R3
    000011A8 7F04                   ADD         #4,R15
    000011AA              ___ct__4TextFP10GameObjectPUcPCc:
                                                           ; function: Text::Text(GameObject *, unsigned char *, const char *)
                                                           ; frame size=20
    000011AA 4F22                   STS.L       PR,@-R15
    000011AC 7FF0                   ADD         #-16,R15
    000011AE 2F42                   MOV.L       R4,@R15
    000011B0 1F52                   MOV.L       R5,@(8,R15)
    000011B2 1F61                   MOV.L       R6,@(4,R15)
    000011B4 1F73                   MOV.L       R7,@(12,R15)
    000011B6 63F2                   MOV.L       @R15,R3
    000011B8 2338                   TST         R3,R3
    000011BA 8B05                   BF          L1700
    000011BC D338                   MOV.L       L1814+58,R3; ___nw__FUl
    000011BE 430B                   JSR         @R3
    000011C0 E428                   MOV         #40,R4
    000011C2 2008                   TST         R0,R0
    000011C4 8D0B                   BT/S        L1699
    000011C6 2F02                   MOV.L       R0,@R15
    000011C8              L1700:                            
    000011C8 57F3                   MOV.L       @(12,R15),R7
    000011CA 56F2                   MOV.L       @(8,R15),R6
    000011CC D539                   MOV.L       L1814+78,R5; L475
    000011CE BB8B                   BSR         ___ct__13MonoBehaviourFPCcP10GameObjectT1
    000011D0 64F2                   MOV.L       @R15,R4
    000011D2 62F2                   MOV.L       @R15,R2
    000011D4 D338                   MOV.L       L1814+82,R3; ___vtbl__4Text
    000011D6 1232                   MOV.L       R3,@(8,R2)
    000011D8 62F2                   MOV.L       @R15,R2
    000011DA 53F1                   MOV.L       @(4,R15),R3
    000011DC 1239                   MOV.L       R3,@(36,R2)
    000011DE              L1699:                            
    000011DE 60F2                   MOV.L       @R15,R0
    000011E0 7F10                   ADD         #16,R15
    000011E2 4F26                   LDS.L       @R15+,PR
    000011E4 000B                   RTS
    000011E6 0009                   NOP
    000011E8              _Update__4TextFv:                ; function: Text::Update()
                                                           ; frame size=28
                                                           ; used runtime library name:
                                                           ; __subs, __stoi
    000011E8 2FE6                   MOV.L       R14,@-R15
    000011EA E048                   MOV         #72,R0
    000011EC 4F22                   STS.L       PR,@-R15
    000011EE 6E43                   MOV         R4,R14
    000011F0 7FEC                   ADD         #-20,R15
    000011F2 E500                   MOV         #0,R5




SH SERIES C/C++ Compiler (Ver. 6.0C)                                                                 09-Nov-2021 18:50:40  PAGE   58


SCT OFFSET   CODE       C LABEL     INSTRUCTION OPERAND    COMMENT

    000011F4 54E4                   MOV.L       @(16,R14),R4
    000011F6 2F42                   MOV.L       R4,@R15
    000011F8 544D                   MOV.L       @(52,R4),R4
    000011FA 1F42                   MOV.L       R4,@(8,R15)
    000011FC 044E                   MOV.L       @(R0,R4),R4
    000011FE 6342                   MOV.L       @R4,R3
    00001200 1F33                   MOV.L       R3,@(12,R15)
    00001202 5241                   MOV.L       @(4,R4),R2
    00001204 1F24                   MOV.L       R2,@(16,R15)
    00001206 63F2                   MOV.L       @R15,R3
    00001208 513A                   MOV.L       @(40,R3),R1
    0000120A 7124                   ADD         #36,R1
    0000120C 1F11                   MOV.L       R1,@(4,R15)
    0000120E BD7F                   BSR         __$get__20List__tm__9_P6CameraFi_Z1Z
    00001210 6413                   MOV         R1,R4
    00001212 E500                   MOV         #0,R5
    00001214 5204                   MOV.L       @(16,R0),R2
    00001216 E048                   MOV         #72,R0
    00001218 532D                   MOV.L       @(52,R2),R3
    0000121A 013E                   MOV.L       @(R0,R3),R1
    0000121C 6212                   MOV.L       @R1,R2
    0000121E 1F21                   MOV.L       R2,@(4,R15)
    00001220 53E4                   MOV.L       @(16,R14),R3
    00001222 513A                   MOV.L       @(40,R3),R1
    00001224 7124                   ADD         #36,R1
    00001226 2F12                   MOV.L       R1,@R15
    00001228 BD72                   BSR         __$get__20List__tm__9_P6CameraFi_Z1Z
    0000122A 6413                   MOV         R1,R4
    0000122C 5204                   MOV.L       @(16,R0),R2
    0000122E E710                   MOV         #16,R7
    00001230 532D                   MOV.L       @(52,R2),R3
    00001232 E048                   MOV         #72,R0
    00001234 013E                   MOV.L       @(R0,R3),R1
    00001236 5211                   MOV.L       @(4,R1),R2
    00001238 D30B                   MOV.L       L1814+2,R3 ; __subs
    0000123A 2F22                   MOV.L       R2,@R15
    0000123C 56E9                   MOV.L       @(36,R14),R6
    0000123E 51F4                   MOV.L       @(16,R15),R1
    00001240 430B                   JSR         @R3
    00001242 6023                   MOV         R2,R0
    00001244 D20F                   MOV.L       L1814+30,R2; __stoi
    00001246 420B                   JSR         @R2
    00001248 0009                   NOP
    0000124A 6503                   MOV         R0,R5
    0000124C 51F3                   MOV.L       @(12,R15),R1
    0000124E D306                   MOV.L       L1814+2,R3 ; __subs
    00001250 430B                   JSR         @R3
    00001252 50F1                   MOV.L       @(4,R15),R0
    00001254 D20B                   MOV.L       L1814+30,R2; __stoi
    00001256 420B                   JSR         @R2
    00001258 0009                   NOP
    0000125A 6403                   MOV         R0,R4
    0000125C D317                   MOV.L       L1814+86,R3; _PrintMini
    0000125E 7F14                   ADD         #20,R15
    00001260 4F26                   LDS.L       @R15+,PR
    00001262 432B                   JMP         @R3
    00001264 6EF6                   MOV.L       @R15+,R14




SH SERIES C/C++ Compiler (Ver. 6.0C)                                                                 09-Nov-2021 18:50:40  PAGE   59


SCT OFFSET   CODE       C LABEL     INSTRUCTION OPERAND    COMMENT

    00001266              L1814:                            
    00001266 0000                   .DATA.W     0
    00001268 <00000000>             .DATA.L     __subs
    0000126C <00000000>             .DATA.L     __itos
    00001270 <00000000>             .DATA.L     __adds
    00001274 <00000000>             .DATA.L     __lts
    00001278 43000000               .DATA.L     H'43000000
    0000127C 42800000               .DATA.L     H'42800000
    00001280 <00000000>             .DATA.L     __gts
    00001284 <00000000>             .DATA.L     __stoi
    00001288 <00000000>             .DATA.L     _ML_bmp_or_cl
    0000128C <00000000>             .DATA.L     ___vtbl__6Sprite
    00001290 <00000000>             .DATA.L     __$__vtbl__13MonoBehaviour
    00001294 <00000000>             .DATA.L     __$__vtbl__9Behaviour
    00001298 <00000000>             .DATA.L     ___dt__9ComponentFv
    0000129C <00000000>             .DATA.L     ___dl__FPv
    000012A0 <00000000>             .DATA.L     ___nw__FUl
    000012A4 <00000000>             .DATA.L     L474
    000012A8 <00000000>             .DATA.L     ___vtbl__9Rigidbody
    000012AC <00000000>             .DATA.L     ___ct__7Vector2Fv
    000012B0 <00000000>             .DATA.L     _Set__7Vector2FfT1
    000012B4 <00000000>             .DATA.L     L475
    000012B8 <00000000>             .DATA.L     ___vtbl__4Text
    000012BC <00000000>             .DATA.L     _PrintMini
    000012C0              __$__dt__4TextFv:                ; function: Text::~Text()
                                                           ; frame size=12
    000012C0 2FE6                   MOV.L       R14,@-R15
    000012C2 6E43                   MOV         R4,R14
    000012C4 4F22                   STS.L       PR,@-R15
    000012C6 2EE8                   TST         R14,R14
    000012C8 7FFC                   ADD         #-4,R15
    000012CA 8D11                   BT/S        L1705
    000012CC 2F52                   MOV.L       R5,@R15
    000012CE E500                   MOV         #0,R5
    000012D0 D250                   MOV.L       L1815,R2   ; ___vtbl__4Text
    000012D2 D351                   MOV.L       L1815+4,R3 ; __$__vtbl__13MonoBehaviour
    000012D4 D251                   MOV.L       L1815+8,R2 ; __$__vtbl__9Behaviour
    000012D6 1E22                   MOV.L       R2,@(8,R14)
    000012D8 D351                   MOV.L       L1815+12,R3; ___dt__9ComponentFv
    000012DA 430B                   JSR         @R3
    000012DC 64E3                   MOV         R14,R4
    000012DE 60F2                   MOV.L       @R15,R0
    000012E0 C801                   TST         #1,R0
    000012E2 8905                   BT          L1705
    000012E4 D24F                   MOV.L       L1815+16,R2; ___dl__FPv
    000012E6 64E3                   MOV         R14,R4
    000012E8 7F04                   ADD         #4,R15
    000012EA 4F26                   LDS.L       @R15+,PR
    000012EC 422B                   JMP         @R2
    000012EE 6EF6                   MOV.L       @R15+,R14
    000012F0              L1705:                            
    000012F0 7F04                   ADD         #4,R15
    000012F2 4F26                   LDS.L       @R15+,PR
    000012F4 000B                   RTS
    000012F6 6EF6                   MOV.L       @R15+,R14
    000012F8              ___ct__7TilemapFP10GameObjectP7Vector2T2PCc:
                                                           ; function: Tilemap::Tilemap(GameObject *, Vector2 *, Vector2 *, const ch




SH SERIES C/C++ Compiler (Ver. 6.0C)                                                                 09-Nov-2021 18:50:40  PAGE   60


SCT OFFSET   CODE       C LABEL     INSTRUCTION OPERAND    COMMENT

                        +                                  ar *)
                                                           ; frame size=20
    000012F8 4F22                   STS.L       PR,@-R15
    000012FA 7FF0                   ADD         #-16,R15
    000012FC 2F42                   MOV.L       R4,@R15
    000012FE 1F53                   MOV.L       R5,@(12,R15)
    00001300 1F62                   MOV.L       R6,@(8,R15)
    00001302 1F71                   MOV.L       R7,@(4,R15)
    00001304 63F2                   MOV.L       @R15,R3
    00001306 2338                   TST         R3,R3
    00001308 8B05                   BF          L1707
    0000130A D347                   MOV.L       L1815+20,R3; ___nw__FUl
    0000130C 430B                   JSR         @R3
    0000130E E434                   MOV         #52,R4
    00001310 2008                   TST         R0,R0
    00001312 8D0E                   BT/S        L1706
    00001314 2F02                   MOV.L       R0,@R15
    00001316              L1707:                            
    00001316 57F5                   MOV.L       @(20,R15),R7
    00001318 56F3                   MOV.L       @(12,R15),R6
    0000131A D544                   MOV.L       L1815+24,R5; L476
    0000131C BAE4                   BSR         ___ct__13MonoBehaviourFPCcP10GameObjectT1
    0000131E 64F2                   MOV.L       @R15,R4
    00001320 62F2                   MOV.L       @R15,R2
    00001322 D343                   MOV.L       L1815+28,R3; ___vtbl__7Tilemap
    00001324 1232                   MOV.L       R3,@(8,R2)
    00001326 62F2                   MOV.L       @R15,R2
    00001328 53F2                   MOV.L       @(8,R15),R3
    0000132A 123B                   MOV.L       R3,@(44,R2)
    0000132C 62F2                   MOV.L       @R15,R2
    0000132E 53F1                   MOV.L       @(4,R15),R3
    00001330 123C                   MOV.L       R3,@(48,R2)
    00001332              L1706:                            
    00001332 60F2                   MOV.L       @R15,R0
    00001334 7F10                   ADD         #16,R15
    00001336 4F26                   LDS.L       @R15+,PR
    00001338 000B                   RTS
    0000133A 0009                   NOP
    0000133C              ___dt__7TilemapFv:               ; function: Tilemap::~Tilemap()
                                                           ; frame size=16
    0000133C 2FE6                   MOV.L       R14,@-R15
    0000133E 6E43                   MOV         R4,R14
    00001340 2FD6                   MOV.L       R13,@-R15
    00001342 2EE8                   TST         R14,R14
    00001344 4F22                   STS.L       PR,@-R15
    00001346 7FFC                   ADD         #-4,R15
    00001348 8D13                   BT/S        L1711
    0000134A 2F52                   MOV.L       R5,@R15
    0000134C D238                   MOV.L       L1815+28,R2; ___vtbl__7Tilemap
    0000134E 1E22                   MOV.L       R2,@(8,R14)
    00001350 DD34                   MOV.L       L1815+16,R13; ___dl__FPv
    00001352 4D0B                   JSR         @R13
    00001354 54E9                   MOV.L       @(36,R14),R4
    00001356 4D0B                   JSR         @R13
    00001358 54EA                   MOV.L       @(40,R14),R4
    0000135A E500                   MOV         #0,R5
    0000135C D32E                   MOV.L       L1815+4,R3 ; __$__vtbl__13MonoBehaviour




SH SERIES C/C++ Compiler (Ver. 6.0C)                                                                 09-Nov-2021 18:50:40  PAGE   61


SCT OFFSET   CODE       C LABEL     INSTRUCTION OPERAND    COMMENT

    0000135E D22F                   MOV.L       L1815+8,R2 ; __$__vtbl__9Behaviour
    00001360 D32F                   MOV.L       L1815+12,R3; ___dt__9ComponentFv
    00001362 1E22                   MOV.L       R2,@(8,R14)
    00001364 430B                   JSR         @R3
    00001366 64E3                   MOV         R14,R4
    00001368 60F2                   MOV.L       @R15,R0
    0000136A C801                   TST         #1,R0
    0000136C 8901                   BT          L1711
    0000136E 4D0B                   JSR         @R13
    00001370 64E3                   MOV         R14,R4
    00001372              L1711:                            
    00001372 7F04                   ADD         #4,R15
    00001374 4F26                   LDS.L       @R15+,PR
    00001376 6DF6                   MOV.L       @R15+,R13
    00001378 000B                   RTS
    0000137A 6EF6                   MOV.L       @R15+,R14
    0000137C              _Update__7TilemapFv:             ; function: Tilemap::Update()
                                                           ; frame size=56
                                                           ; used runtime library name:
                                                           ; __adds, __subs, __muls, __stoi, __itos, __gts, __lts
    0000137C 2FE6                   MOV.L       R14,@-R15
    0000137E E048                   MOV         #72,R0
    00001380 2FD6                   MOV.L       R13,@-R15
    00001382 6E43                   MOV         R4,R14
    00001384 2FC6                   MOV.L       R12,@-R15
    00001386 E500                   MOV         #0,R5
    00001388 2FB6                   MOV.L       R11,@-R15
    0000138A 2FA6                   MOV.L       R10,@-R15
    0000138C 2F96                   MOV.L       R9,@-R15
    0000138E 2F86                   MOV.L       R8,@-R15
    00001390 4F22                   STS.L       PR,@-R15
    00001392 7FEC                   ADD         #-20,R15
    00001394 54E4                   MOV.L       @(16,R14),R4
    00001396 2F42                   MOV.L       R4,@R15
    00001398 544D                   MOV.L       @(52,R4),R4
    0000139A 1F43                   MOV.L       R4,@(12,R15)
    0000139C 044E                   MOV.L       @(R0,R4),R4
    0000139E 6342                   MOV.L       @R4,R3
    000013A0 1F31                   MOV.L       R3,@(4,R15)
    000013A2 5241                   MOV.L       @(4,R4),R2
    000013A4 1F24                   MOV.L       R2,@(16,R15)
    000013A6 63F2                   MOV.L       @R15,R3
    000013A8 513A                   MOV.L       @(40,R3),R1
    000013AA 7124                   ADD         #36,R1
    000013AC 1F12                   MOV.L       R1,@(8,R15)
    000013AE BCAF                   BSR         __$get__20List__tm__9_P6CameraFi_Z1Z
    000013B0 6413                   MOV         R1,R4
    000013B2 E500                   MOV         #0,R5
    000013B4 5204                   MOV.L       @(16,R0),R2
    000013B6 E048                   MOV         #72,R0
    000013B8 532D                   MOV.L       @(52,R2),R3
    000013BA 013E                   MOV.L       @(R0,R3),R1
    000013BC 6212                   MOV.L       @R1,R2
    000013BE 2F22                   MOV.L       R2,@R15
    000013C0 53E4                   MOV.L       @(16,R14),R3
    000013C2 513A                   MOV.L       @(40,R3),R1
    000013C4 7124                   ADD         #36,R1




SH SERIES C/C++ Compiler (Ver. 6.0C)                                                                 09-Nov-2021 18:50:40  PAGE   62


SCT OFFSET   CODE       C LABEL     INSTRUCTION OPERAND    COMMENT

    000013C6 1F12                   MOV.L       R1,@(8,R15)
    000013C8 BCA2                   BSR         __$get__20List__tm__9_P6CameraFi_Z1Z
    000013CA 6413                   MOV         R1,R4
    000013CC 5204                   MOV.L       @(16,R0),R2
    000013CE EC00                   MOV         #0,R12
    000013D0 532D                   MOV.L       @(52,R2),R3
    000013D2 E048                   MOV         #72,R0
    000013D4 013E                   MOV.L       @(R0,R3),R1
    000013D6 5411                   MOV.L       @(4,R1),R4
    000013D8 51F1                   MOV.L       @(4,R15),R1
    000013DA D316                   MOV.L       L1815+32,R3; __subs
    000013DC 430B                   JSR         @R3
    000013DE 60F2                   MOV.L       @R15,R0
    000013E0 2F02                   MOV.L       R0,@R15
    000013E2 51F4                   MOV.L       @(16,R15),R1
    000013E4 D313                   MOV.L       L1815+32,R3; __subs
    000013E6 430B                   JSR         @R3
    000013E8 6043                   MOV         R4,R0
    000013EA A083                   BRA         L1712
    000013EC 1F01                   MOV.L       R0,@(4,R15)
    000013EE              L1713:                            
    000013EE EA00                   MOV         #0,R10
    000013F0 D211                   MOV.L       L1815+36,R2; __itos
    000013F2 420B                   JSR         @R2
    000013F4 60C3                   MOV         R12,R0
    000013F6 6903                   MOV         R0,R9
    000013F8 51EB                   MOV.L       @(44,R14),R1
    000013FA D310                   MOV.L       L1815+40,R3; __muls
    000013FC 430B                   JSR         @R3
    000013FE 6112                   MOV.L       @R1,R1
    00001400 D20F                   MOV.L       L1815+44,R2; __stoi
    00001402 420B                   JSR         @R2
    00001404 0009                   NOP
    00001406 6D03                   MOV         R0,R13
    00001408 D30B                   MOV.L       L1815+36,R3; __itos
    0000140A 60C3                   MOV         R12,R0
    0000140C 430B                   JSR         @R3
    0000140E 7001                   ADD         #1,R0
    00001410 A061                   BRA         L1714
    00001412 6803                   MOV         R0,R8
    00001414              L1815:                            
    00001414 <00000000>             .DATA.L     ___vtbl__4Text
    00001418 <00000000>             .DATA.L     __$__vtbl__13MonoBehaviour
    0000141C <00000000>             .DATA.L     __$__vtbl__9Behaviour
    00001420 <00000000>             .DATA.L     ___dt__9ComponentFv
    00001424 <00000000>             .DATA.L     ___dl__FPv
    00001428 <00000000>             .DATA.L     ___nw__FUl
    0000142C <00000000>             .DATA.L     L476
    00001430 <00000000>             .DATA.L     ___vtbl__7Tilemap
    00001434 <00000000>             .DATA.L     __subs
    00001438 <00000000>             .DATA.L     __itos
    0000143C <00000000>             .DATA.L     __muls
    00001440 <00000000>             .DATA.L     __stoi
    00001444              L1715:                            
    00001444 D336                   MOV.L       L1816+2,R3 ; __itos
    00001446 430B                   JSR         @R3
    00001448 60A3                   MOV         R10,R0




SH SERIES C/C++ Compiler (Ver. 6.0C)                                                                 09-Nov-2021 18:50:40  PAGE   63


SCT OFFSET   CODE       C LABEL     INSTRUCTION OPERAND    COMMENT

    0000144A 56EC                   MOV.L       @(48,R14),R6
    0000144C D235                   MOV.L       L1816+6,R2 ; __muls
    0000144E 6762                   MOV.L       @R6,R7
    00001450 420B                   JSR         @R2
    00001452 6173                   MOV         R7,R1
    00001454 61F2                   MOV.L       @R15,R1
    00001456 D334                   MOV.L       L1816+10,R3; __adds
    00001458 430B                   JSR         @R3
    0000145A 0009                   NOP
    0000145C D233                   MOV.L       L1816+14,R2; __stoi
    0000145E 420B                   JSR         @R2
    00001460 0009                   NOP
    00001462 6503                   MOV         R0,R5
    00001464 5461                   MOV.L       @(4,R6),R4
    00001466 6193                   MOV         R9,R1
    00001468 D32E                   MOV.L       L1816+6,R3 ; __muls
    0000146A 430B                   JSR         @R3
    0000146C 6043                   MOV         R4,R0
    0000146E 51F1                   MOV.L       @(4,R15),R1
    00001470 D22D                   MOV.L       L1816+10,R2; __adds
    00001472 420B                   JSR         @R2
    00001474 0009                   NOP
    00001476 D32D                   MOV.L       L1816+14,R3; __stoi
    00001478 430B                   JSR         @R3
    0000147A 0009                   NOP
    0000147C D228                   MOV.L       L1816+2,R2 ; __itos
    0000147E 6603                   MOV         R0,R6
    00001480 420B                   JSR         @R2
    00001482 6053                   MOV         R5,R0
    00001484 D328                   MOV.L       L1816+10,R3; __adds
    00001486 430B                   JSR         @R3
    00001488 6173                   MOV         R7,R1
    0000148A D229                   MOV.L       L1816+18,R2; __lts
    0000148C 420B                   JSR         @R2
    0000148E E100                   MOV         #0,R1
    00001490 8800                   CMP/EQ      #0,R0
    00001492 891E                   BT          L1716
    00001494 9343                   MOV.W       L1816,R3   ; H'0080
    00001496 3533                   CMP/GE      R3,R5
    00001498 891B                   BT          L1716
    0000149A D121                   MOV.L       L1816+2,R1 ; __itos
    0000149C 410B                   JSR         @R1
    0000149E 6063                   MOV         R6,R0
    000014A0 D221                   MOV.L       L1816+10,R2; __adds
    000014A2 420B                   JSR         @R2
    000014A4 6143                   MOV         R4,R1
    000014A6 D222                   MOV.L       L1816+18,R2; __lts
    000014A8 420B                   JSR         @R2
    000014AA E100                   MOV         #0,R1
    000014AC 8800                   CMP/EQ      #0,R0
    000014AE 8910                   BT          L1716
    000014B0 E240                   MOV         #64,R2
    000014B2 3623                   CMP/GE      R2,R6
    000014B4 890D                   BT          L1716
    000014B6 6BD3                   MOV         R13,R11
    000014B8 50EA                   MOV.L       @(40,R14),R0
    000014BA 4B08                   SHLL2       R11




SH SERIES C/C++ Compiler (Ver. 6.0C)                                                                 09-Nov-2021 18:50:40  PAGE   64


SCT OFFSET   CODE       C LABEL     INSTRUCTION OPERAND    COMMENT

    000014BC D21D                   MOV.L       L1816+22,R2; _ML_bmp_or_cl
    000014BE 0BBE                   MOV.L       @(R0,R11),R11
    000014C0 50E9                   MOV.L       @(36,R14),R0
    000014C2 4B08                   SHLL2       R11
    000014C4 0BBE                   MOV.L       @(R0,R11),R11
    000014C6 53B6                   MOV.L       @(24,R11),R3
    000014C8 2F36                   MOV.L       R3,@-R15
    000014CA 57B8                   MOV.L       @(32,R11),R7
    000014CC 420B                   JSR         @R2
    000014CE 54B3                   MOV.L       @(12,R11),R4
    000014D0 7F04                   ADD         #4,R15
    000014D2              L1716:                            
    000014D2 7A01                   ADD         #1,R10
    000014D4 7D01                   ADD         #1,R13
    000014D6              L1714:                            
    000014D6 D312                   MOV.L       L1816+2,R3 ; __itos
    000014D8 430B                   JSR         @R3
    000014DA 60D3                   MOV         R13,R0
    000014DC 51EB                   MOV.L       @(44,R14),R1
    000014DE 6203                   MOV         R0,R2
    000014E0 D310                   MOV.L       L1816+6,R3 ; __muls
    000014E2 6083                   MOV         R8,R0
    000014E4 430B                   JSR         @R3
    000014E6 6112                   MOV.L       @R1,R1
    000014E8 D311                   MOV.L       L1816+18,R3; __lts
    000014EA 430B                   JSR         @R3
    000014EC 6123                   MOV         R2,R1
    000014EE 8800                   CMP/EQ      #0,R0
    000014F0 8BA8                   BF          L1715
    000014F2 7C01                   ADD         #1,R12
    000014F4              L1712:                            
    000014F4 D20A                   MOV.L       L1816+2,R2 ; __itos
    000014F6 420B                   JSR         @R2
    000014F8 60C3                   MOV         R12,R0
    000014FA 51EB                   MOV.L       @(44,R14),R1
    000014FC D30E                   MOV.L       L1816+26,R3; __gts
    000014FE 430B                   JSR         @R3
    00001500 5111                   MOV.L       @(4,R1),R1
    00001502 8800                   CMP/EQ      #0,R0
    00001504 8901                   BT          L1817
    00001506 AF72                   BRA         L1713
    00001508 0009                   NOP
    0000150A              L1817:                            
    0000150A 7F14                   ADD         #20,R15
    0000150C 4F26                   LDS.L       @R15+,PR
    0000150E 68F6                   MOV.L       @R15+,R8
    00001510 69F6                   MOV.L       @R15+,R9
    00001512 6AF6                   MOV.L       @R15+,R10
    00001514 6BF6                   MOV.L       @R15+,R11
    00001516 6CF6                   MOV.L       @R15+,R12
    00001518 6DF6                   MOV.L       @R15+,R13
    0000151A 000B                   RTS
    0000151C 6EF6                   MOV.L       @R15+,R14
    0000151E              L1816:                            
    0000151E 0080                   .DATA.W     H'0080
    00001520 <00000000>             .DATA.L     __itos
    00001524 <00000000>             .DATA.L     __muls




SH SERIES C/C++ Compiler (Ver. 6.0C)                                                                 09-Nov-2021 18:50:40  PAGE   65


SCT OFFSET   CODE       C LABEL     INSTRUCTION OPERAND    COMMENT

    00001528 <00000000>             .DATA.L     __adds
    0000152C <00000000>             .DATA.L     __stoi
    00001530 <00000000>             .DATA.L     __lts
    00001534 <00000000>             .DATA.L     _ML_bmp_or_cl
    00001538 <00000000>             .DATA.L     __gts
    0000153C              __$Update__16PlayerControllerFv: ; function: PlayerController::Update()
                                                           ; frame size=60
                                                           ; used runtime library name:
                                                           ; __adds, __itos
    0000153C 2FE6                   MOV.L       R14,@-R15
    0000153E E729                   MOV         #41,R7
    00001540 D387                   MOV.L       L1818+2,R3 ; _ML_rectangle
    00001542 E645                   MOV         #69,R6
    00001544 2FD6                   MOV.L       R13,@-R15
    00001546 6E43                   MOV         R4,R14
    00001548 2FC6                   MOV.L       R12,@-R15
    0000154A ED00                   MOV         #0,R13
    0000154C 2FA6                   MOV.L       R10,@-R15
    0000154E E515                   MOV         #21,R5
    00001550 2F96                   MOV.L       R9,@-R15
    00001552 2F86                   MOV.L       R8,@-R15
    00001554 4F22                   STS.L       PR,@-R15
    00001556 7FF0                   ADD         #-16,R15
    00001558 2FD6                   MOV.L       R13,@-R15
    0000155A 2FD6                   MOV.L       R13,@-R15
    0000155C 2FD6                   MOV.L       R13,@-R15
    0000155E 430B                   JSR         @R3
    00001560 E439                   MOV         #57,R4
    00001562 7F0C                   ADD         #12,R15
    00001564 DC7F                   MOV.L       L1818+6,R12; _KeyDown
    00001566 DD80                   MOV.L       L1818+10,R13; L473
    00001568 4C0B                   JSR         @R12
    0000156A E41C                   MOV         #28,R4
    0000156C 600C                   EXTU.B      R0,R0
    0000156E 2008                   TST         R0,R0
    00001570 8929                   BT          L1718
    00001572 E048                   MOV         #72,R0
    00001574 D27D                   MOV.L       L1818+14,R2; __itos
    00001576 53E4                   MOV.L       @(16,R14),R3
    00001578 533D                   MOV.L       @(52,R3),R3
    0000157A 033E                   MOV.L       @(R0,R3),R3
    0000157C E058                   MOV         #88,R0
    0000157E 00EE                   MOV.L       @(R0,R14),R0
    00001580 420B                   JSR         @R2
    00001582 600B                   NEG         R0,R0
    00001584 D27A                   MOV.L       L1818+18,R2; __adds
    00001586 420B                   JSR         @R2
    00001588 5131                   MOV.L       @(4,R3),R1
    0000158A 1301                   MOV.L       R0,@(4,R3)
    0000158C 54E9                   MOV.L       @(36,R14),R4
    0000158E 2448                   TST         R4,R4
    00001590 8902                   BT          L1720
    00001592 6043                   MOV         R4,R0
    00001594 8802                   CMP/EQ      #2,R0
    00001596 8B05                   BF          L1719
    00001598              L1720:                            
    00001598 D376                   MOV.L       L1818+22,R3; _GetComponent__10GameObjectFPCc




SH SERIES C/C++ Compiler (Ver. 6.0C)                                                                 09-Nov-2021 18:50:40  PAGE   66


SCT OFFSET   CODE       C LABEL     INSTRUCTION OPERAND    COMMENT

    0000159A 65D3                   MOV         R13,R5
    0000159C 430B                   JSR         @R3
    0000159E 54E4                   MOV.L       @(16,R14),R4
    000015A0 A066                   BRA         L1805
    000015A2 52ED                   MOV.L       @(52,R14),R2
    000015A4              L1719:                            
    000015A4 50E9                   MOV.L       @(36,R14),R0
    000015A6 8801                   CMP/EQ      #1,R0
    000015A8 8B06                   BF          L1722
    000015AA 65D3                   MOV         R13,R5
    000015AC D371                   MOV.L       L1818+22,R3; _GetComponent__10GameObjectFPCc
    000015AE 430B                   JSR         @R3
    000015B0 54E4                   MOV.L       @(16,R14),R4
    000015B2 52EE                   MOV.L       @(56,R14),R2
    000015B4 A05C                   BRA         L1805
    000015B6 0009                   NOP
    000015B8              L1722:                            
    000015B8 D16E                   MOV.L       L1818+22,R1; _GetComponent__10GameObjectFPCc
    000015BA 65D3                   MOV         R13,R5
    000015BC 410B                   JSR         @R1
    000015BE 54E4                   MOV.L       @(16,R14),R4
    000015C0 53EF                   MOV.L       @(60,R14),R3
    000015C2 A08E                   BRA         L1724
    000015C4 1039                   MOV.L       R3,@(36,R0)
    000015C6              L1718:                            
    000015C6 4C0B                   JSR         @R12
    000015C8 E425                   MOV         #37,R4
    000015CA 600C                   EXTU.B      R0,R0
    000015CC 2008                   TST         R0,R0
    000015CE 8928                   BT          L1725
    000015D0 53E4                   MOV.L       @(16,R14),R3
    000015D2 E048                   MOV         #72,R0
    000015D4 D265                   MOV.L       L1818+14,R2; __itos
    000015D6 533D                   MOV.L       @(52,R3),R3
    000015D8 033E                   MOV.L       @(R0,R3),R3
    000015DA E058                   MOV         #88,R0
    000015DC 420B                   JSR         @R2
    000015DE 00EE                   MOV.L       @(R0,R14),R0
    000015E0 D263                   MOV.L       L1818+18,R2; __adds
    000015E2 420B                   JSR         @R2
    000015E4 5131                   MOV.L       @(4,R3),R1
    000015E6 1301                   MOV.L       R0,@(4,R3)
    000015E8 54E9                   MOV.L       @(36,R14),R4
    000015EA 2448                   TST         R4,R4
    000015EC 8902                   BT          L1727
    000015EE 6043                   MOV         R4,R0
    000015F0 8802                   CMP/EQ      #2,R0
    000015F2 8B05                   BF          L1726
    000015F4              L1727:                            
    000015F4 D35F                   MOV.L       L1818+22,R3; _GetComponent__10GameObjectFPCc
    000015F6 65D3                   MOV         R13,R5
    000015F8 430B                   JSR         @R3
    000015FA 54E4                   MOV.L       @(16,R14),R4
    000015FC A038                   BRA         L1805
    000015FE 52EA                   MOV.L       @(40,R14),R2
    00001600              L1726:                            
    00001600 50E9                   MOV.L       @(36,R14),R0




SH SERIES C/C++ Compiler (Ver. 6.0C)                                                                 09-Nov-2021 18:50:40  PAGE   67


SCT OFFSET   CODE       C LABEL     INSTRUCTION OPERAND    COMMENT

    00001602 8801                   CMP/EQ      #1,R0
    00001604 8B06                   BF          L1729
    00001606 65D3                   MOV         R13,R5
    00001608 D35A                   MOV.L       L1818+22,R3; _GetComponent__10GameObjectFPCc
    0000160A 430B                   JSR         @R3
    0000160C 54E4                   MOV.L       @(16,R14),R4
    0000160E 52EB                   MOV.L       @(44,R14),R2
    00001610 A02E                   BRA         L1805
    00001612 0009                   NOP
    00001614              L1729:                            
    00001614 D157                   MOV.L       L1818+22,R1; _GetComponent__10GameObjectFPCc
    00001616 65D3                   MOV         R13,R5
    00001618 410B                   JSR         @R1
    0000161A 54E4                   MOV.L       @(16,R14),R4
    0000161C 53EC                   MOV.L       @(48,R14),R3
    0000161E A060                   BRA         L1724
    00001620 1039                   MOV.L       R3,@(36,R0)
    00001622              L1725:                            
    00001622 4C0B                   JSR         @R12
    00001624 E41B                   MOV         #27,R4
    00001626 600C                   EXTU.B      R0,R0
    00001628 2008                   TST         R0,R0
    0000162A 892C                   BT          L1732
    0000162C 53E4                   MOV.L       @(16,R14),R3
    0000162E E048                   MOV         #72,R0
    00001630 D24E                   MOV.L       L1818+14,R2; __itos
    00001632 533D                   MOV.L       @(52,R3),R3
    00001634 033E                   MOV.L       @(R0,R3),R3
    00001636 E058                   MOV         #88,R0
    00001638 420B                   JSR         @R2
    0000163A 00EE                   MOV.L       @(R0,R14),R0
    0000163C D24C                   MOV.L       L1818+18,R2; __adds
    0000163E 420B                   JSR         @R2
    00001640 6132                   MOV.L       @R3,R1
    00001642 2302                   MOV.L       R0,@R3
    00001644 54E9                   MOV.L       @(36,R14),R4
    00001646 2448                   TST         R4,R4
    00001648 8902                   BT          L1734
    0000164A 6043                   MOV         R4,R0
    0000164C 8802                   CMP/EQ      #2,R0
    0000164E 8B05                   BF          L1733
    00001650              L1734:                            
    00001650 D348                   MOV.L       L1818+22,R3; _GetComponent__10GameObjectFPCc
    00001652 65D3                   MOV         R13,R5
    00001654 430B                   JSR         @R3
    00001656 54E4                   MOV.L       @(16,R14),R4
    00001658 A008                   BRA         L1802
    0000165A E240                   MOV         #64,R2
    0000165C              L1733:                            
    0000165C 50E9                   MOV.L       @(36,R14),R0
    0000165E 8801                   CMP/EQ      #1,R0
    00001660 8B08                   BF          L1736
    00001662 65D3                   MOV         R13,R5
    00001664 D343                   MOV.L       L1818+22,R3; _GetComponent__10GameObjectFPCc
    00001666 430B                   JSR         @R3
    00001668 54E4                   MOV.L       @(16,R14),R4
    0000166A E244                   MOV         #68,R2




SH SERIES C/C++ Compiler (Ver. 6.0C)                                                                 09-Nov-2021 18:50:40  PAGE   68


SCT OFFSET   CODE       C LABEL     INSTRUCTION OPERAND    COMMENT

    0000166C              L1802:                            
    0000166C 32EC                   ADD         R14,R2
    0000166E 6222                   MOV.L       @R2,R2
    00001670              L1805:                            
    00001670 A037                   BRA         L1724
    00001672 1029                   MOV.L       R2,@(36,R0)
    00001674              L1736:                            
    00001674 D13F                   MOV.L       L1818+22,R1; _GetComponent__10GameObjectFPCc
    00001676 65D3                   MOV         R13,R5
    00001678 410B                   JSR         @R1
    0000167A 54E4                   MOV.L       @(16,R14),R4
    0000167C E348                   MOV         #72,R3
    0000167E 33EC                   ADD         R14,R3
    00001680 6332                   MOV.L       @R3,R3
    00001682 A02E                   BRA         L1724
    00001684 1039                   MOV.L       R3,@(36,R0)
    00001686              L1732:                            
    00001686 4C0B                   JSR         @R12
    00001688 E426                   MOV         #38,R4
    0000168A 600C                   EXTU.B      R0,R0
    0000168C 2008                   TST         R0,R0
    0000168E 8928                   BT          L1724
    00001690 53E4                   MOV.L       @(16,R14),R3
    00001692 E048                   MOV         #72,R0
    00001694 D235                   MOV.L       L1818+14,R2; __itos
    00001696 533D                   MOV.L       @(52,R3),R3
    00001698 033E                   MOV.L       @(R0,R3),R3
    0000169A E058                   MOV         #88,R0
    0000169C 00EE                   MOV.L       @(R0,R14),R0
    0000169E 420B                   JSR         @R2
    000016A0 600B                   NEG         R0,R0
    000016A2 D233                   MOV.L       L1818+18,R2; __adds
    000016A4 420B                   JSR         @R2
    000016A6 6132                   MOV.L       @R3,R1
    000016A8 2302                   MOV.L       R0,@R3
    000016AA DC32                   MOV.L       L1818+22,R12; _GetComponent__10GameObjectFPCc
    000016AC 54E9                   MOV.L       @(36,R14),R4
    000016AE 2448                   TST         R4,R4
    000016B0 8D03                   BT/S        L1741
    000016B2 65D3                   MOV         R13,R5
    000016B4 6043                   MOV         R4,R0
    000016B6 8802                   CMP/EQ      #2,R0
    000016B8 8B06                   BF          L1740
    000016BA              L1741:                            
    000016BA 4C0B                   JSR         @R12
    000016BC 54E4                   MOV.L       @(16,R14),R4
    000016BE E34C                   MOV         #76,R3
    000016C0 33EC                   ADD         R14,R3
    000016C2 6332                   MOV.L       @R3,R3
    000016C4 A00D                   BRA         L1724
    000016C6 1039                   MOV.L       R3,@(36,R0)
    000016C8              L1740:                            
    000016C8 50E9                   MOV.L       @(36,R14),R0
    000016CA 8801                   CMP/EQ      #1,R0
    000016CC 8B03                   BF          L1743
    000016CE 4C0B                   JSR         @R12
    000016D0 54E4                   MOV.L       @(16,R14),R4




SH SERIES C/C++ Compiler (Ver. 6.0C)                                                                 09-Nov-2021 18:50:40  PAGE   69


SCT OFFSET   CODE       C LABEL     INSTRUCTION OPERAND    COMMENT

    000016D2 A003                   BRA         L1803
    000016D4 E250                   MOV         #80,R2
    000016D6              L1743:                            
    000016D6 4C0B                   JSR         @R12
    000016D8 54E4                   MOV.L       @(16,R14),R4
    000016DA E254                   MOV         #84,R2
    000016DC              L1803:                            
    000016DC 32EC                   ADD         R14,R2
    000016DE 6222                   MOV.L       @R2,R2
    000016E0 1029                   MOV.L       R2,@(36,R0)
    000016E2              L1724:                            
    000016E2 E504                   MOV         #4,R5
    000016E4 54E9                   MOV.L       @(36,R14),R4
    000016E6 D324                   MOV.L       L1818+26,R3; _mod__FiT1
    000016E8 430B                   JSR         @R3
    000016EA 7401                   ADD         #1,R4
    000016EC 1E09                   MOV.L       R0,@(36,R14)
    000016EE 7FF8                   ADD         #-8,R15
    000016F0 D124                   MOV.L       L1818+38,R1; ___ct__7Vector2FfT1
    000016F2 DA22                   MOV.L       L1818+30,R10; _Set__7Vector2F7Vector2
    000016F4 D922                   MOV.L       L1818+34,R9; ___pl__7Vector2FRC7Vector2
    000016F6 1F12                   MOV.L       R1,@(8,R15)
    000016F8 D623                   MOV.L       L1818+42,R6; H'41200000
    000016FA D524                   MOV.L       L1818+46,R5; H'41000000
    000016FC 410B                   JSR         @R1
    000016FE E400                   MOV         #0,R4
    00001700 2F06                   MOV.L       R0,@-R15
    00001702 D823                   MOV.L       L1818+50,R8; ___mi__7Vector2FRC7Vector2
    00001704 53F3                   MOV.L       @(12,R15),R3
    00001706 D623                   MOV.L       L1818+54,R6; H'41F80000
    00001708 D523                   MOV.L       L1818+58,R5; H'427C0000
    0000170A 430B                   JSR         @R3
    0000170C E400                   MOV         #0,R4
    0000170E 6503                   MOV         R0,R5
    00001710 54E4                   MOV.L       @(16,R14),R4
    00001712 63F3                   MOV         R15,R3
    00001714 544D                   MOV.L       @(52,R4),R4
    00001716 E048                   MOV         #72,R0
    00001718 044E                   MOV.L       @(R0,R4),R4
    0000171A 7314                   ADD         #20,R3
    0000171C 480B                   JSR         @R8
    0000171E 2F36                   MOV.L       R3,@-R15
    00001720 7F04                   ADD         #4,R15
    00001722 64F3                   MOV         R15,R4
    00001724 65F6                   MOV.L       @R15+,R5
    00001726 7414                   ADD         #20,R4
    00001728 490B                   JSR         @R9
    0000172A 2FF6                   MOV.L       R15,@-R15
    0000172C 7F04                   ADD         #4,R15
    0000172E E500                   MOV         #0,R5
    00001730 52E4                   MOV.L       @(16,R14),R2
    00001732 512A                   MOV.L       @(40,R2),R1
    00001734 7124                   ADD         #36,R1
    00001736 1F13                   MOV.L       R1,@(12,R15)
    00001738 BAEA                   BSR         __$get__20List__tm__9_P6CameraFi_Z1Z
    0000173A 6413                   MOV         R1,R4
    0000173C 5204                   MOV.L       @(16,R0),R2




SH SERIES C/C++ Compiler (Ver. 6.0C)                                                                 09-Nov-2021 18:50:40  PAGE   70


SCT OFFSET   CODE       C LABEL     INSTRUCTION OPERAND    COMMENT

    0000173E E048                   MOV         #72,R0
    00001740 532D                   MOV.L       @(52,R2),R3
    00001742 4A0B                   JSR         @R10
    00001744 043E                   MOV.L       @(R0,R3),R4
    00001746 7F18                   ADD         #24,R15
    00001748 4F26                   LDS.L       @R15+,PR
    0000174A 68F6                   MOV.L       @R15+,R8
    0000174C 69F6                   MOV.L       @R15+,R9
    0000174E 6AF6                   MOV.L       @R15+,R10
    00001750 6CF6                   MOV.L       @R15+,R12
    00001752 6DF6                   MOV.L       @R15+,R13
    00001754 000B                   RTS
    00001756 6EF6                   MOV.L       @R15+,R14
    00001758              __$Start__16PlayerControllerFv:  ; function: PlayerController::Start()
                                                           ; frame size=0
    00001758 E300                   MOV         #0,R3
    0000175A 000B                   RTS
    0000175C 1439                   MOV.L       R3,@(36,R4)
    0000175E              L1818:                            
    0000175E 0000                   .DATA.W     0
    00001760 <00000000>             .DATA.L     _ML_rectangle
    00001764 <00000000>             .DATA.L     _KeyDown
    00001768 <00000000>             .DATA.L     L473
    0000176C <00000000>             .DATA.L     __itos
    00001770 <00000000>             .DATA.L     __adds
    00001774 <00000000>             .DATA.L     _GetComponent__10GameObjectFPCc
    00001778 <00000000>             .DATA.L     _mod__FiT1
    0000177C <00000000>             .DATA.L     _Set__7Vector2F7Vector2
    00001780 <00000000>             .DATA.L     ___pl__7Vector2FRC7Vector2
    00001784 <00000000>             .DATA.L     ___ct__7Vector2FfT1
    00001788 41200000               .DATA.L     H'41200000
    0000178C 41000000               .DATA.L     H'41000000
    00001790 <00000000>             .DATA.L     ___mi__7Vector2FRC7Vector2
    00001794 41F80000               .DATA.L     H'41F80000
    00001798 427C0000               .DATA.L     H'427C0000
    0000179C              __$__dt__16PlayerControllerFv:   ; function: PlayerController::~PlayerController()
                                                           ; frame size=12
    0000179C 2FE6                   MOV.L       R14,@-R15
    0000179E 6E43                   MOV         R4,R14
    000017A0 4F22                   STS.L       PR,@-R15
    000017A2 2EE8                   TST         R14,R14
    000017A4 7FFC                   ADD         #-4,R15
    000017A6 8D11                   BT/S        L1749
    000017A8 2F52                   MOV.L       R5,@R15
    000017AA E500                   MOV         #0,R5
    000017AC D279                   MOV.L       L1819+2,R2 ; __$__vtbl__16PlayerController
    000017AE D37A                   MOV.L       L1819+6,R3 ; __$__vtbl__13MonoBehaviour
    000017B0 D27A                   MOV.L       L1819+10,R2; __$__vtbl__9Behaviour
    000017B2 1E22                   MOV.L       R2,@(8,R14)
    000017B4 D37A                   MOV.L       L1819+14,R3; ___dt__9ComponentFv
    000017B6 430B                   JSR         @R3
    000017B8 64E3                   MOV         R14,R4
    000017BA 60F2                   MOV.L       @R15,R0
    000017BC C801                   TST         #1,R0
    000017BE 8905                   BT          L1749
    000017C0 D278                   MOV.L       L1819+18,R2; ___dl__FPv
    000017C2 64E3                   MOV         R14,R4




SH SERIES C/C++ Compiler (Ver. 6.0C)                                                                 09-Nov-2021 18:50:40  PAGE   71


SCT OFFSET   CODE       C LABEL     INSTRUCTION OPERAND    COMMENT

    000017C4 7F04                   ADD         #4,R15
    000017C6 4F26                   LDS.L       @R15+,PR
    000017C8 422B                   JMP         @R2
    000017CA 6EF6                   MOV.L       @R15+,R14
    000017CC              L1749:                            
    000017CC 7F04                   ADD         #4,R15
    000017CE 4F26                   LDS.L       @R15+,PR
    000017D0 000B                   RTS
    000017D2 6EF6                   MOV.L       @R15+,R14
    000017D4              _LoadScene__12SceneManagerFi:    ; function: SceneManager::LoadScene(int)
                                                           ; frame size=16
    000017D4 2FE6                   MOV.L       R14,@-R15
    000017D6 6E43                   MOV         R4,R14
    000017D8 2FD6                   MOV.L       R13,@-R15
    000017DA 4F22                   STS.L       PR,@-R15
    000017DC 7FFC                   ADD         #-4,R15
    000017DE A010                   BRA         L1750
    000017E0 E400                   MOV         #0,R4
    000017E2              L1751:                            
    000017E2 56E2                   MOV.L       @(8,R14),R6
    000017E4 53E1                   MOV.L       @(4,R14),R3
    000017E6 6262                   MOV.L       @R6,R2
    000017E8 3360                   CMP/EQ      R6,R3
    000017EA 8B02                   BF          L1752
    000017EC 1E41                   MOV.L       R4,@(4,R14)
    000017EE A005                   BRA         L1753
    000017F0 1E42                   MOV.L       R4,@(8,R14)
    000017F2              L1752:                            
    000017F2 52E2                   MOV.L       @(8,R14),R2
    000017F4 5322                   MOV.L       @(8,R2),R3
    000017F6 1E32                   MOV.L       R3,@(8,R14)
    000017F8 6233                   MOV         R3,R2
    000017FA 1241                   MOV.L       R4,@(4,R2)
    000017FC              L1753:                            
    000017FC 53E3                   MOV.L       @(12,R14),R3
    000017FE 73FF                   ADD         #-1,R3
    00001800 1E33                   MOV.L       R3,@(12,R14)
    00001802              L1750:                            
    00001802 52E3                   MOV.L       @(12,R14),R2
    00001804 4215                   CMP/PL      R2
    00001806 89EC                   BT          L1751
    00001808 B0D4                   BSR         __$GetSceneInBuild__12SceneManagerFi
    0000180A 64E3                   MOV         R14,R4
    0000180C 2F02                   MOV.L       R0,@R15
    0000180E D366                   MOV.L       L1819+22,R3; ___nw__FUl
    00001810 430B                   JSR         @R3
    00001812 E40C                   MOV         #12,R4
    00001814 2008                   TST         R0,R0
    00001816 8D06                   BT/S        L1754
    00001818 6D03                   MOV         R0,R13
    0000181A E50C                   MOV         #12,R5
    0000181C D363                   MOV.L       L1819+26,R3; ___memzero
    0000181E 430B                   JSR         @R3
    00001820 64D3                   MOV         R13,R4
    00001822 A001                   BRA         L1755
    00001824 64D3                   MOV         R13,R4
    00001826              L1754:                            




SH SERIES C/C++ Compiler (Ver. 6.0C)                                                                 09-Nov-2021 18:50:40  PAGE   72


SCT OFFSET   CODE       C LABEL     INSTRUCTION OPERAND    COMMENT

    00001826 E400                   MOV         #0,R4
    00001828              L1755:                            
    00001828 63F2                   MOV.L       @R15,R3
    0000182A 2432                   MOV.L       R3,@R4
    0000182C 52E3                   MOV.L       @(12,R14),R2
    0000182E 7201                   ADD         #1,R2
    00001830 1E23                   MOV.L       R2,@(12,R14)
    00001832 53E1                   MOV.L       @(4,R14),R3
    00001834 2338                   TST         R3,R3
    00001836 8B01                   BF          L1756
    00001838 A004                   BRA         L1242
    0000183A 1E41                   MOV.L       R4,@(4,R14)
    0000183C              L1756:                            
    0000183C 53E2                   MOV.L       @(8,R14),R3
    0000183E 1432                   MOV.L       R3,@(8,R4)
    00001840 52E2                   MOV.L       @(8,R14),R2
    00001842 1241                   MOV.L       R4,@(4,R2)
    00001844              L1242:
    00001844 1E42                   MOV.L       R4,@(8,R14)
    00001846 7F04                   ADD         #4,R15
    00001848 4F26                   LDS.L       @R15+,PR
    0000184A 6DF6                   MOV.L       @R15+,R13
    0000184C 000B                   RTS
    0000184E 6EF6                   MOV.L       @R15+,R14
    00001850              _LoadScene__12SceneManagerFPUc:  ; function: SceneManager::LoadScene(unsigned char *)
                                                           ; frame size=16
    00001850 2FE6                   MOV.L       R14,@-R15
    00001852 6E43                   MOV         R4,R14
    00001854 2FD6                   MOV.L       R13,@-R15
    00001856 4F22                   STS.L       PR,@-R15
    00001858 7FFC                   ADD         #-4,R15
    0000185A A010                   BRA         L1759
    0000185C E400                   MOV         #0,R4
    0000185E              L1760:                            
    0000185E 56E2                   MOV.L       @(8,R14),R6
    00001860 53E1                   MOV.L       @(4,R14),R3
    00001862 6262                   MOV.L       @R6,R2
    00001864 3360                   CMP/EQ      R6,R3
    00001866 8B02                   BF          L1761
    00001868 1E41                   MOV.L       R4,@(4,R14)
    0000186A A005                   BRA         L1762
    0000186C 1E42                   MOV.L       R4,@(8,R14)
    0000186E              L1761:                            
    0000186E 52E2                   MOV.L       @(8,R14),R2
    00001870 5322                   MOV.L       @(8,R2),R3
    00001872 1E32                   MOV.L       R3,@(8,R14)
    00001874 6233                   MOV         R3,R2
    00001876 1241                   MOV.L       R4,@(4,R2)
    00001878              L1762:                            
    00001878 53E3                   MOV.L       @(12,R14),R3
    0000187A 73FF                   ADD         #-1,R3
    0000187C 1E33                   MOV.L       R3,@(12,R14)
    0000187E              L1759:                            
    0000187E 52E3                   MOV.L       @(12,R14),R2
    00001880 4215                   CMP/PL      R2
    00001882 89EC                   BT          L1760
    00001884 D14A                   MOV.L       L1819+30,R1; _GetSceneInBuild__12SceneManagerFPUc




SH SERIES C/C++ Compiler (Ver. 6.0C)                                                                 09-Nov-2021 18:50:40  PAGE   73


SCT OFFSET   CODE       C LABEL     INSTRUCTION OPERAND    COMMENT

    00001886 410B                   JSR         @R1
    00001888 64E3                   MOV         R14,R4
    0000188A 2F02                   MOV.L       R0,@R15
    0000188C D346                   MOV.L       L1819+22,R3; ___nw__FUl
    0000188E 430B                   JSR         @R3
    00001890 E40C                   MOV         #12,R4
    00001892 2008                   TST         R0,R0
    00001894 8D06                   BT/S        L1763
    00001896 6D03                   MOV         R0,R13
    00001898 D344                   MOV.L       L1819+26,R3; ___memzero
    0000189A E50C                   MOV         #12,R5
    0000189C 430B                   JSR         @R3
    0000189E 64D3                   MOV         R13,R4
    000018A0 A001                   BRA         L1764
    000018A2 64D3                   MOV         R13,R4
    000018A4              L1763:                            
    000018A4 E400                   MOV         #0,R4
    000018A6              L1764:                            
    000018A6 63F2                   MOV.L       @R15,R3
    000018A8 2432                   MOV.L       R3,@R4
    000018AA 52E3                   MOV.L       @(12,R14),R2
    000018AC 7201                   ADD         #1,R2
    000018AE 1E23                   MOV.L       R2,@(12,R14)
    000018B0 53E1                   MOV.L       @(4,R14),R3
    000018B2 2338                   TST         R3,R3
    000018B4 8B01                   BF          L1765
    000018B6 A004                   BRA         L1243
    000018B8 1E41                   MOV.L       R4,@(4,R14)
    000018BA              L1765:                            
    000018BA 53E2                   MOV.L       @(8,R14),R3
    000018BC 1432                   MOV.L       R3,@(8,R4)
    000018BE 52E2                   MOV.L       @(8,R14),R2
    000018C0 1241                   MOV.L       R4,@(4,R2)
    000018C2              L1243:
    000018C2 1E42                   MOV.L       R4,@(8,R14)
    000018C4 7F04                   ADD         #4,R15
    000018C6 4F26                   LDS.L       @R15+,PR
    000018C8 6DF6                   MOV.L       @R15+,R13
    000018CA 000B                   RTS
    000018CC 6EF6                   MOV.L       @R15+,R14
    000018CE              _FindWithName__12SceneManagerFPUc:
                                                           ; function: SceneManager::FindWithName(unsigned char *)
                                                           ; frame size=32
    000018CE 2FE6                   MOV.L       R14,@-R15
    000018D0 2FD6                   MOV.L       R13,@-R15
    000018D2 2FC6                   MOV.L       R12,@-R15
    000018D4 2FB6                   MOV.L       R11,@-R15
    000018D6 6C43                   MOV         R4,R12
    000018D8 2FA6                   MOV.L       R10,@-R15
    000018DA 2F96                   MOV.L       R9,@-R15
    000018DC 2F86                   MOV.L       R8,@-R15
    000018DE E900                   MOV         #0,R9
    000018E0 4F22                   STS.L       PR,@-R15
    000018E2 6853                   MOV         R5,R8
    000018E4 A020                   BRA         L1768
    000018E6 6E93                   MOV         R9,R14
    000018E8              L1769:                            




SH SERIES C/C++ Compiler (Ver. 6.0C)                                                                 09-Nov-2021 18:50:40  PAGE   74


SCT OFFSET   CODE       C LABEL     INSTRUCTION OPERAND    COMMENT

    000018E8 A016                   BRA         L1770
    000018EA 6D93                   MOV         R9,R13
    000018EC              L1771:                            
    000018EC 65E3                   MOV         R14,R5
    000018EE 64C3                   MOV         R12,R4
    000018F0 B239                   BSR         __$get__19List__tm__8_P5SceneFi_Z1Z
    000018F2 7404                   ADD         #4,R4
    000018F4 6A03                   MOV         R0,R10
    000018F6 6BD3                   MOV         R13,R11
    000018F8 65D3                   MOV         R13,R5
    000018FA B9EE                   BSR         __$get__26List__tm__14_P10GameObjectFi_Z1Z
    000018FC 6403                   MOV         R0,R4
    000018FE 6302                   MOV.L       @R0,R3
    00001900 3380                   CMP/EQ      R8,R3
    00001902 8B08                   BF          L1772
    00001904 65E3                   MOV         R14,R5
    00001906 64C3                   MOV         R12,R4
    00001908 B22D                   BSR         __$get__19List__tm__8_P5SceneFi_Z1Z
    0000190A 7404                   ADD         #4,R4
    0000190C 6403                   MOV         R0,R4
    0000190E B9E4                   BSR         __$get__26List__tm__14_P10GameObjectFi_Z1Z
    00001910 65D3                   MOV         R13,R5
    00001912 A00D                   BRA         L1773
    00001914 0009                   NOP
    00001916              L1772:                            
    00001916 7D01                   ADD         #1,R13
    00001918              L1770:                            
    00001918 65E3                   MOV         R14,R5
    0000191A 64C3                   MOV         R12,R4
    0000191C B223                   BSR         __$get__19List__tm__8_P5SceneFi_Z1Z
    0000191E 7404                   ADD         #4,R4
    00001920 5202                   MOV.L       @(8,R0),R2
    00001922 3D23                   CMP/GE      R2,R13
    00001924 8BE2                   BF          L1771
    00001926 7E01                   ADD         #1,R14
    00001928              L1768:                            
    00001928 52C3                   MOV.L       @(12,R12),R2
    0000192A 3E23                   CMP/GE      R2,R14
    0000192C 8BDC                   BF          L1769
    0000192E E000                   MOV         #0,R0
    00001930              L1773:                            
    00001930 4F26                   LDS.L       @R15+,PR
    00001932 68F6                   MOV.L       @R15+,R8
    00001934 69F6                   MOV.L       @R15+,R9
    00001936 6AF6                   MOV.L       @R15+,R10
    00001938 6BF6                   MOV.L       @R15+,R11
    0000193A 6CF6                   MOV.L       @R15+,R12
    0000193C 6DF6                   MOV.L       @R15+,R13
    0000193E 000B                   RTS
    00001940 6EF6                   MOV.L       @R15+,R14
    00001942              _UpdateScene__12SceneManagerFv:  ; function: SceneManager::UpdateScene()
                                                           ; frame size=12
    00001942 2FE6                   MOV.L       R14,@-R15
    00001944 2FD6                   MOV.L       R13,@-R15
    00001946 6D43                   MOV         R4,R13
    00001948 4F22                   STS.L       PR,@-R15
    0000194A A007                   BRA         L1774




SH SERIES C/C++ Compiler (Ver. 6.0C)                                                                 09-Nov-2021 18:50:40  PAGE   75


SCT OFFSET   CODE       C LABEL     INSTRUCTION OPERAND    COMMENT

    0000194C EE00                   MOV         #0,R14
    0000194E              L1775:                            
    0000194E 65E3                   MOV         R14,R5
    00001950 64D3                   MOV         R13,R4
    00001952 B208                   BSR         __$get__19List__tm__8_P5SceneFi_Z1Z
    00001954 7404                   ADD         #4,R4
    00001956 B98F                   BSR         _Update__5SceneFv
    00001958 6403                   MOV         R0,R4
    0000195A 7E01                   ADD         #1,R14
    0000195C              L1774:                            
    0000195C 52D3                   MOV.L       @(12,R13),R2
    0000195E 3E23                   CMP/GE      R2,R14
    00001960 8BF5                   BF          L1775
    00001962 4F26                   LDS.L       @R15+,PR
    00001964 6DF6                   MOV.L       @R15+,R13
    00001966 000B                   RTS
    00001968 6EF6                   MOV.L       @R15+,R14
    0000196A              _StartScene__12SceneManagerFv:   ; function: SceneManager::StartScene()
                                                           ; frame size=12
    0000196A 2FE6                   MOV.L       R14,@-R15
    0000196C 2FD6                   MOV.L       R13,@-R15
    0000196E 6D43                   MOV         R4,R13
    00001970 4F22                   STS.L       PR,@-R15
    00001972 A007                   BRA         L1777
    00001974 EE00                   MOV         #0,R14
    00001976              L1778:                            
    00001976 65E3                   MOV         R14,R5
    00001978 64D3                   MOV         R13,R4
    0000197A B1F4                   BSR         __$get__19List__tm__8_P5SceneFi_Z1Z
    0000197C 7404                   ADD         #4,R4
    0000197E B98E                   BSR         _Start__5SceneFv
    00001980 6403                   MOV         R0,R4
    00001982 7E01                   ADD         #1,R14
    00001984              L1777:                            
    00001984 52D3                   MOV.L       @(12,R13),R2
    00001986 3E23                   CMP/GE      R2,R14
    00001988 8BF5                   BF          L1778
    0000198A 4F26                   LDS.L       @R15+,PR
    0000198C 6DF6                   MOV.L       @R15+,R13
    0000198E 000B                   RTS
    00001990 6EF6                   MOV.L       @R15+,R14
    00001992              L1819:                            
    00001992 0000                   .DATA.W     0
    00001994 <00000000>             .DATA.L     __$__vtbl__16PlayerController
    00001998 <00000000>             .DATA.L     __$__vtbl__13MonoBehaviour
    0000199C <00000000>             .DATA.L     __$__vtbl__9Behaviour
    000019A0 <00000000>             .DATA.L     ___dt__9ComponentFv
    000019A4 <00000000>             .DATA.L     ___dl__FPv
    000019A8 <00000000>             .DATA.L     ___nw__FUl
    000019AC <00000000>             .DATA.L     ___memzero
    000019B0 <00000000>             .DATA.L     _GetSceneInBuild__12SceneManagerFPUc
    000019B4              __$GetSceneInBuild__12SceneManagerFi:
                                                           ; function: SceneManager::GetSceneInBuild(int)
                                                           ; frame size=188
    000019B4 2FE6                   MOV.L       R14,@-R15
    000019B6 EE00                   MOV         #0,R14
    000019B8 2FD6                   MOV.L       R13,@-R15




SH SERIES C/C++ Compiler (Ver. 6.0C)                                                                 09-Nov-2021 18:50:40  PAGE   76


SCT OFFSET   CODE       C LABEL     INSTRUCTION OPERAND    COMMENT

    000019BA 63E3                   MOV         R14,R3
    000019BC 2FC6                   MOV.L       R12,@-R15
    000019BE 2338                   TST         R3,R3
    000019C0 2FB6                   MOV.L       R11,@-R15
    000019C2 2FA6                   MOV.L       R10,@-R15
    000019C4 2F96                   MOV.L       R9,@-R15
    000019C6 2F86                   MOV.L       R8,@-R15
    000019C8 4F22                   STS.L       PR,@-R15
    000019CA 7FC4                   ADD         #-60,R15
    000019CC 1F43                   MOV.L       R4,@(12,R15)
    000019CE 1F52                   MOV.L       R5,@(8,R15)
    000019D0 8F06                   BF/S        L1781
    000019D2 1FE1                   MOV.L       R14,@(4,R15)
    000019D4 D352                   MOV.L       L1820+4,R3 ; ___nw__FUl
    000019D6 430B                   JSR         @R3
    000019D8 E430                   MOV         #48,R4
    000019DA 2008                   TST         R0,R0
    000019DC 8D0D                   BT/S        L1782
    000019DE 1F01                   MOV.L       R0,@(4,R15)
    000019E0              L1781:                            
    000019E0 5BF1                   MOV.L       @(4,R15),R11
    000019E2 E300                   MOV         #0,R3
    000019E4 1B32                   MOV.L       R3,@(8,R11)
    000019E6 5BF1                   MOV.L       @(4,R15),R11
    000019E8 2BE2                   MOV.L       R14,@R11
    000019EA 5BF1                   MOV.L       @(4,R15),R11
    000019EC 1BE1                   MOV.L       R14,@(4,R11)
    000019EE 5BF1                   MOV.L       @(4,R15),R11
    000019F0 1B3B                   MOV.L       R3,@(44,R11)
    000019F2 5BF1                   MOV.L       @(4,R15),R11
    000019F4 1BE9                   MOV.L       R14,@(36,R11)
    000019F6 5BF1                   MOV.L       @(4,R15),R11
    000019F8 1BEA                   MOV.L       R14,@(40,R11)
    000019FA              L1782:                            
    000019FA E714                   MOV         #20,R7
    000019FC DD4B                   MOV.L       L1820+16,R13; L468
    000019FE E610                   MOV         #16,R6
    00001A00 5BF1                   MOV.L       @(4,R15),R11
    00001A02 65D3                   MOV         R13,R5
    00001A04 53F3                   MOV.L       @(12,R15),R3
    00001A06 1B33                   MOV.L       R3,@(12,R11)
    00001A08 DC46                   MOV.L       L1820+8,R12; ___ct__7TextureFPCciT2PCUcT1
    00001A0A 2FE6                   MOV.L       R14,@-R15
    00001A0C D346                   MOV.L       L1820+12,R3; __$UUID_355aae99_e49f_4a07_b7b8_ecf7673e547c
    00001A0E 2F36                   MOV.L       R3,@-R15
    00001A10 4C0B                   JSR         @R12
    00001A12 E400                   MOV         #0,R4
    00001A14 1F0E                   MOV.L       R0,@(56,R15)
    00001A16 E714                   MOV         #20,R7
    00001A18 D345                   MOV.L       L1820+20,R3; __$UUID_3b28f421_9575_4c12_91c4_2c145b435538
    00001A1A E610                   MOV         #16,R6
    00001A1C 2FE6                   MOV.L       R14,@-R15
    00001A1E 65D3                   MOV         R13,R5
    00001A20 2F36                   MOV.L       R3,@-R15
    00001A22 4C0B                   JSR         @R12
    00001A24 E400                   MOV         #0,R4
    00001A26 E714                   MOV         #20,R7




SH SERIES C/C++ Compiler (Ver. 6.0C)                                                                 09-Nov-2021 18:50:40  PAGE   77


SCT OFFSET   CODE       C LABEL     INSTRUCTION OPERAND    COMMENT

    00001A28 1F0E                   MOV.L       R0,@(56,R15)
    00001A2A E610                   MOV         #16,R6
    00001A2C D341                   MOV.L       L1820+24,R3; __$UUID_53848287_45f6_410e_b7f2_b01019c5a1e9
    00001A2E 65D3                   MOV         R13,R5
    00001A30 2FE6                   MOV.L       R14,@-R15
    00001A32 2F36                   MOV.L       R3,@-R15
    00001A34 4C0B                   JSR         @R12
    00001A36 E400                   MOV         #0,R4
    00001A38 1F0C                   MOV.L       R0,@(48,R15)
    00001A3A E714                   MOV         #20,R7
    00001A3C D33E                   MOV.L       L1820+28,R3; __$UUID_600cd8e3_41c3_4a5e_8550_1ef2c44147af
    00001A3E E610                   MOV         #16,R6
    00001A40 2FE6                   MOV.L       R14,@-R15
    00001A42 65D3                   MOV         R13,R5
    00001A44 2F36                   MOV.L       R3,@-R15
    00001A46 4C0B                   JSR         @R12
    00001A48 E400                   MOV         #0,R4
    00001A4A E714                   MOV         #20,R7
    00001A4C 1F0D                   MOV.L       R0,@(52,R15)
    00001A4E E610                   MOV         #16,R6
    00001A50 D33A                   MOV.L       L1820+32,R3; __$UUID_6432dbba_ba4c_4f25_a9d3_15cf97c6e1ea
    00001A52 65D3                   MOV         R13,R5
    00001A54 2FE6                   MOV.L       R14,@-R15
    00001A56 2F36                   MOV.L       R3,@-R15
    00001A58 4C0B                   JSR         @R12
    00001A5A E400                   MOV         #0,R4
    00001A5C 1F0D                   MOV.L       R0,@(52,R15)
    00001A5E E714                   MOV         #20,R7
    00001A60 D337                   MOV.L       L1820+36,R3; __$UUID_9b63aa6b_0684_4171_a80a_a82e6e29f6ae
    00001A62 E610                   MOV         #16,R6
    00001A64 2FE6                   MOV.L       R14,@-R15
    00001A66 65D3                   MOV         R13,R5
    00001A68 2F36                   MOV.L       R3,@-R15
    00001A6A 4C0B                   JSR         @R12
    00001A6C E400                   MOV         #0,R4
    00001A6E 61F3                   MOV         R15,R1
    00001A70 D334                   MOV.L       L1820+40,R3; __$UUID_a1bc752c_94cf_41b4_a8f3_a32ec3d9312b
    00001A72 E714                   MOV         #20,R7
    00001A74 715C                   ADD         #92,R1
    00001A76 E610                   MOV         #16,R6
    00001A78 2102                   MOV.L       R0,@R1
    00001A7A 65D3                   MOV         R13,R5
    00001A7C 2FE6                   MOV.L       R14,@-R15
    00001A7E 2F36                   MOV.L       R3,@-R15
    00001A80 4C0B                   JSR         @R12
    00001A82 E400                   MOV         #0,R4
    00001A84 D330                   MOV.L       L1820+44,R3; __$UUID_a9e4b5ab_ecdd_4525_8dbd_dbfaef28a6f6
    00001A86 E714                   MOV         #20,R7
    00001A88 61F3                   MOV         R15,R1
    00001A8A 7154                   ADD         #84,R1
    00001A8C 2102                   MOV.L       R0,@R1
    00001A8E E610                   MOV         #16,R6
    00001A90 2FE6                   MOV.L       R14,@-R15
    00001A92 65D3                   MOV         R13,R5
    00001A94 2F36                   MOV.L       R3,@-R15
    00001A96 4C0B                   JSR         @R12
    00001A98 E400                   MOV         #0,R4




SH SERIES C/C++ Compiler (Ver. 6.0C)                                                                 09-Nov-2021 18:50:40  PAGE   78


SCT OFFSET   CODE       C LABEL     INSTRUCTION OPERAND    COMMENT

    00001A9A 61F3                   MOV         R15,R1
    00001A9C D32B                   MOV.L       L1820+48,R3; __$UUID_dc9afec8_2e2e_4996_8271_1ac4cb193c2f
    00001A9E E714                   MOV         #20,R7
    00001AA0 7150                   ADD         #80,R1
    00001AA2 E610                   MOV         #16,R6
    00001AA4 2102                   MOV.L       R0,@R1
    00001AA6 65D3                   MOV         R13,R5
    00001AA8 2FE6                   MOV.L       R14,@-R15
    00001AAA 2F36                   MOV.L       R3,@-R15
    00001AAC 4C0B                   JSR         @R12
    00001AAE E400                   MOV         #0,R4
    00001AB0 D327                   MOV.L       L1820+52,R3; __$UUID_e4cf6d14_c9f2_4336_bb03_53529e5e4d6f
    00001AB2 E714                   MOV         #20,R7
    00001AB4 61F3                   MOV         R15,R1
    00001AB6 716C                   ADD         #108,R1
    00001AB8 2102                   MOV.L       R0,@R1
    00001ABA E610                   MOV         #16,R6
    00001ABC 2FE6                   MOV.L       R14,@-R15
    00001ABE 65D3                   MOV         R13,R5
    00001AC0 2F36                   MOV.L       R3,@-R15
    00001AC2 4C0B                   JSR         @R12
    00001AC4 E400                   MOV         #0,R4
    00001AC6 61F3                   MOV         R15,R1
    00001AC8 D322                   MOV.L       L1820+56,R3; __$UUID_e870f483_8f84_44ae_b86c_bb1978372306
    00001ACA E714                   MOV         #20,R7
    00001ACC 7170                   ADD         #112,R1
    00001ACE E610                   MOV         #16,R6
    00001AD0 2102                   MOV.L       R0,@R1
    00001AD2 65D3                   MOV         R13,R5
    00001AD4 2FE6                   MOV.L       R14,@-R15
    00001AD6 2F36                   MOV.L       R3,@-R15
    00001AD8 4C0B                   JSR         @R12
    00001ADA E400                   MOV         #0,R4
    00001ADC 911E                   MOV.W       L1820,R1   ; H'008C
    00001ADE E714                   MOV         #20,R7
    00001AE0 D31D                   MOV.L       L1820+60,R3; __$UUID_f018f68e_6f34_4b9a_bbc4_9513b3bc17c6
    00001AE2 E610                   MOV         #16,R6
    00001AE4 31FC                   ADD         R15,R1
    00001AE6 65D3                   MOV         R13,R5
    00001AE8 2102                   MOV.L       R0,@R1
    00001AEA 2FE6                   MOV.L       R14,@-R15
    00001AEC 2F36                   MOV.L       R3,@-R15
    00001AEE 4C0B                   JSR         @R12
    00001AF0 E400                   MOV         #0,R4
    00001AF2 7F60                   ADD         #96,R15
    00001AF4 1F0E                   MOV.L       R0,@(56,R15)
    00001AF6 53F2                   MOV.L       @(8,R15),R3
    00001AF8 2338                   TST         R3,R3
    00001AFA 8901                   BT          L1821
    00001AFC A101                   BRA         L1783
    00001AFE 0009                   NOP
    00001B00              L1821:                            
    00001B00 DD16                   MOV.L       L1820+64,R13; ___ct__10GameObjectFP5ScenePCcT2
    00001B02 65B3                   MOV         R11,R5
    00001B04 D716                   MOV.L       L1820+68,R7; L1201
    00001B06 D617                   MOV.L       L1820+72,R6; L471
    00001B08 4D0B                   JSR         @R13




SH SERIES C/C++ Compiler (Ver. 6.0C)                                                                 09-Nov-2021 18:50:40  PAGE   79


SCT OFFSET   CODE       C LABEL     INSTRUCTION OPERAND    COMMENT

    00001B0A E400                   MOV         #0,R4
    00001B0C D916                   MOV.L       L1820+76,R9; _Set__7Vector2FfT1
    00001B0E 6C03                   MOV         R0,R12
    00001B10 E801                   MOV         #1,R8
    00001B12 1C87                   MOV.L       R8,@(28,R12)
    00001B14 1C86                   MOV.L       R8,@(24,R12)
    00001B16 1CE8                   MOV.L       R14,@(32,R12)
    00001B18 A028                   BRA         L1806
    00001B1A 0009                   NOP
    00001B1C              L1820:                            
    00001B1C 008C                   .DATA.W     H'008C
    00001B1E 0000                   .DATA.W     0
    00001B20 <00000000>             .DATA.L     ___nw__FUl
    00001B24 <00000000>             .DATA.L     ___ct__7TextureFPCciT2PCUcT1
    00001B28 <00000000>             .DATA.L     __$UUID_355aae99_e49f_4a07_b7b8_ecf7673e547c
    00001B2C <00000000>             .DATA.L     L468
    00001B30 <00000000>             .DATA.L     __$UUID_3b28f421_9575_4c12_91c4_2c145b435538
    00001B34 <00000000>             .DATA.L     __$UUID_53848287_45f6_410e_b7f2_b01019c5a1e9
    00001B38 <00000000>             .DATA.L     __$UUID_600cd8e3_41c3_4a5e_8550_1ef2c44147af
    00001B3C <00000000>             .DATA.L     __$UUID_6432dbba_ba4c_4f25_a9d3_15cf97c6e1ea
    00001B40 <00000000>             .DATA.L     __$UUID_9b63aa6b_0684_4171_a80a_a82e6e29f6ae
    00001B44 <00000000>             .DATA.L     __$UUID_a1bc752c_94cf_41b4_a8f3_a32ec3d9312b
    00001B48 <00000000>             .DATA.L     __$UUID_a9e4b5ab_ecdd_4525_8dbd_dbfaef28a6f6
    00001B4C <00000000>             .DATA.L     __$UUID_dc9afec8_2e2e_4996_8271_1ac4cb193c2f
    00001B50 <00000000>             .DATA.L     __$UUID_e4cf6d14_c9f2_4336_bb03_53529e5e4d6f
    00001B54 <00000000>             .DATA.L     __$UUID_e870f483_8f84_44ae_b86c_bb1978372306
    00001B58 <00000000>             .DATA.L     __$UUID_f018f68e_6f34_4b9a_bbc4_9513b3bc17c6
    00001B5C <00000000>             .DATA.L     ___ct__10GameObjectFP5ScenePCcT2
    00001B60 <00000000>             .DATA.L     L1201
    00001B64 <00000000>             .DATA.L     L471
    00001B68 <00000000>             .DATA.L     _Set__7Vector2FfT1
    00001B6C              L1806:                            
    00001B6C 54CD                   MOV.L       @(52,R12),R4
    00001B6E E048                   MOV         #72,R0
    00001B70 E600                   MOV         #0,R6
    00001B72 6563                   MOV         R6,R5
    00001B74 490B                   JSR         @R9
    00001B76 044E                   MOV.L       @(R0,R4),R4
    00001B78 54CD                   MOV.L       @(52,R12),R4
    00001B7A E600                   MOV         #0,R6
    00001B7C 6563                   MOV         R6,R5
    00001B7E 490B                   JSR         @R9
    00001B80 544E                   MOV.L       @(56,R4),R4
    00001B82 65C3                   MOV         R12,R5
    00001B84 D380                   MOV.L       L1822+2,R3 ; _AddGameObject__5SceneFP10GameObject
    00001B86 1F32                   MOV.L       R3,@(8,R15)
    00001B88 430B                   JSR         @R3
    00001B8A 64B3                   MOV         R11,R4
    00001B8C D77F                   MOV.L       L1822+6,R7 ; L1202
    00001B8E 65B3                   MOV         R11,R5
    00001B90 D67F                   MOV.L       L1822+10,R6; L476
    00001B92 4D0B                   JSR         @R13
    00001B94 E400                   MOV         #0,R4
    00001B96 6A03                   MOV         R0,R10
    00001B98 1A87                   MOV.L       R8,@(28,R10)
    00001B9A E600                   MOV         #0,R6
    00001B9C 1A86                   MOV.L       R8,@(24,R10)




SH SERIES C/C++ Compiler (Ver. 6.0C)                                                                 09-Nov-2021 18:50:40  PAGE   80


SCT OFFSET   CODE       C LABEL     INSTRUCTION OPERAND    COMMENT

    00001B9E E048                   MOV         #72,R0
    00001BA0 1AE8                   MOV.L       R14,@(32,R10)
    00001BA2 6563                   MOV         R6,R5
    00001BA4 54AD                   MOV.L       @(52,R10),R4
    00001BA6 490B                   JSR         @R9
    00001BA8 044E                   MOV.L       @(R0,R4),R4
    00001BAA E600                   MOV         #0,R6
    00001BAC 54AD                   MOV.L       @(52,R10),R4
    00001BAE 6563                   MOV         R6,R5
    00001BB0 490B                   JSR         @R9
    00001BB2 544E                   MOV.L       @(56,R4),R4
    00001BB4 53F2                   MOV.L       @(8,R15),R3
    00001BB6 65A3                   MOV         R10,R5
    00001BB8 430B                   JSR         @R3
    00001BBA 64B3                   MOV         R11,R4
    00001BBC D775                   MOV.L       L1822+14,R7; L1204
    00001BBE 65B3                   MOV         R11,R5
    00001BC0 D675                   MOV.L       L1822+18,R6; L1203
    00001BC2 4D0B                   JSR         @R13
    00001BC4 E400                   MOV         #0,R4
    00001BC6 6D03                   MOV         R0,R13
    00001BC8 D674                   MOV.L       L1822+22,R6; H'41A00000
    00001BCA E048                   MOV         #72,R0
    00001BCC 1D87                   MOV.L       R8,@(28,R13)
    00001BCE 1D86                   MOV.L       R8,@(24,R13)
    00001BD0 1DE8                   MOV.L       R14,@(32,R13)
    00001BD2 D573                   MOV.L       L1822+26,R5; H'42200000
    00001BD4 54DD                   MOV.L       @(52,R13),R4
    00001BD6 490B                   JSR         @R9
    00001BD8 044E                   MOV.L       @(R0,R4),R4
    00001BDA D670                   MOV.L       L1822+22,R6; H'41A00000
    00001BDC D570                   MOV.L       L1822+26,R5; H'42200000
    00001BDE 54DD                   MOV.L       @(52,R13),R4
    00001BE0 490B                   JSR         @R9
    00001BE2 544E                   MOV.L       @(56,R4),R4
    00001BE4 53F2                   MOV.L       @(8,R15),R3
    00001BE6 65D3                   MOV         R13,R5
    00001BE8 430B                   JSR         @R3
    00001BEA 64B3                   MOV         R11,R4
    00001BEC D36D                   MOV.L       L1822+30,R3; ___ct__6CameraFP10GameObjectPCc
    00001BEE 65C3                   MOV         R12,R5
    00001BF0 D66D                   MOV.L       L1822+34,R6; L1205
    00001BF2 430B                   JSR         @R3
    00001BF4 E400                   MOV         #0,R4
    00001BF6 6503                   MOV         R0,R5
    00001BF8 1F02                   MOV.L       R0,@(8,R15)
    00001BFA D96C                   MOV.L       L1822+38,R9; _AddComponent__10GameObjectFP9Component
    00001BFC 490B                   JSR         @R9
    00001BFE 64C3                   MOV         R12,R4
    00001C00 DC6B                   MOV.L       L1822+42,R12; ___ct__7TilemapFP10GameObjectP7Vector2T2PCc
    00001C02 D36C                   MOV.L       L1822+46,R3; L1206
    00001C04 D26C                   MOV.L       L1822+50,R2; ___ct__7Vector2FfT1
    00001C06 2F36                   MOV.L       R3,@-R15
    00001C08 1F23                   MOV.L       R2,@(12,R15)
    00001C0A D66C                   MOV.L       L1822+54,R6; H'41800000
    00001C0C 6563                   MOV         R6,R5
    00001C0E 420B                   JSR         @R2




SH SERIES C/C++ Compiler (Ver. 6.0C)                                                                 09-Nov-2021 18:50:40  PAGE   81


SCT OFFSET   CODE       C LABEL     INSTRUCTION OPERAND    COMMENT

    00001C10 E400                   MOV         #0,R4
    00001C12 2F06                   MOV.L       R0,@-R15
    00001C14 53F4                   MOV.L       @(16,R15),R3
    00001C16 D661                   MOV.L       L1822+22,R6; H'41A00000
    00001C18 6563                   MOV         R6,R5
    00001C1A 430B                   JSR         @R3
    00001C1C E400                   MOV         #0,R4
    00001C1E 6603                   MOV         R0,R6
    00001C20 65A3                   MOV         R10,R5
    00001C22 E400                   MOV         #0,R4
    00001C24 4C0B                   JSR         @R12
    00001C26 67F6                   MOV.L       @R15+,R7
    00001C28 7F04                   ADD         #4,R15
    00001C2A 6C03                   MOV         R0,R12
    00001C2C 6503                   MOV         R0,R5
    00001C2E 490B                   JSR         @R9
    00001C30 64A3                   MOV         R10,R4
    00001C32 D363                   MOV.L       L1822+58,R3; __$__2808_12_UUID_fbe0964f_80f0_4bb3_9701_3928fd378215_TilemapDatas$119
                        +                                  1
    00001C34 D263                   MOV.L       L1822+62,R2; ___nw__FUl
    00001C36 1C3A                   MOV.L       R3,@(40,R12)
    00001C38 420B                   JSR         @R2
    00001C3A E40C                   MOV         #12,R4
    00001C3C 1C09                   MOV.L       R0,@(36,R12)
    00001C3E 6303                   MOV         R0,R3
    00001C40 D261                   MOV.L       L1822+66,R2; ___ct__7TextureFv
    00001C42 2F06                   MOV.L       R0,@-R15
    00001C44 420B                   JSR         @R2
    00001C46 E400                   MOV         #0,R4
    00001C48 61F6                   MOV.L       @R15+,R1
    00001C4A 2102                   MOV.L       R0,@R1
    00001C4C 53C9                   MOV.L       @(36,R12),R3
    00001C4E 52F5                   MOV.L       @(20,R15),R2
    00001C50 1321                   MOV.L       R2,@(4,R3)
    00001C52 53C9                   MOV.L       @(36,R12),R3
    00001C54 52F4                   MOV.L       @(16,R15),R2
    00001C56 1322                   MOV.L       R2,@(8,R3)
    00001C58 D25C                   MOV.L       L1822+70,R2; L1207
    00001C5A E300                   MOV         #0,R3
    00001C5C 2F32                   MOV.L       R3,@R15
    00001C5E 1F22                   MOV.L       R2,@(8,R15)
    00001C60 63F2                   MOV.L       @R15,R3
    00001C62 2338                   TST         R3,R3
    00001C64 8B05                   BF          L1785
    00001C66 D357                   MOV.L       L1822+62,R3; ___nw__FUl
    00001C68 430B                   JSR         @R3
    00001C6A E45C                   MOV         #92,R4
    00001C6C 2008                   TST         R0,R0
    00001C6E 8D39                   BT/S        L1786
    00001C70 2F02                   MOV.L       R0,@R15
    00001C72              L1785:                            
    00001C72 66D3                   MOV         R13,R6
    00001C74 D557                   MOV.L       L1822+78,R5; L477
    00001C76 D256                   MOV.L       L1822+74,R2; ___ct__13MonoBehaviourFPCcP10GameObjectT1
    00001C78 57F2                   MOV.L       @(8,R15),R7
    00001C7A 420B                   JSR         @R2
    00001C7C 64F2                   MOV.L       @R15,R4




SH SERIES C/C++ Compiler (Ver. 6.0C)                                                                 09-Nov-2021 18:50:40  PAGE   82


SCT OFFSET   CODE       C LABEL     INSTRUCTION OPERAND    COMMENT

    00001C7E E040                   MOV         #64,R0
    00001C80 63F2                   MOV.L       @R15,R3
    00001C82 D255                   MOV.L       L1822+82,R2; __$__vtbl__16PlayerController
    00001C84 1322                   MOV.L       R2,@(8,R3)
    00001C86 63F2                   MOV.L       @R15,R3
    00001C88 52F3                   MOV.L       @(12,R15),R2
    00001C8A 132A                   MOV.L       R2,@(40,R3)
    00001C8C 63F2                   MOV.L       @R15,R3
    00001C8E 52F6                   MOV.L       @(24,R15),R2
    00001C90 132B                   MOV.L       R2,@(44,R3)
    00001C92 63F2                   MOV.L       @R15,R3
    00001C94 52FA                   MOV.L       @(40,R15),R2
    00001C96 132C                   MOV.L       R2,@(48,R3)
    00001C98 63F2                   MOV.L       @R15,R3
    00001C9A 52FD                   MOV.L       @(52,R15),R2
    00001C9C 132D                   MOV.L       R2,@(52,R3)
    00001C9E 63F2                   MOV.L       @R15,R3
    00001CA0 52FC                   MOV.L       @(48,R15),R2
    00001CA2 132E                   MOV.L       R2,@(56,R3)
    00001CA4 63F2                   MOV.L       @R15,R3
    00001CA6 52FB                   MOV.L       @(44,R15),R2
    00001CA8 132F                   MOV.L       R2,@(60,R3)
    00001CAA 63F2                   MOV.L       @R15,R3
    00001CAC 52F5                   MOV.L       @(20,R15),R2
    00001CAE 0326                   MOV.L       R2,@(R0,R3)
    00001CB0 63F2                   MOV.L       @R15,R3
    00001CB2 E044                   MOV         #68,R0
    00001CB4 52FE                   MOV.L       @(56,R15),R2
    00001CB6 0326                   MOV.L       R2,@(R0,R3)
    00001CB8 63F2                   MOV.L       @R15,R3
    00001CBA E048                   MOV         #72,R0
    00001CBC 52F9                   MOV.L       @(36,R15),R2
    00001CBE 0326                   MOV.L       R2,@(R0,R3)
    00001CC0 63F2                   MOV.L       @R15,R3
    00001CC2 E04C                   MOV         #76,R0
    00001CC4 52F8                   MOV.L       @(32,R15),R2
    00001CC6 0326                   MOV.L       R2,@(R0,R3)
    00001CC8 63F2                   MOV.L       @R15,R3
    00001CCA E050                   MOV         #80,R0
    00001CCC 52F7                   MOV.L       @(28,R15),R2
    00001CCE 0326                   MOV.L       R2,@(R0,R3)
    00001CD0 63F2                   MOV.L       @R15,R3
    00001CD2 E054                   MOV         #84,R0
    00001CD4 52F4                   MOV.L       @(16,R15),R2
    00001CD6 0326                   MOV.L       R2,@(R0,R3)
    00001CD8 63F2                   MOV.L       @R15,R3
    00001CDA E205                   MOV         #5,R2
    00001CDC E058                   MOV         #88,R0
    00001CDE 0326                   MOV.L       R2,@(R0,R3)
    00001CE0 63F2                   MOV.L       @R15,R3
    00001CE2 13E9                   MOV.L       R14,@(36,R3)
    00001CE4              L1786:                            
    00001CE4 62F2                   MOV.L       @R15,R2
    00001CE6 1F22                   MOV.L       R2,@(8,R15)
    00001CE8 6523                   MOV         R2,R5
    00001CEA 490B                   JSR         @R9
    00001CEC 64D3                   MOV         R13,R4




SH SERIES C/C++ Compiler (Ver. 6.0C)                                                                 09-Nov-2021 18:50:40  PAGE   83


SCT OFFSET   CODE       C LABEL     INSTRUCTION OPERAND    COMMENT

    00001CEE 65D3                   MOV         R13,R5
    00001CF0 D33A                   MOV.L       L1822+86,R3; ___ct__6SpriteFP10GameObjectP7TexturePCc
    00001CF2 D73B                   MOV.L       L1822+90,R7; L1208
    00001CF4 56F3                   MOV.L       @(12,R15),R6
    00001CF6 430B                   JSR         @R3
    00001CF8 E400                   MOV         #0,R4
    00001CFA 6503                   MOV         R0,R5
    00001CFC 1F03                   MOV.L       R0,@(12,R15)
    00001CFE 490B                   JSR         @R9
    00001D00 64D3                   MOV         R13,R4
    00001D02              L1783:                            
    00001D02 60B3                   MOV         R11,R0
    00001D04 7F3C                   ADD         #60,R15
    00001D06 4F26                   LDS.L       @R15+,PR
    00001D08 68F6                   MOV.L       @R15+,R8
    00001D0A 69F6                   MOV.L       @R15+,R9
    00001D0C 6AF6                   MOV.L       @R15+,R10
    00001D0E 6BF6                   MOV.L       @R15+,R11
    00001D10 6CF6                   MOV.L       @R15+,R12
    00001D12 6DF6                   MOV.L       @R15+,R13
    00001D14 000B                   RTS
    00001D16 6EF6                   MOV.L       @R15+,R14
    00001D18              _GetSceneInBuild__12SceneManagerFPUc:
                                                           ; function: SceneManager::GetSceneInBuild(unsigned char *)
                                                           ; frame size=12
    00001D18 2FE6                   MOV.L       R14,@-R15
    00001D1A 4F22                   STS.L       PR,@-R15
    00001D1C D231                   MOV.L       L1822+94,R2; L1213
    00001D1E 7FFC                   ADD         #-4,R15
    00001D20 6322                   MOV.L       @R2,R3
    00001D22 66F3                   MOV         R15,R6
    00001D24 2F32                   MOV.L       R3,@R15
    00001D26 A00E                   BRA         L1788
    00001D28 EE00                   MOV         #0,R14
    00001D2A              L1789:                            
    00001D2A 60E3                   MOV         R14,R0
    00001D2C 4008                   SHLL2       R0
    00001D2E 036E                   MOV.L       @(R0,R6),R3
    00001D30 3530                   CMP/EQ      R3,R5
    00001D32 8B05                   BF          L1790
    00001D34 BE3E                   BSR         __$GetSceneInBuild__12SceneManagerFi
    00001D36 65E3                   MOV         R14,R5
    00001D38 7F04                   ADD         #4,R15
    00001D3A 4F26                   LDS.L       @R15+,PR
    00001D3C 000B                   RTS
    00001D3E 6EF6                   MOV.L       @R15+,R14
    00001D40              L1790:                            
    00001D40 7E01                   ADD         #1,R14
    00001D42 4E11                   CMP/PZ      R14
    00001D44 8BF1                   BF          L1789
    00001D46              L1788:                            
    00001D46 E000                   MOV         #0,R0
    00001D48              L1791:                            
    00001D48 7F04                   ADD         #4,R15
    00001D4A 4F26                   LDS.L       @R15+,PR
    00001D4C 000B                   RTS
    00001D4E 6EF6                   MOV.L       @R15+,R14




SH SERIES C/C++ Compiler (Ver. 6.0C)                                                                 09-Nov-2021 18:50:40  PAGE   84


SCT OFFSET   CODE       C LABEL     INSTRUCTION OPERAND    COMMENT

    00001D50              __$get_node__19List__tm__8_P5SceneFi_P15Node__tm__4_Z1Z:
                                                           ; function: Node<T1> *List<T1>::get_node(int) [with T1=Scene *]
                                                           ; frame size=0
    00001D50 E700                   MOV         #0,R7
    00001D52 A002                   BRA         L1792
    00001D54 6642                   MOV.L       @R4,R6
    00001D56              L1793:                            
    00001D56 7701                   ADD         #1,R7
    00001D58 5661                   MOV.L       @(4,R6),R6
    00001D5A              L1792:                            
    00001D5A 2668                   TST         R6,R6
    00001D5C 8901                   BT          L1794
    00001D5E 3750                   CMP/EQ      R5,R7
    00001D60 8BF9                   BF          L1793
    00001D62              L1794:                            
    00001D62 000B                   RTS
    00001D64 6063                   MOV         R6,R0
    00001D66              __$get__19List__tm__8_P5SceneFi_Z1Z:
                                                           ; function: T1 List<T1>::get(int) [with T1=Scene *]
                                                           ; frame size=4
    00001D66 E3FF                   MOV         #-1,R3
    00001D68 4F22                   STS.L       PR,@-R15
    00001D6A 3533                   CMP/GE      R3,R5
    00001D6C 8B04                   BF          L1244
    00001D6E BFEF                   BSR         __$get_node__19List__tm__8_P5SceneFi_P15Node__tm__4_Z1Z
    00001D70 0009                   NOP
    00001D72 6403                   MOV         R0,R4
    00001D74 2448                   TST         R4,R4
    00001D76 8B02                   BF          L1798
    00001D78              L1244:
    00001D78 4F26                   LDS.L       @R15+,PR
    00001D7A 000B                   RTS
    00001D7C E000                   MOV         #0,R0
    00001D7E              L1798:                            
    00001D7E 6042                   MOV.L       @R4,R0
    00001D80              L1797:                            
    00001D80 4F26                   LDS.L       @R15+,PR
    00001D82 000B                   RTS
    00001D84 0009                   NOP
    00001D86              L1822:                            
    00001D86 0000                   .DATA.W     0
    00001D88 <00000000>             .DATA.L     _AddGameObject__5SceneFP10GameObject
    00001D8C <00000000>             .DATA.L     L1202
    00001D90 <00000000>             .DATA.L     L476
    00001D94 <00000000>             .DATA.L     L1204
    00001D98 <00000000>             .DATA.L     L1203
    00001D9C 41A00000               .DATA.L     H'41A00000
    00001DA0 42200000               .DATA.L     H'42200000
    00001DA4 <00000000>             .DATA.L     ___ct__6CameraFP10GameObjectPCc
    00001DA8 <00000000>             .DATA.L     L1205
    00001DAC <00000000>             .DATA.L     _AddComponent__10GameObjectFP9Component
    00001DB0 <00000000>             .DATA.L     ___ct__7TilemapFP10GameObjectP7Vector2T2PCc
    00001DB4 <00000000>             .DATA.L     L1206
    00001DB8 <00000000>             .DATA.L     ___ct__7Vector2FfT1
    00001DBC 41800000               .DATA.L     H'41800000
    00001DC0 <00000000>             .DATA.L     __$__2808_12_UUID_fbe0964f_80f0_4bb3_9701_3928fd378215_TilemapDatas$1191
    00001DC4 <00000000>             .DATA.L     ___nw__FUl




SH SERIES C/C++ Compiler (Ver. 6.0C)                                                                 09-Nov-2021 18:50:40  PAGE   85


SCT OFFSET   CODE       C LABEL     INSTRUCTION OPERAND    COMMENT

    00001DC8 <00000000>             .DATA.L     ___ct__7TextureFv
    00001DCC <00000000>             .DATA.L     L1207
    00001DD0 <00000000>             .DATA.L     ___ct__13MonoBehaviourFPCcP10GameObjectT1
    00001DD4 <00000000>             .DATA.L     L477
    00001DD8 <00000000>             .DATA.L     __$__vtbl__16PlayerController
    00001DDC <00000000>             .DATA.L     ___ct__6SpriteFP10GameObjectP7TexturePCc
    00001DE0 <00000000>             .DATA.L     L1208
    00001DE4 <00000000>             .DATA.L     L1213
D   00000000              __$__T30431808:                  ; static: __T30431808
    00000000 <00000000>             .DATA.L     __$__T_6Object
    00000004 00000000               .DATA.L     H'00000000
    00000008 16                     .DATA.B     H'16
    00000009 0000000301             .DATAB.B    3,0
             00           
    0000000C              __$__T30433280:                  ; static: __T30433280
    0000000C <00000000>             .DATA.L     ___T_9Component
    00000010 00000000               .DATA.L     H'00000000
    00000014 16                     .DATA.B     H'16
    00000015 0000000301             .DATAB.B    3,0
             00           
    00000018              __$__T30434836:                  ; static: __T30434836
    00000018 <00000000>             .DATA.L     ___T_9Component
    0000001C 00000000               .DATA.L     H'00000000
    00000020 16                     .DATA.B     H'16
    00000021 0000000301             .DATAB.B    3,0
             00           
    00000024              __$__T30436300:                  ; static: __T30436300
    00000024 <00000000>             .DATA.L     __$__T_6Object
    00000028 00000000               .DATA.L     H'00000000
    0000002C 16                     .DATA.B     H'16
    0000002D 0000000301             .DATAB.B    3,0
             00           
    00000030              __$__T30438068:                  ; static: __T30438068
    00000030 <00000000>             .DATA.L     __$__T_9Behaviour
    00000034 00000000               .DATA.L     H'00000000
    00000038 16                     .DATA.B     H'16
    00000039 0000000301             .DATAB.B    3,0
             00           
    0000003C              __$__T30439828:                  ; static: __T30439828
    0000003C <00000000>             .DATA.L     __$__T_6Object
    00000040 00000000               .DATA.L     H'00000000
    00000044 16                     .DATA.B     H'16
    00000045 0000000301             .DATAB.B    3,0
             00           
    00000048              __$__T30441292:                  ; static: __T30441292
    00000048 <00000000>             .DATA.L     __$__T_9Behaviour
    0000004C 00000000               .DATA.L     H'00000000
    00000050 16                     .DATA.B     H'16
    00000051 0000000301             .DATAB.B    3,0
             00           
    00000054              __$__T30442756:                  ; static: __T30442756
    00000054 <00000000>             .DATA.L     __$__T_13MonoBehaviour
    00000058 00000000               .DATA.L     H'00000000
    0000005C 12                     .DATA.B     H'12
    0000005D 0000000301             .DATAB.B    3,0
             00           
    00000060              __$__T30444220:                  ; static: __T30444220




SH SERIES C/C++ Compiler (Ver. 6.0C)                                                                 09-Nov-2021 18:50:40  PAGE   86


SCT OFFSET   CODE       C LABEL     INSTRUCTION OPERAND    COMMENT

    00000060 <00000000>             .DATA.L     __$__T_13MonoBehaviour
    00000064 00000000               .DATA.L     H'00000000
    00000068 12                     .DATA.B     H'12
    00000069 0000000301             .DATAB.B    3,0
             00           
    0000006C              __$__T30445692:                  ; static: __T30445692
    0000006C <00000000>             .DATA.L     __$__T_13MonoBehaviour
    00000070 00000000               .DATA.L     H'00000000
    00000074 12                     .DATA.B     H'12
    00000075 0000000301             .DATAB.B    3,0
             00           
    00000078              __$__T30447152:                  ; static: __T30447152
    00000078 <00000000>             .DATA.L     __$__T_13MonoBehaviour
    0000007C 00000000               .DATA.L     H'00000000
    00000080 12                     .DATA.B     H'12
    00000081 0000000301             .DATAB.B    3,0
             00           
    00000084              __$__T30448616:                  ; static: __T30448616
    00000084 <00000000>             .DATA.L     __$__T_13MonoBehaviour
    00000088 00000000               .DATA.L     H'00000000
    0000008C 12                     .DATA.B     H'12
    0000008D 0000000301             .DATAB.B    3,0
             00           
    00000090              __$__T30450104:                  ; static: __T30450104
    00000090 <00000000>             .DATA.L     __$__T_13MonoBehaviour
    00000094 00000000               .DATA.L     H'00000000
    00000098 12                     .DATA.B     H'12
    00000099 0000000301             .DATAB.B    3,0
             00           
C   00000000              __$UUID_355aae99_e49f_4a07_b7b8_ecf7673e547c:
                                                           ; static: UUID_355aae99_e49f_4a07_b7b8_ecf7673e547c
    00000000 0FF00FF00F             .DATA.B     H'0F,H'F0,H'0F,H'F0,H'0F,H'F0,H'0F,H'F0,H'0F,H'F0,H'0F,H'F0,H'08,H'10,H'3F,H'FC,
             F00FF00FF0 +                       H'38,H'1C,H'28,H'14,H'28,H'14,H'28,H'14,H'28,H'14,H'3F,H'FC,H'09,H'90,H'09,H'90,
             0FF008103F +                       H'0F,H'90,H'0F,H'F0,H'00,H'F0,H'00,H'F0
             FC381C2814   
             2814281428   
             143FFC0990   
             09900F900F   
             F000F000F0   
    00000028              __$UUID_3b28f421_9575_4c12_91c4_2c145b435538:
                                                           ; static: UUID_3b28f421_9575_4c12_91c4_2c145b435538
    00000028 0FF00FF00C             .DATA.B     H'0F,H'F0,H'0F,H'F0,H'0C,H'30,H'0C,H'30,H'0A,H'50,H'09,H'90,H'08,H'10,H'3F,H'FC,
             300C300A50 +                       H'38,H'1C,H'28,H'14,H'28,H'14,H'28,H'14,H'28,H'14,H'3F,H'FC,H'09,H'90,H'19,H'90,
             099008103F +                       H'19,H'90,H'1F,H'F0,H'00,H'F0,H'00,H'F0
             FC381C2814   
             2814281428   
             143FFC0990   
             199019901F   
             F000F000F0   
    00000050              __$UUID_53848287_45f6_410e_b7f2_b01019c5a1e9:
                                                           ; static: UUID_53848287_45f6_410e_b7f2_b01019c5a1e9
    00000050 0FF00FF00C             .DATA.B     H'0F,H'F0,H'0F,H'F0,H'0C,H'30,H'0C,H'30,H'0A,H'50,H'09,H'90,H'08,H'10,H'3F,H'FC,
             300C300A50 +                       H'38,H'1C,H'28,H'14,H'28,H'14,H'28,H'14,H'28,H'14,H'3F,H'FC,H'09,H'90,H'09,H'98,
             099008103F +                       H'09,H'98,H'0F,H'F8,H'0F,H'00,H'0F,H'00
             FC381C2814   
             2814281428   
             143FFC0990   




SH SERIES C/C++ Compiler (Ver. 6.0C)                                                                 09-Nov-2021 18:50:40  PAGE   87


SCT OFFSET   CODE       C LABEL     INSTRUCTION OPERAND    COMMENT

             099809980F   
             F80F000F00   
    00000078              __$UUID_600cd8e3_41c3_4a5e_8550_1ef2c44147af:
                                                           ; static: UUID_600cd8e3_41c3_4a5e_8550_1ef2c44147af
    00000078 0FF00FF00F             .DATA.B     H'0F,H'F0,H'0F,H'F0,H'0F,H'F0,H'0E,H'10,H'0E,H'30,H'0C,H'30,H'08,H'10,H'0F,H'F0,
             F00E100E30 +                       H'0F,H'A0,H'08,H'A0,H'08,H'A0,H'08,H'A0,H'08,H'A0,H'08,H'A0,H'0F,H'E0,H'08,H'20,
             0C3008100F +                       H'08,H'20,H'08,H'20,H'0F,H'E0,H'0F,H'E0
             F00FA008A0   
             08A008A008   
             A008A00FE0   
             0820082008   
             200FE00FE0   
    000000A0              __$UUID_6432dbba_ba4c_4f25_a9d3_15cf97c6e1ea:
                                                           ; static: UUID_6432dbba_ba4c_4f25_a9d3_15cf97c6e1ea
    000000A0 0FF00FF00C             .DATA.B     H'0F,H'F0,H'0F,H'F0,H'0C,H'30,H'0C,H'30,H'0A,H'50,H'09,H'90,H'08,H'10,H'3F,H'FC,
             300C300A50 +                       H'38,H'1C,H'28,H'14,H'28,H'14,H'28,H'14,H'28,H'14,H'3F,H'FC,H'09,H'90,H'09,H'90,
             099008103F +                       H'09,H'90,H'09,H'90,H'0F,H'F0,H'0F,H'F0
             FC381C2814   
             2814281428   
             143FFC0990   
             0990099009   
             900FF00FF0   
    000000C8              __$UUID_9b63aa6b_0684_4171_a80a_a82e6e29f6ae:
                                                           ; static: UUID_9b63aa6b_0684_4171_a80a_a82e6e29f6ae
    000000C8 0FF00FF00F             .DATA.B     H'0F,H'F0,H'0F,H'F0,H'0F,H'F0,H'0F,H'F0,H'0F,H'F0,H'0F,H'F0,H'08,H'10,H'3F,H'FC,
             F00FF00FF0 +                       H'38,H'1C,H'28,H'14,H'28,H'14,H'28,H'14,H'28,H'14,H'3F,H'FC,H'09,H'90,H'09,H'90,
             0FF008103F +                       H'09,H'F0,H'0F,H'F0,H'0F,H'00,H'0F,H'00
             FC381C2814   
             2814281428   
             143FFC0990   
             099009F00F   
             F00F000F00   
    000000F0              __$UUID_a1bc752c_94cf_41b4_a8f3_a32ec3d9312b:
                                                           ; static: UUID_a1bc752c_94cf_41b4_a8f3_a32ec3d9312b
    000000F0 0FF00FF00F             .DATA.B     H'0F,H'F0,H'0F,H'F0,H'0F,H'F0,H'08,H'70,H'0C,H'70,H'0C,H'30,H'08,H'10,H'0F,H'F0,
             F008700C70 +                       H'0C,H'08,H'14,H'44,H'24,H'22,H'44,H'11,H'2C,H'1A,H'17,H'F4,H'0E,H'18,H'19,H'0C,
             0C3008100F +                       H'33,H'86,H'22,H'C6,H'3E,H'66,H'3E,H'3E
             F00C081444   
             242244112C   
             1A17F40E18   
             190C338622   
             C63E663E3E   
    00000118              __$UUID_a9e4b5ab_ecdd_4525_8dbd_dbfaef28a6f6:
                                                           ; static: UUID_a9e4b5ab_ecdd_4525_8dbd_dbfaef28a6f6
    00000118 0FF00FF00F             .DATA.B     H'0F,H'F0,H'0F,H'F0,H'0F,H'F0,H'08,H'70,H'0C,H'70,H'0C,H'30,H'08,H'10,H'0F,H'F0,
             F008700C70 +                       H'08,H'18,H'11,H'14,H'22,H'12,H'44,H'11,H'28,H'1A,H'17,H'F4,H'0C,H'50,H'18,H'98,
             0C3008100F +                       H'31,H'8C,H'22,H'CC,H'3E,H'6C,H'3C,H'3C
             F008181114   
             2212441128   
             1A17F40C50   
             1898318C22   
             CC3E6C3C3C   
    00000140              __$UUID_dc9afec8_2e2e_4996_8271_1ac4cb193c2f:
                                                           ; static: UUID_dc9afec8_2e2e_4996_8271_1ac4cb193c2f
    00000140 0FF00FF00F             .DATA.B     H'0F,H'F0,H'0F,H'F0,H'0F,H'F0,H'0E,H'10,H'0E,H'30,H'0C,H'30,H'08,H'10,H'0F,H'F0,
             F00E100E30 +                       H'10,H'30,H'22,H'28,H'44,H'24,H'88,H'22,H'58,H'34,H'2F,H'E8,H'18,H'70,H'30,H'98,
             0C3008100F +                       H'61,H'CC,H'63,H'44,H'66,H'7C,H'7C,H'7C




SH SERIES C/C++ Compiler (Ver. 6.0C)                                                                 09-Nov-2021 18:50:40  PAGE   88


SCT OFFSET   CODE       C LABEL     INSTRUCTION OPERAND    COMMENT

             F010302228   
             4424882258   
             342FE81870   
             309861CC63   
             44667C7C7C   
    00000168              __$UUID_e4cf6d14_c9f2_4336_bb03_53529e5e4d6f:
                                                           ; static: UUID_e4cf6d14_c9f2_4336_bb03_53529e5e4d6f
    00000168 0FF00FF00F             .DATA.B     H'0F,H'F0,H'0F,H'F0,H'0F,H'F0,H'08,H'70,H'0C,H'70,H'0C,H'30,H'08,H'10,H'0F,H'F0,
             F008700C70 +                       H'05,H'F0,H'05,H'10,H'05,H'10,H'05,H'10,H'05,H'10,H'05,H'10,H'07,H'F0,H'04,H'10,
             0C3008100F +                       H'04,H'10,H'04,H'10,H'07,H'F0,H'07,H'F0
             F005F00510   
             0510051005   
             10051007F0   
             0410041004   
             1007F007F0   
    00000190              __$UUID_e870f483_8f84_44ae_b86c_bb1978372306:
                                                           ; static: UUID_e870f483_8f84_44ae_b86c_bb1978372306
    00000190 0FF00FF00F             .DATA.B     H'0F,H'F0,H'0F,H'F0,H'0F,H'F0,H'0F,H'F0,H'0F,H'F0,H'0F,H'F0,H'08,H'10,H'3F,H'FC,
             F00FF00FF0 +                       H'38,H'1C,H'28,H'14,H'28,H'14,H'28,H'14,H'28,H'14,H'3F,H'FC,H'09,H'90,H'09,H'90,
             0FF008103F +                       H'09,H'90,H'09,H'90,H'0F,H'F0,H'0F,H'F0
             FC381C2814   
             2814281428   
             143FFC0990   
             0990099009   
             900FF00FF0   
    000001B8              __$UUID_f018f68e_6f34_4b9a_bbc4_9513b3bc17c6:
                                                           ; static: UUID_f018f68e_6f34_4b9a_bbc4_9513b3bc17c6
    000001B8 0FF00FF00F             .DATA.B     H'0F,H'F0,H'0F,H'F0,H'0F,H'F0,H'0E,H'10,H'0E,H'30,H'0C,H'30,H'08,H'10,H'0F,H'F0,
             F00E100E30 +                       H'18,H'10,H'28,H'88,H'48,H'44,H'88,H'22,H'58,H'14,H'2F,H'E8,H'0A,H'30,H'19,H'18,
             0C3008100F +                       H'31,H'8C,H'33,H'44,H'36,H'7C,H'3C,H'3C
             F018102888   
             4844882258   
             142FE80A30   
             1918318C33   
             44367C3C3C   
C$V 00000000              __$__vtbl__6Object:              ; static: virtual function table for Object
    00000000 0000000000             .DATA.L     H'00000000,H'00000000
             000000       
    00000008 <00000000>             .DATA.L     __$__T_6Object
    0000000C 0000000000             .DATA.L     H'00000000,H'00000000
             000000       
    00000014 <00000000>             .DATA.L     __$__dt__6ObjectFv
    00000018 0000000000             .DATA.L     H'00000000,H'00000000
             000000       
    00000020 <00000000>             .DATA.L     __$Destroy__6ObjectFv
    00000024 0000000000             .DATA.L     H'00000000,H'00000000
             000000       
    0000002C <00000000>             .DATA.L     __$DestroyImmediate__6ObjectFv
    00000030 0000000000             .DATA.L     H'00000000,H'00000000
             000000       
    00000038 <00000000>             .DATA.L     __$DontDestroyOnLoad__6ObjectFv
    0000003C 0000000000             .DATA.L     H'00000000,H'00000000
             000000       
    00000044 <00000000>             .DATA.L     __$FindObjectOfType__6ObjectFv
    00000048 0000000000             .DATA.L     H'00000000,H'00000000
             000000       
    00000050 <00000000>             .DATA.L     __$FindObjectsOfType__6ObjectFv




SH SERIES C/C++ Compiler (Ver. 6.0C)                                                                 09-Nov-2021 18:50:40  PAGE   89


SCT OFFSET   CODE       C LABEL     INSTRUCTION OPERAND    COMMENT

    00000054 0000000000             .DATA.L     H'00000000,H'00000000
             000000       
    0000005C <00000000>             .DATA.L     __$Instantiate__6ObjectFv
    00000060              ___vtbl__9Component:             ; static: virtual function table for Component
    00000060 0000000000             .DATA.L     H'00000000,H'00000000
             000000       
    00000068 <00000000>             .DATA.L     ___T_9Component
    0000006C 0000000000             .DATA.L     H'00000000,H'00000000
             000000       
    00000074 <00000000>             .DATA.L     ___dt__9ComponentFv
    00000078 0000000000             .DATA.L     H'00000000,H'00000000
             000000       
    00000080 <00000000>             .DATA.L     __$Destroy__6ObjectFv
    00000084 0000000000             .DATA.L     H'00000000,H'00000000
             000000       
    0000008C <00000000>             .DATA.L     __$DestroyImmediate__6ObjectFv
    00000090 0000000000             .DATA.L     H'00000000,H'00000000
             000000       
    00000098 <00000000>             .DATA.L     __$DontDestroyOnLoad__6ObjectFv
    0000009C 0000000000             .DATA.L     H'00000000,H'00000000
             000000       
    000000A4 <00000000>             .DATA.L     __$FindObjectOfType__6ObjectFv
    000000A8 0000000000             .DATA.L     H'00000000,H'00000000
             000000       
    000000B0 <00000000>             .DATA.L     __$FindObjectsOfType__6ObjectFv
    000000B4 0000000000             .DATA.L     H'00000000,H'00000000
             000000       
    000000BC <00000000>             .DATA.L     __$Instantiate__6ObjectFv
    000000C0 0000000000             .DATA.L     H'00000000,H'00000000
             000000       
    000000C8 <00000000>             .DATA.L     __$Awake__9ComponentFv
    000000CC 0000000000             .DATA.L     H'00000000,H'00000000
             000000       
    000000D4 <00000000>             .DATA.L     __$FixedUpdate__9ComponentFv
    000000D8 0000000000             .DATA.L     H'00000000,H'00000000
             000000       
    000000E0 <00000000>             .DATA.L     __$LateUpdate__9ComponentFv
    000000E4 0000000000             .DATA.L     H'00000000,H'00000000
             000000       
    000000EC <00000000>             .DATA.L     __$OnAnimatorIK__9ComponentFv
    000000F0 0000000000             .DATA.L     H'00000000,H'00000000
             000000       
    000000F8 <00000000>             .DATA.L     __$OnAnimatorMove__9ComponentFv
    000000FC 0000000000             .DATA.L     H'00000000,H'00000000
             000000       
    00000104 <00000000>             .DATA.L     __$OnApplicationFocus__9ComponentFv
    00000108 0000000000             .DATA.L     H'00000000,H'00000000
             000000       
    00000110 <00000000>             .DATA.L     __$OnApplicationPause__9ComponentFv
    00000114 0000000000             .DATA.L     H'00000000,H'00000000
             000000       
    0000011C <00000000>             .DATA.L     __$OnApplicationQuit__9ComponentFv
    00000120 0000000000             .DATA.L     H'00000000,H'00000000
             000000       
    00000128 <00000000>             .DATA.L     __$OnAudioFilterRead__9ComponentFv
    0000012C 0000000000             .DATA.L     H'00000000,H'00000000
             000000       




SH SERIES C/C++ Compiler (Ver. 6.0C)                                                                 09-Nov-2021 18:50:40  PAGE   90


SCT OFFSET   CODE       C LABEL     INSTRUCTION OPERAND    COMMENT

    00000134 <00000000>             .DATA.L     __$OnBecameInvisible__9ComponentFv
    00000138 0000000000             .DATA.L     H'00000000,H'00000000
             000000       
    00000140 <00000000>             .DATA.L     __$OnBecameVisible__9ComponentFv
    00000144 0000000000             .DATA.L     H'00000000,H'00000000
             000000       
    0000014C <00000000>             .DATA.L     __$OnCollisionEnter__9ComponentFv
    00000150 0000000000             .DATA.L     H'00000000,H'00000000
             000000       
    00000158 <00000000>             .DATA.L     __$OnCollisionEnter2D__9ComponentFv
    0000015C 0000000000             .DATA.L     H'00000000,H'00000000
             000000       
    00000164 <00000000>             .DATA.L     __$OnCollisionExit__9ComponentFv
    00000168 0000000000             .DATA.L     H'00000000,H'00000000
             000000       
    00000170 <00000000>             .DATA.L     __$OnCollisionExit2D__9ComponentFv
    00000174 0000000000             .DATA.L     H'00000000,H'00000000
             000000       
    0000017C <00000000>             .DATA.L     __$OnCollisionStay__9ComponentFv
    00000180 0000000000             .DATA.L     H'00000000,H'00000000
             000000       
    00000188 <00000000>             .DATA.L     __$OnCollisionStay2D__9ComponentFv
    0000018C 0000000000             .DATA.L     H'00000000,H'00000000
             000000       
    00000194 <00000000>             .DATA.L     __$OnConnectedToServer__9ComponentFv
    00000198 0000000000             .DATA.L     H'00000000,H'00000000
             000000       
    000001A0 <00000000>             .DATA.L     __$OnControllerColliderHit__9ComponentFv
    000001A4 0000000000             .DATA.L     H'00000000,H'00000000
             000000       
    000001AC <00000000>             .DATA.L     __$OnDestroy__9ComponentFv
    000001B0 0000000000             .DATA.L     H'00000000,H'00000000
             000000       
    000001B8 <00000000>             .DATA.L     __$OnDisable__9ComponentFv
    000001BC 0000000000             .DATA.L     H'00000000,H'00000000
             000000       
    000001C4 <00000000>             .DATA.L     __$OnDisconnectedFromServer__9ComponentFv
    000001C8 0000000000             .DATA.L     H'00000000,H'00000000
             000000       
    000001D0 <00000000>             .DATA.L     __$OnDrawGizmos__9ComponentFv
    000001D4 0000000000             .DATA.L     H'00000000,H'00000000
             000000       
    000001DC <00000000>             .DATA.L     __$OnDrawGizmosSelected__9ComponentFv
    000001E0 0000000000             .DATA.L     H'00000000,H'00000000
             000000       
    000001E8 <00000000>             .DATA.L     __$OnEnable__9ComponentFv
    000001EC 0000000000             .DATA.L     H'00000000,H'00000000
             000000       
    000001F4 <00000000>             .DATA.L     __$OnFailedToConnect__9ComponentFv
    000001F8 0000000000             .DATA.L     H'00000000,H'00000000
             000000       
    00000200 <00000000>             .DATA.L     __$OnFailedToConnectToMasterServer__9ComponentFv
    00000204 0000000000             .DATA.L     H'00000000,H'00000000
             000000       
    0000020C <00000000>             .DATA.L     __$OnGUI__9ComponentFv
    00000210 0000000000             .DATA.L     H'00000000,H'00000000
             000000       




SH SERIES C/C++ Compiler (Ver. 6.0C)                                                                 09-Nov-2021 18:50:40  PAGE   91


SCT OFFSET   CODE       C LABEL     INSTRUCTION OPERAND    COMMENT

    00000218 <00000000>             .DATA.L     __$OnJointBreak__9ComponentFv
    0000021C 0000000000             .DATA.L     H'00000000,H'00000000
             000000       
    00000224 <00000000>             .DATA.L     __$OnJointBreak2D__9ComponentFv
    00000228 0000000000             .DATA.L     H'00000000,H'00000000
             000000       
    00000230 <00000000>             .DATA.L     __$OnMasterServerEvent__9ComponentFv
    00000234 0000000000             .DATA.L     H'00000000,H'00000000
             000000       
    0000023C <00000000>             .DATA.L     __$OnMouseDown__9ComponentFv
    00000240 0000000000             .DATA.L     H'00000000,H'00000000
             000000       
    00000248 <00000000>             .DATA.L     __$OnMouseDrag__9ComponentFv
    0000024C 0000000000             .DATA.L     H'00000000,H'00000000
             000000       
    00000254 <00000000>             .DATA.L     __$OnMouseEnter__9ComponentFv
    00000258 0000000000             .DATA.L     H'00000000,H'00000000
             000000       
    00000260 <00000000>             .DATA.L     __$OnMouseExit__9ComponentFv
    00000264 0000000000             .DATA.L     H'00000000,H'00000000
             000000       
    0000026C <00000000>             .DATA.L     __$OnMouseOver__9ComponentFv
    00000270 0000000000             .DATA.L     H'00000000,H'00000000
             000000       
    00000278 <00000000>             .DATA.L     __$OnMouseUp__9ComponentFv
    0000027C 0000000000             .DATA.L     H'00000000,H'00000000
             000000       
    00000284 <00000000>             .DATA.L     __$OnMouseUpAsButton__9ComponentFv
    00000288 0000000000             .DATA.L     H'00000000,H'00000000
             000000       
    00000290 <00000000>             .DATA.L     __$OnNetworkInstantiate__9ComponentFv
    00000294 0000000000             .DATA.L     H'00000000,H'00000000
             000000       
    0000029C <00000000>             .DATA.L     __$OnParticleCollision__9ComponentFv
    000002A0 0000000000             .DATA.L     H'00000000,H'00000000
             000000       
    000002A8 <00000000>             .DATA.L     __$OnParticleSystemStopped__9ComponentFv
    000002AC 0000000000             .DATA.L     H'00000000,H'00000000
             000000       
    000002B4 <00000000>             .DATA.L     __$OnParticleTrigger__9ComponentFv
    000002B8 0000000000             .DATA.L     H'00000000,H'00000000
             000000       
    000002C0 <00000000>             .DATA.L     __$OnParticleUpdateJobScheduled__9ComponentFv
    000002C4 0000000000             .DATA.L     H'00000000,H'00000000
             000000       
    000002CC <00000000>             .DATA.L     __$OnPlayerConnected__9ComponentFv
    000002D0 0000000000             .DATA.L     H'00000000,H'00000000
             000000       
    000002D8 <00000000>             .DATA.L     __$OnPlayerDisconnected__9ComponentFv
    000002DC 0000000000             .DATA.L     H'00000000,H'00000000
             000000       
    000002E4 <00000000>             .DATA.L     __$OnPostRender__9ComponentFv
    000002E8 0000000000             .DATA.L     H'00000000,H'00000000
             000000       
    000002F0 <00000000>             .DATA.L     __$OnPreCull__9ComponentFv
    000002F4 0000000000             .DATA.L     H'00000000,H'00000000
             000000       




SH SERIES C/C++ Compiler (Ver. 6.0C)                                                                 09-Nov-2021 18:50:40  PAGE   92


SCT OFFSET   CODE       C LABEL     INSTRUCTION OPERAND    COMMENT

    000002FC <00000000>             .DATA.L     __$OnPreRender__9ComponentFv
    00000300 0000000000             .DATA.L     H'00000000,H'00000000
             000000       
    00000308 <00000000>             .DATA.L     __$OnRenderImage__9ComponentFv
    0000030C 0000000000             .DATA.L     H'00000000,H'00000000
             000000       
    00000314 <00000000>             .DATA.L     __$OnRenderObject__9ComponentFv
    00000318 0000000000             .DATA.L     H'00000000,H'00000000
             000000       
    00000320 <00000000>             .DATA.L     __$OnSerializeNetworkView__9ComponentFv
    00000324 0000000000             .DATA.L     H'00000000,H'00000000
             000000       
    0000032C <00000000>             .DATA.L     __$OnServerInitialized__9ComponentFv
    00000330 0000000000             .DATA.L     H'00000000,H'00000000
             000000       
    00000338 <00000000>             .DATA.L     __$OnTransformChildrenChanged__9ComponentFv
    0000033C 0000000000             .DATA.L     H'00000000,H'00000000
             000000       
    00000344 <00000000>             .DATA.L     __$OnTransformParentChanged__9ComponentFv
    00000348 0000000000             .DATA.L     H'00000000,H'00000000
             000000       
    00000350 <00000000>             .DATA.L     __$OnTriggerEnter__9ComponentFv
    00000354 0000000000             .DATA.L     H'00000000,H'00000000
             000000       
    0000035C <00000000>             .DATA.L     __$OnTriggerEnter2D__9ComponentFv
    00000360 0000000000             .DATA.L     H'00000000,H'00000000
             000000       
    00000368 <00000000>             .DATA.L     __$OnTriggerExit__9ComponentFv
    0000036C 0000000000             .DATA.L     H'00000000,H'00000000
             000000       
    00000374 <00000000>             .DATA.L     __$OnTriggerExit2D__9ComponentFv
    00000378 0000000000             .DATA.L     H'00000000,H'00000000
             000000       
    00000380 <00000000>             .DATA.L     __$OnTriggerStay__9ComponentFv
    00000384 0000000000             .DATA.L     H'00000000,H'00000000
             000000       
    0000038C <00000000>             .DATA.L     __$OnTriggerStay2D__9ComponentFv
    00000390 0000000000             .DATA.L     H'00000000,H'00000000
             000000       
    00000398 <00000000>             .DATA.L     __$OnValidate__9ComponentFv
    0000039C 0000000000             .DATA.L     H'00000000,H'00000000
             000000       
    000003A4 <00000000>             .DATA.L     __$OnWillRenderObject__9ComponentFv
    000003A8 0000000000             .DATA.L     H'00000000,H'00000000
             000000       
    000003B0 <00000000>             .DATA.L     __$Reset__9ComponentFv
    000003B4 0000000000             .DATA.L     H'00000000,H'00000000
             000000       
    000003BC <00000000>             .DATA.L     __$Start__9ComponentFv
    000003C0 0000000000             .DATA.L     H'00000000,H'00000000
             000000       
    000003C8 <00000000>             .DATA.L     __$Update__9ComponentFv
    000003CC              __$__vtbl__9Behaviour:           ; static: virtual function table for Behaviour
    000003CC 0000000000             .DATA.L     H'00000000,H'00000000
             000000       
    000003D4 <00000000>             .DATA.L     __$__T_9Behaviour
    000003D8 0000000000             .DATA.L     H'00000000,H'00000000




SH SERIES C/C++ Compiler (Ver. 6.0C)                                                                 09-Nov-2021 18:50:40  PAGE   93


SCT OFFSET   CODE       C LABEL     INSTRUCTION OPERAND    COMMENT

             000000       
    000003E0 <00000000>             .DATA.L     __$__dt__9BehaviourFv
    000003E4 0000000000             .DATA.L     H'00000000,H'00000000
             000000       
    000003EC <00000000>             .DATA.L     __$Destroy__6ObjectFv
    000003F0 0000000000             .DATA.L     H'00000000,H'00000000
             000000       
    000003F8 <00000000>             .DATA.L     __$DestroyImmediate__6ObjectFv
    000003FC 0000000000             .DATA.L     H'00000000,H'00000000
             000000       
    00000404 <00000000>             .DATA.L     __$DontDestroyOnLoad__6ObjectFv
    00000408 0000000000             .DATA.L     H'00000000,H'00000000
             000000       
    00000410 <00000000>             .DATA.L     __$FindObjectOfType__6ObjectFv
    00000414 0000000000             .DATA.L     H'00000000,H'00000000
             000000       
    0000041C <00000000>             .DATA.L     __$FindObjectsOfType__6ObjectFv
    00000420 0000000000             .DATA.L     H'00000000,H'00000000
             000000       
    00000428 <00000000>             .DATA.L     __$Instantiate__6ObjectFv
    0000042C 0000000000             .DATA.L     H'00000000,H'00000000
             000000       
    00000434 <00000000>             .DATA.L     __$Awake__9ComponentFv
    00000438 0000000000             .DATA.L     H'00000000,H'00000000
             000000       
    00000440 <00000000>             .DATA.L     __$FixedUpdate__9ComponentFv
    00000444 0000000000             .DATA.L     H'00000000,H'00000000
             000000       
    0000044C <00000000>             .DATA.L     __$LateUpdate__9ComponentFv
    00000450 0000000000             .DATA.L     H'00000000,H'00000000
             000000       
    00000458 <00000000>             .DATA.L     __$OnAnimatorIK__9ComponentFv
    0000045C 0000000000             .DATA.L     H'00000000,H'00000000
             000000       
    00000464 <00000000>             .DATA.L     __$OnAnimatorMove__9ComponentFv
    00000468 0000000000             .DATA.L     H'00000000,H'00000000
             000000       
    00000470 <00000000>             .DATA.L     __$OnApplicationFocus__9ComponentFv
    00000474 0000000000             .DATA.L     H'00000000,H'00000000
             000000       
    0000047C <00000000>             .DATA.L     __$OnApplicationPause__9ComponentFv
    00000480 0000000000             .DATA.L     H'00000000,H'00000000
             000000       
    00000488 <00000000>             .DATA.L     __$OnApplicationQuit__9ComponentFv
    0000048C 0000000000             .DATA.L     H'00000000,H'00000000
             000000       
    00000494 <00000000>             .DATA.L     __$OnAudioFilterRead__9ComponentFv
    00000498 0000000000             .DATA.L     H'00000000,H'00000000
             000000       
    000004A0 <00000000>             .DATA.L     __$OnBecameInvisible__9ComponentFv
    000004A4 0000000000             .DATA.L     H'00000000,H'00000000
             000000       
    000004AC <00000000>             .DATA.L     __$OnBecameVisible__9ComponentFv
    000004B0 0000000000             .DATA.L     H'00000000,H'00000000
             000000       
    000004B8 <00000000>             .DATA.L     __$OnCollisionEnter__9ComponentFv
    000004BC 0000000000             .DATA.L     H'00000000,H'00000000




SH SERIES C/C++ Compiler (Ver. 6.0C)                                                                 09-Nov-2021 18:50:40  PAGE   94


SCT OFFSET   CODE       C LABEL     INSTRUCTION OPERAND    COMMENT

             000000       
    000004C4 <00000000>             .DATA.L     __$OnCollisionEnter2D__9ComponentFv
    000004C8 0000000000             .DATA.L     H'00000000,H'00000000
             000000       
    000004D0 <00000000>             .DATA.L     __$OnCollisionExit__9ComponentFv
    000004D4 0000000000             .DATA.L     H'00000000,H'00000000
             000000       
    000004DC <00000000>             .DATA.L     __$OnCollisionExit2D__9ComponentFv
    000004E0 0000000000             .DATA.L     H'00000000,H'00000000
             000000       
    000004E8 <00000000>             .DATA.L     __$OnCollisionStay__9ComponentFv
    000004EC 0000000000             .DATA.L     H'00000000,H'00000000
             000000       
    000004F4 <00000000>             .DATA.L     __$OnCollisionStay2D__9ComponentFv
    000004F8 0000000000             .DATA.L     H'00000000,H'00000000
             000000       
    00000500 <00000000>             .DATA.L     __$OnConnectedToServer__9ComponentFv
    00000504 0000000000             .DATA.L     H'00000000,H'00000000
             000000       
    0000050C <00000000>             .DATA.L     __$OnControllerColliderHit__9ComponentFv
    00000510 0000000000             .DATA.L     H'00000000,H'00000000
             000000       
    00000518 <00000000>             .DATA.L     __$OnDestroy__9ComponentFv
    0000051C 0000000000             .DATA.L     H'00000000,H'00000000
             000000       
    00000524 <00000000>             .DATA.L     __$OnDisable__9ComponentFv
    00000528 0000000000             .DATA.L     H'00000000,H'00000000
             000000       
    00000530 <00000000>             .DATA.L     __$OnDisconnectedFromServer__9ComponentFv
    00000534 0000000000             .DATA.L     H'00000000,H'00000000
             000000       
    0000053C <00000000>             .DATA.L     __$OnDrawGizmos__9ComponentFv
    00000540 0000000000             .DATA.L     H'00000000,H'00000000
             000000       
    00000548 <00000000>             .DATA.L     __$OnDrawGizmosSelected__9ComponentFv
    0000054C 0000000000             .DATA.L     H'00000000,H'00000000
             000000       
    00000554 <00000000>             .DATA.L     __$OnEnable__9ComponentFv
    00000558 0000000000             .DATA.L     H'00000000,H'00000000
             000000       
    00000560 <00000000>             .DATA.L     __$OnFailedToConnect__9ComponentFv
    00000564 0000000000             .DATA.L     H'00000000,H'00000000
             000000       
    0000056C <00000000>             .DATA.L     __$OnFailedToConnectToMasterServer__9ComponentFv
    00000570 0000000000             .DATA.L     H'00000000,H'00000000
             000000       
    00000578 <00000000>             .DATA.L     __$OnGUI__9ComponentFv
    0000057C 0000000000             .DATA.L     H'00000000,H'00000000
             000000       
    00000584 <00000000>             .DATA.L     __$OnJointBreak__9ComponentFv
    00000588 0000000000             .DATA.L     H'00000000,H'00000000
             000000       
    00000590 <00000000>             .DATA.L     __$OnJointBreak2D__9ComponentFv
    00000594 0000000000             .DATA.L     H'00000000,H'00000000
             000000       
    0000059C <00000000>             .DATA.L     __$OnMasterServerEvent__9ComponentFv
    000005A0 0000000000             .DATA.L     H'00000000,H'00000000




SH SERIES C/C++ Compiler (Ver. 6.0C)                                                                 09-Nov-2021 18:50:40  PAGE   95


SCT OFFSET   CODE       C LABEL     INSTRUCTION OPERAND    COMMENT

             000000       
    000005A8 <00000000>             .DATA.L     __$OnMouseDown__9ComponentFv
    000005AC 0000000000             .DATA.L     H'00000000,H'00000000
             000000       
    000005B4 <00000000>             .DATA.L     __$OnMouseDrag__9ComponentFv
    000005B8 0000000000             .DATA.L     H'00000000,H'00000000
             000000       
    000005C0 <00000000>             .DATA.L     __$OnMouseEnter__9ComponentFv
    000005C4 0000000000             .DATA.L     H'00000000,H'00000000
             000000       
    000005CC <00000000>             .DATA.L     __$OnMouseExit__9ComponentFv
    000005D0 0000000000             .DATA.L     H'00000000,H'00000000
             000000       
    000005D8 <00000000>             .DATA.L     __$OnMouseOver__9ComponentFv
    000005DC 0000000000             .DATA.L     H'00000000,H'00000000
             000000       
    000005E4 <00000000>             .DATA.L     __$OnMouseUp__9ComponentFv
    000005E8 0000000000             .DATA.L     H'00000000,H'00000000
             000000       
    000005F0 <00000000>             .DATA.L     __$OnMouseUpAsButton__9ComponentFv
    000005F4 0000000000             .DATA.L     H'00000000,H'00000000
             000000       
    000005FC <00000000>             .DATA.L     __$OnNetworkInstantiate__9ComponentFv
    00000600 0000000000             .DATA.L     H'00000000,H'00000000
             000000       
    00000608 <00000000>             .DATA.L     __$OnParticleCollision__9ComponentFv
    0000060C 0000000000             .DATA.L     H'00000000,H'00000000
             000000       
    00000614 <00000000>             .DATA.L     __$OnParticleSystemStopped__9ComponentFv
    00000618 0000000000             .DATA.L     H'00000000,H'00000000
             000000       
    00000620 <00000000>             .DATA.L     __$OnParticleTrigger__9ComponentFv
    00000624 0000000000             .DATA.L     H'00000000,H'00000000
             000000       
    0000062C <00000000>             .DATA.L     __$OnParticleUpdateJobScheduled__9ComponentFv
    00000630 0000000000             .DATA.L     H'00000000,H'00000000
             000000       
    00000638 <00000000>             .DATA.L     __$OnPlayerConnected__9ComponentFv
    0000063C 0000000000             .DATA.L     H'00000000,H'00000000
             000000       
    00000644 <00000000>             .DATA.L     __$OnPlayerDisconnected__9ComponentFv
    00000648 0000000000             .DATA.L     H'00000000,H'00000000
             000000       
    00000650 <00000000>             .DATA.L     __$OnPostRender__9ComponentFv
    00000654 0000000000             .DATA.L     H'00000000,H'00000000
             000000       
    0000065C <00000000>             .DATA.L     __$OnPreCull__9ComponentFv
    00000660 0000000000             .DATA.L     H'00000000,H'00000000
             000000       
    00000668 <00000000>             .DATA.L     __$OnPreRender__9ComponentFv
    0000066C 0000000000             .DATA.L     H'00000000,H'00000000
             000000       
    00000674 <00000000>             .DATA.L     __$OnRenderImage__9ComponentFv
    00000678 0000000000             .DATA.L     H'00000000,H'00000000
             000000       
    00000680 <00000000>             .DATA.L     __$OnRenderObject__9ComponentFv
    00000684 0000000000             .DATA.L     H'00000000,H'00000000




SH SERIES C/C++ Compiler (Ver. 6.0C)                                                                 09-Nov-2021 18:50:40  PAGE   96


SCT OFFSET   CODE       C LABEL     INSTRUCTION OPERAND    COMMENT

             000000       
    0000068C <00000000>             .DATA.L     __$OnSerializeNetworkView__9ComponentFv
    00000690 0000000000             .DATA.L     H'00000000,H'00000000
             000000       
    00000698 <00000000>             .DATA.L     __$OnServerInitialized__9ComponentFv
    0000069C 0000000000             .DATA.L     H'00000000,H'00000000
             000000       
    000006A4 <00000000>             .DATA.L     __$OnTransformChildrenChanged__9ComponentFv
    000006A8 0000000000             .DATA.L     H'00000000,H'00000000
             000000       
    000006B0 <00000000>             .DATA.L     __$OnTransformParentChanged__9ComponentFv
    000006B4 0000000000             .DATA.L     H'00000000,H'00000000
             000000       
    000006BC <00000000>             .DATA.L     __$OnTriggerEnter__9ComponentFv
    000006C0 0000000000             .DATA.L     H'00000000,H'00000000
             000000       
    000006C8 <00000000>             .DATA.L     __$OnTriggerEnter2D__9ComponentFv
    000006CC 0000000000             .DATA.L     H'00000000,H'00000000
             000000       
    000006D4 <00000000>             .DATA.L     __$OnTriggerExit__9ComponentFv
    000006D8 0000000000             .DATA.L     H'00000000,H'00000000
             000000       
    000006E0 <00000000>             .DATA.L     __$OnTriggerExit2D__9ComponentFv
    000006E4 0000000000             .DATA.L     H'00000000,H'00000000
             000000       
    000006EC <00000000>             .DATA.L     __$OnTriggerStay__9ComponentFv
    000006F0 0000000000             .DATA.L     H'00000000,H'00000000
             000000       
    000006F8 <00000000>             .DATA.L     __$OnTriggerStay2D__9ComponentFv
    000006FC 0000000000             .DATA.L     H'00000000,H'00000000
             000000       
    00000704 <00000000>             .DATA.L     __$OnValidate__9ComponentFv
    00000708 0000000000             .DATA.L     H'00000000,H'00000000
             000000       
    00000710 <00000000>             .DATA.L     __$OnWillRenderObject__9ComponentFv
    00000714 0000000000             .DATA.L     H'00000000,H'00000000
             000000       
    0000071C <00000000>             .DATA.L     __$Reset__9ComponentFv
    00000720 0000000000             .DATA.L     H'00000000,H'00000000
             000000       
    00000728 <00000000>             .DATA.L     __$Start__9ComponentFv
    0000072C 0000000000             .DATA.L     H'00000000,H'00000000
             000000       
    00000734 <00000000>             .DATA.L     __$Update__9ComponentFv
    00000738              __$__vtbl__13MonoBehaviour:      ; static: virtual function table for MonoBehaviour
    00000738 0000000000             .DATA.L     H'00000000,H'00000000
             000000       
    00000740 <00000000>             .DATA.L     __$__T_13MonoBehaviour
    00000744 0000000000             .DATA.L     H'00000000,H'00000000
             000000       
    0000074C <00000000>             .DATA.L     __$__dt__13MonoBehaviourFv
    00000750 0000000000             .DATA.L     H'00000000,H'00000000
             000000       
    00000758 <00000000>             .DATA.L     __$Destroy__6ObjectFv
    0000075C 0000000000             .DATA.L     H'00000000,H'00000000
             000000       
    00000764 <00000000>             .DATA.L     __$DestroyImmediate__6ObjectFv




SH SERIES C/C++ Compiler (Ver. 6.0C)                                                                 09-Nov-2021 18:50:40  PAGE   97


SCT OFFSET   CODE       C LABEL     INSTRUCTION OPERAND    COMMENT

    00000768 0000000000             .DATA.L     H'00000000,H'00000000
             000000       
    00000770 <00000000>             .DATA.L     __$DontDestroyOnLoad__6ObjectFv
    00000774 0000000000             .DATA.L     H'00000000,H'00000000
             000000       
    0000077C <00000000>             .DATA.L     __$FindObjectOfType__6ObjectFv
    00000780 0000000000             .DATA.L     H'00000000,H'00000000
             000000       
    00000788 <00000000>             .DATA.L     __$FindObjectsOfType__6ObjectFv
    0000078C 0000000000             .DATA.L     H'00000000,H'00000000
             000000       
    00000794 <00000000>             .DATA.L     __$Instantiate__6ObjectFv
    00000798 0000000000             .DATA.L     H'00000000,H'00000000
             000000       
    000007A0 <00000000>             .DATA.L     __$Awake__9ComponentFv
    000007A4 0000000000             .DATA.L     H'00000000,H'00000000
             000000       
    000007AC <00000000>             .DATA.L     __$FixedUpdate__9ComponentFv
    000007B0 0000000000             .DATA.L     H'00000000,H'00000000
             000000       
    000007B8 <00000000>             .DATA.L     __$LateUpdate__9ComponentFv
    000007BC 0000000000             .DATA.L     H'00000000,H'00000000
             000000       
    000007C4 <00000000>             .DATA.L     __$OnAnimatorIK__9ComponentFv
    000007C8 0000000000             .DATA.L     H'00000000,H'00000000
             000000       
    000007D0 <00000000>             .DATA.L     __$OnAnimatorMove__9ComponentFv
    000007D4 0000000000             .DATA.L     H'00000000,H'00000000
             000000       
    000007DC <00000000>             .DATA.L     __$OnApplicationFocus__9ComponentFv
    000007E0 0000000000             .DATA.L     H'00000000,H'00000000
             000000       
    000007E8 <00000000>             .DATA.L     __$OnApplicationPause__9ComponentFv
    000007EC 0000000000             .DATA.L     H'00000000,H'00000000
             000000       
    000007F4 <00000000>             .DATA.L     __$OnApplicationQuit__9ComponentFv
    000007F8 0000000000             .DATA.L     H'00000000,H'00000000
             000000       
    00000800 <00000000>             .DATA.L     __$OnAudioFilterRead__9ComponentFv
    00000804 0000000000             .DATA.L     H'00000000,H'00000000
             000000       
    0000080C <00000000>             .DATA.L     __$OnBecameInvisible__9ComponentFv
    00000810 0000000000             .DATA.L     H'00000000,H'00000000
             000000       
    00000818 <00000000>             .DATA.L     __$OnBecameVisible__9ComponentFv
    0000081C 0000000000             .DATA.L     H'00000000,H'00000000
             000000       
    00000824 <00000000>             .DATA.L     __$OnCollisionEnter__9ComponentFv
    00000828 0000000000             .DATA.L     H'00000000,H'00000000
             000000       
    00000830 <00000000>             .DATA.L     __$OnCollisionEnter2D__9ComponentFv
    00000834 0000000000             .DATA.L     H'00000000,H'00000000
             000000       
    0000083C <00000000>             .DATA.L     __$OnCollisionExit__9ComponentFv
    00000840 0000000000             .DATA.L     H'00000000,H'00000000
             000000       
    00000848 <00000000>             .DATA.L     __$OnCollisionExit2D__9ComponentFv




SH SERIES C/C++ Compiler (Ver. 6.0C)                                                                 09-Nov-2021 18:50:40  PAGE   98


SCT OFFSET   CODE       C LABEL     INSTRUCTION OPERAND    COMMENT

    0000084C 0000000000             .DATA.L     H'00000000,H'00000000
             000000       
    00000854 <00000000>             .DATA.L     __$OnCollisionStay__9ComponentFv
    00000858 0000000000             .DATA.L     H'00000000,H'00000000
             000000       
    00000860 <00000000>             .DATA.L     __$OnCollisionStay2D__9ComponentFv
    00000864 0000000000             .DATA.L     H'00000000,H'00000000
             000000       
    0000086C <00000000>             .DATA.L     __$OnConnectedToServer__9ComponentFv
    00000870 0000000000             .DATA.L     H'00000000,H'00000000
             000000       
    00000878 <00000000>             .DATA.L     __$OnControllerColliderHit__9ComponentFv
    0000087C 0000000000             .DATA.L     H'00000000,H'00000000
             000000       
    00000884 <00000000>             .DATA.L     __$OnDestroy__9ComponentFv
    00000888 0000000000             .DATA.L     H'00000000,H'00000000
             000000       
    00000890 <00000000>             .DATA.L     __$OnDisable__9ComponentFv
    00000894 0000000000             .DATA.L     H'00000000,H'00000000
             000000       
    0000089C <00000000>             .DATA.L     __$OnDisconnectedFromServer__9ComponentFv
    000008A0 0000000000             .DATA.L     H'00000000,H'00000000
             000000       
    000008A8 <00000000>             .DATA.L     __$OnDrawGizmos__9ComponentFv
    000008AC 0000000000             .DATA.L     H'00000000,H'00000000
             000000       
    000008B4 <00000000>             .DATA.L     __$OnDrawGizmosSelected__9ComponentFv
    000008B8 0000000000             .DATA.L     H'00000000,H'00000000
             000000       
    000008C0 <00000000>             .DATA.L     __$OnEnable__9ComponentFv
    000008C4 0000000000             .DATA.L     H'00000000,H'00000000
             000000       
    000008CC <00000000>             .DATA.L     __$OnFailedToConnect__9ComponentFv
    000008D0 0000000000             .DATA.L     H'00000000,H'00000000
             000000       
    000008D8 <00000000>             .DATA.L     __$OnFailedToConnectToMasterServer__9ComponentFv
    000008DC 0000000000             .DATA.L     H'00000000,H'00000000
             000000       
    000008E4 <00000000>             .DATA.L     __$OnGUI__9ComponentFv
    000008E8 0000000000             .DATA.L     H'00000000,H'00000000
             000000       
    000008F0 <00000000>             .DATA.L     __$OnJointBreak__9ComponentFv
    000008F4 0000000000             .DATA.L     H'00000000,H'00000000
             000000       
    000008FC <00000000>             .DATA.L     __$OnJointBreak2D__9ComponentFv
    00000900 0000000000             .DATA.L     H'00000000,H'00000000
             000000       
    00000908 <00000000>             .DATA.L     __$OnMasterServerEvent__9ComponentFv
    0000090C 0000000000             .DATA.L     H'00000000,H'00000000
             000000       
    00000914 <00000000>             .DATA.L     __$OnMouseDown__9ComponentFv
    00000918 0000000000             .DATA.L     H'00000000,H'00000000
             000000       
    00000920 <00000000>             .DATA.L     __$OnMouseDrag__9ComponentFv
    00000924 0000000000             .DATA.L     H'00000000,H'00000000
             000000       
    0000092C <00000000>             .DATA.L     __$OnMouseEnter__9ComponentFv




SH SERIES C/C++ Compiler (Ver. 6.0C)                                                                 09-Nov-2021 18:50:40  PAGE   99


SCT OFFSET   CODE       C LABEL     INSTRUCTION OPERAND    COMMENT

    00000930 0000000000             .DATA.L     H'00000000,H'00000000
             000000       
    00000938 <00000000>             .DATA.L     __$OnMouseExit__9ComponentFv
    0000093C 0000000000             .DATA.L     H'00000000,H'00000000
             000000       
    00000944 <00000000>             .DATA.L     __$OnMouseOver__9ComponentFv
    00000948 0000000000             .DATA.L     H'00000000,H'00000000
             000000       
    00000950 <00000000>             .DATA.L     __$OnMouseUp__9ComponentFv
    00000954 0000000000             .DATA.L     H'00000000,H'00000000
             000000       
    0000095C <00000000>             .DATA.L     __$OnMouseUpAsButton__9ComponentFv
    00000960 0000000000             .DATA.L     H'00000000,H'00000000
             000000       
    00000968 <00000000>             .DATA.L     __$OnNetworkInstantiate__9ComponentFv
    0000096C 0000000000             .DATA.L     H'00000000,H'00000000
             000000       
    00000974 <00000000>             .DATA.L     __$OnParticleCollision__9ComponentFv
    00000978 0000000000             .DATA.L     H'00000000,H'00000000
             000000       
    00000980 <00000000>             .DATA.L     __$OnParticleSystemStopped__9ComponentFv
    00000984 0000000000             .DATA.L     H'00000000,H'00000000
             000000       
    0000098C <00000000>             .DATA.L     __$OnParticleTrigger__9ComponentFv
    00000990 0000000000             .DATA.L     H'00000000,H'00000000
             000000       
    00000998 <00000000>             .DATA.L     __$OnParticleUpdateJobScheduled__9ComponentFv
    0000099C 0000000000             .DATA.L     H'00000000,H'00000000
             000000       
    000009A4 <00000000>             .DATA.L     __$OnPlayerConnected__9ComponentFv
    000009A8 0000000000             .DATA.L     H'00000000,H'00000000
             000000       
    000009B0 <00000000>             .DATA.L     __$OnPlayerDisconnected__9ComponentFv
    000009B4 0000000000             .DATA.L     H'00000000,H'00000000
             000000       
    000009BC <00000000>             .DATA.L     __$OnPostRender__9ComponentFv
    000009C0 0000000000             .DATA.L     H'00000000,H'00000000
             000000       
    000009C8 <00000000>             .DATA.L     __$OnPreCull__9ComponentFv
    000009CC 0000000000             .DATA.L     H'00000000,H'00000000
             000000       
    000009D4 <00000000>             .DATA.L     __$OnPreRender__9ComponentFv
    000009D8 0000000000             .DATA.L     H'00000000,H'00000000
             000000       
    000009E0 <00000000>             .DATA.L     __$OnRenderImage__9ComponentFv
    000009E4 0000000000             .DATA.L     H'00000000,H'00000000
             000000       
    000009EC <00000000>             .DATA.L     __$OnRenderObject__9ComponentFv
    000009F0 0000000000             .DATA.L     H'00000000,H'00000000
             000000       
    000009F8 <00000000>             .DATA.L     __$OnSerializeNetworkView__9ComponentFv
    000009FC 0000000000             .DATA.L     H'00000000,H'00000000
             000000       
    00000A04 <00000000>             .DATA.L     __$OnServerInitialized__9ComponentFv
    00000A08 0000000000             .DATA.L     H'00000000,H'00000000
             000000       
    00000A10 <00000000>             .DATA.L     __$OnTransformChildrenChanged__9ComponentFv




SH SERIES C/C++ Compiler (Ver. 6.0C)                                                                 09-Nov-2021 18:50:40  PAGE  100


SCT OFFSET   CODE       C LABEL     INSTRUCTION OPERAND    COMMENT

    00000A14 0000000000             .DATA.L     H'00000000,H'00000000
             000000       
    00000A1C <00000000>             .DATA.L     __$OnTransformParentChanged__9ComponentFv
    00000A20 0000000000             .DATA.L     H'00000000,H'00000000
             000000       
    00000A28 <00000000>             .DATA.L     __$OnTriggerEnter__9ComponentFv
    00000A2C 0000000000             .DATA.L     H'00000000,H'00000000
             000000       
    00000A34 <00000000>             .DATA.L     __$OnTriggerEnter2D__9ComponentFv
    00000A38 0000000000             .DATA.L     H'00000000,H'00000000
             000000       
    00000A40 <00000000>             .DATA.L     __$OnTriggerExit__9ComponentFv
    00000A44 0000000000             .DATA.L     H'00000000,H'00000000
             000000       
    00000A4C <00000000>             .DATA.L     __$OnTriggerExit2D__9ComponentFv
    00000A50 0000000000             .DATA.L     H'00000000,H'00000000
             000000       
    00000A58 <00000000>             .DATA.L     __$OnTriggerStay__9ComponentFv
    00000A5C 0000000000             .DATA.L     H'00000000,H'00000000
             000000       
    00000A64 <00000000>             .DATA.L     __$OnTriggerStay2D__9ComponentFv
    00000A68 0000000000             .DATA.L     H'00000000,H'00000000
             000000       
    00000A70 <00000000>             .DATA.L     __$OnValidate__9ComponentFv
    00000A74 0000000000             .DATA.L     H'00000000,H'00000000
             000000       
    00000A7C <00000000>             .DATA.L     __$OnWillRenderObject__9ComponentFv
    00000A80 0000000000             .DATA.L     H'00000000,H'00000000
             000000       
    00000A88 <00000000>             .DATA.L     __$Reset__9ComponentFv
    00000A8C 0000000000             .DATA.L     H'00000000,H'00000000
             000000       
    00000A94 <00000000>             .DATA.L     __$Start__9ComponentFv
    00000A98 0000000000             .DATA.L     H'00000000,H'00000000
             000000       
    00000AA0 <00000000>             .DATA.L     __$Update__9ComponentFv
    00000AA4              __$__vtbl__16PlayerController:   ; static: virtual function table for PlayerController
    00000AA4 0000000000             .DATA.L     H'00000000,H'00000000
             000000       
    00000AAC <00000000>             .DATA.L     __$__T_16PlayerController
    00000AB0 0000000000             .DATA.L     H'00000000,H'00000000
             000000       
    00000AB8 <00000000>             .DATA.L     __$__dt__16PlayerControllerFv
    00000ABC 0000000000             .DATA.L     H'00000000,H'00000000
             000000       
    00000AC4 <00000000>             .DATA.L     __$Destroy__6ObjectFv
    00000AC8 0000000000             .DATA.L     H'00000000,H'00000000
             000000       
    00000AD0 <00000000>             .DATA.L     __$DestroyImmediate__6ObjectFv
    00000AD4 0000000000             .DATA.L     H'00000000,H'00000000
             000000       
    00000ADC <00000000>             .DATA.L     __$DontDestroyOnLoad__6ObjectFv
    00000AE0 0000000000             .DATA.L     H'00000000,H'00000000
             000000       
    00000AE8 <00000000>             .DATA.L     __$FindObjectOfType__6ObjectFv
    00000AEC 0000000000             .DATA.L     H'00000000,H'00000000
             000000       




SH SERIES C/C++ Compiler (Ver. 6.0C)                                                                 09-Nov-2021 18:50:40  PAGE  101


SCT OFFSET   CODE       C LABEL     INSTRUCTION OPERAND    COMMENT

    00000AF4 <00000000>             .DATA.L     __$FindObjectsOfType__6ObjectFv
    00000AF8 0000000000             .DATA.L     H'00000000,H'00000000
             000000       
    00000B00 <00000000>             .DATA.L     __$Instantiate__6ObjectFv
    00000B04 0000000000             .DATA.L     H'00000000,H'00000000
             000000       
    00000B0C <00000000>             .DATA.L     __$Awake__9ComponentFv
    00000B10 0000000000             .DATA.L     H'00000000,H'00000000
             000000       
    00000B18 <00000000>             .DATA.L     __$FixedUpdate__9ComponentFv
    00000B1C 0000000000             .DATA.L     H'00000000,H'00000000
             000000       
    00000B24 <00000000>             .DATA.L     __$LateUpdate__9ComponentFv
    00000B28 0000000000             .DATA.L     H'00000000,H'00000000
             000000       
    00000B30 <00000000>             .DATA.L     __$OnAnimatorIK__9ComponentFv
    00000B34 0000000000             .DATA.L     H'00000000,H'00000000
             000000       
    00000B3C <00000000>             .DATA.L     __$OnAnimatorMove__9ComponentFv
    00000B40 0000000000             .DATA.L     H'00000000,H'00000000
             000000       
    00000B48 <00000000>             .DATA.L     __$OnApplicationFocus__9ComponentFv
    00000B4C 0000000000             .DATA.L     H'00000000,H'00000000
             000000       
    00000B54 <00000000>             .DATA.L     __$OnApplicationPause__9ComponentFv
    00000B58 0000000000             .DATA.L     H'00000000,H'00000000
             000000       
    00000B60 <00000000>             .DATA.L     __$OnApplicationQuit__9ComponentFv
    00000B64 0000000000             .DATA.L     H'00000000,H'00000000
             000000       
    00000B6C <00000000>             .DATA.L     __$OnAudioFilterRead__9ComponentFv
    00000B70 0000000000             .DATA.L     H'00000000,H'00000000
             000000       
    00000B78 <00000000>             .DATA.L     __$OnBecameInvisible__9ComponentFv
    00000B7C 0000000000             .DATA.L     H'00000000,H'00000000
             000000       
    00000B84 <00000000>             .DATA.L     __$OnBecameVisible__9ComponentFv
    00000B88 0000000000             .DATA.L     H'00000000,H'00000000
             000000       
    00000B90 <00000000>             .DATA.L     __$OnCollisionEnter__9ComponentFv
    00000B94 0000000000             .DATA.L     H'00000000,H'00000000
             000000       
    00000B9C <00000000>             .DATA.L     __$OnCollisionEnter2D__9ComponentFv
    00000BA0 0000000000             .DATA.L     H'00000000,H'00000000
             000000       
    00000BA8 <00000000>             .DATA.L     __$OnCollisionExit__9ComponentFv
    00000BAC 0000000000             .DATA.L     H'00000000,H'00000000
             000000       
    00000BB4 <00000000>             .DATA.L     __$OnCollisionExit2D__9ComponentFv
    00000BB8 0000000000             .DATA.L     H'00000000,H'00000000
             000000       
    00000BC0 <00000000>             .DATA.L     __$OnCollisionStay__9ComponentFv
    00000BC4 0000000000             .DATA.L     H'00000000,H'00000000
             000000       
    00000BCC <00000000>             .DATA.L     __$OnCollisionStay2D__9ComponentFv
    00000BD0 0000000000             .DATA.L     H'00000000,H'00000000
             000000       




SH SERIES C/C++ Compiler (Ver. 6.0C)                                                                 09-Nov-2021 18:50:40  PAGE  102


SCT OFFSET   CODE       C LABEL     INSTRUCTION OPERAND    COMMENT

    00000BD8 <00000000>             .DATA.L     __$OnConnectedToServer__9ComponentFv
    00000BDC 0000000000             .DATA.L     H'00000000,H'00000000
             000000       
    00000BE4 <00000000>             .DATA.L     __$OnControllerColliderHit__9ComponentFv
    00000BE8 0000000000             .DATA.L     H'00000000,H'00000000
             000000       
    00000BF0 <00000000>             .DATA.L     __$OnDestroy__9ComponentFv
    00000BF4 0000000000             .DATA.L     H'00000000,H'00000000
             000000       
    00000BFC <00000000>             .DATA.L     __$OnDisable__9ComponentFv
    00000C00 0000000000             .DATA.L     H'00000000,H'00000000
             000000       
    00000C08 <00000000>             .DATA.L     __$OnDisconnectedFromServer__9ComponentFv
    00000C0C 0000000000             .DATA.L     H'00000000,H'00000000
             000000       
    00000C14 <00000000>             .DATA.L     __$OnDrawGizmos__9ComponentFv
    00000C18 0000000000             .DATA.L     H'00000000,H'00000000
             000000       
    00000C20 <00000000>             .DATA.L     __$OnDrawGizmosSelected__9ComponentFv
    00000C24 0000000000             .DATA.L     H'00000000,H'00000000
             000000       
    00000C2C <00000000>             .DATA.L     __$OnEnable__9ComponentFv
    00000C30 0000000000             .DATA.L     H'00000000,H'00000000
             000000       
    00000C38 <00000000>             .DATA.L     __$OnFailedToConnect__9ComponentFv
    00000C3C 0000000000             .DATA.L     H'00000000,H'00000000
             000000       
    00000C44 <00000000>             .DATA.L     __$OnFailedToConnectToMasterServer__9ComponentFv
    00000C48 0000000000             .DATA.L     H'00000000,H'00000000
             000000       
    00000C50 <00000000>             .DATA.L     __$OnGUI__9ComponentFv
    00000C54 0000000000             .DATA.L     H'00000000,H'00000000
             000000       
    00000C5C <00000000>             .DATA.L     __$OnJointBreak__9ComponentFv
    00000C60 0000000000             .DATA.L     H'00000000,H'00000000
             000000       
    00000C68 <00000000>             .DATA.L     __$OnJointBreak2D__9ComponentFv
    00000C6C 0000000000             .DATA.L     H'00000000,H'00000000
             000000       
    00000C74 <00000000>             .DATA.L     __$OnMasterServerEvent__9ComponentFv
    00000C78 0000000000             .DATA.L     H'00000000,H'00000000
             000000       
    00000C80 <00000000>             .DATA.L     __$OnMouseDown__9ComponentFv
    00000C84 0000000000             .DATA.L     H'00000000,H'00000000
             000000       
    00000C8C <00000000>             .DATA.L     __$OnMouseDrag__9ComponentFv
    00000C90 0000000000             .DATA.L     H'00000000,H'00000000
             000000       
    00000C98 <00000000>             .DATA.L     __$OnMouseEnter__9ComponentFv
    00000C9C 0000000000             .DATA.L     H'00000000,H'00000000
             000000       
    00000CA4 <00000000>             .DATA.L     __$OnMouseExit__9ComponentFv
    00000CA8 0000000000             .DATA.L     H'00000000,H'00000000
             000000       
    00000CB0 <00000000>             .DATA.L     __$OnMouseOver__9ComponentFv
    00000CB4 0000000000             .DATA.L     H'00000000,H'00000000
             000000       




SH SERIES C/C++ Compiler (Ver. 6.0C)                                                                 09-Nov-2021 18:50:40  PAGE  103


SCT OFFSET   CODE       C LABEL     INSTRUCTION OPERAND    COMMENT

    00000CBC <00000000>             .DATA.L     __$OnMouseUp__9ComponentFv
    00000CC0 0000000000             .DATA.L     H'00000000,H'00000000
             000000       
    00000CC8 <00000000>             .DATA.L     __$OnMouseUpAsButton__9ComponentFv
    00000CCC 0000000000             .DATA.L     H'00000000,H'00000000
             000000       
    00000CD4 <00000000>             .DATA.L     __$OnNetworkInstantiate__9ComponentFv
    00000CD8 0000000000             .DATA.L     H'00000000,H'00000000
             000000       
    00000CE0 <00000000>             .DATA.L     __$OnParticleCollision__9ComponentFv
    00000CE4 0000000000             .DATA.L     H'00000000,H'00000000
             000000       
    00000CEC <00000000>             .DATA.L     __$OnParticleSystemStopped__9ComponentFv
    00000CF0 0000000000             .DATA.L     H'00000000,H'00000000
             000000       
    00000CF8 <00000000>             .DATA.L     __$OnParticleTrigger__9ComponentFv
    00000CFC 0000000000             .DATA.L     H'00000000,H'00000000
             000000       
    00000D04 <00000000>             .DATA.L     __$OnParticleUpdateJobScheduled__9ComponentFv
    00000D08 0000000000             .DATA.L     H'00000000,H'00000000
             000000       
    00000D10 <00000000>             .DATA.L     __$OnPlayerConnected__9ComponentFv
    00000D14 0000000000             .DATA.L     H'00000000,H'00000000
             000000       
    00000D1C <00000000>             .DATA.L     __$OnPlayerDisconnected__9ComponentFv
    00000D20 0000000000             .DATA.L     H'00000000,H'00000000
             000000       
    00000D28 <00000000>             .DATA.L     __$OnPostRender__9ComponentFv
    00000D2C 0000000000             .DATA.L     H'00000000,H'00000000
             000000       
    00000D34 <00000000>             .DATA.L     __$OnPreCull__9ComponentFv
    00000D38 0000000000             .DATA.L     H'00000000,H'00000000
             000000       
    00000D40 <00000000>             .DATA.L     __$OnPreRender__9ComponentFv
    00000D44 0000000000             .DATA.L     H'00000000,H'00000000
             000000       
    00000D4C <00000000>             .DATA.L     __$OnRenderImage__9ComponentFv
    00000D50 0000000000             .DATA.L     H'00000000,H'00000000
             000000       
    00000D58 <00000000>             .DATA.L     __$OnRenderObject__9ComponentFv
    00000D5C 0000000000             .DATA.L     H'00000000,H'00000000
             000000       
    00000D64 <00000000>             .DATA.L     __$OnSerializeNetworkView__9ComponentFv
    00000D68 0000000000             .DATA.L     H'00000000,H'00000000
             000000       
    00000D70 <00000000>             .DATA.L     __$OnServerInitialized__9ComponentFv
    00000D74 0000000000             .DATA.L     H'00000000,H'00000000
             000000       
    00000D7C <00000000>             .DATA.L     __$OnTransformChildrenChanged__9ComponentFv
    00000D80 0000000000             .DATA.L     H'00000000,H'00000000
             000000       
    00000D88 <00000000>             .DATA.L     __$OnTransformParentChanged__9ComponentFv
    00000D8C 0000000000             .DATA.L     H'00000000,H'00000000
             000000       
    00000D94 <00000000>             .DATA.L     __$OnTriggerEnter__9ComponentFv
    00000D98 0000000000             .DATA.L     H'00000000,H'00000000
             000000       




SH SERIES C/C++ Compiler (Ver. 6.0C)                                                                 09-Nov-2021 18:50:40  PAGE  104


SCT OFFSET   CODE       C LABEL     INSTRUCTION OPERAND    COMMENT

    00000DA0 <00000000>             .DATA.L     __$OnTriggerEnter2D__9ComponentFv
    00000DA4 0000000000             .DATA.L     H'00000000,H'00000000
             000000       
    00000DAC <00000000>             .DATA.L     __$OnTriggerExit__9ComponentFv
    00000DB0 0000000000             .DATA.L     H'00000000,H'00000000
             000000       
    00000DB8 <00000000>             .DATA.L     __$OnTriggerExit2D__9ComponentFv
    00000DBC 0000000000             .DATA.L     H'00000000,H'00000000
             000000       
    00000DC4 <00000000>             .DATA.L     __$OnTriggerStay__9ComponentFv
    00000DC8 0000000000             .DATA.L     H'00000000,H'00000000
             000000       
    00000DD0 <00000000>             .DATA.L     __$OnTriggerStay2D__9ComponentFv
    00000DD4 0000000000             .DATA.L     H'00000000,H'00000000
             000000       
    00000DDC <00000000>             .DATA.L     __$OnValidate__9ComponentFv
    00000DE0 0000000000             .DATA.L     H'00000000,H'00000000
             000000       
    00000DE8 <00000000>             .DATA.L     __$OnWillRenderObject__9ComponentFv
    00000DEC 0000000000             .DATA.L     H'00000000,H'00000000
             000000       
    00000DF4 <00000000>             .DATA.L     __$Reset__9ComponentFv
    00000DF8 0000000000             .DATA.L     H'00000000,H'00000000
             000000       
    00000E00 <00000000>             .DATA.L     __$Start__16PlayerControllerFv
    00000E04 0000000000             .DATA.L     H'00000000,H'00000000
             000000       
    00000E0C <00000000>             .DATA.L     __$Update__16PlayerControllerFv
    00000E10              ___vtbl__6Sprite:                ; static: virtual function table for Sprite
    00000E10 0000000000             .DATA.L     H'00000000,H'00000000
             000000       
    00000E18 <00000000>             .DATA.L     ___T_6Sprite
    00000E1C 0000000000             .DATA.L     H'00000000,H'00000000
             000000       
    00000E24 <00000000>             .DATA.L     __$__dt__6SpriteFv
    00000E28 0000000000             .DATA.L     H'00000000,H'00000000
             000000       
    00000E30 <00000000>             .DATA.L     __$Destroy__6ObjectFv
    00000E34 0000000000             .DATA.L     H'00000000,H'00000000
             000000       
    00000E3C <00000000>             .DATA.L     __$DestroyImmediate__6ObjectFv
    00000E40 0000000000             .DATA.L     H'00000000,H'00000000
             000000       
    00000E48 <00000000>             .DATA.L     __$DontDestroyOnLoad__6ObjectFv
    00000E4C 0000000000             .DATA.L     H'00000000,H'00000000
             000000       
    00000E54 <00000000>             .DATA.L     __$FindObjectOfType__6ObjectFv
    00000E58 0000000000             .DATA.L     H'00000000,H'00000000
             000000       
    00000E60 <00000000>             .DATA.L     __$FindObjectsOfType__6ObjectFv
    00000E64 0000000000             .DATA.L     H'00000000,H'00000000
             000000       
    00000E6C <00000000>             .DATA.L     __$Instantiate__6ObjectFv
    00000E70 0000000000             .DATA.L     H'00000000,H'00000000
             000000       
    00000E78 <00000000>             .DATA.L     __$Awake__9ComponentFv
    00000E7C 0000000000             .DATA.L     H'00000000,H'00000000




SH SERIES C/C++ Compiler (Ver. 6.0C)                                                                 09-Nov-2021 18:50:40  PAGE  105


SCT OFFSET   CODE       C LABEL     INSTRUCTION OPERAND    COMMENT

             000000       
    00000E84 <00000000>             .DATA.L     __$FixedUpdate__9ComponentFv
    00000E88 0000000000             .DATA.L     H'00000000,H'00000000
             000000       
    00000E90 <00000000>             .DATA.L     __$LateUpdate__9ComponentFv
    00000E94 0000000000             .DATA.L     H'00000000,H'00000000
             000000       
    00000E9C <00000000>             .DATA.L     __$OnAnimatorIK__9ComponentFv
    00000EA0 0000000000             .DATA.L     H'00000000,H'00000000
             000000       
    00000EA8 <00000000>             .DATA.L     __$OnAnimatorMove__9ComponentFv
    00000EAC 0000000000             .DATA.L     H'00000000,H'00000000
             000000       
    00000EB4 <00000000>             .DATA.L     __$OnApplicationFocus__9ComponentFv
    00000EB8 0000000000             .DATA.L     H'00000000,H'00000000
             000000       
    00000EC0 <00000000>             .DATA.L     __$OnApplicationPause__9ComponentFv
    00000EC4 0000000000             .DATA.L     H'00000000,H'00000000
             000000       
    00000ECC <00000000>             .DATA.L     __$OnApplicationQuit__9ComponentFv
    00000ED0 0000000000             .DATA.L     H'00000000,H'00000000
             000000       
    00000ED8 <00000000>             .DATA.L     __$OnAudioFilterRead__9ComponentFv
    00000EDC 0000000000             .DATA.L     H'00000000,H'00000000
             000000       
    00000EE4 <00000000>             .DATA.L     __$OnBecameInvisible__9ComponentFv
    00000EE8 0000000000             .DATA.L     H'00000000,H'00000000
             000000       
    00000EF0 <00000000>             .DATA.L     __$OnBecameVisible__9ComponentFv
    00000EF4 0000000000             .DATA.L     H'00000000,H'00000000
             000000       
    00000EFC <00000000>             .DATA.L     __$OnCollisionEnter__9ComponentFv
    00000F00 0000000000             .DATA.L     H'00000000,H'00000000
             000000       
    00000F08 <00000000>             .DATA.L     __$OnCollisionEnter2D__9ComponentFv
    00000F0C 0000000000             .DATA.L     H'00000000,H'00000000
             000000       
    00000F14 <00000000>             .DATA.L     __$OnCollisionExit__9ComponentFv
    00000F18 0000000000             .DATA.L     H'00000000,H'00000000
             000000       
    00000F20 <00000000>             .DATA.L     __$OnCollisionExit2D__9ComponentFv
    00000F24 0000000000             .DATA.L     H'00000000,H'00000000
             000000       
    00000F2C <00000000>             .DATA.L     __$OnCollisionStay__9ComponentFv
    00000F30 0000000000             .DATA.L     H'00000000,H'00000000
             000000       
    00000F38 <00000000>             .DATA.L     __$OnCollisionStay2D__9ComponentFv
    00000F3C 0000000000             .DATA.L     H'00000000,H'00000000
             000000       
    00000F44 <00000000>             .DATA.L     __$OnConnectedToServer__9ComponentFv
    00000F48 0000000000             .DATA.L     H'00000000,H'00000000
             000000       
    00000F50 <00000000>             .DATA.L     __$OnControllerColliderHit__9ComponentFv
    00000F54 0000000000             .DATA.L     H'00000000,H'00000000
             000000       
    00000F5C <00000000>             .DATA.L     __$OnDestroy__9ComponentFv
    00000F60 0000000000             .DATA.L     H'00000000,H'00000000




SH SERIES C/C++ Compiler (Ver. 6.0C)                                                                 09-Nov-2021 18:50:40  PAGE  106


SCT OFFSET   CODE       C LABEL     INSTRUCTION OPERAND    COMMENT

             000000       
    00000F68 <00000000>             .DATA.L     __$OnDisable__9ComponentFv
    00000F6C 0000000000             .DATA.L     H'00000000,H'00000000
             000000       
    00000F74 <00000000>             .DATA.L     __$OnDisconnectedFromServer__9ComponentFv
    00000F78 0000000000             .DATA.L     H'00000000,H'00000000
             000000       
    00000F80 <00000000>             .DATA.L     __$OnDrawGizmos__9ComponentFv
    00000F84 0000000000             .DATA.L     H'00000000,H'00000000
             000000       
    00000F8C <00000000>             .DATA.L     __$OnDrawGizmosSelected__9ComponentFv
    00000F90 0000000000             .DATA.L     H'00000000,H'00000000
             000000       
    00000F98 <00000000>             .DATA.L     __$OnEnable__9ComponentFv
    00000F9C 0000000000             .DATA.L     H'00000000,H'00000000
             000000       
    00000FA4 <00000000>             .DATA.L     __$OnFailedToConnect__9ComponentFv
    00000FA8 0000000000             .DATA.L     H'00000000,H'00000000
             000000       
    00000FB0 <00000000>             .DATA.L     __$OnFailedToConnectToMasterServer__9ComponentFv
    00000FB4 0000000000             .DATA.L     H'00000000,H'00000000
             000000       
    00000FBC <00000000>             .DATA.L     __$OnGUI__9ComponentFv
    00000FC0 0000000000             .DATA.L     H'00000000,H'00000000
             000000       
    00000FC8 <00000000>             .DATA.L     __$OnJointBreak__9ComponentFv
    00000FCC 0000000000             .DATA.L     H'00000000,H'00000000
             000000       
    00000FD4 <00000000>             .DATA.L     __$OnJointBreak2D__9ComponentFv
    00000FD8 0000000000             .DATA.L     H'00000000,H'00000000
             000000       
    00000FE0 <00000000>             .DATA.L     __$OnMasterServerEvent__9ComponentFv
    00000FE4 0000000000             .DATA.L     H'00000000,H'00000000
             000000       
    00000FEC <00000000>             .DATA.L     __$OnMouseDown__9ComponentFv
    00000FF0 0000000000             .DATA.L     H'00000000,H'00000000
             000000       
    00000FF8 <00000000>             .DATA.L     __$OnMouseDrag__9ComponentFv
    00000FFC 0000000000             .DATA.L     H'00000000,H'00000000
             000000       
    00001004 <00000000>             .DATA.L     __$OnMouseEnter__9ComponentFv
    00001008 0000000000             .DATA.L     H'00000000,H'00000000
             000000       
    00001010 <00000000>             .DATA.L     __$OnMouseExit__9ComponentFv
    00001014 0000000000             .DATA.L     H'00000000,H'00000000
             000000       
    0000101C <00000000>             .DATA.L     __$OnMouseOver__9ComponentFv
    00001020 0000000000             .DATA.L     H'00000000,H'00000000
             000000       
    00001028 <00000000>             .DATA.L     __$OnMouseUp__9ComponentFv
    0000102C 0000000000             .DATA.L     H'00000000,H'00000000
             000000       
    00001034 <00000000>             .DATA.L     __$OnMouseUpAsButton__9ComponentFv
    00001038 0000000000             .DATA.L     H'00000000,H'00000000
             000000       
    00001040 <00000000>             .DATA.L     __$OnNetworkInstantiate__9ComponentFv
    00001044 0000000000             .DATA.L     H'00000000,H'00000000




SH SERIES C/C++ Compiler (Ver. 6.0C)                                                                 09-Nov-2021 18:50:40  PAGE  107


SCT OFFSET   CODE       C LABEL     INSTRUCTION OPERAND    COMMENT

             000000       
    0000104C <00000000>             .DATA.L     __$OnParticleCollision__9ComponentFv
    00001050 0000000000             .DATA.L     H'00000000,H'00000000
             000000       
    00001058 <00000000>             .DATA.L     __$OnParticleSystemStopped__9ComponentFv
    0000105C 0000000000             .DATA.L     H'00000000,H'00000000
             000000       
    00001064 <00000000>             .DATA.L     __$OnParticleTrigger__9ComponentFv
    00001068 0000000000             .DATA.L     H'00000000,H'00000000
             000000       
    00001070 <00000000>             .DATA.L     __$OnParticleUpdateJobScheduled__9ComponentFv
    00001074 0000000000             .DATA.L     H'00000000,H'00000000
             000000       
    0000107C <00000000>             .DATA.L     __$OnPlayerConnected__9ComponentFv
    00001080 0000000000             .DATA.L     H'00000000,H'00000000
             000000       
    00001088 <00000000>             .DATA.L     __$OnPlayerDisconnected__9ComponentFv
    0000108C 0000000000             .DATA.L     H'00000000,H'00000000
             000000       
    00001094 <00000000>             .DATA.L     __$OnPostRender__9ComponentFv
    00001098 0000000000             .DATA.L     H'00000000,H'00000000
             000000       
    000010A0 <00000000>             .DATA.L     __$OnPreCull__9ComponentFv
    000010A4 0000000000             .DATA.L     H'00000000,H'00000000
             000000       
    000010AC <00000000>             .DATA.L     __$OnPreRender__9ComponentFv
    000010B0 0000000000             .DATA.L     H'00000000,H'00000000
             000000       
    000010B8 <00000000>             .DATA.L     __$OnRenderImage__9ComponentFv
    000010BC 0000000000             .DATA.L     H'00000000,H'00000000
             000000       
    000010C4 <00000000>             .DATA.L     __$OnRenderObject__9ComponentFv
    000010C8 0000000000             .DATA.L     H'00000000,H'00000000
             000000       
    000010D0 <00000000>             .DATA.L     __$OnSerializeNetworkView__9ComponentFv
    000010D4 0000000000             .DATA.L     H'00000000,H'00000000
             000000       
    000010DC <00000000>             .DATA.L     __$OnServerInitialized__9ComponentFv
    000010E0 0000000000             .DATA.L     H'00000000,H'00000000
             000000       
    000010E8 <00000000>             .DATA.L     __$OnTransformChildrenChanged__9ComponentFv
    000010EC 0000000000             .DATA.L     H'00000000,H'00000000
             000000       
    000010F4 <00000000>             .DATA.L     __$OnTransformParentChanged__9ComponentFv
    000010F8 0000000000             .DATA.L     H'00000000,H'00000000
             000000       
    00001100 <00000000>             .DATA.L     __$OnTriggerEnter__9ComponentFv
    00001104 0000000000             .DATA.L     H'00000000,H'00000000
             000000       
    0000110C <00000000>             .DATA.L     __$OnTriggerEnter2D__9ComponentFv
    00001110 0000000000             .DATA.L     H'00000000,H'00000000
             000000       
    00001118 <00000000>             .DATA.L     __$OnTriggerExit__9ComponentFv
    0000111C 0000000000             .DATA.L     H'00000000,H'00000000
             000000       
    00001124 <00000000>             .DATA.L     __$OnTriggerExit2D__9ComponentFv
    00001128 0000000000             .DATA.L     H'00000000,H'00000000




SH SERIES C/C++ Compiler (Ver. 6.0C)                                                                 09-Nov-2021 18:50:40  PAGE  108


SCT OFFSET   CODE       C LABEL     INSTRUCTION OPERAND    COMMENT

             000000       
    00001130 <00000000>             .DATA.L     __$OnTriggerStay__9ComponentFv
    00001134 0000000000             .DATA.L     H'00000000,H'00000000
             000000       
    0000113C <00000000>             .DATA.L     __$OnTriggerStay2D__9ComponentFv
    00001140 0000000000             .DATA.L     H'00000000,H'00000000
             000000       
    00001148 <00000000>             .DATA.L     __$OnValidate__9ComponentFv
    0000114C 0000000000             .DATA.L     H'00000000,H'00000000
             000000       
    00001154 <00000000>             .DATA.L     __$OnWillRenderObject__9ComponentFv
    00001158 0000000000             .DATA.L     H'00000000,H'00000000
             000000       
    00001160 <00000000>             .DATA.L     __$Reset__9ComponentFv
    00001164 0000000000             .DATA.L     H'00000000,H'00000000
             000000       
    0000116C <00000000>             .DATA.L     __$Start__9ComponentFv
    00001170 0000000000             .DATA.L     H'00000000,H'00000000
             000000       
    00001178 <00000000>             .DATA.L     _Update__6SpriteFv
    0000117C              __$__vtbl__6Camera:              ; static: virtual function table for Camera
    0000117C 0000000000             .DATA.L     H'00000000,H'00000000
             000000       
    00001184 <00000000>             .DATA.L     __$__T_6Camera
    00001188 0000000000             .DATA.L     H'00000000,H'00000000
             000000       
    00001190 <00000000>             .DATA.L     __$__dt__6CameraFv
    00001194 0000000000             .DATA.L     H'00000000,H'00000000
             000000       
    0000119C <00000000>             .DATA.L     __$Destroy__6ObjectFv
    000011A0 0000000000             .DATA.L     H'00000000,H'00000000
             000000       
    000011A8 <00000000>             .DATA.L     __$DestroyImmediate__6ObjectFv
    000011AC 0000000000             .DATA.L     H'00000000,H'00000000
             000000       
    000011B4 <00000000>             .DATA.L     __$DontDestroyOnLoad__6ObjectFv
    000011B8 0000000000             .DATA.L     H'00000000,H'00000000
             000000       
    000011C0 <00000000>             .DATA.L     __$FindObjectOfType__6ObjectFv
    000011C4 0000000000             .DATA.L     H'00000000,H'00000000
             000000       
    000011CC <00000000>             .DATA.L     __$FindObjectsOfType__6ObjectFv
    000011D0 0000000000             .DATA.L     H'00000000,H'00000000
             000000       
    000011D8 <00000000>             .DATA.L     __$Instantiate__6ObjectFv
    000011DC 0000000000             .DATA.L     H'00000000,H'00000000
             000000       
    000011E4 <00000000>             .DATA.L     __$Awake__9ComponentFv
    000011E8 0000000000             .DATA.L     H'00000000,H'00000000
             000000       
    000011F0 <00000000>             .DATA.L     __$FixedUpdate__9ComponentFv
    000011F4 0000000000             .DATA.L     H'00000000,H'00000000
             000000       
    000011FC <00000000>             .DATA.L     __$LateUpdate__9ComponentFv
    00001200 0000000000             .DATA.L     H'00000000,H'00000000
             000000       
    00001208 <00000000>             .DATA.L     __$OnAnimatorIK__9ComponentFv




SH SERIES C/C++ Compiler (Ver. 6.0C)                                                                 09-Nov-2021 18:50:40  PAGE  109


SCT OFFSET   CODE       C LABEL     INSTRUCTION OPERAND    COMMENT

    0000120C 0000000000             .DATA.L     H'00000000,H'00000000
             000000       
    00001214 <00000000>             .DATA.L     __$OnAnimatorMove__9ComponentFv
    00001218 0000000000             .DATA.L     H'00000000,H'00000000
             000000       
    00001220 <00000000>             .DATA.L     __$OnApplicationFocus__9ComponentFv
    00001224 0000000000             .DATA.L     H'00000000,H'00000000
             000000       
    0000122C <00000000>             .DATA.L     __$OnApplicationPause__9ComponentFv
    00001230 0000000000             .DATA.L     H'00000000,H'00000000
             000000       
    00001238 <00000000>             .DATA.L     __$OnApplicationQuit__9ComponentFv
    0000123C 0000000000             .DATA.L     H'00000000,H'00000000
             000000       
    00001244 <00000000>             .DATA.L     __$OnAudioFilterRead__9ComponentFv
    00001248 0000000000             .DATA.L     H'00000000,H'00000000
             000000       
    00001250 <00000000>             .DATA.L     __$OnBecameInvisible__9ComponentFv
    00001254 0000000000             .DATA.L     H'00000000,H'00000000
             000000       
    0000125C <00000000>             .DATA.L     __$OnBecameVisible__9ComponentFv
    00001260 0000000000             .DATA.L     H'00000000,H'00000000
             000000       
    00001268 <00000000>             .DATA.L     __$OnCollisionEnter__9ComponentFv
    0000126C 0000000000             .DATA.L     H'00000000,H'00000000
             000000       
    00001274 <00000000>             .DATA.L     __$OnCollisionEnter2D__9ComponentFv
    00001278 0000000000             .DATA.L     H'00000000,H'00000000
             000000       
    00001280 <00000000>             .DATA.L     __$OnCollisionExit__9ComponentFv
    00001284 0000000000             .DATA.L     H'00000000,H'00000000
             000000       
    0000128C <00000000>             .DATA.L     __$OnCollisionExit2D__9ComponentFv
    00001290 0000000000             .DATA.L     H'00000000,H'00000000
             000000       
    00001298 <00000000>             .DATA.L     __$OnCollisionStay__9ComponentFv
    0000129C 0000000000             .DATA.L     H'00000000,H'00000000
             000000       
    000012A4 <00000000>             .DATA.L     __$OnCollisionStay2D__9ComponentFv
    000012A8 0000000000             .DATA.L     H'00000000,H'00000000
             000000       
    000012B0 <00000000>             .DATA.L     __$OnConnectedToServer__9ComponentFv
    000012B4 0000000000             .DATA.L     H'00000000,H'00000000
             000000       
    000012BC <00000000>             .DATA.L     __$OnControllerColliderHit__9ComponentFv
    000012C0 0000000000             .DATA.L     H'00000000,H'00000000
             000000       
    000012C8 <00000000>             .DATA.L     __$OnDestroy__9ComponentFv
    000012CC 0000000000             .DATA.L     H'00000000,H'00000000
             000000       
    000012D4 <00000000>             .DATA.L     __$OnDisable__9ComponentFv
    000012D8 0000000000             .DATA.L     H'00000000,H'00000000
             000000       
    000012E0 <00000000>             .DATA.L     __$OnDisconnectedFromServer__9ComponentFv
    000012E4 0000000000             .DATA.L     H'00000000,H'00000000
             000000       
    000012EC <00000000>             .DATA.L     __$OnDrawGizmos__9ComponentFv




SH SERIES C/C++ Compiler (Ver. 6.0C)                                                                 09-Nov-2021 18:50:40  PAGE  110


SCT OFFSET   CODE       C LABEL     INSTRUCTION OPERAND    COMMENT

    000012F0 0000000000             .DATA.L     H'00000000,H'00000000
             000000       
    000012F8 <00000000>             .DATA.L     __$OnDrawGizmosSelected__9ComponentFv
    000012FC 0000000000             .DATA.L     H'00000000,H'00000000
             000000       
    00001304 <00000000>             .DATA.L     __$OnEnable__9ComponentFv
    00001308 0000000000             .DATA.L     H'00000000,H'00000000
             000000       
    00001310 <00000000>             .DATA.L     __$OnFailedToConnect__9ComponentFv
    00001314 0000000000             .DATA.L     H'00000000,H'00000000
             000000       
    0000131C <00000000>             .DATA.L     __$OnFailedToConnectToMasterServer__9ComponentFv
    00001320 0000000000             .DATA.L     H'00000000,H'00000000
             000000       
    00001328 <00000000>             .DATA.L     __$OnGUI__9ComponentFv
    0000132C 0000000000             .DATA.L     H'00000000,H'00000000
             000000       
    00001334 <00000000>             .DATA.L     __$OnJointBreak__9ComponentFv
    00001338 0000000000             .DATA.L     H'00000000,H'00000000
             000000       
    00001340 <00000000>             .DATA.L     __$OnJointBreak2D__9ComponentFv
    00001344 0000000000             .DATA.L     H'00000000,H'00000000
             000000       
    0000134C <00000000>             .DATA.L     __$OnMasterServerEvent__9ComponentFv
    00001350 0000000000             .DATA.L     H'00000000,H'00000000
             000000       
    00001358 <00000000>             .DATA.L     __$OnMouseDown__9ComponentFv
    0000135C 0000000000             .DATA.L     H'00000000,H'00000000
             000000       
    00001364 <00000000>             .DATA.L     __$OnMouseDrag__9ComponentFv
    00001368 0000000000             .DATA.L     H'00000000,H'00000000
             000000       
    00001370 <00000000>             .DATA.L     __$OnMouseEnter__9ComponentFv
    00001374 0000000000             .DATA.L     H'00000000,H'00000000
             000000       
    0000137C <00000000>             .DATA.L     __$OnMouseExit__9ComponentFv
    00001380 0000000000             .DATA.L     H'00000000,H'00000000
             000000       
    00001388 <00000000>             .DATA.L     __$OnMouseOver__9ComponentFv
    0000138C 0000000000             .DATA.L     H'00000000,H'00000000
             000000       
    00001394 <00000000>             .DATA.L     __$OnMouseUp__9ComponentFv
    00001398 0000000000             .DATA.L     H'00000000,H'00000000
             000000       
    000013A0 <00000000>             .DATA.L     __$OnMouseUpAsButton__9ComponentFv
    000013A4 0000000000             .DATA.L     H'00000000,H'00000000
             000000       
    000013AC <00000000>             .DATA.L     __$OnNetworkInstantiate__9ComponentFv
    000013B0 0000000000             .DATA.L     H'00000000,H'00000000
             000000       
    000013B8 <00000000>             .DATA.L     __$OnParticleCollision__9ComponentFv
    000013BC 0000000000             .DATA.L     H'00000000,H'00000000
             000000       
    000013C4 <00000000>             .DATA.L     __$OnParticleSystemStopped__9ComponentFv
    000013C8 0000000000             .DATA.L     H'00000000,H'00000000
             000000       
    000013D0 <00000000>             .DATA.L     __$OnParticleTrigger__9ComponentFv




SH SERIES C/C++ Compiler (Ver. 6.0C)                                                                 09-Nov-2021 18:50:40  PAGE  111


SCT OFFSET   CODE       C LABEL     INSTRUCTION OPERAND    COMMENT

    000013D4 0000000000             .DATA.L     H'00000000,H'00000000
             000000       
    000013DC <00000000>             .DATA.L     __$OnParticleUpdateJobScheduled__9ComponentFv
    000013E0 0000000000             .DATA.L     H'00000000,H'00000000
             000000       
    000013E8 <00000000>             .DATA.L     __$OnPlayerConnected__9ComponentFv
    000013EC 0000000000             .DATA.L     H'00000000,H'00000000
             000000       
    000013F4 <00000000>             .DATA.L     __$OnPlayerDisconnected__9ComponentFv
    000013F8 0000000000             .DATA.L     H'00000000,H'00000000
             000000       
    00001400 <00000000>             .DATA.L     __$OnPostRender__9ComponentFv
    00001404 0000000000             .DATA.L     H'00000000,H'00000000
             000000       
    0000140C <00000000>             .DATA.L     __$OnPreCull__9ComponentFv
    00001410 0000000000             .DATA.L     H'00000000,H'00000000
             000000       
    00001418 <00000000>             .DATA.L     __$OnPreRender__9ComponentFv
    0000141C 0000000000             .DATA.L     H'00000000,H'00000000
             000000       
    00001424 <00000000>             .DATA.L     __$OnRenderImage__9ComponentFv
    00001428 0000000000             .DATA.L     H'00000000,H'00000000
             000000       
    00001430 <00000000>             .DATA.L     __$OnRenderObject__9ComponentFv
    00001434 0000000000             .DATA.L     H'00000000,H'00000000
             000000       
    0000143C <00000000>             .DATA.L     __$OnSerializeNetworkView__9ComponentFv
    00001440 0000000000             .DATA.L     H'00000000,H'00000000
             000000       
    00001448 <00000000>             .DATA.L     __$OnServerInitialized__9ComponentFv
    0000144C 0000000000             .DATA.L     H'00000000,H'00000000
             000000       
    00001454 <00000000>             .DATA.L     __$OnTransformChildrenChanged__9ComponentFv
    00001458 0000000000             .DATA.L     H'00000000,H'00000000
             000000       
    00001460 <00000000>             .DATA.L     __$OnTransformParentChanged__9ComponentFv
    00001464 0000000000             .DATA.L     H'00000000,H'00000000
             000000       
    0000146C <00000000>             .DATA.L     __$OnTriggerEnter__9ComponentFv
    00001470 0000000000             .DATA.L     H'00000000,H'00000000
             000000       
    00001478 <00000000>             .DATA.L     __$OnTriggerEnter2D__9ComponentFv
    0000147C 0000000000             .DATA.L     H'00000000,H'00000000
             000000       
    00001484 <00000000>             .DATA.L     __$OnTriggerExit__9ComponentFv
    00001488 0000000000             .DATA.L     H'00000000,H'00000000
             000000       
    00001490 <00000000>             .DATA.L     __$OnTriggerExit2D__9ComponentFv
    00001494 0000000000             .DATA.L     H'00000000,H'00000000
             000000       
    0000149C <00000000>             .DATA.L     __$OnTriggerStay__9ComponentFv
    000014A0 0000000000             .DATA.L     H'00000000,H'00000000
             000000       
    000014A8 <00000000>             .DATA.L     __$OnTriggerStay2D__9ComponentFv
    000014AC 0000000000             .DATA.L     H'00000000,H'00000000
             000000       
    000014B4 <00000000>             .DATA.L     __$OnValidate__9ComponentFv




SH SERIES C/C++ Compiler (Ver. 6.0C)                                                                 09-Nov-2021 18:50:40  PAGE  112


SCT OFFSET   CODE       C LABEL     INSTRUCTION OPERAND    COMMENT

    000014B8 0000000000             .DATA.L     H'00000000,H'00000000
             000000       
    000014C0 <00000000>             .DATA.L     __$OnWillRenderObject__9ComponentFv
    000014C4 0000000000             .DATA.L     H'00000000,H'00000000
             000000       
    000014CC <00000000>             .DATA.L     __$Reset__9ComponentFv
    000014D0 0000000000             .DATA.L     H'00000000,H'00000000
             000000       
    000014D8 <00000000>             .DATA.L     __$Start__9ComponentFv
    000014DC 0000000000             .DATA.L     H'00000000,H'00000000
             000000       
    000014E4 <00000000>             .DATA.L     __$Update__9ComponentFv
    000014E8              __$__vtbl__7Texture:             ; static: virtual function table for Texture
    000014E8 0000000000             .DATA.L     H'00000000,H'00000000
             000000       
    000014F0 <00000000>             .DATA.L     __$__T_7Texture
    000014F4 0000000000             .DATA.L     H'00000000,H'00000000
             000000       
    000014FC <00000000>             .DATA.L     __$__dt__7TextureFv
    00001500 0000000000             .DATA.L     H'00000000,H'00000000
             000000       
    00001508 <00000000>             .DATA.L     __$Destroy__6ObjectFv
    0000150C 0000000000             .DATA.L     H'00000000,H'00000000
             000000       
    00001514 <00000000>             .DATA.L     __$DestroyImmediate__6ObjectFv
    00001518 0000000000             .DATA.L     H'00000000,H'00000000
             000000       
    00001520 <00000000>             .DATA.L     __$DontDestroyOnLoad__6ObjectFv
    00001524 0000000000             .DATA.L     H'00000000,H'00000000
             000000       
    0000152C <00000000>             .DATA.L     __$FindObjectOfType__6ObjectFv
    00001530 0000000000             .DATA.L     H'00000000,H'00000000
             000000       
    00001538 <00000000>             .DATA.L     __$FindObjectsOfType__6ObjectFv
    0000153C 0000000000             .DATA.L     H'00000000,H'00000000
             000000       
    00001544 <00000000>             .DATA.L     __$Instantiate__6ObjectFv
    00001548              ___vtbl__10GameObject:           ; static: virtual function table for GameObject
    00001548 0000000000             .DATA.L     H'00000000,H'00000000
             000000       
    00001550 <00000000>             .DATA.L     ___T_10GameObject
    00001554 0000000000             .DATA.L     H'00000000,H'00000000
             000000       
    0000155C <00000000>             .DATA.L     ___dt__10GameObjectFv
    00001560 0000000000             .DATA.L     H'00000000,H'00000000
             000000       
    00001568 <00000000>             .DATA.L     __$Destroy__6ObjectFv
    0000156C 0000000000             .DATA.L     H'00000000,H'00000000
             000000       
    00001574 <00000000>             .DATA.L     __$DestroyImmediate__6ObjectFv
    00001578 0000000000             .DATA.L     H'00000000,H'00000000
             000000       
    00001580 <00000000>             .DATA.L     __$DontDestroyOnLoad__6ObjectFv
    00001584 0000000000             .DATA.L     H'00000000,H'00000000
             000000       
    0000158C <00000000>             .DATA.L     __$FindObjectOfType__6ObjectFv
    00001590 0000000000             .DATA.L     H'00000000,H'00000000




SH SERIES C/C++ Compiler (Ver. 6.0C)                                                                 09-Nov-2021 18:50:40  PAGE  113


SCT OFFSET   CODE       C LABEL     INSTRUCTION OPERAND    COMMENT

             000000       
    00001598 <00000000>             .DATA.L     __$FindObjectsOfType__6ObjectFv
    0000159C 0000000000             .DATA.L     H'00000000,H'00000000
             000000       
    000015A4 <00000000>             .DATA.L     __$Instantiate__6ObjectFv
    000015A8              ___vtbl__7Tilemap:               ; static: virtual function table for Tilemap
    000015A8 0000000000             .DATA.L     H'00000000,H'00000000
             000000       
    000015B0 <00000000>             .DATA.L     ___T_7Tilemap
    000015B4 0000000000             .DATA.L     H'00000000,H'00000000
             000000       
    000015BC <00000000>             .DATA.L     ___dt__7TilemapFv
    000015C0 0000000000             .DATA.L     H'00000000,H'00000000
             000000       
    000015C8 <00000000>             .DATA.L     __$Destroy__6ObjectFv
    000015CC 0000000000             .DATA.L     H'00000000,H'00000000
             000000       
    000015D4 <00000000>             .DATA.L     __$DestroyImmediate__6ObjectFv
    000015D8 0000000000             .DATA.L     H'00000000,H'00000000
             000000       
    000015E0 <00000000>             .DATA.L     __$DontDestroyOnLoad__6ObjectFv
    000015E4 0000000000             .DATA.L     H'00000000,H'00000000
             000000       
    000015EC <00000000>             .DATA.L     __$FindObjectOfType__6ObjectFv
    000015F0 0000000000             .DATA.L     H'00000000,H'00000000
             000000       
    000015F8 <00000000>             .DATA.L     __$FindObjectsOfType__6ObjectFv
    000015FC 0000000000             .DATA.L     H'00000000,H'00000000
             000000       
    00001604 <00000000>             .DATA.L     __$Instantiate__6ObjectFv
    00001608 0000000000             .DATA.L     H'00000000,H'00000000
             000000       
    00001610 <00000000>             .DATA.L     __$Awake__9ComponentFv
    00001614 0000000000             .DATA.L     H'00000000,H'00000000
             000000       
    0000161C <00000000>             .DATA.L     __$FixedUpdate__9ComponentFv
    00001620 0000000000             .DATA.L     H'00000000,H'00000000
             000000       
    00001628 <00000000>             .DATA.L     __$LateUpdate__9ComponentFv
    0000162C 0000000000             .DATA.L     H'00000000,H'00000000
             000000       
    00001634 <00000000>             .DATA.L     __$OnAnimatorIK__9ComponentFv
    00001638 0000000000             .DATA.L     H'00000000,H'00000000
             000000       
    00001640 <00000000>             .DATA.L     __$OnAnimatorMove__9ComponentFv
    00001644 0000000000             .DATA.L     H'00000000,H'00000000
             000000       
    0000164C <00000000>             .DATA.L     __$OnApplicationFocus__9ComponentFv
    00001650 0000000000             .DATA.L     H'00000000,H'00000000
             000000       
    00001658 <00000000>             .DATA.L     __$OnApplicationPause__9ComponentFv
    0000165C 0000000000             .DATA.L     H'00000000,H'00000000
             000000       
    00001664 <00000000>             .DATA.L     __$OnApplicationQuit__9ComponentFv
    00001668 0000000000             .DATA.L     H'00000000,H'00000000
             000000       
    00001670 <00000000>             .DATA.L     __$OnAudioFilterRead__9ComponentFv




SH SERIES C/C++ Compiler (Ver. 6.0C)                                                                 09-Nov-2021 18:50:40  PAGE  114


SCT OFFSET   CODE       C LABEL     INSTRUCTION OPERAND    COMMENT

    00001674 0000000000             .DATA.L     H'00000000,H'00000000
             000000       
    0000167C <00000000>             .DATA.L     __$OnBecameInvisible__9ComponentFv
    00001680 0000000000             .DATA.L     H'00000000,H'00000000
             000000       
    00001688 <00000000>             .DATA.L     __$OnBecameVisible__9ComponentFv
    0000168C 0000000000             .DATA.L     H'00000000,H'00000000
             000000       
    00001694 <00000000>             .DATA.L     __$OnCollisionEnter__9ComponentFv
    00001698 0000000000             .DATA.L     H'00000000,H'00000000
             000000       
    000016A0 <00000000>             .DATA.L     __$OnCollisionEnter2D__9ComponentFv
    000016A4 0000000000             .DATA.L     H'00000000,H'00000000
             000000       
    000016AC <00000000>             .DATA.L     __$OnCollisionExit__9ComponentFv
    000016B0 0000000000             .DATA.L     H'00000000,H'00000000
             000000       
    000016B8 <00000000>             .DATA.L     __$OnCollisionExit2D__9ComponentFv
    000016BC 0000000000             .DATA.L     H'00000000,H'00000000
             000000       
    000016C4 <00000000>             .DATA.L     __$OnCollisionStay__9ComponentFv
    000016C8 0000000000             .DATA.L     H'00000000,H'00000000
             000000       
    000016D0 <00000000>             .DATA.L     __$OnCollisionStay2D__9ComponentFv
    000016D4 0000000000             .DATA.L     H'00000000,H'00000000
             000000       
    000016DC <00000000>             .DATA.L     __$OnConnectedToServer__9ComponentFv
    000016E0 0000000000             .DATA.L     H'00000000,H'00000000
             000000       
    000016E8 <00000000>             .DATA.L     __$OnControllerColliderHit__9ComponentFv
    000016EC 0000000000             .DATA.L     H'00000000,H'00000000
             000000       
    000016F4 <00000000>             .DATA.L     __$OnDestroy__9ComponentFv
    000016F8 0000000000             .DATA.L     H'00000000,H'00000000
             000000       
    00001700 <00000000>             .DATA.L     __$OnDisable__9ComponentFv
    00001704 0000000000             .DATA.L     H'00000000,H'00000000
             000000       
    0000170C <00000000>             .DATA.L     __$OnDisconnectedFromServer__9ComponentFv
    00001710 0000000000             .DATA.L     H'00000000,H'00000000
             000000       
    00001718 <00000000>             .DATA.L     __$OnDrawGizmos__9ComponentFv
    0000171C 0000000000             .DATA.L     H'00000000,H'00000000
             000000       
    00001724 <00000000>             .DATA.L     __$OnDrawGizmosSelected__9ComponentFv
    00001728 0000000000             .DATA.L     H'00000000,H'00000000
             000000       
    00001730 <00000000>             .DATA.L     __$OnEnable__9ComponentFv
    00001734 0000000000             .DATA.L     H'00000000,H'00000000
             000000       
    0000173C <00000000>             .DATA.L     __$OnFailedToConnect__9ComponentFv
    00001740 0000000000             .DATA.L     H'00000000,H'00000000
             000000       
    00001748 <00000000>             .DATA.L     __$OnFailedToConnectToMasterServer__9ComponentFv
    0000174C 0000000000             .DATA.L     H'00000000,H'00000000
             000000       
    00001754 <00000000>             .DATA.L     __$OnGUI__9ComponentFv




SH SERIES C/C++ Compiler (Ver. 6.0C)                                                                 09-Nov-2021 18:50:40  PAGE  115


SCT OFFSET   CODE       C LABEL     INSTRUCTION OPERAND    COMMENT

    00001758 0000000000             .DATA.L     H'00000000,H'00000000
             000000       
    00001760 <00000000>             .DATA.L     __$OnJointBreak__9ComponentFv
    00001764 0000000000             .DATA.L     H'00000000,H'00000000
             000000       
    0000176C <00000000>             .DATA.L     __$OnJointBreak2D__9ComponentFv
    00001770 0000000000             .DATA.L     H'00000000,H'00000000
             000000       
    00001778 <00000000>             .DATA.L     __$OnMasterServerEvent__9ComponentFv
    0000177C 0000000000             .DATA.L     H'00000000,H'00000000
             000000       
    00001784 <00000000>             .DATA.L     __$OnMouseDown__9ComponentFv
    00001788 0000000000             .DATA.L     H'00000000,H'00000000
             000000       
    00001790 <00000000>             .DATA.L     __$OnMouseDrag__9ComponentFv
    00001794 0000000000             .DATA.L     H'00000000,H'00000000
             000000       
    0000179C <00000000>             .DATA.L     __$OnMouseEnter__9ComponentFv
    000017A0 0000000000             .DATA.L     H'00000000,H'00000000
             000000       
    000017A8 <00000000>             .DATA.L     __$OnMouseExit__9ComponentFv
    000017AC 0000000000             .DATA.L     H'00000000,H'00000000
             000000       
    000017B4 <00000000>             .DATA.L     __$OnMouseOver__9ComponentFv
    000017B8 0000000000             .DATA.L     H'00000000,H'00000000
             000000       
    000017C0 <00000000>             .DATA.L     __$OnMouseUp__9ComponentFv
    000017C4 0000000000             .DATA.L     H'00000000,H'00000000
             000000       
    000017CC <00000000>             .DATA.L     __$OnMouseUpAsButton__9ComponentFv
    000017D0 0000000000             .DATA.L     H'00000000,H'00000000
             000000       
    000017D8 <00000000>             .DATA.L     __$OnNetworkInstantiate__9ComponentFv
    000017DC 0000000000             .DATA.L     H'00000000,H'00000000
             000000       
    000017E4 <00000000>             .DATA.L     __$OnParticleCollision__9ComponentFv
    000017E8 0000000000             .DATA.L     H'00000000,H'00000000
             000000       
    000017F0 <00000000>             .DATA.L     __$OnParticleSystemStopped__9ComponentFv
    000017F4 0000000000             .DATA.L     H'00000000,H'00000000
             000000       
    000017FC <00000000>             .DATA.L     __$OnParticleTrigger__9ComponentFv
    00001800 0000000000             .DATA.L     H'00000000,H'00000000
             000000       
    00001808 <00000000>             .DATA.L     __$OnParticleUpdateJobScheduled__9ComponentFv
    0000180C 0000000000             .DATA.L     H'00000000,H'00000000
             000000       
    00001814 <00000000>             .DATA.L     __$OnPlayerConnected__9ComponentFv
    00001818 0000000000             .DATA.L     H'00000000,H'00000000
             000000       
    00001820 <00000000>             .DATA.L     __$OnPlayerDisconnected__9ComponentFv
    00001824 0000000000             .DATA.L     H'00000000,H'00000000
             000000       
    0000182C <00000000>             .DATA.L     __$OnPostRender__9ComponentFv
    00001830 0000000000             .DATA.L     H'00000000,H'00000000
             000000       
    00001838 <00000000>             .DATA.L     __$OnPreCull__9ComponentFv




SH SERIES C/C++ Compiler (Ver. 6.0C)                                                                 09-Nov-2021 18:50:40  PAGE  116


SCT OFFSET   CODE       C LABEL     INSTRUCTION OPERAND    COMMENT

    0000183C 0000000000             .DATA.L     H'00000000,H'00000000
             000000       
    00001844 <00000000>             .DATA.L     __$OnPreRender__9ComponentFv
    00001848 0000000000             .DATA.L     H'00000000,H'00000000
             000000       
    00001850 <00000000>             .DATA.L     __$OnRenderImage__9ComponentFv
    00001854 0000000000             .DATA.L     H'00000000,H'00000000
             000000       
    0000185C <00000000>             .DATA.L     __$OnRenderObject__9ComponentFv
    00001860 0000000000             .DATA.L     H'00000000,H'00000000
             000000       
    00001868 <00000000>             .DATA.L     __$OnSerializeNetworkView__9ComponentFv
    0000186C 0000000000             .DATA.L     H'00000000,H'00000000
             000000       
    00001874 <00000000>             .DATA.L     __$OnServerInitialized__9ComponentFv
    00001878 0000000000             .DATA.L     H'00000000,H'00000000
             000000       
    00001880 <00000000>             .DATA.L     __$OnTransformChildrenChanged__9ComponentFv
    00001884 0000000000             .DATA.L     H'00000000,H'00000000
             000000       
    0000188C <00000000>             .DATA.L     __$OnTransformParentChanged__9ComponentFv
    00001890 0000000000             .DATA.L     H'00000000,H'00000000
             000000       
    00001898 <00000000>             .DATA.L     __$OnTriggerEnter__9ComponentFv
    0000189C 0000000000             .DATA.L     H'00000000,H'00000000
             000000       
    000018A4 <00000000>             .DATA.L     __$OnTriggerEnter2D__9ComponentFv
    000018A8 0000000000             .DATA.L     H'00000000,H'00000000
             000000       
    000018B0 <00000000>             .DATA.L     __$OnTriggerExit__9ComponentFv
    000018B4 0000000000             .DATA.L     H'00000000,H'00000000
             000000       
    000018BC <00000000>             .DATA.L     __$OnTriggerExit2D__9ComponentFv
    000018C0 0000000000             .DATA.L     H'00000000,H'00000000
             000000       
    000018C8 <00000000>             .DATA.L     __$OnTriggerStay__9ComponentFv
    000018CC 0000000000             .DATA.L     H'00000000,H'00000000
             000000       
    000018D4 <00000000>             .DATA.L     __$OnTriggerStay2D__9ComponentFv
    000018D8 0000000000             .DATA.L     H'00000000,H'00000000
             000000       
    000018E0 <00000000>             .DATA.L     __$OnValidate__9ComponentFv
    000018E4 0000000000             .DATA.L     H'00000000,H'00000000
             000000       
    000018EC <00000000>             .DATA.L     __$OnWillRenderObject__9ComponentFv
    000018F0 0000000000             .DATA.L     H'00000000,H'00000000
             000000       
    000018F8 <00000000>             .DATA.L     __$Reset__9ComponentFv
    000018FC 0000000000             .DATA.L     H'00000000,H'00000000
             000000       
    00001904 <00000000>             .DATA.L     __$Start__9ComponentFv
    00001908 0000000000             .DATA.L     H'00000000,H'00000000
             000000       
    00001910 <00000000>             .DATA.L     _Update__7TilemapFv
    00001914              ___vtbl__9Transform:             ; static: virtual function table for Transform
    00001914 0000000000             .DATA.L     H'00000000,H'00000000
             000000       




SH SERIES C/C++ Compiler (Ver. 6.0C)                                                                 09-Nov-2021 18:50:40  PAGE  117


SCT OFFSET   CODE       C LABEL     INSTRUCTION OPERAND    COMMENT

    0000191C <00000000>             .DATA.L     ___T_9Transform
    00001920 0000000000             .DATA.L     H'00000000,H'00000000
             000000       
    00001928 <00000000>             .DATA.L     ___dt__9TransformFv
    0000192C 0000000000             .DATA.L     H'00000000,H'00000000
             000000       
    00001934 <00000000>             .DATA.L     __$Destroy__6ObjectFv
    00001938 0000000000             .DATA.L     H'00000000,H'00000000
             000000       
    00001940 <00000000>             .DATA.L     __$DestroyImmediate__6ObjectFv
    00001944 0000000000             .DATA.L     H'00000000,H'00000000
             000000       
    0000194C <00000000>             .DATA.L     __$DontDestroyOnLoad__6ObjectFv
    00001950 0000000000             .DATA.L     H'00000000,H'00000000
             000000       
    00001958 <00000000>             .DATA.L     __$FindObjectOfType__6ObjectFv
    0000195C 0000000000             .DATA.L     H'00000000,H'00000000
             000000       
    00001964 <00000000>             .DATA.L     __$FindObjectsOfType__6ObjectFv
    00001968 0000000000             .DATA.L     H'00000000,H'00000000
             000000       
    00001970 <00000000>             .DATA.L     __$Instantiate__6ObjectFv
    00001974 0000000000             .DATA.L     H'00000000,H'00000000
             000000       
    0000197C <00000000>             .DATA.L     __$Awake__9ComponentFv
    00001980 0000000000             .DATA.L     H'00000000,H'00000000
             000000       
    00001988 <00000000>             .DATA.L     __$FixedUpdate__9ComponentFv
    0000198C 0000000000             .DATA.L     H'00000000,H'00000000
             000000       
    00001994 <00000000>             .DATA.L     __$LateUpdate__9ComponentFv
    00001998 0000000000             .DATA.L     H'00000000,H'00000000
             000000       
    000019A0 <00000000>             .DATA.L     __$OnAnimatorIK__9ComponentFv
    000019A4 0000000000             .DATA.L     H'00000000,H'00000000
             000000       
    000019AC <00000000>             .DATA.L     __$OnAnimatorMove__9ComponentFv
    000019B0 0000000000             .DATA.L     H'00000000,H'00000000
             000000       
    000019B8 <00000000>             .DATA.L     __$OnApplicationFocus__9ComponentFv
    000019BC 0000000000             .DATA.L     H'00000000,H'00000000
             000000       
    000019C4 <00000000>             .DATA.L     __$OnApplicationPause__9ComponentFv
    000019C8 0000000000             .DATA.L     H'00000000,H'00000000
             000000       
    000019D0 <00000000>             .DATA.L     __$OnApplicationQuit__9ComponentFv
    000019D4 0000000000             .DATA.L     H'00000000,H'00000000
             000000       
    000019DC <00000000>             .DATA.L     __$OnAudioFilterRead__9ComponentFv
    000019E0 0000000000             .DATA.L     H'00000000,H'00000000
             000000       
    000019E8 <00000000>             .DATA.L     __$OnBecameInvisible__9ComponentFv
    000019EC 0000000000             .DATA.L     H'00000000,H'00000000
             000000       
    000019F4 <00000000>             .DATA.L     __$OnBecameVisible__9ComponentFv
    000019F8 0000000000             .DATA.L     H'00000000,H'00000000
             000000       




SH SERIES C/C++ Compiler (Ver. 6.0C)                                                                 09-Nov-2021 18:50:40  PAGE  118


SCT OFFSET   CODE       C LABEL     INSTRUCTION OPERAND    COMMENT

    00001A00 <00000000>             .DATA.L     __$OnCollisionEnter__9ComponentFv
    00001A04 0000000000             .DATA.L     H'00000000,H'00000000
             000000       
    00001A0C <00000000>             .DATA.L     __$OnCollisionEnter2D__9ComponentFv
    00001A10 0000000000             .DATA.L     H'00000000,H'00000000
             000000       
    00001A18 <00000000>             .DATA.L     __$OnCollisionExit__9ComponentFv
    00001A1C 0000000000             .DATA.L     H'00000000,H'00000000
             000000       
    00001A24 <00000000>             .DATA.L     __$OnCollisionExit2D__9ComponentFv
    00001A28 0000000000             .DATA.L     H'00000000,H'00000000
             000000       
    00001A30 <00000000>             .DATA.L     __$OnCollisionStay__9ComponentFv
    00001A34 0000000000             .DATA.L     H'00000000,H'00000000
             000000       
    00001A3C <00000000>             .DATA.L     __$OnCollisionStay2D__9ComponentFv
    00001A40 0000000000             .DATA.L     H'00000000,H'00000000
             000000       
    00001A48 <00000000>             .DATA.L     __$OnConnectedToServer__9ComponentFv
    00001A4C 0000000000             .DATA.L     H'00000000,H'00000000
             000000       
    00001A54 <00000000>             .DATA.L     __$OnControllerColliderHit__9ComponentFv
    00001A58 0000000000             .DATA.L     H'00000000,H'00000000
             000000       
    00001A60 <00000000>             .DATA.L     __$OnDestroy__9ComponentFv
    00001A64 0000000000             .DATA.L     H'00000000,H'00000000
             000000       
    00001A6C <00000000>             .DATA.L     __$OnDisable__9ComponentFv
    00001A70 0000000000             .DATA.L     H'00000000,H'00000000
             000000       
    00001A78 <00000000>             .DATA.L     __$OnDisconnectedFromServer__9ComponentFv
    00001A7C 0000000000             .DATA.L     H'00000000,H'00000000
             000000       
    00001A84 <00000000>             .DATA.L     __$OnDrawGizmos__9ComponentFv
    00001A88 0000000000             .DATA.L     H'00000000,H'00000000
             000000       
    00001A90 <00000000>             .DATA.L     __$OnDrawGizmosSelected__9ComponentFv
    00001A94 0000000000             .DATA.L     H'00000000,H'00000000
             000000       
    00001A9C <00000000>             .DATA.L     __$OnEnable__9ComponentFv
    00001AA0 0000000000             .DATA.L     H'00000000,H'00000000
             000000       
    00001AA8 <00000000>             .DATA.L     __$OnFailedToConnect__9ComponentFv
    00001AAC 0000000000             .DATA.L     H'00000000,H'00000000
             000000       
    00001AB4 <00000000>             .DATA.L     __$OnFailedToConnectToMasterServer__9ComponentFv
    00001AB8 0000000000             .DATA.L     H'00000000,H'00000000
             000000       
    00001AC0 <00000000>             .DATA.L     __$OnGUI__9ComponentFv
    00001AC4 0000000000             .DATA.L     H'00000000,H'00000000
             000000       
    00001ACC <00000000>             .DATA.L     __$OnJointBreak__9ComponentFv
    00001AD0 0000000000             .DATA.L     H'00000000,H'00000000
             000000       
    00001AD8 <00000000>             .DATA.L     __$OnJointBreak2D__9ComponentFv
    00001ADC 0000000000             .DATA.L     H'00000000,H'00000000
             000000       




SH SERIES C/C++ Compiler (Ver. 6.0C)                                                                 09-Nov-2021 18:50:40  PAGE  119


SCT OFFSET   CODE       C LABEL     INSTRUCTION OPERAND    COMMENT

    00001AE4 <00000000>             .DATA.L     __$OnMasterServerEvent__9ComponentFv
    00001AE8 0000000000             .DATA.L     H'00000000,H'00000000
             000000       
    00001AF0 <00000000>             .DATA.L     __$OnMouseDown__9ComponentFv
    00001AF4 0000000000             .DATA.L     H'00000000,H'00000000
             000000       
    00001AFC <00000000>             .DATA.L     __$OnMouseDrag__9ComponentFv
    00001B00 0000000000             .DATA.L     H'00000000,H'00000000
             000000       
    00001B08 <00000000>             .DATA.L     __$OnMouseEnter__9ComponentFv
    00001B0C 0000000000             .DATA.L     H'00000000,H'00000000
             000000       
    00001B14 <00000000>             .DATA.L     __$OnMouseExit__9ComponentFv
    00001B18 0000000000             .DATA.L     H'00000000,H'00000000
             000000       
    00001B20 <00000000>             .DATA.L     __$OnMouseOver__9ComponentFv
    00001B24 0000000000             .DATA.L     H'00000000,H'00000000
             000000       
    00001B2C <00000000>             .DATA.L     __$OnMouseUp__9ComponentFv
    00001B30 0000000000             .DATA.L     H'00000000,H'00000000
             000000       
    00001B38 <00000000>             .DATA.L     __$OnMouseUpAsButton__9ComponentFv
    00001B3C 0000000000             .DATA.L     H'00000000,H'00000000
             000000       
    00001B44 <00000000>             .DATA.L     __$OnNetworkInstantiate__9ComponentFv
    00001B48 0000000000             .DATA.L     H'00000000,H'00000000
             000000       
    00001B50 <00000000>             .DATA.L     __$OnParticleCollision__9ComponentFv
    00001B54 0000000000             .DATA.L     H'00000000,H'00000000
             000000       
    00001B5C <00000000>             .DATA.L     __$OnParticleSystemStopped__9ComponentFv
    00001B60 0000000000             .DATA.L     H'00000000,H'00000000
             000000       
    00001B68 <00000000>             .DATA.L     __$OnParticleTrigger__9ComponentFv
    00001B6C 0000000000             .DATA.L     H'00000000,H'00000000
             000000       
    00001B74 <00000000>             .DATA.L     __$OnParticleUpdateJobScheduled__9ComponentFv
    00001B78 0000000000             .DATA.L     H'00000000,H'00000000
             000000       
    00001B80 <00000000>             .DATA.L     __$OnPlayerConnected__9ComponentFv
    00001B84 0000000000             .DATA.L     H'00000000,H'00000000
             000000       
    00001B8C <00000000>             .DATA.L     __$OnPlayerDisconnected__9ComponentFv
    00001B90 0000000000             .DATA.L     H'00000000,H'00000000
             000000       
    00001B98 <00000000>             .DATA.L     __$OnPostRender__9ComponentFv
    00001B9C 0000000000             .DATA.L     H'00000000,H'00000000
             000000       
    00001BA4 <00000000>             .DATA.L     __$OnPreCull__9ComponentFv
    00001BA8 0000000000             .DATA.L     H'00000000,H'00000000
             000000       
    00001BB0 <00000000>             .DATA.L     __$OnPreRender__9ComponentFv
    00001BB4 0000000000             .DATA.L     H'00000000,H'00000000
             000000       
    00001BBC <00000000>             .DATA.L     __$OnRenderImage__9ComponentFv
    00001BC0 0000000000             .DATA.L     H'00000000,H'00000000
             000000       




SH SERIES C/C++ Compiler (Ver. 6.0C)                                                                 09-Nov-2021 18:50:40  PAGE  120


SCT OFFSET   CODE       C LABEL     INSTRUCTION OPERAND    COMMENT

    00001BC8 <00000000>             .DATA.L     __$OnRenderObject__9ComponentFv
    00001BCC 0000000000             .DATA.L     H'00000000,H'00000000
             000000       
    00001BD4 <00000000>             .DATA.L     __$OnSerializeNetworkView__9ComponentFv
    00001BD8 0000000000             .DATA.L     H'00000000,H'00000000
             000000       
    00001BE0 <00000000>             .DATA.L     __$OnServerInitialized__9ComponentFv
    00001BE4 0000000000             .DATA.L     H'00000000,H'00000000
             000000       
    00001BEC <00000000>             .DATA.L     __$OnTransformChildrenChanged__9ComponentFv
    00001BF0 0000000000             .DATA.L     H'00000000,H'00000000
             000000       
    00001BF8 <00000000>             .DATA.L     __$OnTransformParentChanged__9ComponentFv
    00001BFC 0000000000             .DATA.L     H'00000000,H'00000000
             000000       
    00001C04 <00000000>             .DATA.L     __$OnTriggerEnter__9ComponentFv
    00001C08 0000000000             .DATA.L     H'00000000,H'00000000
             000000       
    00001C10 <00000000>             .DATA.L     __$OnTriggerEnter2D__9ComponentFv
    00001C14 0000000000             .DATA.L     H'00000000,H'00000000
             000000       
    00001C1C <00000000>             .DATA.L     __$OnTriggerExit__9ComponentFv
    00001C20 0000000000             .DATA.L     H'00000000,H'00000000
             000000       
    00001C28 <00000000>             .DATA.L     __$OnTriggerExit2D__9ComponentFv
    00001C2C 0000000000             .DATA.L     H'00000000,H'00000000
             000000       
    00001C34 <00000000>             .DATA.L     __$OnTriggerStay__9ComponentFv
    00001C38 0000000000             .DATA.L     H'00000000,H'00000000
             000000       
    00001C40 <00000000>             .DATA.L     __$OnTriggerStay2D__9ComponentFv
    00001C44 0000000000             .DATA.L     H'00000000,H'00000000
             000000       
    00001C4C <00000000>             .DATA.L     __$OnValidate__9ComponentFv
    00001C50 0000000000             .DATA.L     H'00000000,H'00000000
             000000       
    00001C58 <00000000>             .DATA.L     __$OnWillRenderObject__9ComponentFv
    00001C5C 0000000000             .DATA.L     H'00000000,H'00000000
             000000       
    00001C64 <00000000>             .DATA.L     __$Reset__9ComponentFv
    00001C68 0000000000             .DATA.L     H'00000000,H'00000000
             000000       
    00001C70 <00000000>             .DATA.L     _Start__9TransformFv
    00001C74 0000000000             .DATA.L     H'00000000,H'00000000
             000000       
    00001C7C <00000000>             .DATA.L     _Update__9TransformFv
    00001C80              ___vtbl__5Image:                 ; static: virtual function table for Image
    00001C80 0000000000             .DATA.L     H'00000000,H'00000000
             000000       
    00001C88 <00000000>             .DATA.L     ___T_5Image
    00001C8C 0000000000             .DATA.L     H'00000000,H'00000000
             000000       
    00001C94 <00000000>             .DATA.L     __$__dt__5ImageFv
    00001C98 0000000000             .DATA.L     H'00000000,H'00000000
             000000       
    00001CA0 <00000000>             .DATA.L     __$Destroy__6ObjectFv
    00001CA4 0000000000             .DATA.L     H'00000000,H'00000000




SH SERIES C/C++ Compiler (Ver. 6.0C)                                                                 09-Nov-2021 18:50:40  PAGE  121


SCT OFFSET   CODE       C LABEL     INSTRUCTION OPERAND    COMMENT

             000000       
    00001CAC <00000000>             .DATA.L     __$DestroyImmediate__6ObjectFv
    00001CB0 0000000000             .DATA.L     H'00000000,H'00000000
             000000       
    00001CB8 <00000000>             .DATA.L     __$DontDestroyOnLoad__6ObjectFv
    00001CBC 0000000000             .DATA.L     H'00000000,H'00000000
             000000       
    00001CC4 <00000000>             .DATA.L     __$FindObjectOfType__6ObjectFv
    00001CC8 0000000000             .DATA.L     H'00000000,H'00000000
             000000       
    00001CD0 <00000000>             .DATA.L     __$FindObjectsOfType__6ObjectFv
    00001CD4 0000000000             .DATA.L     H'00000000,H'00000000
             000000       
    00001CDC <00000000>             .DATA.L     __$Instantiate__6ObjectFv
    00001CE0 0000000000             .DATA.L     H'00000000,H'00000000
             000000       
    00001CE8 <00000000>             .DATA.L     __$Awake__9ComponentFv
    00001CEC 0000000000             .DATA.L     H'00000000,H'00000000
             000000       
    00001CF4 <00000000>             .DATA.L     __$FixedUpdate__9ComponentFv
    00001CF8 0000000000             .DATA.L     H'00000000,H'00000000
             000000       
    00001D00 <00000000>             .DATA.L     __$LateUpdate__9ComponentFv
    00001D04 0000000000             .DATA.L     H'00000000,H'00000000
             000000       
    00001D0C <00000000>             .DATA.L     __$OnAnimatorIK__9ComponentFv
    00001D10 0000000000             .DATA.L     H'00000000,H'00000000
             000000       
    00001D18 <00000000>             .DATA.L     __$OnAnimatorMove__9ComponentFv
    00001D1C 0000000000             .DATA.L     H'00000000,H'00000000
             000000       
    00001D24 <00000000>             .DATA.L     __$OnApplicationFocus__9ComponentFv
    00001D28 0000000000             .DATA.L     H'00000000,H'00000000
             000000       
    00001D30 <00000000>             .DATA.L     __$OnApplicationPause__9ComponentFv
    00001D34 0000000000             .DATA.L     H'00000000,H'00000000
             000000       
    00001D3C <00000000>             .DATA.L     __$OnApplicationQuit__9ComponentFv
    00001D40 0000000000             .DATA.L     H'00000000,H'00000000
             000000       
    00001D48 <00000000>             .DATA.L     __$OnAudioFilterRead__9ComponentFv
    00001D4C 0000000000             .DATA.L     H'00000000,H'00000000
             000000       
    00001D54 <00000000>             .DATA.L     __$OnBecameInvisible__9ComponentFv
    00001D58 0000000000             .DATA.L     H'00000000,H'00000000
             000000       
    00001D60 <00000000>             .DATA.L     __$OnBecameVisible__9ComponentFv
    00001D64 0000000000             .DATA.L     H'00000000,H'00000000
             000000       
    00001D6C <00000000>             .DATA.L     __$OnCollisionEnter__9ComponentFv
    00001D70 0000000000             .DATA.L     H'00000000,H'00000000
             000000       
    00001D78 <00000000>             .DATA.L     __$OnCollisionEnter2D__9ComponentFv
    00001D7C 0000000000             .DATA.L     H'00000000,H'00000000
             000000       
    00001D84 <00000000>             .DATA.L     __$OnCollisionExit__9ComponentFv
    00001D88 0000000000             .DATA.L     H'00000000,H'00000000




SH SERIES C/C++ Compiler (Ver. 6.0C)                                                                 09-Nov-2021 18:50:40  PAGE  122


SCT OFFSET   CODE       C LABEL     INSTRUCTION OPERAND    COMMENT

             000000       
    00001D90 <00000000>             .DATA.L     __$OnCollisionExit2D__9ComponentFv
    00001D94 0000000000             .DATA.L     H'00000000,H'00000000
             000000       
    00001D9C <00000000>             .DATA.L     __$OnCollisionStay__9ComponentFv
    00001DA0 0000000000             .DATA.L     H'00000000,H'00000000
             000000       
    00001DA8 <00000000>             .DATA.L     __$OnCollisionStay2D__9ComponentFv
    00001DAC 0000000000             .DATA.L     H'00000000,H'00000000
             000000       
    00001DB4 <00000000>             .DATA.L     __$OnConnectedToServer__9ComponentFv
    00001DB8 0000000000             .DATA.L     H'00000000,H'00000000
             000000       
    00001DC0 <00000000>             .DATA.L     __$OnControllerColliderHit__9ComponentFv
    00001DC4 0000000000             .DATA.L     H'00000000,H'00000000
             000000       
    00001DCC <00000000>             .DATA.L     __$OnDestroy__9ComponentFv
    00001DD0 0000000000             .DATA.L     H'00000000,H'00000000
             000000       
    00001DD8 <00000000>             .DATA.L     __$OnDisable__9ComponentFv
    00001DDC 0000000000             .DATA.L     H'00000000,H'00000000
             000000       
    00001DE4 <00000000>             .DATA.L     __$OnDisconnectedFromServer__9ComponentFv
    00001DE8 0000000000             .DATA.L     H'00000000,H'00000000
             000000       
    00001DF0 <00000000>             .DATA.L     __$OnDrawGizmos__9ComponentFv
    00001DF4 0000000000             .DATA.L     H'00000000,H'00000000
             000000       
    00001DFC <00000000>             .DATA.L     __$OnDrawGizmosSelected__9ComponentFv
    00001E00 0000000000             .DATA.L     H'00000000,H'00000000
             000000       
    00001E08 <00000000>             .DATA.L     __$OnEnable__9ComponentFv
    00001E0C 0000000000             .DATA.L     H'00000000,H'00000000
             000000       
    00001E14 <00000000>             .DATA.L     __$OnFailedToConnect__9ComponentFv
    00001E18 0000000000             .DATA.L     H'00000000,H'00000000
             000000       
    00001E20 <00000000>             .DATA.L     __$OnFailedToConnectToMasterServer__9ComponentFv
    00001E24 0000000000             .DATA.L     H'00000000,H'00000000
             000000       
    00001E2C <00000000>             .DATA.L     __$OnGUI__9ComponentFv
    00001E30 0000000000             .DATA.L     H'00000000,H'00000000
             000000       
    00001E38 <00000000>             .DATA.L     __$OnJointBreak__9ComponentFv
    00001E3C 0000000000             .DATA.L     H'00000000,H'00000000
             000000       
    00001E44 <00000000>             .DATA.L     __$OnJointBreak2D__9ComponentFv
    00001E48 0000000000             .DATA.L     H'00000000,H'00000000
             000000       
    00001E50 <00000000>             .DATA.L     __$OnMasterServerEvent__9ComponentFv
    00001E54 0000000000             .DATA.L     H'00000000,H'00000000
             000000       
    00001E5C <00000000>             .DATA.L     __$OnMouseDown__9ComponentFv
    00001E60 0000000000             .DATA.L     H'00000000,H'00000000
             000000       
    00001E68 <00000000>             .DATA.L     __$OnMouseDrag__9ComponentFv
    00001E6C 0000000000             .DATA.L     H'00000000,H'00000000




SH SERIES C/C++ Compiler (Ver. 6.0C)                                                                 09-Nov-2021 18:50:40  PAGE  123


SCT OFFSET   CODE       C LABEL     INSTRUCTION OPERAND    COMMENT

             000000       
    00001E74 <00000000>             .DATA.L     __$OnMouseEnter__9ComponentFv
    00001E78 0000000000             .DATA.L     H'00000000,H'00000000
             000000       
    00001E80 <00000000>             .DATA.L     __$OnMouseExit__9ComponentFv
    00001E84 0000000000             .DATA.L     H'00000000,H'00000000
             000000       
    00001E8C <00000000>             .DATA.L     __$OnMouseOver__9ComponentFv
    00001E90 0000000000             .DATA.L     H'00000000,H'00000000
             000000       
    00001E98 <00000000>             .DATA.L     __$OnMouseUp__9ComponentFv
    00001E9C 0000000000             .DATA.L     H'00000000,H'00000000
             000000       
    00001EA4 <00000000>             .DATA.L     __$OnMouseUpAsButton__9ComponentFv
    00001EA8 0000000000             .DATA.L     H'00000000,H'00000000
             000000       
    00001EB0 <00000000>             .DATA.L     __$OnNetworkInstantiate__9ComponentFv
    00001EB4 0000000000             .DATA.L     H'00000000,H'00000000
             000000       
    00001EBC <00000000>             .DATA.L     __$OnParticleCollision__9ComponentFv
    00001EC0 0000000000             .DATA.L     H'00000000,H'00000000
             000000       
    00001EC8 <00000000>             .DATA.L     __$OnParticleSystemStopped__9ComponentFv
    00001ECC 0000000000             .DATA.L     H'00000000,H'00000000
             000000       
    00001ED4 <00000000>             .DATA.L     __$OnParticleTrigger__9ComponentFv
    00001ED8 0000000000             .DATA.L     H'00000000,H'00000000
             000000       
    00001EE0 <00000000>             .DATA.L     __$OnParticleUpdateJobScheduled__9ComponentFv
    00001EE4 0000000000             .DATA.L     H'00000000,H'00000000
             000000       
    00001EEC <00000000>             .DATA.L     __$OnPlayerConnected__9ComponentFv
    00001EF0 0000000000             .DATA.L     H'00000000,H'00000000
             000000       
    00001EF8 <00000000>             .DATA.L     __$OnPlayerDisconnected__9ComponentFv
    00001EFC 0000000000             .DATA.L     H'00000000,H'00000000
             000000       
    00001F04 <00000000>             .DATA.L     __$OnPostRender__9ComponentFv
    00001F08 0000000000             .DATA.L     H'00000000,H'00000000
             000000       
    00001F10 <00000000>             .DATA.L     __$OnPreCull__9ComponentFv
    00001F14 0000000000             .DATA.L     H'00000000,H'00000000
             000000       
    00001F1C <00000000>             .DATA.L     __$OnPreRender__9ComponentFv
    00001F20 0000000000             .DATA.L     H'00000000,H'00000000
             000000       
    00001F28 <00000000>             .DATA.L     __$OnRenderImage__9ComponentFv
    00001F2C 0000000000             .DATA.L     H'00000000,H'00000000
             000000       
    00001F34 <00000000>             .DATA.L     __$OnRenderObject__9ComponentFv
    00001F38 0000000000             .DATA.L     H'00000000,H'00000000
             000000       
    00001F40 <00000000>             .DATA.L     __$OnSerializeNetworkView__9ComponentFv
    00001F44 0000000000             .DATA.L     H'00000000,H'00000000
             000000       
    00001F4C <00000000>             .DATA.L     __$OnServerInitialized__9ComponentFv
    00001F50 0000000000             .DATA.L     H'00000000,H'00000000




SH SERIES C/C++ Compiler (Ver. 6.0C)                                                                 09-Nov-2021 18:50:40  PAGE  124


SCT OFFSET   CODE       C LABEL     INSTRUCTION OPERAND    COMMENT

             000000       
    00001F58 <00000000>             .DATA.L     __$OnTransformChildrenChanged__9ComponentFv
    00001F5C 0000000000             .DATA.L     H'00000000,H'00000000
             000000       
    00001F64 <00000000>             .DATA.L     __$OnTransformParentChanged__9ComponentFv
    00001F68 0000000000             .DATA.L     H'00000000,H'00000000
             000000       
    00001F70 <00000000>             .DATA.L     __$OnTriggerEnter__9ComponentFv
    00001F74 0000000000             .DATA.L     H'00000000,H'00000000
             000000       
    00001F7C <00000000>             .DATA.L     __$OnTriggerEnter2D__9ComponentFv
    00001F80 0000000000             .DATA.L     H'00000000,H'00000000
             000000       
    00001F88 <00000000>             .DATA.L     __$OnTriggerExit__9ComponentFv
    00001F8C 0000000000             .DATA.L     H'00000000,H'00000000
             000000       
    00001F94 <00000000>             .DATA.L     __$OnTriggerExit2D__9ComponentFv
    00001F98 0000000000             .DATA.L     H'00000000,H'00000000
             000000       
    00001FA0 <00000000>             .DATA.L     __$OnTriggerStay__9ComponentFv
    00001FA4 0000000000             .DATA.L     H'00000000,H'00000000
             000000       
    00001FAC <00000000>             .DATA.L     __$OnTriggerStay2D__9ComponentFv
    00001FB0 0000000000             .DATA.L     H'00000000,H'00000000
             000000       
    00001FB8 <00000000>             .DATA.L     __$OnValidate__9ComponentFv
    00001FBC 0000000000             .DATA.L     H'00000000,H'00000000
             000000       
    00001FC4 <00000000>             .DATA.L     __$OnWillRenderObject__9ComponentFv
    00001FC8 0000000000             .DATA.L     H'00000000,H'00000000
             000000       
    00001FD0 <00000000>             .DATA.L     __$Reset__9ComponentFv
    00001FD4 0000000000             .DATA.L     H'00000000,H'00000000
             000000       
    00001FDC <00000000>             .DATA.L     __$Start__9ComponentFv
    00001FE0 0000000000             .DATA.L     H'00000000,H'00000000
             000000       
    00001FE8 <00000000>             .DATA.L     _Update__5ImageFv
    00001FEC              ___vtbl__9Rigidbody:             ; static: virtual function table for Rigidbody
    00001FEC 0000000000             .DATA.L     H'00000000,H'00000000
             000000       
    00001FF4 <00000000>             .DATA.L     ___T_9Rigidbody
    00001FF8 0000000000             .DATA.L     H'00000000,H'00000000
             000000       
    00002000 <00000000>             .DATA.L     ___dt__9RigidbodyFv
    00002004 0000000000             .DATA.L     H'00000000,H'00000000
             000000       
    0000200C <00000000>             .DATA.L     __$Destroy__6ObjectFv
    00002010 0000000000             .DATA.L     H'00000000,H'00000000
             000000       
    00002018 <00000000>             .DATA.L     __$DestroyImmediate__6ObjectFv
    0000201C 0000000000             .DATA.L     H'00000000,H'00000000
             000000       
    00002024 <00000000>             .DATA.L     __$DontDestroyOnLoad__6ObjectFv
    00002028 0000000000             .DATA.L     H'00000000,H'00000000
             000000       
    00002030 <00000000>             .DATA.L     __$FindObjectOfType__6ObjectFv




SH SERIES C/C++ Compiler (Ver. 6.0C)                                                                 09-Nov-2021 18:50:40  PAGE  125


SCT OFFSET   CODE       C LABEL     INSTRUCTION OPERAND    COMMENT

    00002034 0000000000             .DATA.L     H'00000000,H'00000000
             000000       
    0000203C <00000000>             .DATA.L     __$FindObjectsOfType__6ObjectFv
    00002040 0000000000             .DATA.L     H'00000000,H'00000000
             000000       
    00002048 <00000000>             .DATA.L     __$Instantiate__6ObjectFv
    0000204C 0000000000             .DATA.L     H'00000000,H'00000000
             000000       
    00002054 <00000000>             .DATA.L     __$Awake__9ComponentFv
    00002058 0000000000             .DATA.L     H'00000000,H'00000000
             000000       
    00002060 <00000000>             .DATA.L     __$FixedUpdate__9ComponentFv
    00002064 0000000000             .DATA.L     H'00000000,H'00000000
             000000       
    0000206C <00000000>             .DATA.L     __$LateUpdate__9ComponentFv
    00002070 0000000000             .DATA.L     H'00000000,H'00000000
             000000       
    00002078 <00000000>             .DATA.L     __$OnAnimatorIK__9ComponentFv
    0000207C 0000000000             .DATA.L     H'00000000,H'00000000
             000000       
    00002084 <00000000>             .DATA.L     __$OnAnimatorMove__9ComponentFv
    00002088 0000000000             .DATA.L     H'00000000,H'00000000
             000000       
    00002090 <00000000>             .DATA.L     __$OnApplicationFocus__9ComponentFv
    00002094 0000000000             .DATA.L     H'00000000,H'00000000
             000000       
    0000209C <00000000>             .DATA.L     __$OnApplicationPause__9ComponentFv
    000020A0 0000000000             .DATA.L     H'00000000,H'00000000
             000000       
    000020A8 <00000000>             .DATA.L     __$OnApplicationQuit__9ComponentFv
    000020AC 0000000000             .DATA.L     H'00000000,H'00000000
             000000       
    000020B4 <00000000>             .DATA.L     __$OnAudioFilterRead__9ComponentFv
    000020B8 0000000000             .DATA.L     H'00000000,H'00000000
             000000       
    000020C0 <00000000>             .DATA.L     __$OnBecameInvisible__9ComponentFv
    000020C4 0000000000             .DATA.L     H'00000000,H'00000000
             000000       
    000020CC <00000000>             .DATA.L     __$OnBecameVisible__9ComponentFv
    000020D0 0000000000             .DATA.L     H'00000000,H'00000000
             000000       
    000020D8 <00000000>             .DATA.L     __$OnCollisionEnter__9ComponentFv
    000020DC 0000000000             .DATA.L     H'00000000,H'00000000
             000000       
    000020E4 <00000000>             .DATA.L     __$OnCollisionEnter2D__9ComponentFv
    000020E8 0000000000             .DATA.L     H'00000000,H'00000000
             000000       
    000020F0 <00000000>             .DATA.L     __$OnCollisionExit__9ComponentFv
    000020F4 0000000000             .DATA.L     H'00000000,H'00000000
             000000       
    000020FC <00000000>             .DATA.L     __$OnCollisionExit2D__9ComponentFv
    00002100 0000000000             .DATA.L     H'00000000,H'00000000
             000000       
    00002108 <00000000>             .DATA.L     __$OnCollisionStay__9ComponentFv
    0000210C 0000000000             .DATA.L     H'00000000,H'00000000
             000000       
    00002114 <00000000>             .DATA.L     __$OnCollisionStay2D__9ComponentFv




SH SERIES C/C++ Compiler (Ver. 6.0C)                                                                 09-Nov-2021 18:50:40  PAGE  126


SCT OFFSET   CODE       C LABEL     INSTRUCTION OPERAND    COMMENT

    00002118 0000000000             .DATA.L     H'00000000,H'00000000
             000000       
    00002120 <00000000>             .DATA.L     __$OnConnectedToServer__9ComponentFv
    00002124 0000000000             .DATA.L     H'00000000,H'00000000
             000000       
    0000212C <00000000>             .DATA.L     __$OnControllerColliderHit__9ComponentFv
    00002130 0000000000             .DATA.L     H'00000000,H'00000000
             000000       
    00002138 <00000000>             .DATA.L     __$OnDestroy__9ComponentFv
    0000213C 0000000000             .DATA.L     H'00000000,H'00000000
             000000       
    00002144 <00000000>             .DATA.L     __$OnDisable__9ComponentFv
    00002148 0000000000             .DATA.L     H'00000000,H'00000000
             000000       
    00002150 <00000000>             .DATA.L     __$OnDisconnectedFromServer__9ComponentFv
    00002154 0000000000             .DATA.L     H'00000000,H'00000000
             000000       
    0000215C <00000000>             .DATA.L     __$OnDrawGizmos__9ComponentFv
    00002160 0000000000             .DATA.L     H'00000000,H'00000000
             000000       
    00002168 <00000000>             .DATA.L     __$OnDrawGizmosSelected__9ComponentFv
    0000216C 0000000000             .DATA.L     H'00000000,H'00000000
             000000       
    00002174 <00000000>             .DATA.L     __$OnEnable__9ComponentFv
    00002178 0000000000             .DATA.L     H'00000000,H'00000000
             000000       
    00002180 <00000000>             .DATA.L     __$OnFailedToConnect__9ComponentFv
    00002184 0000000000             .DATA.L     H'00000000,H'00000000
             000000       
    0000218C <00000000>             .DATA.L     __$OnFailedToConnectToMasterServer__9ComponentFv
    00002190 0000000000             .DATA.L     H'00000000,H'00000000
             000000       
    00002198 <00000000>             .DATA.L     __$OnGUI__9ComponentFv
    0000219C 0000000000             .DATA.L     H'00000000,H'00000000
             000000       
    000021A4 <00000000>             .DATA.L     __$OnJointBreak__9ComponentFv
    000021A8 0000000000             .DATA.L     H'00000000,H'00000000
             000000       
    000021B0 <00000000>             .DATA.L     __$OnJointBreak2D__9ComponentFv
    000021B4 0000000000             .DATA.L     H'00000000,H'00000000
             000000       
    000021BC <00000000>             .DATA.L     __$OnMasterServerEvent__9ComponentFv
    000021C0 0000000000             .DATA.L     H'00000000,H'00000000
             000000       
    000021C8 <00000000>             .DATA.L     __$OnMouseDown__9ComponentFv
    000021CC 0000000000             .DATA.L     H'00000000,H'00000000
             000000       
    000021D4 <00000000>             .DATA.L     __$OnMouseDrag__9ComponentFv
    000021D8 0000000000             .DATA.L     H'00000000,H'00000000
             000000       
    000021E0 <00000000>             .DATA.L     __$OnMouseEnter__9ComponentFv
    000021E4 0000000000             .DATA.L     H'00000000,H'00000000
             000000       
    000021EC <00000000>             .DATA.L     __$OnMouseExit__9ComponentFv
    000021F0 0000000000             .DATA.L     H'00000000,H'00000000
             000000       
    000021F8 <00000000>             .DATA.L     __$OnMouseOver__9ComponentFv




SH SERIES C/C++ Compiler (Ver. 6.0C)                                                                 09-Nov-2021 18:50:40  PAGE  127


SCT OFFSET   CODE       C LABEL     INSTRUCTION OPERAND    COMMENT

    000021FC 0000000000             .DATA.L     H'00000000,H'00000000
             000000       
    00002204 <00000000>             .DATA.L     __$OnMouseUp__9ComponentFv
    00002208 0000000000             .DATA.L     H'00000000,H'00000000
             000000       
    00002210 <00000000>             .DATA.L     __$OnMouseUpAsButton__9ComponentFv
    00002214 0000000000             .DATA.L     H'00000000,H'00000000
             000000       
    0000221C <00000000>             .DATA.L     __$OnNetworkInstantiate__9ComponentFv
    00002220 0000000000             .DATA.L     H'00000000,H'00000000
             000000       
    00002228 <00000000>             .DATA.L     __$OnParticleCollision__9ComponentFv
    0000222C 0000000000             .DATA.L     H'00000000,H'00000000
             000000       
    00002234 <00000000>             .DATA.L     __$OnParticleSystemStopped__9ComponentFv
    00002238 0000000000             .DATA.L     H'00000000,H'00000000
             000000       
    00002240 <00000000>             .DATA.L     __$OnParticleTrigger__9ComponentFv
    00002244 0000000000             .DATA.L     H'00000000,H'00000000
             000000       
    0000224C <00000000>             .DATA.L     __$OnParticleUpdateJobScheduled__9ComponentFv
    00002250 0000000000             .DATA.L     H'00000000,H'00000000
             000000       
    00002258 <00000000>             .DATA.L     __$OnPlayerConnected__9ComponentFv
    0000225C 0000000000             .DATA.L     H'00000000,H'00000000
             000000       
    00002264 <00000000>             .DATA.L     __$OnPlayerDisconnected__9ComponentFv
    00002268 0000000000             .DATA.L     H'00000000,H'00000000
             000000       
    00002270 <00000000>             .DATA.L     __$OnPostRender__9ComponentFv
    00002274 0000000000             .DATA.L     H'00000000,H'00000000
             000000       
    0000227C <00000000>             .DATA.L     __$OnPreCull__9ComponentFv
    00002280 0000000000             .DATA.L     H'00000000,H'00000000
             000000       
    00002288 <00000000>             .DATA.L     __$OnPreRender__9ComponentFv
    0000228C 0000000000             .DATA.L     H'00000000,H'00000000
             000000       
    00002294 <00000000>             .DATA.L     __$OnRenderImage__9ComponentFv
    00002298 0000000000             .DATA.L     H'00000000,H'00000000
             000000       
    000022A0 <00000000>             .DATA.L     __$OnRenderObject__9ComponentFv
    000022A4 0000000000             .DATA.L     H'00000000,H'00000000
             000000       
    000022AC <00000000>             .DATA.L     __$OnSerializeNetworkView__9ComponentFv
    000022B0 0000000000             .DATA.L     H'00000000,H'00000000
             000000       
    000022B8 <00000000>             .DATA.L     __$OnServerInitialized__9ComponentFv
    000022BC 0000000000             .DATA.L     H'00000000,H'00000000
             000000       
    000022C4 <00000000>             .DATA.L     __$OnTransformChildrenChanged__9ComponentFv
    000022C8 0000000000             .DATA.L     H'00000000,H'00000000
             000000       
    000022D0 <00000000>             .DATA.L     __$OnTransformParentChanged__9ComponentFv
    000022D4 0000000000             .DATA.L     H'00000000,H'00000000
             000000       
    000022DC <00000000>             .DATA.L     __$OnTriggerEnter__9ComponentFv




SH SERIES C/C++ Compiler (Ver. 6.0C)                                                                 09-Nov-2021 18:50:40  PAGE  128


SCT OFFSET   CODE       C LABEL     INSTRUCTION OPERAND    COMMENT

    000022E0 0000000000             .DATA.L     H'00000000,H'00000000
             000000       
    000022E8 <00000000>             .DATA.L     __$OnTriggerEnter2D__9ComponentFv
    000022EC 0000000000             .DATA.L     H'00000000,H'00000000
             000000       
    000022F4 <00000000>             .DATA.L     __$OnTriggerExit__9ComponentFv
    000022F8 0000000000             .DATA.L     H'00000000,H'00000000
             000000       
    00002300 <00000000>             .DATA.L     __$OnTriggerExit2D__9ComponentFv
    00002304 0000000000             .DATA.L     H'00000000,H'00000000
             000000       
    0000230C <00000000>             .DATA.L     __$OnTriggerStay__9ComponentFv
    00002310 0000000000             .DATA.L     H'00000000,H'00000000
             000000       
    00002318 <00000000>             .DATA.L     __$OnTriggerStay2D__9ComponentFv
    0000231C 0000000000             .DATA.L     H'00000000,H'00000000
             000000       
    00002324 <00000000>             .DATA.L     __$OnValidate__9ComponentFv
    00002328 0000000000             .DATA.L     H'00000000,H'00000000
             000000       
    00002330 <00000000>             .DATA.L     __$OnWillRenderObject__9ComponentFv
    00002334 0000000000             .DATA.L     H'00000000,H'00000000
             000000       
    0000233C <00000000>             .DATA.L     __$Reset__9ComponentFv
    00002340 0000000000             .DATA.L     H'00000000,H'00000000
             000000       
    00002348 <00000000>             .DATA.L     _Start__9RigidbodyFv
    0000234C 0000000000             .DATA.L     H'00000000,H'00000000
             000000       
    00002354 <00000000>             .DATA.L     __$Update__9ComponentFv
    00002358              ___vtbl__4Text:                  ; static: virtual function table for Text
    00002358 0000000000             .DATA.L     H'00000000,H'00000000
             000000       
    00002360 <00000000>             .DATA.L     ___T_4Text
    00002364 0000000000             .DATA.L     H'00000000,H'00000000
             000000       
    0000236C <00000000>             .DATA.L     __$__dt__4TextFv
    00002370 0000000000             .DATA.L     H'00000000,H'00000000
             000000       
    00002378 <00000000>             .DATA.L     __$Destroy__6ObjectFv
    0000237C 0000000000             .DATA.L     H'00000000,H'00000000
             000000       
    00002384 <00000000>             .DATA.L     __$DestroyImmediate__6ObjectFv
    00002388 0000000000             .DATA.L     H'00000000,H'00000000
             000000       
    00002390 <00000000>             .DATA.L     __$DontDestroyOnLoad__6ObjectFv
    00002394 0000000000             .DATA.L     H'00000000,H'00000000
             000000       
    0000239C <00000000>             .DATA.L     __$FindObjectOfType__6ObjectFv
    000023A0 0000000000             .DATA.L     H'00000000,H'00000000
             000000       
    000023A8 <00000000>             .DATA.L     __$FindObjectsOfType__6ObjectFv
    000023AC 0000000000             .DATA.L     H'00000000,H'00000000
             000000       
    000023B4 <00000000>             .DATA.L     __$Instantiate__6ObjectFv
    000023B8 0000000000             .DATA.L     H'00000000,H'00000000
             000000       




SH SERIES C/C++ Compiler (Ver. 6.0C)                                                                 09-Nov-2021 18:50:40  PAGE  129


SCT OFFSET   CODE       C LABEL     INSTRUCTION OPERAND    COMMENT

    000023C0 <00000000>             .DATA.L     __$Awake__9ComponentFv
    000023C4 0000000000             .DATA.L     H'00000000,H'00000000
             000000       
    000023CC <00000000>             .DATA.L     __$FixedUpdate__9ComponentFv
    000023D0 0000000000             .DATA.L     H'00000000,H'00000000
             000000       
    000023D8 <00000000>             .DATA.L     __$LateUpdate__9ComponentFv
    000023DC 0000000000             .DATA.L     H'00000000,H'00000000
             000000       
    000023E4 <00000000>             .DATA.L     __$OnAnimatorIK__9ComponentFv
    000023E8 0000000000             .DATA.L     H'00000000,H'00000000
             000000       
    000023F0 <00000000>             .DATA.L     __$OnAnimatorMove__9ComponentFv
    000023F4 0000000000             .DATA.L     H'00000000,H'00000000
             000000       
    000023FC <00000000>             .DATA.L     __$OnApplicationFocus__9ComponentFv
    00002400 0000000000             .DATA.L     H'00000000,H'00000000
             000000       
    00002408 <00000000>             .DATA.L     __$OnApplicationPause__9ComponentFv
    0000240C 0000000000             .DATA.L     H'00000000,H'00000000
             000000       
    00002414 <00000000>             .DATA.L     __$OnApplicationQuit__9ComponentFv
    00002418 0000000000             .DATA.L     H'00000000,H'00000000
             000000       
    00002420 <00000000>             .DATA.L     __$OnAudioFilterRead__9ComponentFv
    00002424 0000000000             .DATA.L     H'00000000,H'00000000
             000000       
    0000242C <00000000>             .DATA.L     __$OnBecameInvisible__9ComponentFv
    00002430 0000000000             .DATA.L     H'00000000,H'00000000
             000000       
    00002438 <00000000>             .DATA.L     __$OnBecameVisible__9ComponentFv
    0000243C 0000000000             .DATA.L     H'00000000,H'00000000
             000000       
    00002444 <00000000>             .DATA.L     __$OnCollisionEnter__9ComponentFv
    00002448 0000000000             .DATA.L     H'00000000,H'00000000
             000000       
    00002450 <00000000>             .DATA.L     __$OnCollisionEnter2D__9ComponentFv
    00002454 0000000000             .DATA.L     H'00000000,H'00000000
             000000       
    0000245C <00000000>             .DATA.L     __$OnCollisionExit__9ComponentFv
    00002460 0000000000             .DATA.L     H'00000000,H'00000000
             000000       
    00002468 <00000000>             .DATA.L     __$OnCollisionExit2D__9ComponentFv
    0000246C 0000000000             .DATA.L     H'00000000,H'00000000
             000000       
    00002474 <00000000>             .DATA.L     __$OnCollisionStay__9ComponentFv
    00002478 0000000000             .DATA.L     H'00000000,H'00000000
             000000       
    00002480 <00000000>             .DATA.L     __$OnCollisionStay2D__9ComponentFv
    00002484 0000000000             .DATA.L     H'00000000,H'00000000
             000000       
    0000248C <00000000>             .DATA.L     __$OnConnectedToServer__9ComponentFv
    00002490 0000000000             .DATA.L     H'00000000,H'00000000
             000000       
    00002498 <00000000>             .DATA.L     __$OnControllerColliderHit__9ComponentFv
    0000249C 0000000000             .DATA.L     H'00000000,H'00000000
             000000       




SH SERIES C/C++ Compiler (Ver. 6.0C)                                                                 09-Nov-2021 18:50:40  PAGE  130


SCT OFFSET   CODE       C LABEL     INSTRUCTION OPERAND    COMMENT

    000024A4 <00000000>             .DATA.L     __$OnDestroy__9ComponentFv
    000024A8 0000000000             .DATA.L     H'00000000,H'00000000
             000000       
    000024B0 <00000000>             .DATA.L     __$OnDisable__9ComponentFv
    000024B4 0000000000             .DATA.L     H'00000000,H'00000000
             000000       
    000024BC <00000000>             .DATA.L     __$OnDisconnectedFromServer__9ComponentFv
    000024C0 0000000000             .DATA.L     H'00000000,H'00000000
             000000       
    000024C8 <00000000>             .DATA.L     __$OnDrawGizmos__9ComponentFv
    000024CC 0000000000             .DATA.L     H'00000000,H'00000000
             000000       
    000024D4 <00000000>             .DATA.L     __$OnDrawGizmosSelected__9ComponentFv
    000024D8 0000000000             .DATA.L     H'00000000,H'00000000
             000000       
    000024E0 <00000000>             .DATA.L     __$OnEnable__9ComponentFv
    000024E4 0000000000             .DATA.L     H'00000000,H'00000000
             000000       
    000024EC <00000000>             .DATA.L     __$OnFailedToConnect__9ComponentFv
    000024F0 0000000000             .DATA.L     H'00000000,H'00000000
             000000       
    000024F8 <00000000>             .DATA.L     __$OnFailedToConnectToMasterServer__9ComponentFv
    000024FC 0000000000             .DATA.L     H'00000000,H'00000000
             000000       
    00002504 <00000000>             .DATA.L     __$OnGUI__9ComponentFv
    00002508 0000000000             .DATA.L     H'00000000,H'00000000
             000000       
    00002510 <00000000>             .DATA.L     __$OnJointBreak__9ComponentFv
    00002514 0000000000             .DATA.L     H'00000000,H'00000000
             000000       
    0000251C <00000000>             .DATA.L     __$OnJointBreak2D__9ComponentFv
    00002520 0000000000             .DATA.L     H'00000000,H'00000000
             000000       
    00002528 <00000000>             .DATA.L     __$OnMasterServerEvent__9ComponentFv
    0000252C 0000000000             .DATA.L     H'00000000,H'00000000
             000000       
    00002534 <00000000>             .DATA.L     __$OnMouseDown__9ComponentFv
    00002538 0000000000             .DATA.L     H'00000000,H'00000000
             000000       
    00002540 <00000000>             .DATA.L     __$OnMouseDrag__9ComponentFv
    00002544 0000000000             .DATA.L     H'00000000,H'00000000
             000000       
    0000254C <00000000>             .DATA.L     __$OnMouseEnter__9ComponentFv
    00002550 0000000000             .DATA.L     H'00000000,H'00000000
             000000       
    00002558 <00000000>             .DATA.L     __$OnMouseExit__9ComponentFv
    0000255C 0000000000             .DATA.L     H'00000000,H'00000000
             000000       
    00002564 <00000000>             .DATA.L     __$OnMouseOver__9ComponentFv
    00002568 0000000000             .DATA.L     H'00000000,H'00000000
             000000       
    00002570 <00000000>             .DATA.L     __$OnMouseUp__9ComponentFv
    00002574 0000000000             .DATA.L     H'00000000,H'00000000
             000000       
    0000257C <00000000>             .DATA.L     __$OnMouseUpAsButton__9ComponentFv
    00002580 0000000000             .DATA.L     H'00000000,H'00000000
             000000       




SH SERIES C/C++ Compiler (Ver. 6.0C)                                                                 09-Nov-2021 18:50:40  PAGE  131


SCT OFFSET   CODE       C LABEL     INSTRUCTION OPERAND    COMMENT

    00002588 <00000000>             .DATA.L     __$OnNetworkInstantiate__9ComponentFv
    0000258C 0000000000             .DATA.L     H'00000000,H'00000000
             000000       
    00002594 <00000000>             .DATA.L     __$OnParticleCollision__9ComponentFv
    00002598 0000000000             .DATA.L     H'00000000,H'00000000
             000000       
    000025A0 <00000000>             .DATA.L     __$OnParticleSystemStopped__9ComponentFv
    000025A4 0000000000             .DATA.L     H'00000000,H'00000000
             000000       
    000025AC <00000000>             .DATA.L     __$OnParticleTrigger__9ComponentFv
    000025B0 0000000000             .DATA.L     H'00000000,H'00000000
             000000       
    000025B8 <00000000>             .DATA.L     __$OnParticleUpdateJobScheduled__9ComponentFv
    000025BC 0000000000             .DATA.L     H'00000000,H'00000000
             000000       
    000025C4 <00000000>             .DATA.L     __$OnPlayerConnected__9ComponentFv
    000025C8 0000000000             .DATA.L     H'00000000,H'00000000
             000000       
    000025D0 <00000000>             .DATA.L     __$OnPlayerDisconnected__9ComponentFv
    000025D4 0000000000             .DATA.L     H'00000000,H'00000000
             000000       
    000025DC <00000000>             .DATA.L     __$OnPostRender__9ComponentFv
    000025E0 0000000000             .DATA.L     H'00000000,H'00000000
             000000       
    000025E8 <00000000>             .DATA.L     __$OnPreCull__9ComponentFv
    000025EC 0000000000             .DATA.L     H'00000000,H'00000000
             000000       
    000025F4 <00000000>             .DATA.L     __$OnPreRender__9ComponentFv
    000025F8 0000000000             .DATA.L     H'00000000,H'00000000
             000000       
    00002600 <00000000>             .DATA.L     __$OnRenderImage__9ComponentFv
    00002604 0000000000             .DATA.L     H'00000000,H'00000000
             000000       
    0000260C <00000000>             .DATA.L     __$OnRenderObject__9ComponentFv
    00002610 0000000000             .DATA.L     H'00000000,H'00000000
             000000       
    00002618 <00000000>             .DATA.L     __$OnSerializeNetworkView__9ComponentFv
    0000261C 0000000000             .DATA.L     H'00000000,H'00000000
             000000       
    00002624 <00000000>             .DATA.L     __$OnServerInitialized__9ComponentFv
    00002628 0000000000             .DATA.L     H'00000000,H'00000000
             000000       
    00002630 <00000000>             .DATA.L     __$OnTransformChildrenChanged__9ComponentFv
    00002634 0000000000             .DATA.L     H'00000000,H'00000000
             000000       
    0000263C <00000000>             .DATA.L     __$OnTransformParentChanged__9ComponentFv
    00002640 0000000000             .DATA.L     H'00000000,H'00000000
             000000       
    00002648 <00000000>             .DATA.L     __$OnTriggerEnter__9ComponentFv
    0000264C 0000000000             .DATA.L     H'00000000,H'00000000
             000000       
    00002654 <00000000>             .DATA.L     __$OnTriggerEnter2D__9ComponentFv
    00002658 0000000000             .DATA.L     H'00000000,H'00000000
             000000       
    00002660 <00000000>             .DATA.L     __$OnTriggerExit__9ComponentFv
    00002664 0000000000             .DATA.L     H'00000000,H'00000000
             000000       




SH SERIES C/C++ Compiler (Ver. 6.0C)                                                                 09-Nov-2021 18:50:40  PAGE  132


SCT OFFSET   CODE       C LABEL     INSTRUCTION OPERAND    COMMENT

    0000266C <00000000>             .DATA.L     __$OnTriggerExit2D__9ComponentFv
    00002670 0000000000             .DATA.L     H'00000000,H'00000000
             000000       
    00002678 <00000000>             .DATA.L     __$OnTriggerStay__9ComponentFv
    0000267C 0000000000             .DATA.L     H'00000000,H'00000000
             000000       
    00002684 <00000000>             .DATA.L     __$OnTriggerStay2D__9ComponentFv
    00002688 0000000000             .DATA.L     H'00000000,H'00000000
             000000       
    00002690 <00000000>             .DATA.L     __$OnValidate__9ComponentFv
    00002694 0000000000             .DATA.L     H'00000000,H'00000000
             000000       
    0000269C <00000000>             .DATA.L     __$OnWillRenderObject__9ComponentFv
    000026A0 0000000000             .DATA.L     H'00000000,H'00000000
             000000       
    000026A8 <00000000>             .DATA.L     __$Reset__9ComponentFv
    000026AC 0000000000             .DATA.L     H'00000000,H'00000000
             000000       
    000026B4 <00000000>             .DATA.L     __$Start__9ComponentFv
    000026B8 0000000000             .DATA.L     H'00000000,H'00000000
             000000       
    000026C0 <00000000>             .DATA.L     _Update__4TextFv
C   000001E0              L781:
    000001E0 4E6F6E65               .SDATA      "None"
    000001E4 00                     .DATA.B     H'00
    000001E5 00000001               .RES.B      1
    000001E6 00000002               .RES.W      1
    000001E8              L782:
    000001E8 00                     .DATA.B     H'00
D   0000009C              __$__T_6Object:                  ; static: typeinfo for Object
    0000009C <00000000>             .DATA.L     ___vtbl__Q2_3std9type_info,L464,__$__TID_6Object
             <00000000>   
             <00000000>   
    000000A8 00000000               .DATA.L     H'00000000
    000000AC              ___T_9Component:                 ; static: typeinfo for Component
    000000AC <00000000>             .DATA.L     ___vtbl__Q2_3std9type_info,L465,__$__TID_9Component,__$__T30431808
             <00000000>   
             <00000000>   
             <00000000>   
    000000BC              ___T_9Transform:                 ; static: typeinfo for Transform
    000000BC <00000000>             .DATA.L     ___vtbl__Q2_3std9type_info,L466,__$__TID_9Transform,__$__T30433280
             <00000000>   
             <00000000>   
             <00000000>   
    000000CC              __$__T_9Behaviour:               ; static: typeinfo for Behaviour
    000000CC <00000000>             .DATA.L     ___vtbl__Q2_3std9type_info,L467,__$__TID_9Behaviour,__$__T30434836
             <00000000>   
             <00000000>   
             <00000000>   
    000000DC              __$__T_7Texture:                 ; static: typeinfo for Texture
    000000DC <00000000>             .DATA.L     ___vtbl__Q2_3std9type_info,L468,__$__TID_7Texture,__$__T30436300
             <00000000>   
             <00000000>   
             <00000000>   
    000000EC              __$__T_13MonoBehaviour:          ; static: typeinfo for MonoBehaviour
    000000EC <00000000>             .DATA.L     ___vtbl__Q2_3std9type_info,L469,__$__TID_13MonoBehaviour,__$__T30438068
             <00000000>   




SH SERIES C/C++ Compiler (Ver. 6.0C)                                                                 09-Nov-2021 18:50:40  PAGE  133


SCT OFFSET   CODE       C LABEL     INSTRUCTION OPERAND    COMMENT

             <00000000>   
             <00000000>   
    000000FC              ___T_10GameObject:               ; static: typeinfo for GameObject
    000000FC <00000000>             .DATA.L     ___vtbl__Q2_3std9type_info,L470,__$__TID_10GameObject,__$__T30439828
             <00000000>   
             <00000000>   
             <00000000>   
    0000010C              __$__T_6Camera:                  ; static: typeinfo for Camera
    0000010C <00000000>             .DATA.L     ___vtbl__Q2_3std9type_info,L471,__$__TID_6Camera,__$__T30441292
             <00000000>   
             <00000000>   
             <00000000>   
    0000011C              ___T_5Image:                     ; static: typeinfo for Image
    0000011C <00000000>             .DATA.L     ___vtbl__Q2_3std9type_info,L472,__$__TID_5Image,__$__T30442756
             <00000000>   
             <00000000>   
             <00000000>   
    0000012C              ___T_6Sprite:                    ; static: typeinfo for Sprite
    0000012C <00000000>             .DATA.L     ___vtbl__Q2_3std9type_info,L473,__$__TID_6Sprite,__$__T30444220
             <00000000>   
             <00000000>   
             <00000000>   
    0000013C              ___T_9Rigidbody:                 ; static: typeinfo for Rigidbody
    0000013C <00000000>             .DATA.L     ___vtbl__Q2_3std9type_info,L474,__$__TID_9Rigidbody,__$__T30445692
             <00000000>   
             <00000000>   
             <00000000>   
    0000014C              ___T_4Text:                      ; static: typeinfo for Text
    0000014C <00000000>             .DATA.L     ___vtbl__Q2_3std9type_info,L475,__$__TID_4Text,__$__T30447152
             <00000000>   
             <00000000>   
             <00000000>   
    0000015C              ___T_7Tilemap:                   ; static: typeinfo for Tilemap
    0000015C <00000000>             .DATA.L     ___vtbl__Q2_3std9type_info,L476,__$__TID_7Tilemap,__$__T30448616
             <00000000>   
             <00000000>   
             <00000000>   
    0000016C              __$__T_16PlayerController:       ; static: typeinfo for PlayerController
    0000016C <00000000>             .DATA.L     ___vtbl__Q2_3std9type_info,L477,__$__TID_16PlayerController,__$__T30450104
             <00000000>   
             <00000000>   
             <00000000>   
    0000017C              __$__2808_12_UUID_fbe0964f_80f0_4bb3_9701_3928fd378215_TilemapDatas$1191:
                                                           ; static: UUID_fbe0964f_80f0_4bb3_9701_3928fd378215_TilemapDatas
    0000017C 0000000100             .DATA.L     H'00000001,H'00000001,H'00000000,H'00000000,H'00000000,H'00000000,H'00000000,
             0000010000 +                       H'00000000,H'00000000,H'00000000,H'00000002,H'00000000,H'00000000,H'00000000,
             0000000000 +                       H'00000000,H'00000000,H'00000000,H'00000000,H'00000000,H'00000000,H'00000000,
             0000000000 +                       H'00000000,H'00000000,H'00000000,H'00000000,H'00000000,H'00000000,H'00000000,
             0000000000 +                       H'00000000,H'00000000,H'00000000,H'00000000,H'00000000,H'00000000,H'00000000,
             0000000000 +                       H'00000000,H'00000000,H'00000000,H'00000000,H'00000000,H'00000000,H'00000000,
             0000000000 +                       H'00000000,H'00000000,H'00000000,H'00000002,H'00000000,H'00000000,H'00000000,
             0000000000 +                       H'00000000,H'00000000,H'00000000,H'00000000,H'00000000,H'00000000,H'00000000,
             0000000200 +                       H'00000000,H'00000000,H'00000000,H'00000000,H'00000000,H'00000000,H'00000000,
             0000000000 +                       H'00000001,H'00000000,H'00000000,H'00000000,H'00000000,H'00000000,H'00000000,
             0000000000 +                       H'00000000,H'00000000,H'00000000,H'00000000,H'00000000,H'00000000,H'00000000,
             0000000000 +                       H'00000000,H'00000000,H'00000000,H'00000000,H'00000000,H'00000000,H'00000001,
             0000000000 +                       H'00000000,H'00000000,H'00000000,H'00000002,H'00000000,H'00000000,H'00000000,




SH SERIES C/C++ Compiler (Ver. 6.0C)                                                                 09-Nov-2021 18:50:40  PAGE  134


SCT OFFSET   CODE       C LABEL     INSTRUCTION OPERAND    COMMENT

             0000000000 +                       H'00000000,H'00000000,H'00000000,H'00000000,H'00000000,H'00000000,H'00000000,
             0000000000 +                       H'00000000,H'00000000,H'00000000,H'00000000,H'00000000,H'00000000,H'00000000,
             0000000000 +                       H'00000000,H'00000000,H'00000000,H'00000000,H'00000000,H'00000000,H'00000000,
             0000000000 +                       H'00000000,H'00000000,H'00000000,H'00000000,H'00000000,H'00000000,H'00000000,
             0000000000 +                       H'00000000,H'00000000,H'00000000,H'00000000,H'00000000,H'00000000,H'00000000,
             0000000000 +                       H'00000000,H'00000000,H'00000000,H'00000000,H'00000000,H'00000000,H'00000000,
             0000000000 +                       H'00000000,H'00000000,H'00000000,H'00000000,H'00000000,H'00000000,H'00000000,
             0000000000 +                       H'00000000,H'00000000,H'00000000,H'00000000,H'00000000,H'00000000,H'00000000,
             0000000000 +                       H'00000000,H'00000000,H'00000000,H'00000000,H'00000000,H'00000000,H'00000000,
             0000000000 +                       H'00000000,H'00000000,H'00000000,H'00000000,H'00000000,H'00000000,H'00000000,
             0000000000 +                       H'00000000,H'00000000,H'00000000,H'00000000,H'00000000,H'00000000,H'00000000,
             0000000000 +                       H'00000000,H'00000000,H'00000000,H'00000000,H'00000000,H'00000000,H'00000000,
             0000000000 +                       H'00000000,H'00000000,H'00000000,H'00000000,H'00000000,H'00000000,H'00000000,
             0000000000 +                       H'00000000,H'00000000,H'00000000,H'00000000,H'00000000,H'00000000,H'00000000,
             0000000000 +                       H'00000000,H'00000000,H'00000000,H'00000000,H'00000000,H'00000000,H'00000000,
             0000000000 +                       H'00000000,H'00000000,H'00000000,H'00000000,H'00000000,H'00000000,H'00000000,
             0000000000 +                       H'00000000,H'00000000,H'00000000,H'00000000,H'00000000,H'00000000,H'00000000,
             0000000000 +                       H'00000000,H'00000000
             0000000000   
             0000000000   
             0000000000   
             0000000000   
             0000000000   
             0000000200   
             0000000000   
             0000000000   
             0000000000   
             0000000000   
             0000000000   
             0000000000   
             0000000000   
             0000000000   
             0000000000   
             0000000000   
             0000000000   
             0000000000   
             0000000000   
             0000000000   
             0100000000   
             0000000000   
             0000000000   
             0000000000   
             0000000000   
             0000000000   
             0000000000   
             0000000000   
             0000000000   
             0000000000   
             0000000000   
             0000000000   
             0000000000   
             0000000000   
             0000000000   
             0000000000   
             0100000000   
             0000000000   
             0000000000   




SH SERIES C/C++ Compiler (Ver. 6.0C)                                                                 09-Nov-2021 18:50:40  PAGE  135


SCT OFFSET   CODE       C LABEL     INSTRUCTION OPERAND    COMMENT

             0002000000   
             0000000000   
             0000000000   
             0000000000   
             0000000000   
             0000000000   
             0000000000   
             0000000000   
             0000000000   
             0000000000   
             0000000000   
             0000000000   
             0000000000   
             0000000000   
             0000000000   
             0000000000   
             0000000000   
             0000000000   
             0000000000   
             0000000000   
             0000000000   
             0000000000   
             0000000000   
             0000000000   
             0000000000   
             0000000000   
             0000000000   
             0000000000   
             0000000000   
             0000000000   
             0000000000   
             0000000000   
             0000000000   
             0000000000   
             0000000000   
             0000000000   
             0000000000   
             0000000000   
             0000000000   
             0000000000   
             0000000000   
             0000000000   
             0000000000   
             0000000000   
             0000000000   
             0000000000   
             0000000000   
             0000000000   
             0000000000   
             0000000000   
             0000000000   
             0000000000   
             0000000000   
             0000000000   
             0000000000   
             0000000000   
             0000000000   




SH SERIES C/C++ Compiler (Ver. 6.0C)                                                                 09-Nov-2021 18:50:40  PAGE  136


SCT OFFSET   CODE       C LABEL     INSTRUCTION OPERAND    COMMENT

             0000000000   
             0000000000   
             0000000000   
             0000000000   
             0000000000   
             0000000000   
             0000000000   
             0000000000   
             0000000000   
             0000000000   
             0000000000   
             0000000000   
             0000000000   
             0000000000   
             0000000000   
             0000000000   
             0000000000   
             0000000000   
             0000000000   
             0000000000   
             0000000000   
             0000000000   
             0000000000   
             0000000000   
             0000000000   
             0000000000   
             0000000000   
             0000000000   
             0000000000   
             0000000000   
             0000000000   
             0000000000   
             0000000000   
             0000000000   
             0000000000   
             0000000000   
             0000000000   
             0000000000   
             0000000000   
             0000000000   
             0000000000   
             0000000000   
             000000       
    000004CC 0000000000             .DATA.L     H'00000000,H'00000000,H'00000000,H'00000000,H'00000000,H'00000000,H'00000000,
             0000000000 +                       H'00000000,H'00000000,H'00000000,H'00000000,H'00000000,H'00000000,H'00000000,
             0000000000 +                       H'00000000,H'00000000,H'00000000,H'00000000,H'00000000,H'00000000,H'00000000,
             0000000000 +                       H'00000000,H'00000000,H'00000000,H'00000000,H'00000000,H'00000000,H'00000000,
             0000000000 +                       H'00000000,H'00000000,H'00000000,H'00000000,H'00000000,H'00000000,H'00000000,
             0000000000 +                       H'00000000,H'00000000,H'00000000,H'00000000,H'00000000,H'00000000,H'00000000,
             0000000000 +                       H'00000000,H'00000000,H'00000000,H'00000000,H'00000000,H'00000000,H'00000000,
             0000000000 +                       H'00000000,H'00000000,H'00000000,H'00000000,H'00000000,H'00000000,H'00000000,
             0000000000 +                       H'00000000,H'00000000,H'00000000,H'00000000,H'00000000,H'00000000,H'00000000,
             0000000000 +                       H'00000000,H'00000000,H'00000000,H'00000000,H'00000000,H'00000000,H'00000000,
             0000000000 +                       H'00000000,H'00000000,H'00000000,H'00000000,H'00000000,H'00000000,H'00000000,
             0000000000 +                       H'00000000,H'00000000,H'00000000,H'00000000,H'00000000,H'00000000,H'00000000,
             0000000000 +                       H'00000000,H'00000000,H'00000000,H'00000000,H'00000000,H'00000000,H'00000000,
             0000000000 +                       H'00000000,H'00000000,H'00000000,H'00000000,H'00000000,H'00000000,H'00000000,




SH SERIES C/C++ Compiler (Ver. 6.0C)                                                                 09-Nov-2021 18:50:40  PAGE  137


SCT OFFSET   CODE       C LABEL     INSTRUCTION OPERAND    COMMENT

             0000000000 +                       H'00000000,H'00000000,H'00000000,H'00000000,H'00000000,H'00000000,H'00000000,
             0000000000 +                       H'00000000,H'00000000,H'00000000,H'00000000,H'00000000,H'00000000,H'00000000,
             0000000000 +                       H'00000000,H'00000000,H'00000000,H'00000000,H'00000000,H'00000000,H'00000000,
             0000000000 +                       H'00000000,H'00000000,H'00000000,H'00000000,H'00000000,H'00000000,H'00000000,
             0000000000 +                       H'00000000,H'00000000,H'00000000,H'00000000,H'00000000,H'00000000,H'00000000,
             0000000000 +                       H'00000000,H'00000000,H'00000000,H'00000000,H'00000000,H'00000000,H'00000000,
             0000000000 +                       H'00000000,H'00000000,H'00000000,H'00000000,H'00000000,H'00000000,H'00000000,
             0000000000 +                       H'00000000,H'00000000,H'00000000,H'00000000,H'00000000,H'00000000,H'00000000,
             0000000000 +                       H'00000000,H'00000000,H'00000000,H'00000000,H'00000000,H'00000000,H'00000000,
             0000000000 +                       H'00000000,H'00000000,H'00000000,H'00000000,H'00000000,H'00000000,H'00000000,
             0000000000 +                       H'00000000,H'00000000,H'00000000,H'00000000,H'00000000,H'00000000,H'00000000,
             0000000000 +                       H'00000000,H'00000000,H'00000000,H'00000000,H'00000000,H'00000000,H'00000000,
             0000000000 +                       H'00000000,H'00000000,H'00000000,H'00000000,H'00000000,H'00000000
             0000000000   
             0000000000   
             0000000000   
             0000000000   
             0000000000   
             0000000000   
             0000000000   
             0000000000   
             0000000000   
             0000000000   
             0000000000   
             0000000000   
             0000000000   
             0000000000   
             0000000000   
             0000000000   
             0000000000   
             0000000000   
             0000000000   
             0000000000   
             0000000000   
             0000000000   
             0000000000   
             0000000000   
             0000000000   
             0000000000   
             0000000000   
             0000000000   
             0000000000   
             0000000000   
             0000000000   
             0000000000   
             0000000000   
             0000000000   
             0000000000   
             0000000000   
             0000000000   
             0000000000   
             0000000000   
             0000000000   
             0000000000   
             0000000000   
             0000000000   
             0000000000   




SH SERIES C/C++ Compiler (Ver. 6.0C)                                                                 09-Nov-2021 18:50:40  PAGE  138


SCT OFFSET   CODE       C LABEL     INSTRUCTION OPERAND    COMMENT

             0000000000   
             0000000000   
             0000000000   
             0000000000   
             0000000000   
             0000000000   
             0000000000   
             0000000000   
             0000000000   
             0000000000   
             0000000000   
             0000000000   
             0000000000   
             0000000000   
             0000000000   
             0000000000   
             0000000000   
             0000000000   
             0000000000   
             0000000000   
             0000000000   
             0000000000   
             0000000000   
             0000000000   
             0000000000   
             0000000000   
             0000000000   
             0000000000   
             0000000000   
             0000000000   
             0000000000   
             0000000000   
             0000000000   
             0000000000   
             0000000000   
             0000000000   
             0000000000   
             0000000000   
             0000000000   
             0000000000   
             0000000000   
             0000000000   
             0000000000   
             0000000000   
             0000000000   
             0000000000   
             0000000000   
             0000000000   
             0000000000   
             0000000000   
             0000000000   
             0000000000   
             0000000000   
             0000000000   
             0000000000   
             0000000000   
             0000000000   




SH SERIES C/C++ Compiler (Ver. 6.0C)                                                                 09-Nov-2021 18:50:40  PAGE  139


SCT OFFSET   CODE       C LABEL     INSTRUCTION OPERAND    COMMENT

             0000000000   
             0000000000   
             0000000000   
             0000000000   
             0000000000   
             0000000000   
             0000000000   
             0000000000   
             0000000000   
             0000000000   
             0000000000   
             0000000000   
             0000000000   
             0000000000   
             0000000000   
             0000000000   
             0000000000   
             0000000000   
             0000000000   
             0000000000   
             0000000000   
             0000000000   
             0000         
C   000001E9 00000001               .RES.B      1
    000001EA 00000002               .RES.W      1
    000001EC              L1201:
    000001EC 555549445F             .SDATA      "UUID_7f4f5e06_f8a9_41f1_b9f9_dae0dba98d46"
             3766346635   
             6530365F66   
             3861395F34   
             3166315F62   
             3966395F64   
             6165306462   
             6139386434   
             36           
    00000215 00                     .DATA.B     H'00
    00000216 00000002               .RES.W      1
    00000218              L1202:
    00000218 555549445F             .SDATA      "UUID_131a6cdf_9eb2_4aa9_a1a7_af674e8990ca"
             3133316136   
             6364665F39   
             6562325F34   
             6161395F61   
             3161375F61   
             6636373465   
             3839393063   
             61           
    00000241 00                     .DATA.B     H'00
    00000242 00000002               .RES.W      1
    00000244              L1203:
    00000244 506C617965             .SDATA      "Player"
             72           
    0000024A 00                     .DATA.B     H'00
    0000024B 00000001               .RES.B      1
    0000024C              L1204:
    0000024C 555549445F             .SDATA      "UUID_400c4826_db9d_4390_963a_d132c010b431"
             3430306334   




SH SERIES C/C++ Compiler (Ver. 6.0C)                                                                 09-Nov-2021 18:50:40  PAGE  140


SCT OFFSET   CODE       C LABEL     INSTRUCTION OPERAND    COMMENT

             3832365F64   
             6239645F34   
             3339305F39   
             3633615F64   
             3133326330   
             3130623433   
             31           
    00000275 00                     .DATA.B     H'00
    00000276 00000002               .RES.W      1
    00000278              L1205:
    00000278 555549445F             .SDATA      "UUID_73ea44a9_6256_47d4_be2b_b37bb79f0ba4"
             3733656134   
             3461395F36   
             3235365F34   
             3764345F62   
             6532625F62   
             3337626237   
             3966306261   
             34           
    000002A1 00                     .DATA.B     H'00
    000002A2 00000002               .RES.W      1
    000002A4              L1206:
    000002A4 555549445F             .SDATA      "UUID_fbe0964f_80f0_4bb3_9701_3928fd378215"
             6662653039   
             3634665F38   
             3066305F34   
             6262335F39   
             3730315F33   
             3932386664   
             3337383231   
             35           
    000002CD 00                     .DATA.B     H'00
    000002CE 00000002               .RES.W      1
    000002D0              L1207:
    000002D0 555549445F             .SDATA      "UUID_6640de22_b0db_4537_8522_f3a7a703d68f"
             3636343064   
             6532325F62   
             3064625F34   
             3533375F38   
             3532325F66   
             3361376137   
             3033643638   
             66           
    000002F9 00                     .DATA.B     H'00
    000002FA 00000002               .RES.W      1
    000002FC              L1208:
    000002FC 555549445F             .SDATA      "UUID_43fd50a2_fd6b_402d_ab19_3ccb56f74fc3"
             3433666435   
             3061325F66   
             6436625F34   
             3032645F61   
             6231395F33   
             6363623536   
             6637346663   
             33           
    00000325 00                     .DATA.B     H'00
    00000326 00000002               .RES.W      1




SH SERIES C/C++ Compiler (Ver. 6.0C)                                                                 09-Nov-2021 18:50:40  PAGE  141


SCT OFFSET   CODE       C LABEL     INSTRUCTION OPERAND    COMMENT

    00000328              L1213:
    00000328 <00000000>             .DATA.L     L1214
    0000032C              L464:
    0000032C 4F626A6563             .SDATA      "Object"
             74           
    00000332 00                     .DATA.B     H'00
    00000333 00000001               .RES.B      1
    00000334              L465:
    00000334 436F6D706F             .SDATA      "Component"
             6E656E74     
    0000033D 00                     .DATA.B     H'00
    0000033E 00000002               .RES.W      1
    00000340              L466:
    00000340 5472616E73             .SDATA      "Transform"
             666F726D     
    00000349 00                     .DATA.B     H'00
    0000034A 00000002               .RES.W      1
    0000034C              L467:
    0000034C 4265686176             .SDATA      "Behaviour"
             696F7572     
    00000355 00                     .DATA.B     H'00
    00000356 00000002               .RES.W      1
    00000358              L468:
    00000358 5465787475             .SDATA      "Texture"
             7265         
    0000035F 00                     .DATA.B     H'00
    00000360              L469:
    00000360 4D6F6E6F42             .SDATA      "MonoBehaviour"
             6568617669   
             6F7572       
    0000036D 00                     .DATA.B     H'00
    0000036E 00000002               .RES.W      1
    00000370              L470:
    00000370 47616D654F             .SDATA      "GameObject"
             626A656374   
    0000037A 00                     .DATA.B     H'00
    0000037B 00000001               .RES.B      1
    0000037C              L471:
    0000037C 43616D6572             .SDATA      "Camera"
             61           
    00000382 00                     .DATA.B     H'00
    00000383 00000001               .RES.B      1
    00000384              L472:
    00000384 496D616765             .SDATA      "Image"
    00000389 00                     .DATA.B     H'00
    0000038A 00000002               .RES.W      1
    0000038C              L473:
    0000038C 5370726974             .SDATA      "Sprite"
             65           
    00000392 00                     .DATA.B     H'00
    00000393 00000001               .RES.B      1
    00000394              L474:
    00000394 5269676964             .SDATA      "Rigidbody"
             626F6479     
    0000039D 00                     .DATA.B     H'00
    0000039E 00000002               .RES.W      1
    000003A0              L475:




SH SERIES C/C++ Compiler (Ver. 6.0C)                                                                 09-Nov-2021 18:50:40  PAGE  142


SCT OFFSET   CODE       C LABEL     INSTRUCTION OPERAND    COMMENT

    000003A0 54657874               .SDATA      "Text"
    000003A4 00                     .DATA.B     H'00
    000003A5 00000001               .RES.B      1
    000003A6 00000002               .RES.W      1
    000003A8              L476:
    000003A8 54696C656D             .SDATA      "Tilemap"
             6170         
    000003AF 00                     .DATA.B     H'00
    000003B0              L477:
    000003B0 506C617965             .SDATA      "PlayerController"
             72436F6E74   
             726F6C6C65   
             72           
    000003C0 00                     .DATA.B     H'00
    000003C1 00000001               .RES.B      1
    000003C2 00000002               .RES.W      1
    000003C4              L1214:
    000003C4 4D61696E               .SDATA      "Main"
    000003C8 00                     .DATA.B     H'00
B   00000000              __$__TID_6Object:                ; static: type identifier for Object
    00000000 00000001               .RES.B      1
    00000001              __$__TID_9Component:             ; static: type identifier for Component
    00000001 00000001               .RES.B      1
    00000002              __$__TID_9Transform:             ; static: type identifier for Transform
    00000002 00000001               .RES.B      1
    00000003              __$__TID_9Behaviour:             ; static: type identifier for Behaviour
    00000003 00000001               .RES.B      1
    00000004              __$__TID_7Texture:               ; static: type identifier for Texture
    00000004 00000001               .RES.B      1
    00000005              __$__TID_13MonoBehaviour:        ; static: type identifier for MonoBehaviour
    00000005 00000001               .RES.B      1
    00000006              __$__TID_10GameObject:           ; static: type identifier for GameObject
    00000006 00000001               .RES.B      1
    00000007              __$__TID_6Camera:                ; static: type identifier for Camera
    00000007 00000001               .RES.B      1
    00000008              __$__TID_5Image:                 ; static: type identifier for Image
    00000008 00000001               .RES.B      1
    00000009              __$__TID_6Sprite:                ; static: type identifier for Sprite
    00000009 00000001               .RES.B      1
    0000000A              __$__TID_9Rigidbody:             ; static: type identifier for Rigidbody
    0000000A 00000001               .RES.B      1
    0000000B              __$__TID_4Text:                  ; static: type identifier for Text
    0000000B 00000001               .RES.B      1
    0000000C              __$__TID_7Tilemap:               ; static: type identifier for Tilemap
    0000000C 00000001               .RES.B      1
    0000000D              __$__TID_16PlayerController:     ; static: type identifier for PlayerController
    0000000D 00000001               .RES.B      1














SH SERIES C/C++ Compiler (Ver. 6.0C)                                                                 09-Nov-2021 18:50:40  PAGE    1


******** STATISTICS INFORMATION ********


********** ERROR INFORMATION ***********

NUMBER OF ERRORS:           0
NUMBER OF WARNINGS:        49




******* SOURCE LINE INFORMATION ********

COMPILED SOURCE LINE:      502



******* SECTION SIZE INFORMATION *******

PROGRAM  SECTION (P):                               00001DE8 Byte(s)
PROGRAM  SECTION (P$VTBL):                          00000000 Byte(s)
CONSTANT SECTION (C):                               000003C9 Byte(s)
CONSTANT SECTION (C$VTBL):                          000026C4 Byte(s)
DATA     SECTION (D):                               000007BC Byte(s)
DATA     SECTION (D$VTBL):                          00000000 Byte(s)
BSS      SECTION (B):                               0000000E Byte(s)
BSS      SECTION (B$VTBL):                          00000000 Byte(s)

 TOTAL PROGRAM SIZE: 0000503F Byte(s)



********** LABEL INFORMATION ***********

NUMBER OF EXTERNAL REFERENCE SYMBOLS:           20
NUMBER OF EXTERNAL DEFINITION SYMBOLS:          76
NUMBER OF INTERNAL/EXTERNAL SYMBOLS:           332


























*** COMMAND PARAMETER ***


  -subcommand=C:\Users\leofa\AppData\Local\Temp\hmkAB4F.tmp 

