SH SERIES C/C++ Compiler (Ver. 6.0C)                                                                 08-Nov-2021 23:20:04  PAGE    1

************ OBJECT LISTING ************

FILE NAME: C:\Users\leofa\OneDrive\Documents\PycharmProjects\Particule-Casio\Glacial Project\Temp\Compile\Tutoriel.cpp

SCT OFFSET   CODE       C LABEL     INSTRUCTION OPERAND    COMMENT

      Tutoriel.c     1    /*****************************************************************/
      Tutoriel.c     2    /*                                                               */
      Tutoriel.c     3    /*   CASIO fx-9860G SDK Library                                  */
      Tutoriel.c     4    /*                                                               */
      Tutoriel.c     5    /*   File name : [ProjectName].c                                 */
      Tutoriel.c     6    /*                                                               */
      Tutoriel.c     7    /*   Copyright (c) 2006 CASIO COMPUTER CO., LTD.                 */
      Tutoriel.c     8    /*                                                               */
      Tutoriel.c     9    /*****************************************************************/
      Tutoriel.c    10    
      Tutoriel.c    11    extern "C"
      Tutoriel.c    12    {
      Tutoriel.c    13    #include "keybios.h"
      Tutoriel.c    14    #include "fxlib.h"
      Tutoriel.c    15    #include <stdio.h>
      Tutoriel.c    16    #include "stdio.h"
      Tutoriel.c    17    #include "stdlib.h"
      Tutoriel.c    18    
      Tutoriel.c    19    #include "string.h"
      Tutoriel.c    20    #include "time.h"
      Tutoriel.c    21    
      Tutoriel.c    22    
      Tutoriel.c    23    
      Tutoriel.c    24    
      Tutoriel.c    25    }
      Tutoriel.c    26    #include "usefull.h"
      Tutoriel.c    27    
      Tutoriel.c    28    //****************************************************************************
      Tutoriel.c    29    //  AddIn_main (Sample program main function)
      Tutoriel.c    30    //
      Tutoriel.c    31    //  param   :   isAppli   : 1 = This application is launched by MAIN MENU.
      Tutoriel.c    32    //                        : 0 = This application is launched by a strip in eACT application.
      Tutoriel.c    33    //
      Tutoriel.c    34    //              OptionNum : Strip number (0~3)
      Tutoriel.c    35    //                         (This parameter is only used when isAppli parameter is 0.)
      Tutoriel.c    36    //
      Tutoriel.c    37    //  retval  :   1 = No error / 0 = Error
      Tutoriel.c    38    //
      Tutoriel.c    39    //****************************************************************************
      Tutoriel.c    40    #include "Announcement.h"
      Tutoriel.c    41    #include "ParticuleEngine.h"
P   00000000              _LenChar__FPc:                   ; function: LenChar(char *)
                                                           ; frame size=4
    00000000 4F22                   STS.L       PR,@-R15
    00000002 D355                   MOV.L       L1520,R3   ; _strlen
    00000004 430B                   JSR         @R3
    00000006 0009                   NOP
    00000008 4F26                   LDS.L       @R15+,PR
    0000000A 000B                   RTS
    0000000C 0009                   NOP
    0000000E              _mod__FiT1:                      ; function: mod(int, int)
                                                           ; frame size=4
                                                           ; used runtime library name:
                                                           ; __modls




SH SERIES C/C++ Compiler (Ver. 6.0C)                                                                 08-Nov-2021 23:20:04  PAGE    2


SCT OFFSET   CODE       C LABEL     INSTRUCTION OPERAND    COMMENT

    0000000E 6143                   MOV         R4,R1
    00000010 D352                   MOV.L       L1520+4,R3 ; __modls
    00000012 4F22                   STS.L       PR,@-R15
    00000014 430B                   JSR         @R3
    00000016 6053                   MOV         R5,R0
    00000018 D350                   MOV.L       L1520+4,R3 ; __modls
    0000001A 6103                   MOV         R0,R1
    0000001C 315C                   ADD         R5,R1
    0000001E 430B                   JSR         @R3
    00000020 6053                   MOV         R5,R0
    00000022 4F26                   LDS.L       @R15+,PR
    00000024 000B                   RTS
    00000026 0009                   NOP
    00000028              _LoadScene__FP5Scenei:           ; function: LoadScene(Scene *, int)
                                                           ; frame size=20
    00000028 2FE6                   MOV.L       R14,@-R15
    0000002A 6E43                   MOV         R4,R14
    0000002C 2FD6                   MOV.L       R13,@-R15
    0000002E 4F22                   STS.L       PR,@-R15
    00000030 7FF8                   ADD         #-8,R15
    00000032 2F42                   MOV.L       R4,@R15
    00000034 5EE3                   MOV.L       @(12,R14),R14
    00000036 A010                   BRA         L1147
    00000038 E400                   MOV         #0,R4
    0000003A              L1148:                            
    0000003A 56E2                   MOV.L       @(8,R14),R6
    0000003C 53E1                   MOV.L       @(4,R14),R3
    0000003E 6262                   MOV.L       @R6,R2
    00000040 3360                   CMP/EQ      R6,R3
    00000042 8B02                   BF          L1149
    00000044 1E41                   MOV.L       R4,@(4,R14)
    00000046 A005                   BRA         L1150
    00000048 1E42                   MOV.L       R4,@(8,R14)
    0000004A              L1149:                            
    0000004A 52E2                   MOV.L       @(8,R14),R2
    0000004C 5322                   MOV.L       @(8,R2),R3
    0000004E 1E32                   MOV.L       R3,@(8,R14)
    00000050 6233                   MOV         R3,R2
    00000052 1241                   MOV.L       R4,@(4,R2)
    00000054              L1150:                            
    00000054 53E3                   MOV.L       @(12,R14),R3
    00000056 73FF                   ADD         #-1,R3
    00000058 1E33                   MOV.L       R3,@(12,R14)
    0000005A              L1147:                            
    0000005A 52E3                   MOV.L       @(12,R14),R2
    0000005C 4215                   CMP/PL      R2
    0000005E 89EC                   BT          L1148
    00000060 B628                   BSR         __$GetSceneInBuild__12SceneManagerFi
    00000062 64E3                   MOV         R14,R4
    00000064 1F01                   MOV.L       R0,@(4,R15)
    00000066 D33E                   MOV.L       L1520+8,R3 ; ___nw__FUl
    00000068 430B                   JSR         @R3
    0000006A E40C                   MOV         #12,R4
    0000006C 2008                   TST         R0,R0
    0000006E 8D06                   BT/S        L1151
    00000070 6D03                   MOV         R0,R13
    00000072 E50C                   MOV         #12,R5




SH SERIES C/C++ Compiler (Ver. 6.0C)                                                                 08-Nov-2021 23:20:04  PAGE    3


SCT OFFSET   CODE       C LABEL     INSTRUCTION OPERAND    COMMENT

    00000074 D33B                   MOV.L       L1520+12,R3; ___memzero
    00000076 430B                   JSR         @R3
    00000078 64D3                   MOV         R13,R4
    0000007A A001                   BRA         L1152
    0000007C 64D3                   MOV         R13,R4
    0000007E              L1151:                            
    0000007E E400                   MOV         #0,R4
    00000080              L1152:                            
    00000080 53F1                   MOV.L       @(4,R15),R3
    00000082 2432                   MOV.L       R3,@R4
    00000084 52E3                   MOV.L       @(12,R14),R2
    00000086 7201                   ADD         #1,R2
    00000088 1E23                   MOV.L       R2,@(12,R14)
    0000008A 53E1                   MOV.L       @(4,R14),R3
    0000008C 2338                   TST         R3,R3
    0000008E 8B01                   BF          L1153
    00000090 A004                   BRA         L947
    00000092 1E41                   MOV.L       R4,@(4,R14)
    00000094              L1153:                            
    00000094 53E2                   MOV.L       @(8,R14),R3
    00000096 1432                   MOV.L       R3,@(8,R4)
    00000098 52E2                   MOV.L       @(8,R14),R2
    0000009A 1241                   MOV.L       R4,@(4,R2)
    0000009C              L947:
    0000009C 1E42                   MOV.L       R4,@(8,R14)
    0000009E 64F2                   MOV.L       @R15,R4
    000000A0 5443                   MOV.L       @(12,R4),R4
    000000A2 7F08                   ADD         #8,R15
    000000A4 4F26                   LDS.L       @R15+,PR
    000000A6 6DF6                   MOV.L       @R15+,R13
    000000A8 A5E0                   BRA         __$StartScene__12SceneManagerFv
    000000AA 6EF6                   MOV.L       @R15+,R14
    000000AC              _FindWithName__FPUcP10GameObject:
                                                           ; function: FindWithName(unsigned char *, GameObject *)
                                                           ; frame size=8
    000000AC 7FF8                   ADD         #-8,R15
    000000AE 1F41                   MOV.L       R4,@(4,R15)
    000000B0 2F52                   MOV.L       R5,@R15
    000000B2 55F1                   MOV.L       @(4,R15),R5
    000000B4 64F2                   MOV.L       @R15,R4
    000000B6 544A                   MOV.L       @(40,R4),R4
    000000B8 5443                   MOV.L       @(12,R4),R4
    000000BA A589                   BRA         __$FindWithName__12SceneManagerFPUc
    000000BC 7F08                   ADD         #8,R15
      Tutoriel.c    42    #include "List.h"
      Tutoriel.c    43    //#include "ClassParticule.h"
      Tutoriel.c    44    //#include "string.h"
      Tutoriel.c    45    #include "MonochromeLib.h"
      Tutoriel.c    46    #include "Ressources.h"
      Tutoriel.c    47    
      Tutoriel.c    48    
      Tutoriel.c    49    
      Tutoriel.c    50    int main() {
    000000BE              _main:                           ; function: main
                                                           ; frame size=20
    000000BE 7FEC                   ADD         #-20,R15
      Tutoriel.c    51        SceneManager sceneManager;




SH SERIES C/C++ Compiler (Ver. 6.0C)                                                                 08-Nov-2021 23:20:04  PAGE    4


SCT OFFSET   CODE       C LABEL     INSTRUCTION OPERAND    COMMENT

    000000C0 E400                   MOV         #0,R4
    000000C2 1F44                   MOV.L       R4,@(16,R15)
    000000C4 1F42                   MOV.L       R4,@(8,R15)
      Tutoriel.c    52        //reference croise
      Tutoriel.c    53        sceneManager.LoadScene(0);
    000000C6 A010                   BRA         L1157
    000000C8 1F43                   MOV.L       R4,@(12,R15)
    000000CA              L1158:                            
    000000CA 55F3                   MOV.L       @(12,R15),R5
    000000CC 52F2                   MOV.L       @(8,R15),R2
    000000CE 6352                   MOV.L       @R5,R3
    000000D0 3250                   CMP/EQ      R5,R2
    000000D2 8B02                   BF          L1159
    000000D4 1F42                   MOV.L       R4,@(8,R15)
    000000D6 A005                   BRA         L1160
    000000D8 1F43                   MOV.L       R4,@(12,R15)
    000000DA              L1159:                            
    000000DA 52F3                   MOV.L       @(12,R15),R2
    000000DC 5322                   MOV.L       @(8,R2),R3
    000000DE 1F33                   MOV.L       R3,@(12,R15)
    000000E0 6233                   MOV         R3,R2
    000000E2 1241                   MOV.L       R4,@(4,R2)
    000000E4              L1160:                            
    000000E4 53F4                   MOV.L       @(16,R15),R3
    000000E6 73FF                   ADD         #-1,R3
    000000E8 1F34                   MOV.L       R3,@(16,R15)
    000000EA              L1157:                            
    000000EA 52F4                   MOV.L       @(16,R15),R2
    000000EC 4215                   CMP/PL      R2
    000000EE 89EC                   BT          L1158
    000000F0 E500                   MOV         #0,R5
    000000F2 64F3                   MOV         R15,R4
    000000F4 B5DE                   BSR         __$GetSceneInBuild__12SceneManagerFi
    000000F6 7404                   ADD         #4,R4
    000000F8 2F02                   MOV.L       R0,@R15
    000000FA D319                   MOV.L       L1520+8,R3 ; ___nw__FUl
    000000FC 430B                   JSR         @R3
    000000FE E40C                   MOV         #12,R4
    00000100 2008                   TST         R0,R0
    00000102 8D06                   BT/S        L1161
    00000104 6E03                   MOV         R0,R14
    00000106 E50C                   MOV         #12,R5
    00000108 D316                   MOV.L       L1520+12,R3; ___memzero
    0000010A 430B                   JSR         @R3
    0000010C 64E3                   MOV         R14,R4
    0000010E A001                   BRA         L1162
    00000110 64E3                   MOV         R14,R4
    00000112              L1161:                            
    00000112 E400                   MOV         #0,R4
    00000114              L1162:                            
    00000114 63F2                   MOV.L       @R15,R3
    00000116 2432                   MOV.L       R3,@R4
    00000118 52F4                   MOV.L       @(16,R15),R2
    0000011A 7201                   ADD         #1,R2
    0000011C 1F24                   MOV.L       R2,@(16,R15)
    0000011E 53F2                   MOV.L       @(8,R15),R3
    00000120 2338                   TST         R3,R3




SH SERIES C/C++ Compiler (Ver. 6.0C)                                                                 08-Nov-2021 23:20:04  PAGE    5


SCT OFFSET   CODE       C LABEL     INSTRUCTION OPERAND    COMMENT

    00000122 8B01                   BF          L1163
    00000124 A004                   BRA         L948
    00000126 1F42                   MOV.L       R4,@(8,R15)
    00000128              L1163:                            
    00000128 53F3                   MOV.L       @(12,R15),R3
    0000012A 1432                   MOV.L       R3,@(8,R4)
    0000012C 52F3                   MOV.L       @(12,R15),R2
    0000012E 1241                   MOV.L       R4,@(4,R2)
    00000130              L948:
    00000130 1F43                   MOV.L       R4,@(12,R15)
      Tutoriel.c    54        sceneManager.StartScene();
    00000132 64F3                   MOV         R15,R4
    00000134 B59A                   BSR         __$StartScene__12SceneManagerFv
    00000136 7404                   ADD         #4,R4
    00000138 DC0B                   MOV.L       L1520+16,R12; _ML_clear_vram
    0000013A DD0C                   MOV.L       L1520+20,R13; _Sleep
    0000013C DE0C                   MOV.L       L1520+24,R14; _ML_display_vram
      Tutoriel.c    55        while (true)
    0000013E              L1166:                            
      Tutoriel.c    56        {
      Tutoriel.c    57            ML_clear_vram();
    0000013E 4C0B                   JSR         @R12
    00000140 0009                   NOP
      Tutoriel.c    58            sceneManager.UpdateScene();
    00000142 64F3                   MOV         R15,R4
    00000144 B57E                   BSR         __$UpdateScene__12SceneManagerFv
    00000146 7404                   ADD         #4,R4
      Tutoriel.c    59    
      Tutoriel.c    60            Sleep(100);
    00000148 4D0B                   JSR         @R13
    0000014A E464                   MOV         #100,R4
      Tutoriel.c    61            ML_display_vram();
    0000014C 4E0B                   JSR         @R14
    0000014E 0009                   NOP
    00000150 AFF5                   BRA         L1166
    00000152 0009                   NOP
      Tutoriel.c    62        }
      Tutoriel.c    63        return 1;
      Tutoriel.c    64    }
      Tutoriel.c    65    
      Tutoriel.c    66    extern "C"
      Tutoriel.c    67    {
      Tutoriel.c    68    int AddIn_main(int isAppli, unsigned short OptionNum)
    00000154              _AddIn_main:                     ; function: AddIn_main
                                                           ; frame size=0
      Tutoriel.c    69    {
      Tutoriel.c    70        return main();
    00000154 AFB3                   BRA         _main
    00000156 0009                   NOP
    00000158              L1520:                            
    00000158 <00000000>             .DATA.L     _strlen
    0000015C <00000000>             .DATA.L     __modls
    00000160 <00000000>             .DATA.L     ___nw__FUl
    00000164 <00000000>             .DATA.L     ___memzero
    00000168 <00000000>             .DATA.L     _ML_clear_vram
    0000016C <00000000>             .DATA.L     _Sleep
    00000170 <00000000>             .DATA.L     _ML_display_vram




SH SERIES C/C++ Compiler (Ver. 6.0C)                                                                 08-Nov-2021 23:20:04  PAGE    6


SCT OFFSET   CODE       C LABEL     INSTRUCTION OPERAND    COMMENT

      Tutoriel.c    71    }
      Tutoriel.c    72    
      Tutoriel.c    73    
      Tutoriel.c    74    
      Tutoriel.c    75    
      Tutoriel.c    76    //****************************************************************************
      Tutoriel.c    77    //**************                                              ****************
      Tutoriel.c    78    //**************                 Notice!                      ****************
      Tutoriel.c    79    //**************                                              ****************
      Tutoriel.c    80    //**************  Please do not change the following source.  ****************
      Tutoriel.c    81    //**************                                              ****************
      Tutoriel.c    82    //****************************************************************************
      Tutoriel.c    83    
      Tutoriel.c    84    
      Tutoriel.c    85    #pragma section _BR_Size
      Tutoriel.c    86    unsigned long BR_Size;
      Tutoriel.c    87    #pragma section
      Tutoriel.c    88    
      Tutoriel.c    89    
      Tutoriel.c    90    #pragma section _TOP
      Tutoriel.c    91    
      Tutoriel.c    92    //****************************************************************************
      Tutoriel.c    93    //  InitializeSystem
      Tutoriel.c    94    //
      Tutoriel.c    95    //  param   :   isAppli   : 1 = Application / 0 = eActivity
      Tutoriel.c    96    //              OptionNum : Option Number (only eActivity)
      Tutoriel.c    97    //
      Tutoriel.c    98    //  retval  :   1 = No error / 0 = Error
      Tutoriel.c    99    //
      Tutoriel.c   100    //****************************************************************************
      Tutoriel.c   101    int InitializeSystem(int isAppli, unsigned short OptionNum)
P_T 00000000              _InitializeSystem:               ; function: InitializeSystem
                                                           ; frame size=0
      Tutoriel.c   102    {
      Tutoriel.c   103        return INIT_ADDIN_APPLICATION(isAppli, OptionNum);
    00000000 D301                   MOV.L       L1521+2,R3 ; _INIT_ADDIN_APPLICATION
    00000002 432B                   JMP         @R3
    00000004 0009                   NOP
    00000006              L1521:                            
    00000006 0000                   .DATA.W     0
    00000008 <00000000>             .DATA.L     _INIT_ADDIN_APPLICATION
      Tutoriel.c   104    }
      Tutoriel.c   105    
      Tutoriel.c   106    #pragma section
      Tutoriel.c   107    }
P   00000174              __$Destroy__6ObjectFv:           ; function: Object::Destroy()
                                                           ; frame size=0
    00000174 000B                   RTS
    00000176 0009                   NOP
    00000178              __$DestroyImmediate__6ObjectFv:  ; function: Object::DestroyImmediate()
                                                           ; frame size=0
    00000178 000B                   RTS
    0000017A 0009                   NOP
    0000017C              __$DontDestroyOnLoad__6ObjectFv: ; function: Object::DontDestroyOnLoad()
                                                           ; frame size=0
    0000017C 000B                   RTS
    0000017E 0009                   NOP




SH SERIES C/C++ Compiler (Ver. 6.0C)                                                                 08-Nov-2021 23:20:04  PAGE    7


SCT OFFSET   CODE       C LABEL     INSTRUCTION OPERAND    COMMENT

    00000180              __$FindObjectOfType__6ObjectFv:  ; function: Object::FindObjectOfType()
                                                           ; frame size=0
    00000180 000B                   RTS
    00000182 0009                   NOP
    00000184              __$FindObjectsOfType__6ObjectFv: ; function: Object::FindObjectsOfType()
                                                           ; frame size=0
    00000184 000B                   RTS
    00000186 0009                   NOP
    00000188              __$Instantiate__6ObjectFv:       ; function: Object::Instantiate()
                                                           ; frame size=0
    00000188 000B                   RTS
    0000018A 0009                   NOP
    0000018C              __$Awake__9ComponentFv:          ; function: Component::Awake()
                                                           ; frame size=0
    0000018C 000B                   RTS
    0000018E 0009                   NOP
    00000190              __$FixedUpdate__9ComponentFv:    ; function: Component::FixedUpdate()
                                                           ; frame size=0
    00000190 000B                   RTS
    00000192 0009                   NOP
    00000194              __$LateUpdate__9ComponentFv:     ; function: Component::LateUpdate()
                                                           ; frame size=0
    00000194 000B                   RTS
    00000196 0009                   NOP
    00000198              __$OnAnimatorIK__9ComponentFv:   ; function: Component::OnAnimatorIK()
                                                           ; frame size=0
    00000198 000B                   RTS
    0000019A 0009                   NOP
    0000019C              __$OnAnimatorMove__9ComponentFv: ; function: Component::OnAnimatorMove()
                                                           ; frame size=0
    0000019C 000B                   RTS
    0000019E 0009                   NOP
    000001A0              __$OnApplicationFocus__9ComponentFv:
                                                           ; function: Component::OnApplicationFocus()
                                                           ; frame size=0
    000001A0 000B                   RTS
    000001A2 0009                   NOP
    000001A4              __$OnApplicationPause__9ComponentFv:
                                                           ; function: Component::OnApplicationPause()
                                                           ; frame size=0
    000001A4 000B                   RTS
    000001A6 0009                   NOP
    000001A8              __$OnApplicationQuit__9ComponentFv:
                                                           ; function: Component::OnApplicationQuit()
                                                           ; frame size=0
    000001A8 000B                   RTS
    000001AA 0009                   NOP
    000001AC              __$OnAudioFilterRead__9ComponentFv:
                                                           ; function: Component::OnAudioFilterRead()
                                                           ; frame size=0
    000001AC 000B                   RTS
    000001AE 0009                   NOP
    000001B0              __$OnBecameInvisible__9ComponentFv:
                                                           ; function: Component::OnBecameInvisible()
                                                           ; frame size=0
    000001B0 000B                   RTS
    000001B2 0009                   NOP




SH SERIES C/C++ Compiler (Ver. 6.0C)                                                                 08-Nov-2021 23:20:04  PAGE    8


SCT OFFSET   CODE       C LABEL     INSTRUCTION OPERAND    COMMENT

    000001B4              __$OnBecameVisible__9ComponentFv:
                                                           ; function: Component::OnBecameVisible()
                                                           ; frame size=0
    000001B4 000B                   RTS
    000001B6 0009                   NOP
    000001B8              __$OnCollisionEnter__9ComponentFv:
                                                           ; function: Component::OnCollisionEnter()
                                                           ; frame size=0
    000001B8 000B                   RTS
    000001BA 0009                   NOP
    000001BC              __$OnCollisionEnter2D__9ComponentFv:
                                                           ; function: Component::OnCollisionEnter2D()
                                                           ; frame size=0
    000001BC 000B                   RTS
    000001BE 0009                   NOP
    000001C0              __$OnCollisionExit__9ComponentFv:
                                                           ; function: Component::OnCollisionExit()
                                                           ; frame size=0
    000001C0 000B                   RTS
    000001C2 0009                   NOP
    000001C4              __$OnCollisionExit2D__9ComponentFv:
                                                           ; function: Component::OnCollisionExit2D()
                                                           ; frame size=0
    000001C4 000B                   RTS
    000001C6 0009                   NOP
    000001C8              __$OnCollisionStay__9ComponentFv:
                                                           ; function: Component::OnCollisionStay()
                                                           ; frame size=0
    000001C8 000B                   RTS
    000001CA 0009                   NOP
    000001CC              __$OnCollisionStay2D__9ComponentFv:
                                                           ; function: Component::OnCollisionStay2D()
                                                           ; frame size=0
    000001CC 000B                   RTS
    000001CE 0009                   NOP
    000001D0              __$OnConnectedToServer__9ComponentFv:
                                                           ; function: Component::OnConnectedToServer()
                                                           ; frame size=0
    000001D0 000B                   RTS
    000001D2 0009                   NOP
    000001D4              __$OnControllerColliderHit__9ComponentFv:
                                                           ; function: Component::OnControllerColliderHit()
                                                           ; frame size=0
    000001D4 000B                   RTS
    000001D6 0009                   NOP
    000001D8              __$OnDestroy__9ComponentFv:      ; function: Component::OnDestroy()
                                                           ; frame size=0
    000001D8 000B                   RTS
    000001DA 0009                   NOP
    000001DC              __$OnDisable__9ComponentFv:      ; function: Component::OnDisable()
                                                           ; frame size=0
    000001DC 000B                   RTS
    000001DE 0009                   NOP
    000001E0              __$OnDisconnectedFromServer__9ComponentFv:
                                                           ; function: Component::OnDisconnectedFromServer()
                                                           ; frame size=0
    000001E0 000B                   RTS




SH SERIES C/C++ Compiler (Ver. 6.0C)                                                                 08-Nov-2021 23:20:04  PAGE    9


SCT OFFSET   CODE       C LABEL     INSTRUCTION OPERAND    COMMENT

    000001E2 0009                   NOP
    000001E4              __$OnDrawGizmos__9ComponentFv:   ; function: Component::OnDrawGizmos()
                                                           ; frame size=0
    000001E4 000B                   RTS
    000001E6 0009                   NOP
    000001E8              __$OnDrawGizmosSelected__9ComponentFv:
                                                           ; function: Component::OnDrawGizmosSelected()
                                                           ; frame size=0
    000001E8 000B                   RTS
    000001EA 0009                   NOP
    000001EC              __$OnEnable__9ComponentFv:       ; function: Component::OnEnable()
                                                           ; frame size=0
    000001EC 000B                   RTS
    000001EE 0009                   NOP
    000001F0              __$OnFailedToConnect__9ComponentFv:
                                                           ; function: Component::OnFailedToConnect()
                                                           ; frame size=0
    000001F0 000B                   RTS
    000001F2 0009                   NOP
    000001F4              __$OnFailedToConnectToMasterServer__9ComponentFv:
                                                           ; function: Component::OnFailedToConnectToMasterServer()
                                                           ; frame size=0
    000001F4 000B                   RTS
    000001F6 0009                   NOP
    000001F8              __$OnGUI__9ComponentFv:          ; function: Component::OnGUI()
                                                           ; frame size=0
    000001F8 000B                   RTS
    000001FA 0009                   NOP
    000001FC              __$OnJointBreak__9ComponentFv:   ; function: Component::OnJointBreak()
                                                           ; frame size=0
    000001FC 000B                   RTS
    000001FE 0009                   NOP
    00000200              __$OnJointBreak2D__9ComponentFv: ; function: Component::OnJointBreak2D()
                                                           ; frame size=0
    00000200 000B                   RTS
    00000202 0009                   NOP
    00000204              __$OnMasterServerEvent__9ComponentFv:
                                                           ; function: Component::OnMasterServerEvent()
                                                           ; frame size=0
    00000204 000B                   RTS
    00000206 0009                   NOP
    00000208              __$OnMouseDown__9ComponentFv:    ; function: Component::OnMouseDown()
                                                           ; frame size=0
    00000208 000B                   RTS
    0000020A 0009                   NOP
    0000020C              __$OnMouseDrag__9ComponentFv:    ; function: Component::OnMouseDrag()
                                                           ; frame size=0
    0000020C 000B                   RTS
    0000020E 0009                   NOP
    00000210              __$OnMouseEnter__9ComponentFv:   ; function: Component::OnMouseEnter()
                                                           ; frame size=0
    00000210 000B                   RTS
    00000212 0009                   NOP
    00000214              __$OnMouseExit__9ComponentFv:    ; function: Component::OnMouseExit()
                                                           ; frame size=0
    00000214 000B                   RTS
    00000216 0009                   NOP




SH SERIES C/C++ Compiler (Ver. 6.0C)                                                                 08-Nov-2021 23:20:04  PAGE   10


SCT OFFSET   CODE       C LABEL     INSTRUCTION OPERAND    COMMENT

    00000218              __$OnMouseOver__9ComponentFv:    ; function: Component::OnMouseOver()
                                                           ; frame size=0
    00000218 000B                   RTS
    0000021A 0009                   NOP
    0000021C              __$OnMouseUp__9ComponentFv:      ; function: Component::OnMouseUp()
                                                           ; frame size=0
    0000021C 000B                   RTS
    0000021E 0009                   NOP
    00000220              __$OnMouseUpAsButton__9ComponentFv:
                                                           ; function: Component::OnMouseUpAsButton()
                                                           ; frame size=0
    00000220 000B                   RTS
    00000222 0009                   NOP
    00000224              __$OnNetworkInstantiate__9ComponentFv:
                                                           ; function: Component::OnNetworkInstantiate()
                                                           ; frame size=0
    00000224 000B                   RTS
    00000226 0009                   NOP
    00000228              __$OnParticleCollision__9ComponentFv:
                                                           ; function: Component::OnParticleCollision()
                                                           ; frame size=0
    00000228 000B                   RTS
    0000022A 0009                   NOP
    0000022C              __$OnParticleSystemStopped__9ComponentFv:
                                                           ; function: Component::OnParticleSystemStopped()
                                                           ; frame size=0
    0000022C 000B                   RTS
    0000022E 0009                   NOP
    00000230              __$OnParticleTrigger__9ComponentFv:
                                                           ; function: Component::OnParticleTrigger()
                                                           ; frame size=0
    00000230 000B                   RTS
    00000232 0009                   NOP
    00000234              __$OnParticleUpdateJobScheduled__9ComponentFv:
                                                           ; function: Component::OnParticleUpdateJobScheduled()
                                                           ; frame size=0
    00000234 000B                   RTS
    00000236 0009                   NOP
    00000238              __$OnPlayerConnected__9ComponentFv:
                                                           ; function: Component::OnPlayerConnected()
                                                           ; frame size=0
    00000238 000B                   RTS
    0000023A 0009                   NOP
    0000023C              __$OnPlayerDisconnected__9ComponentFv:
                                                           ; function: Component::OnPlayerDisconnected()
                                                           ; frame size=0
    0000023C 000B                   RTS
    0000023E 0009                   NOP
    00000240              __$OnPostRender__9ComponentFv:   ; function: Component::OnPostRender()
                                                           ; frame size=0
    00000240 000B                   RTS
    00000242 0009                   NOP
    00000244              __$OnPreCull__9ComponentFv:      ; function: Component::OnPreCull()
                                                           ; frame size=0
    00000244 000B                   RTS
    00000246 0009                   NOP
    00000248              __$OnPreRender__9ComponentFv:    ; function: Component::OnPreRender()




SH SERIES C/C++ Compiler (Ver. 6.0C)                                                                 08-Nov-2021 23:20:04  PAGE   11


SCT OFFSET   CODE       C LABEL     INSTRUCTION OPERAND    COMMENT

                                                           ; frame size=0
    00000248 000B                   RTS
    0000024A 0009                   NOP
    0000024C              __$OnRenderImage__9ComponentFv:  ; function: Component::OnRenderImage()
                                                           ; frame size=0
    0000024C 000B                   RTS
    0000024E 0009                   NOP
    00000250              __$OnRenderObject__9ComponentFv: ; function: Component::OnRenderObject()
                                                           ; frame size=0
    00000250 000B                   RTS
    00000252 0009                   NOP
    00000254              __$OnSerializeNetworkView__9ComponentFv:
                                                           ; function: Component::OnSerializeNetworkView()
                                                           ; frame size=0
    00000254 000B                   RTS
    00000256 0009                   NOP
    00000258              __$OnServerInitialized__9ComponentFv:
                                                           ; function: Component::OnServerInitialized()
                                                           ; frame size=0
    00000258 000B                   RTS
    0000025A 0009                   NOP
    0000025C              __$OnTransformChildrenChanged__9ComponentFv:
                                                           ; function: Component::OnTransformChildrenChanged()
                                                           ; frame size=0
    0000025C 000B                   RTS
    0000025E 0009                   NOP
    00000260              __$OnTransformParentChanged__9ComponentFv:
                                                           ; function: Component::OnTransformParentChanged()
                                                           ; frame size=0
    00000260 000B                   RTS
    00000262 0009                   NOP
    00000264              __$OnTriggerEnter__9ComponentFv: ; function: Component::OnTriggerEnter()
                                                           ; frame size=0
    00000264 000B                   RTS
    00000266 0009                   NOP
    00000268              __$OnTriggerEnter2D__9ComponentFv:
                                                           ; function: Component::OnTriggerEnter2D()
                                                           ; frame size=0
    00000268 000B                   RTS
    0000026A 0009                   NOP
    0000026C              __$OnTriggerExit__9ComponentFv:  ; function: Component::OnTriggerExit()
                                                           ; frame size=0
    0000026C 000B                   RTS
    0000026E 0009                   NOP
    00000270              __$OnTriggerExit2D__9ComponentFv:
                                                           ; function: Component::OnTriggerExit2D()
                                                           ; frame size=0
    00000270 000B                   RTS
    00000272 0009                   NOP
    00000274              __$OnTriggerStay__9ComponentFv:  ; function: Component::OnTriggerStay()
                                                           ; frame size=0
    00000274 000B                   RTS
    00000276 0009                   NOP
    00000278              __$OnTriggerStay2D__9ComponentFv:
                                                           ; function: Component::OnTriggerStay2D()
                                                           ; frame size=0
    00000278 000B                   RTS




SH SERIES C/C++ Compiler (Ver. 6.0C)                                                                 08-Nov-2021 23:20:04  PAGE   12


SCT OFFSET   CODE       C LABEL     INSTRUCTION OPERAND    COMMENT

    0000027A 0009                   NOP
    0000027C              __$OnValidate__9ComponentFv:     ; function: Component::OnValidate()
                                                           ; frame size=0
    0000027C 000B                   RTS
    0000027E 0009                   NOP
    00000280              __$OnWillRenderObject__9ComponentFv:
                                                           ; function: Component::OnWillRenderObject()
                                                           ; frame size=0
    00000280 000B                   RTS
    00000282 0009                   NOP
    00000284              __$Reset__9ComponentFv:          ; function: Component::Reset()
                                                           ; frame size=0
    00000284 000B                   RTS
    00000286 0009                   NOP
    00000288              __$Start__9ComponentFv:          ; function: Component::Start()
                                                           ; frame size=0
    00000288 000B                   RTS
    0000028A 0009                   NOP
    0000028C              __$Update__9ComponentFv:         ; function: Component::Update()
                                                           ; frame size=0
    0000028C 000B                   RTS
    0000028E 0009                   NOP
    00000290              __$Start__9TransformFv:          ; function: Transform::Start()
                                                           ; frame size=0
    00000290 5346                   MOV.L       @(24,R4),R3
    00000292 E048                   MOV         #72,R0
    00000294 024E                   MOV.L       @(R0,R4),R2
    00000296 6122                   MOV.L       @R2,R1
    00000298 2312                   MOV.L       R1,@R3
    0000029A 5346                   MOV.L       @(24,R4),R3
    0000029C 024E                   MOV.L       @(R0,R4),R2
    0000029E 5121                   MOV.L       @(4,R2),R1
    000002A0 000B                   RTS
    000002A2 1311                   MOV.L       R1,@(4,R3)
    000002A4              __$Update__9TransformFv:         ; function: Transform::Update()
                                                           ; frame size=116
                                                           ; used runtime library name:
                                                           ; __adds, __subs, __eqs, __nes, __quick_evn_mvn
    000002A4 2FE6                   MOV.L       R14,@-R15
    000002A6 E044                   MOV         #68,R0
    000002A8 2FD6                   MOV.L       R13,@-R15
    000002AA 4F22                   STS.L       PR,@-R15
    000002AC 7F98                   ADD         #-104,R15
    000002AE 5349                   MOV.L       @(36,R4),R3
    000002B0 143A                   MOV.L       R3,@(40,R4)
    000002B2 024E                   MOV.L       @(R0,R4),R2
    000002B4 2228                   TST         R2,R2
    000002B6 8B30                   BF          L1242
    000002B8 564E                   MOV.L       @(56,R4),R6
    000002BA E048                   MOV         #72,R0
    000002BC D36F                   MOV.L       L1522,R3   ; __nes
    000002BE 054E                   MOV.L       @(R0,R4),R5
    000002C0 6152                   MOV.L       @R5,R1
    000002C2 430B                   JSR         @R3
    000002C4 6062                   MOV.L       @R6,R0
    000002C6 8800                   CMP/EQ      #0,R0
    000002C8 8B05                   BF          L1244




SH SERIES C/C++ Compiler (Ver. 6.0C)                                                                 08-Nov-2021 23:20:04  PAGE   13


SCT OFFSET   CODE       C LABEL     INSTRUCTION OPERAND    COMMENT

    000002CA 5151                   MOV.L       @(4,R5),R1
    000002CC D26C                   MOV.L       L1522+4,R2 ; __eqs
    000002CE 420B                   JSR         @R2
    000002D0 5061                   MOV.L       @(4,R6),R0
    000002D2 8800                   CMP/EQ      #0,R0
    000002D4 8B16                   BF          L1243
    000002D6              L1244:                            
    000002D6 564E                   MOV.L       @(56,R4),R6
    000002D8 5546                   MOV.L       @(24,R4),R5
    000002DA 6162                   MOV.L       @R6,R1
    000002DC D367                   MOV.L       L1522,R3   ; __nes
    000002DE 430B                   JSR         @R3
    000002E0 6052                   MOV.L       @R5,R0
    000002E2 8800                   CMP/EQ      #0,R0
    000002E4 8B05                   BF          L1246
    000002E6 5161                   MOV.L       @(4,R6),R1
    000002E8 D265                   MOV.L       L1522+4,R2 ; __eqs
    000002EA 420B                   JSR         @R2
    000002EC 5051                   MOV.L       @(4,R5),R0
    000002EE 8800                   CMP/EQ      #0,R0
    000002F0 8B08                   BF          L1243
    000002F2              L1246:                            
    000002F2 E048                   MOV         #72,R0
    000002F4 524E                   MOV.L       @(56,R4),R2
    000002F6 034E                   MOV.L       @(R0,R4),R3
    000002F8 6122                   MOV.L       @R2,R1
    000002FA 2312                   MOV.L       R1,@R3
    000002FC 034E                   MOV.L       @(R0,R4),R3
    000002FE 524E                   MOV.L       @(56,R4),R2
    00000300 5121                   MOV.L       @(4,R2),R1
    00000302 1311                   MOV.L       R1,@(4,R3)
    00000304              L1243:                            
    00000304 534E                   MOV.L       @(56,R4),R3
    00000306 E048                   MOV         #72,R0
    00000308 024E                   MOV.L       @(R0,R4),R2
    0000030A 6122                   MOV.L       @R2,R1
    0000030C 2312                   MOV.L       R1,@R3
    0000030E 534E                   MOV.L       @(56,R4),R3
    00000310 024E                   MOV.L       @(R0,R4),R2
    00000312 5121                   MOV.L       @(4,R2),R1
    00000314 1311                   MOV.L       R1,@(4,R3)
    00000316 A0A3                   BRA         L1247
    00000318 0009                   NOP
    0000031A              L1242:                            
    0000031A E048                   MOV         #72,R0
    0000031C 5546                   MOV.L       @(24,R4),R5
    0000031E 0E4E                   MOV.L       @(R0,R4),R14
    00000320 D356                   MOV.L       L1522,R3   ; __nes
    00000322 61E2                   MOV.L       @R14,R1
    00000324 430B                   JSR         @R3
    00000326 6052                   MOV.L       @R5,R0
    00000328 8800                   CMP/EQ      #0,R0
    0000032A 8B05                   BF          L1249
    0000032C 51E1                   MOV.L       @(4,R14),R1
    0000032E D254                   MOV.L       L1522+4,R2 ; __eqs
    00000330 420B                   JSR         @R2
    00000332 5051                   MOV.L       @(4,R5),R0




SH SERIES C/C++ Compiler (Ver. 6.0C)                                                                 08-Nov-2021 23:20:04  PAGE   14


SCT OFFSET   CODE       C LABEL     INSTRUCTION OPERAND    COMMENT

    00000334 8800                   CMP/EQ      #0,R0
    00000336 8B6A                   BF          L1248
    00000338              L1249:                            
    00000338 1FE1                   MOV.L       R14,@(4,R15)
    0000033A E044                   MOV         #68,R0
    0000033C D351                   MOV.L       L1522+8,R3 ; __adds
    0000033E 524E                   MOV.L       @(56,R4),R2
    00000340 1F25                   MOV.L       R2,@(20,R15)
    00000342 024E                   MOV.L       @(R0,R4),R2
    00000344 E048                   MOV         #72,R0
    00000346 022E                   MOV.L       @(R0,R2),R2
    00000348 1F24                   MOV.L       R2,@(16,R15)
    0000034A 6023                   MOV         R2,R0
    0000034C 51F5                   MOV.L       @(20,R15),R1
    0000034E 6112                   MOV.L       @R1,R1
    00000350 430B                   JSR         @R3
    00000352 6002                   MOV.L       @R0,R0
    00000354 1F03                   MOV.L       R0,@(12,R15)
    00000356 51F5                   MOV.L       @(20,R15),R1
    00000358 50F4                   MOV.L       @(16,R15),R0
    0000035A 5111                   MOV.L       @(4,R1),R1
    0000035C D349                   MOV.L       L1522+8,R3 ; __adds
    0000035E 430B                   JSR         @R3
    00000360 5001                   MOV.L       @(4,R0),R0
    00000362 61F3                   MOV         R15,R1
    00000364 D348                   MOV.L       L1522+12,R3; __quick_evn_mvn
    00000366 7160                   ADD         #96,R1
    00000368 1F02                   MOV.L       R0,@(8,R15)
    0000036A E058                   MOV         #88,R0
    0000036C 52F3                   MOV.L       @(12,R15),R2
    0000036E 0F26                   MOV.L       R2,@(R0,R15)
    00000370 52F2                   MOV.L       @(8,R15),R2
    00000372 E05C                   MOV         #92,R0
    00000374 0F26                   MOV.L       R2,@(R0,R15)
    00000376 62F3                   MOV         R15,R2
    00000378 7258                   ADD         #88,R2
    0000037A 430B                   JSR         @R3
    0000037C E008                   MOV         #8,R0
    0000037E 62F3                   MOV         R15,R2
    00000380 D33E                   MOV.L       L1522,R3   ; __nes
    00000382 7260                   ADD         #96,R2
    00000384 2F22                   MOV.L       R2,@R15
    00000386 6023                   MOV         R2,R0
    00000388 51F1                   MOV.L       @(4,R15),R1
    0000038A 6112                   MOV.L       @R1,R1
    0000038C 430B                   JSR         @R3
    0000038E 6002                   MOV.L       @R0,R0
    00000390 8800                   CMP/EQ      #0,R0
    00000392 8B3C                   BF          L1248
    00000394 51F1                   MOV.L       @(4,R15),R1
    00000396 60F2                   MOV.L       @R15,R0
    00000398 5111                   MOV.L       @(4,R1),R1
    0000039A D338                   MOV.L       L1522,R3   ; __nes
    0000039C 430B                   JSR         @R3
    0000039E 5001                   MOV.L       @(4,R0),R0
    000003A0 8800                   CMP/EQ      #0,R0
    000003A2 8B34                   BF          L1248




SH SERIES C/C++ Compiler (Ver. 6.0C)                                                                 08-Nov-2021 23:20:04  PAGE   15


SCT OFFSET   CODE       C LABEL     INSTRUCTION OPERAND    COMMENT

    000003A4 5E4E                   MOV.L       @(56,R4),R14
    000003A6 65F3                   MOV         R15,R5
    000003A8 5646                   MOV.L       @(24,R4),R6
    000003AA E048                   MOV         #72,R0
    000003AC D337                   MOV.L       L1522+16,R3; __subs
    000003AE 7528                   ADD         #40,R5
    000003B0 6162                   MOV.L       @R6,R1
    000003B2 0D4E                   MOV.L       @(R0,R4),R13
    000003B4 430B                   JSR         @R3
    000003B6 60D2                   MOV.L       @R13,R0
    000003B8 1F07                   MOV.L       R0,@(28,R15)
    000003BA 5161                   MOV.L       @(4,R6),R1
    000003BC D333                   MOV.L       L1522+16,R3; __subs
    000003BE 430B                   JSR         @R3
    000003C0 50D1                   MOV.L       @(4,R13),R0
    000003C2 61F3                   MOV         R15,R1
    000003C4 D330                   MOV.L       L1522+12,R3; __quick_evn_mvn
    000003C6 7140                   ADD         #64,R1
    000003C8 1F06                   MOV.L       R0,@(24,R15)
    000003CA 52F7                   MOV.L       @(28,R15),R2
    000003CC 1F2E                   MOV.L       R2,@(56,R15)
    000003CE 52F6                   MOV.L       @(24,R15),R2
    000003D0 1F2F                   MOV.L       R2,@(60,R15)
    000003D2 62F3                   MOV         R15,R2
    000003D4 7238                   ADD         #56,R2
    000003D6 430B                   JSR         @R3
    000003D8 E008                   MOV         #8,R0
    000003DA 67F3                   MOV         R15,R7
    000003DC 61E2                   MOV.L       @R14,R1
    000003DE 7740                   ADD         #64,R7
    000003E0 D228                   MOV.L       L1522+8,R2 ; __adds
    000003E2 420B                   JSR         @R2
    000003E4 6072                   MOV.L       @R7,R0
    000003E6 1F09                   MOV.L       R0,@(36,R15)
    000003E8 51E1                   MOV.L       @(4,R14),R1
    000003EA D226                   MOV.L       L1522+8,R2 ; __adds
    000003EC 420B                   JSR         @R2
    000003EE 5071                   MOV.L       @(4,R7),R0
    000003F0 1F08                   MOV.L       R0,@(32,R15)
    000003F2 6153                   MOV         R5,R1
    000003F4 D324                   MOV.L       L1522+12,R3; __quick_evn_mvn
    000003F6 52F9                   MOV.L       @(36,R15),R2
    000003F8 1F2C                   MOV.L       R2,@(48,R15)
    000003FA 52F8                   MOV.L       @(32,R15),R2
    000003FC 1F2D                   MOV.L       R2,@(52,R15)
    000003FE 62F3                   MOV         R15,R2
    00000400 7230                   ADD         #48,R2
    00000402 430B                   JSR         @R3
    00000404 E008                   MOV         #8,R0
    00000406 6252                   MOV.L       @R5,R2
    00000408 2E22                   MOV.L       R2,@R14
    0000040A 5351                   MOV.L       @(4,R5),R3
    0000040C 1E31                   MOV.L       R3,@(4,R14)
    0000040E              L1248:                            
    0000040E E048                   MOV         #72,R0
    00000410 524E                   MOV.L       @(56,R4),R2
    00000412 66F3                   MOV         R15,R6




SH SERIES C/C++ Compiler (Ver. 6.0C)                                                                 08-Nov-2021 23:20:04  PAGE   16


SCT OFFSET   CODE       C LABEL     INSTRUCTION OPERAND    COMMENT

    00000414 D31B                   MOV.L       L1522+8,R3 ; __adds
    00000416 7648                   ADD         #72,R6
    00000418 054E                   MOV.L       @(R0,R4),R5
    0000041A E044                   MOV         #68,R0
    0000041C 1F21                   MOV.L       R2,@(4,R15)
    0000041E 024E                   MOV.L       @(R0,R4),R2
    00000420 E048                   MOV         #72,R0
    00000422 022E                   MOV.L       @(R0,R2),R2
    00000424 2F22                   MOV.L       R2,@R15
    00000426 6023                   MOV         R2,R0
    00000428 51F1                   MOV.L       @(4,R15),R1
    0000042A 6112                   MOV.L       @R1,R1
    0000042C 430B                   JSR         @R3
    0000042E 6002                   MOV.L       @R0,R0
    00000430 1F03                   MOV.L       R0,@(12,R15)
    00000432 51F1                   MOV.L       @(4,R15),R1
    00000434 60F2                   MOV.L       @R15,R0
    00000436 5111                   MOV.L       @(4,R1),R1
    00000438 D312                   MOV.L       L1522+8,R3 ; __adds
    0000043A 430B                   JSR         @R3
    0000043C 5001                   MOV.L       @(4,R0),R0
    0000043E 6163                   MOV         R6,R1
    00000440 D311                   MOV.L       L1522+12,R3; __quick_evn_mvn
    00000442 1F02                   MOV.L       R0,@(8,R15)
    00000444 52F3                   MOV.L       @(12,R15),R2
    00000446 E050                   MOV         #80,R0
    00000448 0F26                   MOV.L       R2,@(R0,R15)
    0000044A E054                   MOV         #84,R0
    0000044C 52F2                   MOV.L       @(8,R15),R2
    0000044E 0F26                   MOV.L       R2,@(R0,R15)
    00000450 62F3                   MOV         R15,R2
    00000452 7250                   ADD         #80,R2
    00000454 430B                   JSR         @R3
    00000456 E008                   MOV         #8,R0
    00000458 6262                   MOV.L       @R6,R2
    0000045A 2522                   MOV.L       R2,@R5
    0000045C 5361                   MOV.L       @(4,R6),R3
    0000045E 1531                   MOV.L       R3,@(4,R5)
    00000460              L1247:                            
    00000460 5246                   MOV.L       @(24,R4),R2
    00000462 E048                   MOV         #72,R0
    00000464 034E                   MOV.L       @(R0,R4),R3
    00000466 6132                   MOV.L       @R3,R1
    00000468 2212                   MOV.L       R1,@R2
    0000046A 5346                   MOV.L       @(24,R4),R3
    0000046C 024E                   MOV.L       @(R0,R4),R2
    0000046E 5121                   MOV.L       @(4,R2),R1
    00000470 1311                   MOV.L       R1,@(4,R3)
    00000472 7F68                   ADD         #104,R15
    00000474 4F26                   LDS.L       @R15+,PR
    00000476 6DF6                   MOV.L       @R15+,R13
    00000478 000B                   RTS
    0000047A 6EF6                   MOV.L       @R15+,R14
    0000047C              L1522:                            
    0000047C <00000000>             .DATA.L     __nes
    00000480 <00000000>             .DATA.L     __eqs
    00000484 <00000000>             .DATA.L     __adds




SH SERIES C/C++ Compiler (Ver. 6.0C)                                                                 08-Nov-2021 23:20:04  PAGE   17


SCT OFFSET   CODE       C LABEL     INSTRUCTION OPERAND    COMMENT

    00000488 <00000000>             .DATA.L     __quick_evn_mvn
    0000048C <00000000>             .DATA.L     __subs
    00000490              __$IsActive__10GameObjectFv:     ; function: GameObject::IsActive()
                                                           ; frame size=8
    00000490 7FF8                   ADD         #-8,R15
    00000492 5347                   MOV.L       @(28,R4),R3
    00000494 2338                   TST         R3,R3
    00000496 8910                   BT          L949
    00000498 524D                   MOV.L       @(52,R4),R2
    0000049A E044                   MOV         #68,R0
    0000049C 032E                   MOV.L       @(R0,R2),R3
    0000049E 2338                   TST         R3,R3
    000004A0 890D                   BT          L1253
    000004A2 E044                   MOV         #68,R0
    000004A4 554D                   MOV.L       @(52,R4),R5
    000004A6 2F52                   MOV.L       R5,@R15
    000004A8 055E                   MOV.L       @(R0,R5),R5
    000004AA 1F51                   MOV.L       R5,@(4,R15)
    000004AC 5554                   MOV.L       @(16,R5),R5
    000004AE 5356                   MOV.L       @(24,R5),R3
    000004B0 2338                   TST         R3,R3
    000004B2 8902                   BT          L949
    000004B4 5357                   MOV.L       @(28,R5),R3
    000004B6 2338                   TST         R3,R3
    000004B8 8B01                   BF          L1253
    000004BA              L949:
    000004BA A001                   BRA         L1511
    000004BC E500                   MOV         #0,R5
    000004BE              L1253:                            
    000004BE E501                   MOV         #1,R5
    000004C0              L1511:                            
    000004C0 1456                   MOV.L       R5,@(24,R4)
    000004C2 6053                   MOV         R5,R0
    000004C4 000B                   RTS
    000004C6 7F08                   ADD         #8,R15
    000004C8              __$Update__10GameObjectFv:       ; function: GameObject::Update()
                                                           ; frame size=28
    000004C8 2FE6                   MOV.L       R14,@-R15
    000004CA 6E43                   MOV         R4,R14
    000004CC 2FD6                   MOV.L       R13,@-R15
    000004CE 2FC6                   MOV.L       R12,@-R15
    000004D0 2FB6                   MOV.L       R11,@-R15
    000004D2 2FA6                   MOV.L       R10,@-R15
    000004D4 4F22                   STS.L       PR,@-R15
    000004D6 7FFC                   ADD         #-4,R15
    000004D8 9B6C                   MOV.W       L1523,R11  ; H'0354
    000004DA 5DED                   MOV.L       @(52,R14),R13
    000004DC 2FD2                   MOV.L       R13,@R15
    000004DE 5DD2                   MOV.L       @(8,R13),R13
    000004E0 64F2                   MOV.L       @R15,R4
    000004E2 3DBC                   ADD         R11,R13
    000004E4 53D2                   MOV.L       @(8,R13),R3
    000004E6 62D2                   MOV.L       @R13,R2
    000004E8 430B                   JSR         @R3
    000004EA 342C                   ADD         R2,R4
    000004EC BFD0                   BSR         __$IsActive__10GameObjectFv
    000004EE 64E3                   MOV         R14,R4




SH SERIES C/C++ Compiler (Ver. 6.0C)                                                                 08-Nov-2021 23:20:04  PAGE   18


SCT OFFSET   CODE       C LABEL     INSTRUCTION OPERAND    COMMENT

    000004F0 2008                   TST         R0,R0
    000004F2 8910                   BT          L1257
    000004F4 A00C                   BRA         L1258
    000004F6 ED00                   MOV         #0,R13
    000004F8              L1259:                            
    000004F8 65D3                   MOV         R13,R5
    000004FA 64E3                   MOV         R14,R4
    000004FC B071                   BSR         __$get__24List__tm__12_P9ComponentFi_Z1Z
    000004FE 740C                   ADD         #12,R4
    00000500 5C02                   MOV.L       @(8,R0),R12
    00000502 6A03                   MOV         R0,R10
    00000504 3CBC                   ADD         R11,R12
    00000506 53C2                   MOV.L       @(8,R12),R3
    00000508 64C2                   MOV.L       @R12,R4
    0000050A 430B                   JSR         @R3
    0000050C 34AC                   ADD         R10,R4
    0000050E 7D01                   ADD         #1,R13
    00000510              L1258:                            
    00000510 52E5                   MOV.L       @(20,R14),R2
    00000512 3D23                   CMP/GE      R2,R13
    00000514 8BF0                   BF          L1259
    00000516              L1257:                            
    00000516 7F04                   ADD         #4,R15
    00000518 4F26                   LDS.L       @R15+,PR
    0000051A 6AF6                   MOV.L       @R15+,R10
    0000051C 6BF6                   MOV.L       @R15+,R11
    0000051E 6CF6                   MOV.L       @R15+,R12
    00000520 6DF6                   MOV.L       @R15+,R13
    00000522 000B                   RTS
    00000524 6EF6                   MOV.L       @R15+,R14
    00000526              __$Start__10GameObjectFv:        ; function: GameObject::Start()
                                                           ; frame size=28
    00000526 2FE6                   MOV.L       R14,@-R15
    00000528 2FD6                   MOV.L       R13,@-R15
    0000052A 6E43                   MOV         R4,R14
    0000052C 2FC6                   MOV.L       R12,@-R15
    0000052E 2FB6                   MOV.L       R11,@-R15
    00000530 2FA6                   MOV.L       R10,@-R15
    00000532 4F22                   STS.L       PR,@-R15
    00000534 9B3F                   MOV.W       L1523+2,R11; H'0348
    00000536 7FFC                   ADD         #-4,R15
    00000538 5DED                   MOV.L       @(52,R14),R13
    0000053A 2FD2                   MOV.L       R13,@R15
    0000053C 5DD2                   MOV.L       @(8,R13),R13
    0000053E 3DBC                   ADD         R11,R13
    00000540 53D2                   MOV.L       @(8,R13),R3
    00000542 62D2                   MOV.L       @R13,R2
    00000544 64F2                   MOV.L       @R15,R4
    00000546 430B                   JSR         @R3
    00000548 342C                   ADD         R2,R4
    0000054A BFA1                   BSR         __$IsActive__10GameObjectFv
    0000054C 64E3                   MOV         R14,R4
    0000054E 2008                   TST         R0,R0
    00000550 8910                   BT          L1261
    00000552 A00C                   BRA         L1262
    00000554 ED00                   MOV         #0,R13
    00000556              L1263:                            




SH SERIES C/C++ Compiler (Ver. 6.0C)                                                                 08-Nov-2021 23:20:04  PAGE   19


SCT OFFSET   CODE       C LABEL     INSTRUCTION OPERAND    COMMENT

    00000556 65D3                   MOV         R13,R5
    00000558 64E3                   MOV         R14,R4
    0000055A B042                   BSR         __$get__24List__tm__12_P9ComponentFi_Z1Z
    0000055C 740C                   ADD         #12,R4
    0000055E 6A03                   MOV         R0,R10
    00000560 5C02                   MOV.L       @(8,R0),R12
    00000562 3CBC                   ADD         R11,R12
    00000564 53C2                   MOV.L       @(8,R12),R3
    00000566 64C2                   MOV.L       @R12,R4
    00000568 430B                   JSR         @R3
    0000056A 34AC                   ADD         R10,R4
    0000056C 7D01                   ADD         #1,R13
    0000056E              L1262:                            
    0000056E 52E5                   MOV.L       @(20,R14),R2
    00000570 3D23                   CMP/GE      R2,R13
    00000572 8BF0                   BF          L1263
    00000574              L1261:                            
    00000574 7F04                   ADD         #4,R15
    00000576 4F26                   LDS.L       @R15+,PR
    00000578 6AF6                   MOV.L       @R15+,R10
    0000057A 6BF6                   MOV.L       @R15+,R11
    0000057C 6CF6                   MOV.L       @R15+,R12
    0000057E 6DF6                   MOV.L       @R15+,R13
    00000580 000B                   RTS
    00000582 6EF6                   MOV.L       @R15+,R14
    00000584              __$GetComponent__10GameObjectFPCc:
                                                           ; function: GameObject::GetComponent(const char *)
                                                           ; frame size=16
    00000584 2FE6                   MOV.L       R14,@-R15
    00000586 2FD6                   MOV.L       R13,@-R15
    00000588 4F22                   STS.L       PR,@-R15
    0000058A 6D43                   MOV         R4,R13
    0000058C 7FFC                   ADD         #-4,R15
    0000058E 2F52                   MOV.L       R5,@R15
    00000590 A013                   BRA         L1264
    00000592 EE00                   MOV         #0,R14
    00000594              L1265:                            
    00000594 65E3                   MOV         R14,R5
    00000596 64D3                   MOV         R13,R4
    00000598 B023                   BSR         __$get__24List__tm__12_P9ComponentFi_Z1Z
    0000059A 740C                   ADD         #12,R4
    0000059C 63F2                   MOV.L       @R15,R3
    0000059E 6202                   MOV.L       @R0,R2
    000005A0 3230                   CMP/EQ      R3,R2
    000005A2 8B09                   BF          L1266
    000005A4 65E3                   MOV         R14,R5
    000005A6 64D3                   MOV         R13,R4
    000005A8 740C                   ADD         #12,R4
    000005AA 7F04                   ADD         #4,R15
    000005AC 4F26                   LDS.L       @R15+,PR
    000005AE 6DF6                   MOV.L       @R15+,R13
    000005B0 A017                   BRA         __$get__24List__tm__12_P9ComponentFi_Z1Z
    000005B2 6EF6                   MOV.L       @R15+,R14
    000005B4              L1523:                            
    000005B4 0354                   .DATA.W     H'0354
    000005B6 0348                   .DATA.W     H'0348
    000005B8              L1266:                            




SH SERIES C/C++ Compiler (Ver. 6.0C)                                                                 08-Nov-2021 23:20:04  PAGE   20


SCT OFFSET   CODE       C LABEL     INSTRUCTION OPERAND    COMMENT

    000005B8 7E01                   ADD         #1,R14
    000005BA              L1264:                            
    000005BA 52D5                   MOV.L       @(20,R13),R2
    000005BC 3E23                   CMP/GE      R2,R14
    000005BE 8BE9                   BF          L1265
    000005C0 E000                   MOV         #0,R0
    000005C2 7F04                   ADD         #4,R15
    000005C4 4F26                   LDS.L       @R15+,PR
    000005C6 6DF6                   MOV.L       @R15+,R13
    000005C8 000B                   RTS
    000005CA 6EF6                   MOV.L       @R15+,R14
    000005CC              __$get_node__24List__tm__12_P9ComponentFi_P15Node__tm__4_Z1Z:
                                                           ; function: Node<T1> *List<T1>::get_node(int) [with T1=Component *]
                                                           ; frame size=0
    000005CC E700                   MOV         #0,R7
    000005CE A002                   BRA         L1268
    000005D0 6642                   MOV.L       @R4,R6
    000005D2              L1269:                            
    000005D2 7701                   ADD         #1,R7
    000005D4 5661                   MOV.L       @(4,R6),R6
    000005D6              L1268:                            
    000005D6 2668                   TST         R6,R6
    000005D8 8901                   BT          L1270
    000005DA 3750                   CMP/EQ      R5,R7
    000005DC 8BF9                   BF          L1269
    000005DE              L1270:                            
    000005DE 000B                   RTS
    000005E0 6063                   MOV         R6,R0
    000005E2              __$get__24List__tm__12_P9ComponentFi_Z1Z:
                                                           ; function: T1 List<T1>::get(int) [with T1=Component *]
                                                           ; frame size=4
    000005E2 E3FF                   MOV         #-1,R3
    000005E4 4F22                   STS.L       PR,@-R15
    000005E6 3533                   CMP/GE      R3,R5
    000005E8 8B04                   BF          L950
    000005EA BFEF                   BSR         __$get_node__24List__tm__12_P9ComponentFi_P15Node__tm__4_Z1Z
    000005EC 0009                   NOP
    000005EE 6403                   MOV         R0,R4
    000005F0 2448                   TST         R4,R4
    000005F2 8B02                   BF          L1274
    000005F4              L950:
    000005F4 4F26                   LDS.L       @R15+,PR
    000005F6 000B                   RTS
    000005F8 E000                   MOV         #0,R0
    000005FA              L1274:                            
    000005FA 6042                   MOV.L       @R4,R0
    000005FC              L1273:                            
    000005FC 4F26                   LDS.L       @R15+,PR
    000005FE 000B                   RTS
    00000600 0009                   NOP
    00000602              __$Update__5SceneFv:             ; function: Scene::Update()
                                                           ; frame size=12
    00000602 2FE6                   MOV.L       R14,@-R15
    00000604 2FD6                   MOV.L       R13,@-R15
    00000606 6D43                   MOV         R4,R13
    00000608 4F22                   STS.L       PR,@-R15
    0000060A A006                   BRA         L1275




SH SERIES C/C++ Compiler (Ver. 6.0C)                                                                 08-Nov-2021 23:20:04  PAGE   21


SCT OFFSET   CODE       C LABEL     INSTRUCTION OPERAND    COMMENT

    0000060C EE00                   MOV         #0,R14
    0000060E              L1276:                            
    0000060E 65E3                   MOV         R14,R5
    00000610 B028                   BSR         __$get__26List__tm__14_P10GameObjectFi_Z1Z
    00000612 64D3                   MOV         R13,R4
    00000614 BF58                   BSR         __$Update__10GameObjectFv
    00000616 6403                   MOV         R0,R4
    00000618 7E01                   ADD         #1,R14
    0000061A              L1275:                            
    0000061A 52D2                   MOV.L       @(8,R13),R2
    0000061C 3E23                   CMP/GE      R2,R14
    0000061E 8BF6                   BF          L1276
    00000620 4F26                   LDS.L       @R15+,PR
    00000622 6DF6                   MOV.L       @R15+,R13
    00000624 000B                   RTS
    00000626 6EF6                   MOV.L       @R15+,R14
    00000628              __$Start__5SceneFv:              ; function: Scene::Start()
                                                           ; frame size=12
    00000628 2FE6                   MOV.L       R14,@-R15
    0000062A 2FD6                   MOV.L       R13,@-R15
    0000062C 4F22                   STS.L       PR,@-R15
    0000062E 6D43                   MOV         R4,R13
    00000630 A006                   BRA         L1278
    00000632 EE00                   MOV         #0,R14
    00000634              L1279:                            
    00000634 65E3                   MOV         R14,R5
    00000636 B015                   BSR         __$get__26List__tm__14_P10GameObjectFi_Z1Z
    00000638 64D3                   MOV         R13,R4
    0000063A BF74                   BSR         __$Start__10GameObjectFv
    0000063C 6403                   MOV         R0,R4
    0000063E 7E01                   ADD         #1,R14
    00000640              L1278:                            
    00000640 52D2                   MOV.L       @(8,R13),R2
    00000642 3E23                   CMP/GE      R2,R14
    00000644 8BF6                   BF          L1279
    00000646 4F26                   LDS.L       @R15+,PR
    00000648 6DF6                   MOV.L       @R15+,R13
    0000064A 000B                   RTS
    0000064C 6EF6                   MOV.L       @R15+,R14
    0000064E              __$get_node__26List__tm__14_P10GameObjectFi_P15Node__tm__4_Z1Z:
                                                           ; function: Node<T1> *List<T1>::get_node(int) [with T1=GameObject *]
                                                           ; frame size=0
    0000064E E700                   MOV         #0,R7
    00000650 A002                   BRA         L1281
    00000652 6642                   MOV.L       @R4,R6
    00000654              L1282:                            
    00000654 5661                   MOV.L       @(4,R6),R6
    00000656 7701                   ADD         #1,R7
    00000658              L1281:                            
    00000658 2668                   TST         R6,R6
    0000065A 8901                   BT          L1283
    0000065C 3750                   CMP/EQ      R5,R7
    0000065E 8BF9                   BF          L1282
    00000660              L1283:                            
    00000660 000B                   RTS
    00000662 6063                   MOV         R6,R0
    00000664              __$get__26List__tm__14_P10GameObjectFi_Z1Z:




SH SERIES C/C++ Compiler (Ver. 6.0C)                                                                 08-Nov-2021 23:20:04  PAGE   22


SCT OFFSET   CODE       C LABEL     INSTRUCTION OPERAND    COMMENT

                                                           ; function: T1 List<T1>::get(int) [with T1=GameObject *]
                                                           ; frame size=4
    00000664 4F22                   STS.L       PR,@-R15
    00000666 E3FF                   MOV         #-1,R3
    00000668 3533                   CMP/GE      R3,R5
    0000066A 8B04                   BF          L951
    0000066C BFEF                   BSR         __$get_node__26List__tm__14_P10GameObjectFi_P15Node__tm__4_Z1Z
    0000066E 0009                   NOP
    00000670 6403                   MOV         R0,R4
    00000672 2448                   TST         R4,R4
    00000674 8B02                   BF          L1287
    00000676              L951:
    00000676 4F26                   LDS.L       @R15+,PR
    00000678 000B                   RTS
    0000067A E000                   MOV         #0,R0
    0000067C              L1287:                            
    0000067C 6042                   MOV.L       @R4,R0
    0000067E              L1286:                            
    0000067E 4F26                   LDS.L       @R15+,PR
    00000680 000B                   RTS
    00000682 0009                   NOP
    00000684              __$get_node__20List__tm__9_P6CameraFi_P15Node__tm__4_Z1Z:
                                                           ; function: Node<T1> *List<T1>::get_node(int) [with T1=Camera *]
                                                           ; frame size=0
    00000684 E700                   MOV         #0,R7
    00000686 A002                   BRA         L1288
    00000688 6642                   MOV.L       @R4,R6
    0000068A              L1289:                            
    0000068A 7701                   ADD         #1,R7
    0000068C 5661                   MOV.L       @(4,R6),R6
    0000068E              L1288:                            
    0000068E 2668                   TST         R6,R6
    00000690 8901                   BT          L1290
    00000692 3750                   CMP/EQ      R5,R7
    00000694 8BF9                   BF          L1289
    00000696              L1290:                            
    00000696 000B                   RTS
    00000698 6063                   MOV         R6,R0
    0000069A              __$get__20List__tm__9_P6CameraFi_Z1Z:
                                                           ; function: T1 List<T1>::get(int) [with T1=Camera *]
                                                           ; frame size=4
    0000069A E3FF                   MOV         #-1,R3
    0000069C 4F22                   STS.L       PR,@-R15
    0000069E 3533                   CMP/GE      R3,R5
    000006A0 8B04                   BF          L952
    000006A2 BFEF                   BSR         __$get_node__20List__tm__9_P6CameraFi_P15Node__tm__4_Z1Z
    000006A4 0009                   NOP
    000006A6 6403                   MOV         R0,R4
    000006A8 2448                   TST         R4,R4
    000006AA 8B02                   BF          L1294
    000006AC              L952:
    000006AC 4F26                   LDS.L       @R15+,PR
    000006AE 000B                   RTS
    000006B0 E000                   MOV         #0,R0
    000006B2              L1294:                            
    000006B2 6042                   MOV.L       @R4,R0
    000006B4              L1293:                            




SH SERIES C/C++ Compiler (Ver. 6.0C)                                                                 08-Nov-2021 23:20:04  PAGE   23


SCT OFFSET   CODE       C LABEL     INSTRUCTION OPERAND    COMMENT

    000006B4 4F26                   LDS.L       @R15+,PR
    000006B6 000B                   RTS
    000006B8 0009                   NOP
    000006BA              __$Update__6SpriteFv:            ; function: Sprite::Update()
                                                           ; frame size=44
                                                           ; used runtime library name:
                                                           ; __adds, __subs, __stoi, __itos, __gts, __lts
    000006BA E048                   MOV         #72,R0
    000006BC 2FE6                   MOV.L       R14,@-R15
    000006BE E500                   MOV         #0,R5
    000006C0 2FD6                   MOV.L       R13,@-R15
    000006C2 6E43                   MOV         R4,R14
    000006C4 2FC6                   MOV.L       R12,@-R15
    000006C6 2FB6                   MOV.L       R11,@-R15
    000006C8 2FA6                   MOV.L       R10,@-R15
    000006CA 4F22                   STS.L       PR,@-R15
    000006CC 7FF0                   ADD         #-16,R15
    000006CE 54E4                   MOV.L       @(16,R14),R4
    000006D0 1F41                   MOV.L       R4,@(4,R15)
    000006D2 544D                   MOV.L       @(52,R4),R4
    000006D4 1F42                   MOV.L       R4,@(8,R15)
    000006D6 044E                   MOV.L       @(R0,R4),R4
    000006D8 6342                   MOV.L       @R4,R3
    000006DA 1F33                   MOV.L       R3,@(12,R15)
    000006DC 5C41                   MOV.L       @(4,R4),R12
    000006DE 53F1                   MOV.L       @(4,R15),R3
    000006E0 513A                   MOV.L       @(40,R3),R1
    000006E2 7124                   ADD         #36,R1
    000006E4 2F12                   MOV.L       R1,@R15
    000006E6 BFD8                   BSR         __$get__20List__tm__9_P6CameraFi_Z1Z
    000006E8 6413                   MOV         R1,R4
    000006EA E500                   MOV         #0,R5
    000006EC 5204                   MOV.L       @(16,R0),R2
    000006EE E048                   MOV         #72,R0
    000006F0 532D                   MOV.L       @(52,R2),R3
    000006F2 013E                   MOV.L       @(R0,R3),R1
    000006F4 6212                   MOV.L       @R1,R2
    000006F6 1F21                   MOV.L       R2,@(4,R15)
    000006F8 5DE4                   MOV.L       @(16,R14),R13
    000006FA 5DDA                   MOV.L       @(40,R13),R13
    000006FC 7D24                   ADD         #36,R13
    000006FE 2FD2                   MOV.L       R13,@R15
    00000700 BFCB                   BSR         __$get__20List__tm__9_P6CameraFi_Z1Z
    00000702 64D3                   MOV         R13,R4
    00000704 5D04                   MOV.L       @(16,R0),R13
    00000706 E048                   MOV         #72,R0
    00000708 51F3                   MOV.L       @(12,R15),R1
    0000070A 5DDD                   MOV.L       @(52,R13),R13
    0000070C D342                   MOV.L       L1524+2,R3 ; __subs
    0000070E 0DDE                   MOV.L       @(R0,R13),R13
    00000710 5DD1                   MOV.L       @(4,R13),R13
    00000712 430B                   JSR         @R3
    00000714 50F1                   MOV.L       @(4,R15),R0
    00000716 6B03                   MOV         R0,R11
    00000718 D340                   MOV.L       L1524+6,R3 ; __itos
    0000071A 50E9                   MOV.L       @(36,R14),R0
    0000071C 430B                   JSR         @R3




SH SERIES C/C++ Compiler (Ver. 6.0C)                                                                 08-Nov-2021 23:20:04  PAGE   24


SCT OFFSET   CODE       C LABEL     INSTRUCTION OPERAND    COMMENT

    0000071E 5006                   MOV.L       @(24,R0),R0
    00000720 D23F                   MOV.L       L1524+10,R2; __adds
    00000722 6403                   MOV         R0,R4
    00000724 420B                   JSR         @R2
    00000726 61B3                   MOV         R11,R1
    00000728 D33E                   MOV.L       L1524+14,R3; __lts
    0000072A 430B                   JSR         @R3
    0000072C E100                   MOV         #0,R1
    0000072E 8800                   CMP/EQ      #0,R0
    00000730 8930                   BT          L1296
    00000732 D03D                   MOV.L       L1524+18,R0; H'43000000
    00000734 D23B                   MOV.L       L1524+14,R2; __lts
    00000736 420B                   JSR         @R2
    00000738 61B3                   MOV         R11,R1
    0000073A 8800                   CMP/EQ      #0,R0
    0000073C 892A                   BT          L1296
    0000073E 6143                   MOV         R4,R1
    00000740 D337                   MOV.L       L1524+10,R3; __adds
    00000742 430B                   JSR         @R3
    00000744 60C3                   MOV         R12,R0
    00000746 6103                   MOV         R0,R1
    00000748 D233                   MOV.L       L1524+2,R2 ; __subs
    0000074A 420B                   JSR         @R2
    0000074C 60D3                   MOV         R13,R0
    0000074E D335                   MOV.L       L1524+14,R3; __lts
    00000750 430B                   JSR         @R3
    00000752 E100                   MOV         #0,R1
    00000754 8800                   CMP/EQ      #0,R0
    00000756 891D                   BT          L1296
    00000758 D22F                   MOV.L       L1524+2,R2 ; __subs
    0000075A 61C3                   MOV         R12,R1
    0000075C 420B                   JSR         @R2
    0000075E 60D3                   MOV         R13,R0
    00000760 D132                   MOV.L       L1524+22,R1; H'42800000
    00000762 D333                   MOV.L       L1524+26,R3; __gts
    00000764 430B                   JSR         @R3
    00000766 0009                   NOP
    00000768 8800                   CMP/EQ      #0,R0
    0000076A 8913                   BT          L1296
    0000076C 5AE9                   MOV.L       @(36,R14),R10
    0000076E 61C3                   MOV         R12,R1
    00000770 D329                   MOV.L       L1524+2,R3 ; __subs
    00000772 52A6                   MOV.L       @(24,R10),R2
    00000774 2F26                   MOV.L       R2,@-R15
    00000776 57A8                   MOV.L       @(32,R10),R7
    00000778 430B                   JSR         @R3
    0000077A 60D3                   MOV         R13,R0
    0000077C D22D                   MOV.L       L1524+30,R2; __stoi
    0000077E 420B                   JSR         @R2
    00000780 0009                   NOP
    00000782 6603                   MOV         R0,R6
    00000784 D32B                   MOV.L       L1524+30,R3; __stoi
    00000786 430B                   JSR         @R3
    00000788 60B3                   MOV         R11,R0
    0000078A 6503                   MOV         R0,R5
    0000078C D22A                   MOV.L       L1524+34,R2; _ML_bmp_or_cl
    0000078E 420B                   JSR         @R2




SH SERIES C/C++ Compiler (Ver. 6.0C)                                                                 08-Nov-2021 23:20:04  PAGE   25


SCT OFFSET   CODE       C LABEL     INSTRUCTION OPERAND    COMMENT

    00000790 54A3                   MOV.L       @(12,R10),R4
    00000792 7F04                   ADD         #4,R15
    00000794              L1296:                            
    00000794 7F10                   ADD         #16,R15
    00000796 4F26                   LDS.L       @R15+,PR
    00000798 6AF6                   MOV.L       @R15+,R10
    0000079A 6BF6                   MOV.L       @R15+,R11
    0000079C 6CF6                   MOV.L       @R15+,R12
    0000079E 6DF6                   MOV.L       @R15+,R13
    000007A0 000B                   RTS
    000007A2 6EF6                   MOV.L       @R15+,R14
    000007A4              __$Update__7TilemapFv:           ; function: Tilemap::Update()
                                                           ; frame size=56
                                                           ; used runtime library name:
                                                           ; __adds, __subs, __muls, __stoi, __itos, __gts, __lts
    000007A4 2FE6                   MOV.L       R14,@-R15
    000007A6 E048                   MOV         #72,R0
    000007A8 2FD6                   MOV.L       R13,@-R15
    000007AA 6E43                   MOV         R4,R14
    000007AC 2FC6                   MOV.L       R12,@-R15
    000007AE E500                   MOV         #0,R5
    000007B0 2FB6                   MOV.L       R11,@-R15
    000007B2 2FA6                   MOV.L       R10,@-R15
    000007B4 2F96                   MOV.L       R9,@-R15
    000007B6 2F86                   MOV.L       R8,@-R15
    000007B8 4F22                   STS.L       PR,@-R15
    000007BA 7FEC                   ADD         #-20,R15
    000007BC 54E4                   MOV.L       @(16,R14),R4
    000007BE 2F42                   MOV.L       R4,@R15
    000007C0 544D                   MOV.L       @(52,R4),R4
    000007C2 1F43                   MOV.L       R4,@(12,R15)
    000007C4 044E                   MOV.L       @(R0,R4),R4
    000007C6 6342                   MOV.L       @R4,R3
    000007C8 1F31                   MOV.L       R3,@(4,R15)
    000007CA 5241                   MOV.L       @(4,R4),R2
    000007CC 1F24                   MOV.L       R2,@(16,R15)
    000007CE 63F2                   MOV.L       @R15,R3
    000007D0 513A                   MOV.L       @(40,R3),R1
    000007D2 7124                   ADD         #36,R1
    000007D4 1F12                   MOV.L       R1,@(8,R15)
    000007D6 BF60                   BSR         __$get__20List__tm__9_P6CameraFi_Z1Z
    000007D8 6413                   MOV         R1,R4
    000007DA E500                   MOV         #0,R5
    000007DC 5204                   MOV.L       @(16,R0),R2
    000007DE E048                   MOV         #72,R0
    000007E0 532D                   MOV.L       @(52,R2),R3
    000007E2 013E                   MOV.L       @(R0,R3),R1
    000007E4 6212                   MOV.L       @R1,R2
    000007E6 2F22                   MOV.L       R2,@R15
    000007E8 53E4                   MOV.L       @(16,R14),R3
    000007EA 513A                   MOV.L       @(40,R3),R1
    000007EC 7124                   ADD         #36,R1
    000007EE 1F12                   MOV.L       R1,@(8,R15)
    000007F0 BF53                   BSR         __$get__20List__tm__9_P6CameraFi_Z1Z
    000007F2 6413                   MOV         R1,R4
    000007F4 5204                   MOV.L       @(16,R0),R2
    000007F6 EC00                   MOV         #0,R12




SH SERIES C/C++ Compiler (Ver. 6.0C)                                                                 08-Nov-2021 23:20:04  PAGE   26


SCT OFFSET   CODE       C LABEL     INSTRUCTION OPERAND    COMMENT

    000007F8 532D                   MOV.L       @(52,R2),R3
    000007FA E048                   MOV         #72,R0
    000007FC 013E                   MOV.L       @(R0,R3),R1
    000007FE 5411                   MOV.L       @(4,R1),R4
    00000800 51F1                   MOV.L       @(4,R15),R1
    00000802 D305                   MOV.L       L1524+2,R3 ; __subs
    00000804 430B                   JSR         @R3
    00000806 60F2                   MOV.L       @R15,R0
    00000808 2F02                   MOV.L       R0,@R15
    0000080A 51F4                   MOV.L       @(16,R15),R1
    0000080C D302                   MOV.L       L1524+2,R3 ; __subs
    0000080E 430B                   JSR         @R3
    00000810 6043                   MOV         R4,R0
    00000812 A07E                   BRA         L1297
    00000814 1F01                   MOV.L       R0,@(4,R15)
    00000816              L1524:                            
    00000816 0000                   .DATA.W     0
    00000818 <00000000>             .DATA.L     __subs
    0000081C <00000000>             .DATA.L     __itos
    00000820 <00000000>             .DATA.L     __adds
    00000824 <00000000>             .DATA.L     __lts
    00000828 43000000               .DATA.L     H'43000000
    0000082C 42800000               .DATA.L     H'42800000
    00000830 <00000000>             .DATA.L     __gts
    00000834 <00000000>             .DATA.L     __stoi
    00000838 <00000000>             .DATA.L     _ML_bmp_or_cl
    0000083C              L1298:                            
    0000083C D23F                   MOV.L       L1525+4,R2 ; __itos
    0000083E EA00                   MOV         #0,R10
    00000840 420B                   JSR         @R2
    00000842 60C3                   MOV         R12,R0
    00000844 51EB                   MOV.L       @(44,R14),R1
    00000846 6903                   MOV         R0,R9
    00000848 D33D                   MOV.L       L1525+8,R3 ; __muls
    0000084A 430B                   JSR         @R3
    0000084C 6112                   MOV.L       @R1,R1
    0000084E D23D                   MOV.L       L1525+12,R2; __stoi
    00000850 420B                   JSR         @R2
    00000852 0009                   NOP
    00000854 D339                   MOV.L       L1525+4,R3 ; __itos
    00000856 6D03                   MOV         R0,R13
    00000858 60C3                   MOV         R12,R0
    0000085A 430B                   JSR         @R3
    0000085C 7001                   ADD         #1,R0
    0000085E A049                   BRA         L1299
    00000860 6803                   MOV         R0,R8
    00000862              L1300:                            
    00000862 D336                   MOV.L       L1525+4,R3 ; __itos
    00000864 430B                   JSR         @R3
    00000866 60A3                   MOV         R10,R0
    00000868 56EC                   MOV.L       @(48,R14),R6
    0000086A 6762                   MOV.L       @R6,R7
    0000086C D234                   MOV.L       L1525+8,R2 ; __muls
    0000086E 420B                   JSR         @R2
    00000870 6173                   MOV         R7,R1
    00000872 61F2                   MOV.L       @R15,R1
    00000874 D334                   MOV.L       L1525+16,R3; __adds




SH SERIES C/C++ Compiler (Ver. 6.0C)                                                                 08-Nov-2021 23:20:04  PAGE   27


SCT OFFSET   CODE       C LABEL     INSTRUCTION OPERAND    COMMENT

    00000876 430B                   JSR         @R3
    00000878 0009                   NOP
    0000087A D232                   MOV.L       L1525+12,R2; __stoi
    0000087C 420B                   JSR         @R2
    0000087E 0009                   NOP
    00000880 5461                   MOV.L       @(4,R6),R4
    00000882 6193                   MOV         R9,R1
    00000884 D32E                   MOV.L       L1525+8,R3 ; __muls
    00000886 6503                   MOV         R0,R5
    00000888 430B                   JSR         @R3
    0000088A 6043                   MOV         R4,R0
    0000088C 51F1                   MOV.L       @(4,R15),R1
    0000088E D22E                   MOV.L       L1525+16,R2; __adds
    00000890 420B                   JSR         @R2
    00000892 0009                   NOP
    00000894 D32B                   MOV.L       L1525+12,R3; __stoi
    00000896 430B                   JSR         @R3
    00000898 0009                   NOP
    0000089A 6603                   MOV         R0,R6
    0000089C D227                   MOV.L       L1525+4,R2 ; __itos
    0000089E 420B                   JSR         @R2
    000008A0 6053                   MOV         R5,R0
    000008A2 D329                   MOV.L       L1525+16,R3; __adds
    000008A4 430B                   JSR         @R3
    000008A6 6173                   MOV         R7,R1
    000008A8 D228                   MOV.L       L1525+20,R2; __lts
    000008AA 420B                   JSR         @R2
    000008AC E100                   MOV         #0,R1
    000008AE 8800                   CMP/EQ      #0,R0
    000008B0 891E                   BT          L1301
    000008B2 9341                   MOV.W       L1525,R3   ; H'0080
    000008B4 3533                   CMP/GE      R3,R5
    000008B6 891B                   BT          L1301
    000008B8 D120                   MOV.L       L1525+4,R1 ; __itos
    000008BA 410B                   JSR         @R1
    000008BC 6063                   MOV         R6,R0
    000008BE D222                   MOV.L       L1525+16,R2; __adds
    000008C0 420B                   JSR         @R2
    000008C2 6143                   MOV         R4,R1
    000008C4 D221                   MOV.L       L1525+20,R2; __lts
    000008C6 420B                   JSR         @R2
    000008C8 E100                   MOV         #0,R1
    000008CA 8800                   CMP/EQ      #0,R0
    000008CC 8910                   BT          L1301
    000008CE E240                   MOV         #64,R2
    000008D0 3623                   CMP/GE      R2,R6
    000008D2 890D                   BT          L1301
    000008D4 50EA                   MOV.L       @(40,R14),R0
    000008D6 6BD3                   MOV         R13,R11
    000008D8 D21D                   MOV.L       L1525+24,R2; _ML_bmp_or_cl
    000008DA 4B08                   SHLL2       R11
    000008DC 0BBE                   MOV.L       @(R0,R11),R11
    000008DE 4B08                   SHLL2       R11
    000008E0 50E9                   MOV.L       @(36,R14),R0
    000008E2 0BBE                   MOV.L       @(R0,R11),R11
    000008E4 53B6                   MOV.L       @(24,R11),R3
    000008E6 2F36                   MOV.L       R3,@-R15




SH SERIES C/C++ Compiler (Ver. 6.0C)                                                                 08-Nov-2021 23:20:04  PAGE   28


SCT OFFSET   CODE       C LABEL     INSTRUCTION OPERAND    COMMENT

    000008E8 57B8                   MOV.L       @(32,R11),R7
    000008EA 420B                   JSR         @R2
    000008EC 54B3                   MOV.L       @(12,R11),R4
    000008EE 7F04                   ADD         #4,R15
    000008F0              L1301:                            
    000008F0 7A01                   ADD         #1,R10
    000008F2 7D01                   ADD         #1,R13
    000008F4              L1299:                            
    000008F4 D311                   MOV.L       L1525+4,R3 ; __itos
    000008F6 430B                   JSR         @R3
    000008F8 60D3                   MOV         R13,R0
    000008FA 6203                   MOV         R0,R2
    000008FC 51EB                   MOV.L       @(44,R14),R1
    000008FE 6083                   MOV         R8,R0
    00000900 D30F                   MOV.L       L1525+8,R3 ; __muls
    00000902 430B                   JSR         @R3
    00000904 6112                   MOV.L       @R1,R1
    00000906 D311                   MOV.L       L1525+20,R3; __lts
    00000908 430B                   JSR         @R3
    0000090A 6123                   MOV         R2,R1
    0000090C 8800                   CMP/EQ      #0,R0
    0000090E 8BA8                   BF          L1300
    00000910 7C01                   ADD         #1,R12
    00000912              L1297:                            
    00000912 D20A                   MOV.L       L1525+4,R2 ; __itos
    00000914 420B                   JSR         @R2
    00000916 60C3                   MOV         R12,R0
    00000918 51EB                   MOV.L       @(44,R14),R1
    0000091A D30E                   MOV.L       L1525+28,R3; __gts
    0000091C 430B                   JSR         @R3
    0000091E 5111                   MOV.L       @(4,R1),R1
    00000920 8800                   CMP/EQ      #0,R0
    00000922 8B8B                   BF          L1298
    00000924 7F14                   ADD         #20,R15
    00000926 4F26                   LDS.L       @R15+,PR
    00000928 68F6                   MOV.L       @R15+,R8
    0000092A 69F6                   MOV.L       @R15+,R9
    0000092C 6AF6                   MOV.L       @R15+,R10
    0000092E 6BF6                   MOV.L       @R15+,R11
    00000930 6CF6                   MOV.L       @R15+,R12
    00000932 6DF6                   MOV.L       @R15+,R13
    00000934 000B                   RTS
    00000936 6EF6                   MOV.L       @R15+,R14
    00000938              L1525:                            
    00000938 0080                   .DATA.W     H'0080
    0000093A 0000                   .DATA.W     0
    0000093C <00000000>             .DATA.L     __itos
    00000940 <00000000>             .DATA.L     __muls
    00000944 <00000000>             .DATA.L     __stoi
    00000948 <00000000>             .DATA.L     __adds
    0000094C <00000000>             .DATA.L     __lts
    00000950 <00000000>             .DATA.L     _ML_bmp_or_cl
    00000954 <00000000>             .DATA.L     __gts
    00000958              __$Update__16PlayerControllerFv: ; function: PlayerController::Update()
                                                           ; frame size=76
                                                           ; used runtime library name:
                                                           ; __adds, __subs, __itos, __quick_evn_mvn




SH SERIES C/C++ Compiler (Ver. 6.0C)                                                                 08-Nov-2021 23:20:04  PAGE   29


SCT OFFSET   CODE       C LABEL     INSTRUCTION OPERAND    COMMENT

    00000958 2FE6                   MOV.L       R14,@-R15
    0000095A 6E43                   MOV         R4,R14
    0000095C 2FD6                   MOV.L       R13,@-R15
    0000095E 2FC6                   MOV.L       R12,@-R15
    00000960 2FB6                   MOV.L       R11,@-R15
    00000962 2FA6                   MOV.L       R10,@-R15
    00000964 2F96                   MOV.L       R9,@-R15
    00000966 4F22                   STS.L       PR,@-R15
    00000968 DC59                   MOV.L       L1526+2,R12; _KeyDown
    0000096A 7FD0                   ADD         #-48,R15
    0000096C DD59                   MOV.L       L1526+6,R13; L409
    0000096E 4C0B                   JSR         @R12
    00000970 E41C                   MOV         #28,R4
    00000972 600C                   EXTU.B      R0,R0
    00000974 2008                   TST         R0,R0
    00000976 8926                   BT          L1303
    00000978 53E4                   MOV.L       @(16,R14),R3
    0000097A E048                   MOV         #72,R0
    0000097C D256                   MOV.L       L1526+10,R2; __itos
    0000097E 533D                   MOV.L       @(52,R3),R3
    00000980 033E                   MOV.L       @(R0,R3),R3
    00000982 E058                   MOV         #88,R0
    00000984 00EE                   MOV.L       @(R0,R14),R0
    00000986 420B                   JSR         @R2
    00000988 600B                   NEG         R0,R0
    0000098A D254                   MOV.L       L1526+14,R2; __adds
    0000098C 420B                   JSR         @R2
    0000098E 5131                   MOV.L       @(4,R3),R1
    00000990 1301                   MOV.L       R0,@(4,R3)
    00000992 54E9                   MOV.L       @(36,R14),R4
    00000994 2448                   TST         R4,R4
    00000996 8902                   BT          L1305
    00000998 6043                   MOV         R4,R0
    0000099A 8802                   CMP/EQ      #2,R0
    0000099C 8B04                   BF          L1304
    0000099E              L1305:                            
    0000099E 65D3                   MOV         R13,R5
    000009A0 BDF0                   BSR         __$GetComponent__10GameObjectFPCc
    000009A2 54E4                   MOV.L       @(16,R14),R4
    000009A4 A091                   BRA         L1518
    000009A6 52ED                   MOV.L       @(52,R14),R2
    000009A8              L1304:                            
    000009A8 50E9                   MOV.L       @(36,R14),R0
    000009AA 8801                   CMP/EQ      #1,R0
    000009AC 8B05                   BF          L1307
    000009AE 65D3                   MOV         R13,R5
    000009B0 BDE8                   BSR         __$GetComponent__10GameObjectFPCc
    000009B2 54E4                   MOV.L       @(16,R14),R4
    000009B4 52EE                   MOV.L       @(56,R14),R2
    000009B6 A088                   BRA         L1518
    000009B8 0009                   NOP
    000009BA              L1307:                            
    000009BA 65D3                   MOV         R13,R5
    000009BC BDE2                   BSR         __$GetComponent__10GameObjectFPCc
    000009BE 54E4                   MOV.L       @(16,R14),R4
    000009C0 53EF                   MOV.L       @(60,R14),R3
    000009C2 A093                   BRA         L1309




SH SERIES C/C++ Compiler (Ver. 6.0C)                                                                 08-Nov-2021 23:20:04  PAGE   30


SCT OFFSET   CODE       C LABEL     INSTRUCTION OPERAND    COMMENT

    000009C4 1039                   MOV.L       R3,@(36,R0)
    000009C6              L1303:                            
    000009C6 4C0B                   JSR         @R12
    000009C8 E425                   MOV         #37,R4
    000009CA 600C                   EXTU.B      R0,R0
    000009CC 2008                   TST         R0,R0
    000009CE 8925                   BT          L1310
    000009D0 53E4                   MOV.L       @(16,R14),R3
    000009D2 E048                   MOV         #72,R0
    000009D4 D240                   MOV.L       L1526+10,R2; __itos
    000009D6 533D                   MOV.L       @(52,R3),R3
    000009D8 033E                   MOV.L       @(R0,R3),R3
    000009DA E058                   MOV         #88,R0
    000009DC 420B                   JSR         @R2
    000009DE 00EE                   MOV.L       @(R0,R14),R0
    000009E0 D23E                   MOV.L       L1526+14,R2; __adds
    000009E2 420B                   JSR         @R2
    000009E4 5131                   MOV.L       @(4,R3),R1
    000009E6 1301                   MOV.L       R0,@(4,R3)
    000009E8 54E9                   MOV.L       @(36,R14),R4
    000009EA 2448                   TST         R4,R4
    000009EC 8902                   BT          L1312
    000009EE 6043                   MOV         R4,R0
    000009F0 8802                   CMP/EQ      #2,R0
    000009F2 8B04                   BF          L1311
    000009F4              L1312:                            
    000009F4 65D3                   MOV         R13,R5
    000009F6 BDC5                   BSR         __$GetComponent__10GameObjectFPCc
    000009F8 54E4                   MOV.L       @(16,R14),R4
    000009FA A066                   BRA         L1518
    000009FC 52EA                   MOV.L       @(40,R14),R2
    000009FE              L1311:                            
    000009FE 50E9                   MOV.L       @(36,R14),R0
    00000A00 8801                   CMP/EQ      #1,R0
    00000A02 8B05                   BF          L1314
    00000A04 65D3                   MOV         R13,R5
    00000A06 BDBD                   BSR         __$GetComponent__10GameObjectFPCc
    00000A08 54E4                   MOV.L       @(16,R14),R4
    00000A0A 52EB                   MOV.L       @(44,R14),R2
    00000A0C A05D                   BRA         L1518
    00000A0E 0009                   NOP
    00000A10              L1314:                            
    00000A10 65D3                   MOV         R13,R5
    00000A12 BDB7                   BSR         __$GetComponent__10GameObjectFPCc
    00000A14 54E4                   MOV.L       @(16,R14),R4
    00000A16 53EC                   MOV.L       @(48,R14),R3
    00000A18 A068                   BRA         L1309
    00000A1A 1039                   MOV.L       R3,@(36,R0)
    00000A1C              L1310:                            
    00000A1C 4C0B                   JSR         @R12
    00000A1E E41B                   MOV         #27,R4
    00000A20 600C                   EXTU.B      R0,R0
    00000A22 2008                   TST         R0,R0
    00000A24 8929                   BT          L1317
    00000A26 E048                   MOV         #72,R0
    00000A28 D22B                   MOV.L       L1526+10,R2; __itos
    00000A2A 53E4                   MOV.L       @(16,R14),R3




SH SERIES C/C++ Compiler (Ver. 6.0C)                                                                 08-Nov-2021 23:20:04  PAGE   31


SCT OFFSET   CODE       C LABEL     INSTRUCTION OPERAND    COMMENT

    00000A2C 533D                   MOV.L       @(52,R3),R3
    00000A2E 033E                   MOV.L       @(R0,R3),R3
    00000A30 E058                   MOV         #88,R0
    00000A32 420B                   JSR         @R2
    00000A34 00EE                   MOV.L       @(R0,R14),R0
    00000A36 D229                   MOV.L       L1526+14,R2; __adds
    00000A38 420B                   JSR         @R2
    00000A3A 6132                   MOV.L       @R3,R1
    00000A3C 2302                   MOV.L       R0,@R3
    00000A3E 54E9                   MOV.L       @(36,R14),R4
    00000A40 2448                   TST         R4,R4
    00000A42 8902                   BT          L1319
    00000A44 6043                   MOV         R4,R0
    00000A46 8802                   CMP/EQ      #2,R0
    00000A48 8B04                   BF          L1318
    00000A4A              L1319:                            
    00000A4A 65D3                   MOV         R13,R5
    00000A4C BD9A                   BSR         __$GetComponent__10GameObjectFPCc
    00000A4E 54E4                   MOV.L       @(16,R14),R4
    00000A50 A007                   BRA         L1514
    00000A52 E240                   MOV         #64,R2
    00000A54              L1318:                            
    00000A54 50E9                   MOV.L       @(36,R14),R0
    00000A56 8801                   CMP/EQ      #1,R0
    00000A58 8B07                   BF          L1321
    00000A5A 65D3                   MOV         R13,R5
    00000A5C BD92                   BSR         __$GetComponent__10GameObjectFPCc
    00000A5E 54E4                   MOV.L       @(16,R14),R4
    00000A60 E244                   MOV         #68,R2
    00000A62              L1514:                            
    00000A62 32EC                   ADD         R14,R2
    00000A64 6222                   MOV.L       @R2,R2
    00000A66 A030                   BRA         L1518
    00000A68 0009                   NOP
    00000A6A              L1321:                            
    00000A6A 65D3                   MOV         R13,R5
    00000A6C BD8A                   BSR         __$GetComponent__10GameObjectFPCc
    00000A6E 54E4                   MOV.L       @(16,R14),R4
    00000A70 E348                   MOV         #72,R3
    00000A72 33EC                   ADD         R14,R3
    00000A74 6332                   MOV.L       @R3,R3
    00000A76 A039                   BRA         L1309
    00000A78 1039                   MOV.L       R3,@(36,R0)
    00000A7A              L1317:                            
    00000A7A 4C0B                   JSR         @R12
    00000A7C E426                   MOV         #38,R4
    00000A7E 600C                   EXTU.B      R0,R0
    00000A80 2008                   TST         R0,R0
    00000A82 8933                   BT          L1309
    00000A84 53E4                   MOV.L       @(16,R14),R3
    00000A86 E048                   MOV         #72,R0
    00000A88 D213                   MOV.L       L1526+10,R2; __itos
    00000A8A 533D                   MOV.L       @(52,R3),R3
    00000A8C 033E                   MOV.L       @(R0,R3),R3
    00000A8E E058                   MOV         #88,R0
    00000A90 00EE                   MOV.L       @(R0,R14),R0
    00000A92 420B                   JSR         @R2




SH SERIES C/C++ Compiler (Ver. 6.0C)                                                                 08-Nov-2021 23:20:04  PAGE   32


SCT OFFSET   CODE       C LABEL     INSTRUCTION OPERAND    COMMENT

    00000A94 600B                   NEG         R0,R0
    00000A96 D211                   MOV.L       L1526+14,R2; __adds
    00000A98 420B                   JSR         @R2
    00000A9A 6132                   MOV.L       @R3,R1
    00000A9C 2302                   MOV.L       R0,@R3
    00000A9E 54E9                   MOV.L       @(36,R14),R4
    00000AA0 2448                   TST         R4,R4
    00000AA2 8D03                   BT/S        L1326
    00000AA4 65D3                   MOV         R13,R5
    00000AA6 6043                   MOV         R4,R0
    00000AA8 8802                   CMP/EQ      #2,R0
    00000AAA 8B06                   BF          L1325
    00000AAC              L1326:                            
    00000AAC BD6A                   BSR         __$GetComponent__10GameObjectFPCc
    00000AAE 54E4                   MOV.L       @(16,R14),R4
    00000AB0 E24C                   MOV         #76,R2
    00000AB2 32EC                   ADD         R14,R2
    00000AB4 6222                   MOV.L       @R2,R2
    00000AB6 A008                   BRA         L1518
    00000AB8 0009                   NOP
    00000ABA              L1325:                            
    00000ABA 50E9                   MOV.L       @(36,R14),R0
    00000ABC 8801                   CMP/EQ      #1,R0
    00000ABE 8B0F                   BF          L1328
    00000AC0 BD60                   BSR         __$GetComponent__10GameObjectFPCc
    00000AC2 54E4                   MOV.L       @(16,R14),R4
    00000AC4 E250                   MOV         #80,R2
    00000AC6 32EC                   ADD         R14,R2
    00000AC8 6222                   MOV.L       @R2,R2
    00000ACA              L1518:                            
    00000ACA A00F                   BRA         L1309
    00000ACC 1029                   MOV.L       R2,@(36,R0)
    00000ACE              L1526:                            
    00000ACE 0000                   .DATA.W     0
    00000AD0 <00000000>             .DATA.L     _KeyDown
    00000AD4 <00000000>             .DATA.L     L409
    00000AD8 <00000000>             .DATA.L     __itos
    00000ADC <00000000>             .DATA.L     __adds
    00000AE0              L1328:                            
    00000AE0 BD50                   BSR         __$GetComponent__10GameObjectFPCc
    00000AE2 54E4                   MOV.L       @(16,R14),R4
    00000AE4 E354                   MOV         #84,R3
    00000AE6 33EC                   ADD         R14,R3
    00000AE8 6332                   MOV.L       @R3,R3
    00000AEA 1039                   MOV.L       R3,@(36,R0)
    00000AEC              L1309:                            
    00000AEC 54E9                   MOV.L       @(36,R14),R4
    00000AEE E504                   MOV         #4,R5
    00000AF0 BA8D                   BSR         _mod__FiT1
    00000AF2 7401                   ADD         #1,R4
    00000AF4 1E09                   MOV.L       R0,@(36,R14)
    00000AF6 E500                   MOV         #0,R5
    00000AF8 5BE4                   MOV.L       @(16,R14),R11
    00000AFA 5BBA                   MOV.L       @(40,R11),R11
    00000AFC 7B24                   ADD         #36,R11
    00000AFE 1FB2                   MOV.L       R11,@(8,R15)
    00000B00 BDCB                   BSR         __$get__20List__tm__9_P6CameraFi_Z1Z




SH SERIES C/C++ Compiler (Ver. 6.0C)                                                                 08-Nov-2021 23:20:04  PAGE   33


SCT OFFSET   CODE       C LABEL     INSTRUCTION OPERAND    COMMENT

    00000B02 64B3                   MOV         R11,R4
    00000B04 5B04                   MOV.L       @(16,R0),R11
    00000B06 6CF3                   MOV         R15,R12
    00000B08 59E4                   MOV.L       @(16,R14),R9
    00000B0A ED00                   MOV         #0,R13
    00000B0C 5BBD                   MOV.L       @(52,R11),R11
    00000B0E E048                   MOV         #72,R0
    00000B10 599D                   MOV.L       @(52,R9),R9
    00000B12 7C10                   ADD         #16,R12
    00000B14 0BBE                   MOV.L       @(R0,R11),R11
    00000B16 63D3                   MOV         R13,R3
    00000B18 099E                   MOV.L       @(R0,R9),R9
    00000B1A 2338                   TST         R3,R3
    00000B1C 8F06                   BF/S        L1331
    00000B1E 1FD1                   MOV.L       R13,@(4,R15)
    00000B20 D35C                   MOV.L       L1527,R3   ; ___nw__FUl
    00000B22 430B                   JSR         @R3
    00000B24 E408                   MOV         #8,R4
    00000B26 2008                   TST         R0,R0
    00000B28 8D06                   BT/S        L1334
    00000B2A 1F01                   MOV.L       R0,@(4,R15)
    00000B2C              L1331:                            
    00000B2C 5DF1                   MOV.L       @(4,R15),R13
    00000B2E D35A                   MOV.L       L1527+4,R3 ; H'427C0000
    00000B30 2D32                   MOV.L       R3,@R13
    00000B32 5DF1                   MOV.L       @(4,R15),R13
    00000B34 D359                   MOV.L       L1527+8,R3 ; H'41F80000
    00000B36 1D31                   MOV.L       R3,@(4,R13)
    00000B38              L1334:                            
    00000B38 5DF1                   MOV.L       @(4,R15),R13
    00000B3A 6192                   MOV.L       @R9,R1
    00000B3C D358                   MOV.L       L1527+12,R3; __subs
    00000B3E 430B                   JSR         @R3
    00000B40 60D2                   MOV.L       @R13,R0
    00000B42 1F02                   MOV.L       R0,@(8,R15)
    00000B44 5191                   MOV.L       @(4,R9),R1
    00000B46 D356                   MOV.L       L1527+12,R3; __subs
    00000B48 430B                   JSR         @R3
    00000B4A 50D1                   MOV.L       @(4,R13),R0
    00000B4C 1F03                   MOV.L       R0,@(12,R15)
    00000B4E 61F3                   MOV         R15,R1
    00000B50 D354                   MOV.L       L1527+16,R3; __quick_evn_mvn
    00000B52 7128                   ADD         #40,R1
    00000B54 52F2                   MOV.L       @(8,R15),R2
    00000B56 1F28                   MOV.L       R2,@(32,R15)
    00000B58 52F3                   MOV.L       @(12,R15),R2
    00000B5A 1F29                   MOV.L       R2,@(36,R15)
    00000B5C 62F3                   MOV         R15,R2
    00000B5E 7220                   ADD         #32,R2
    00000B60 430B                   JSR         @R3
    00000B62 E008                   MOV         #8,R0
    00000B64 6AF3                   MOV         R15,R10
    00000B66 7A28                   ADD         #40,R10
    00000B68 E200                   MOV         #0,R2
    00000B6A 6323                   MOV         R2,R3
    00000B6C 2338                   TST         R3,R3
    00000B6E 8F06                   BF/S        L1333




SH SERIES C/C++ Compiler (Ver. 6.0C)                                                                 08-Nov-2021 23:20:04  PAGE   34


SCT OFFSET   CODE       C LABEL     INSTRUCTION OPERAND    COMMENT

    00000B70 2F22                   MOV.L       R2,@R15
    00000B72 D348                   MOV.L       L1527,R3   ; ___nw__FUl
    00000B74 430B                   JSR         @R3
    00000B76 E408                   MOV         #8,R4
    00000B78 2008                   TST         R0,R0
    00000B7A 8D06                   BT/S        L1335
    00000B7C 2F02                   MOV.L       R0,@R15
    00000B7E              L1333:                            
    00000B7E 62F2                   MOV.L       @R15,R2
    00000B80 D349                   MOV.L       L1527+20,R3; H'41000000
    00000B82 2232                   MOV.L       R3,@R2
    00000B84 62F2                   MOV.L       @R15,R2
    00000B86 D349                   MOV.L       L1527+24,R3; H'41200000
    00000B88 1231                   MOV.L       R3,@(4,R2)
    00000B8A              L1335:                            
    00000B8A 64F2                   MOV.L       @R15,R4
    00000B8C 61A2                   MOV.L       @R10,R1
    00000B8E D348                   MOV.L       L1527+28,R3; __adds
    00000B90 430B                   JSR         @R3
    00000B92 6042                   MOV.L       @R4,R0
    00000B94 51A1                   MOV.L       @(4,R10),R1
    00000B96 6603                   MOV         R0,R6
    00000B98 D245                   MOV.L       L1527+28,R2; __adds
    00000B9A 420B                   JSR         @R2
    00000B9C 5041                   MOV.L       @(4,R4),R0
    00000B9E 6503                   MOV         R0,R5
    00000BA0 1F66                   MOV.L       R6,@(24,R15)
    00000BA2 61C3                   MOV         R12,R1
    00000BA4 D33F                   MOV.L       L1527+16,R3; __quick_evn_mvn
    00000BA6 62F3                   MOV         R15,R2
    00000BA8 1F57                   MOV.L       R5,@(28,R15)
    00000BAA 7218                   ADD         #24,R2
    00000BAC 430B                   JSR         @R3
    00000BAE E008                   MOV         #8,R0
    00000BB0 62C2                   MOV.L       @R12,R2
    00000BB2 2B22                   MOV.L       R2,@R11
    00000BB4 53C1                   MOV.L       @(4,R12),R3
    00000BB6 1B31                   MOV.L       R3,@(4,R11)
    00000BB8 7F30                   ADD         #48,R15
    00000BBA 4F26                   LDS.L       @R15+,PR
    00000BBC 69F6                   MOV.L       @R15+,R9
    00000BBE 6AF6                   MOV.L       @R15+,R10
    00000BC0 6BF6                   MOV.L       @R15+,R11
    00000BC2 6CF6                   MOV.L       @R15+,R12
    00000BC4 6DF6                   MOV.L       @R15+,R13
    00000BC6 000B                   RTS
    00000BC8 6EF6                   MOV.L       @R15+,R14
    00000BCA              __$Start__16PlayerControllerFv:  ; function: PlayerController::Start()
                                                           ; frame size=0
    00000BCA E200                   MOV         #0,R2
    00000BCC 000B                   RTS
    00000BCE 1429                   MOV.L       R2,@(36,R4)
    00000BD0              __$FindWithName__12SceneManagerFPUc:
                                                           ; function: SceneManager::FindWithName(unsigned char *)
                                                           ; frame size=32
    00000BD0 2FE6                   MOV.L       R14,@-R15
    00000BD2 2FD6                   MOV.L       R13,@-R15




SH SERIES C/C++ Compiler (Ver. 6.0C)                                                                 08-Nov-2021 23:20:04  PAGE   35


SCT OFFSET   CODE       C LABEL     INSTRUCTION OPERAND    COMMENT

    00000BD4 2FC6                   MOV.L       R12,@-R15
    00000BD6 6C43                   MOV         R4,R12
    00000BD8 2FB6                   MOV.L       R11,@-R15
    00000BDA 2FA6                   MOV.L       R10,@-R15
    00000BDC 2F96                   MOV.L       R9,@-R15
    00000BDE E900                   MOV         #0,R9
    00000BE0 2F86                   MOV.L       R8,@-R15
    00000BE2 6853                   MOV         R5,R8
    00000BE4 4F22                   STS.L       PR,@-R15
    00000BE6 A020                   BRA         L1338
    00000BE8 6E93                   MOV         R9,R14
    00000BEA              L1339:                            
    00000BEA A016                   BRA         L1340
    00000BEC 6D93                   MOV         R9,R13
    00000BEE              L1341:                            
    00000BEE 65E3                   MOV         R14,R5
    00000BF0 64C3                   MOV         R12,R4
    00000BF2 B77C                   BSR         __$get__19List__tm__8_P5SceneFi_Z1Z
    00000BF4 7404                   ADD         #4,R4
    00000BF6 6A03                   MOV         R0,R10
    00000BF8 6BD3                   MOV         R13,R11
    00000BFA 65D3                   MOV         R13,R5
    00000BFC BD32                   BSR         __$get__26List__tm__14_P10GameObjectFi_Z1Z
    00000BFE 6403                   MOV         R0,R4
    00000C00 6302                   MOV.L       @R0,R3
    00000C02 3380                   CMP/EQ      R8,R3
    00000C04 8B08                   BF          L1342
    00000C06 65E3                   MOV         R14,R5
    00000C08 64C3                   MOV         R12,R4
    00000C0A B770                   BSR         __$get__19List__tm__8_P5SceneFi_Z1Z
    00000C0C 7404                   ADD         #4,R4
    00000C0E 6403                   MOV         R0,R4
    00000C10 BD28                   BSR         __$get__26List__tm__14_P10GameObjectFi_Z1Z
    00000C12 65D3                   MOV         R13,R5
    00000C14 A00D                   BRA         L1343
    00000C16 0009                   NOP
    00000C18              L1342:                            
    00000C18 7D01                   ADD         #1,R13
    00000C1A              L1340:                            
    00000C1A 65E3                   MOV         R14,R5
    00000C1C 64C3                   MOV         R12,R4
    00000C1E B766                   BSR         __$get__19List__tm__8_P5SceneFi_Z1Z
    00000C20 7404                   ADD         #4,R4
    00000C22 5202                   MOV.L       @(8,R0),R2
    00000C24 3D23                   CMP/GE      R2,R13
    00000C26 8BE2                   BF          L1341
    00000C28 7E01                   ADD         #1,R14
    00000C2A              L1338:                            
    00000C2A 52C3                   MOV.L       @(12,R12),R2
    00000C2C 3E23                   CMP/GE      R2,R14
    00000C2E 8BDC                   BF          L1339
    00000C30 E000                   MOV         #0,R0
    00000C32              L1343:                            
    00000C32 4F26                   LDS.L       @R15+,PR
    00000C34 68F6                   MOV.L       @R15+,R8
    00000C36 69F6                   MOV.L       @R15+,R9
    00000C38 6AF6                   MOV.L       @R15+,R10




SH SERIES C/C++ Compiler (Ver. 6.0C)                                                                 08-Nov-2021 23:20:04  PAGE   36


SCT OFFSET   CODE       C LABEL     INSTRUCTION OPERAND    COMMENT

    00000C3A 6BF6                   MOV.L       @R15+,R11
    00000C3C 6CF6                   MOV.L       @R15+,R12
    00000C3E 6DF6                   MOV.L       @R15+,R13
    00000C40 000B                   RTS
    00000C42 6EF6                   MOV.L       @R15+,R14
    00000C44              __$UpdateScene__12SceneManagerFv:
                                                           ; function: SceneManager::UpdateScene()
                                                           ; frame size=12
    00000C44 2FE6                   MOV.L       R14,@-R15
    00000C46 2FD6                   MOV.L       R13,@-R15
    00000C48 4F22                   STS.L       PR,@-R15
    00000C4A 6D43                   MOV         R4,R13
    00000C4C A007                   BRA         L1344
    00000C4E EE00                   MOV         #0,R14
    00000C50              L1345:                            
    00000C50 65E3                   MOV         R14,R5
    00000C52 64D3                   MOV         R13,R4
    00000C54 B74B                   BSR         __$get__19List__tm__8_P5SceneFi_Z1Z
    00000C56 7404                   ADD         #4,R4
    00000C58 BCD3                   BSR         __$Update__5SceneFv
    00000C5A 6403                   MOV         R0,R4
    00000C5C 7E01                   ADD         #1,R14
    00000C5E              L1344:                            
    00000C5E 52D3                   MOV.L       @(12,R13),R2
    00000C60 3E23                   CMP/GE      R2,R14
    00000C62 8BF5                   BF          L1345
    00000C64 4F26                   LDS.L       @R15+,PR
    00000C66 6DF6                   MOV.L       @R15+,R13
    00000C68 000B                   RTS
    00000C6A 6EF6                   MOV.L       @R15+,R14
    00000C6C              __$StartScene__12SceneManagerFv: ; function: SceneManager::StartScene()
                                                           ; frame size=12
    00000C6C 2FE6                   MOV.L       R14,@-R15
    00000C6E 2FD6                   MOV.L       R13,@-R15
    00000C70 4F22                   STS.L       PR,@-R15
    00000C72 6D43                   MOV         R4,R13
    00000C74 A007                   BRA         L1347
    00000C76 EE00                   MOV         #0,R14
    00000C78              L1348:                            
    00000C78 65E3                   MOV         R14,R5
    00000C7A 64D3                   MOV         R13,R4
    00000C7C B737                   BSR         __$get__19List__tm__8_P5SceneFi_Z1Z
    00000C7E 7404                   ADD         #4,R4
    00000C80 BCD2                   BSR         __$Start__5SceneFv
    00000C82 6403                   MOV         R0,R4
    00000C84 7E01                   ADD         #1,R14
    00000C86              L1347:                            
    00000C86 52D3                   MOV.L       @(12,R13),R2
    00000C88 3E23                   CMP/GE      R2,R14
    00000C8A 8BF5                   BF          L1348
    00000C8C 4F26                   LDS.L       @R15+,PR
    00000C8E 6DF6                   MOV.L       @R15+,R13
    00000C90 000B                   RTS
    00000C92 6EF6                   MOV.L       @R15+,R14
    00000C94              L1527:                            
    00000C94 <00000000>             .DATA.L     ___nw__FUl
    00000C98 427C0000               .DATA.L     H'427C0000




SH SERIES C/C++ Compiler (Ver. 6.0C)                                                                 08-Nov-2021 23:20:04  PAGE   37


SCT OFFSET   CODE       C LABEL     INSTRUCTION OPERAND    COMMENT

    00000C9C 41F80000               .DATA.L     H'41F80000
    00000CA0 <00000000>             .DATA.L     __subs
    00000CA4 <00000000>             .DATA.L     __quick_evn_mvn
    00000CA8 41000000               .DATA.L     H'41000000
    00000CAC 41200000               .DATA.L     H'41200000
    00000CB0 <00000000>             .DATA.L     __adds
    00000CB4              __$GetSceneInBuild__12SceneManagerFi:
                                                           ; function: SceneManager::GetSceneInBuild(int)
                                                           ; frame size=152
    00000CB4 2FE6                   MOV.L       R14,@-R15
    00000CB6 E040                   MOV         #64,R0
    00000CB8 2FD6                   MOV.L       R13,@-R15
    00000CBA EE00                   MOV         #0,R14
    00000CBC 2FC6                   MOV.L       R12,@-R15
    00000CBE 63E3                   MOV         R14,R3
    00000CC0 2FB6                   MOV.L       R11,@-R15
    00000CC2 2338                   TST         R3,R3
    00000CC4 2FA6                   MOV.L       R10,@-R15
    00000CC6 2F96                   MOV.L       R9,@-R15
    00000CC8 2F86                   MOV.L       R8,@-R15
    00000CCA E801                   MOV         #1,R8
    00000CCC D9A9                   MOV.L       L1528,R9   ; ___nw__FUl
    00000CCE 4F22                   STS.L       PR,@-R15
    00000CD0 7F8C                   ADD         #-116,R15
    00000CD2 0F46                   MOV.L       R4,@(R0,R15)
    00000CD4 1F5A                   MOV.L       R5,@(40,R15)
    00000CD6 8F06                   BF/S        L1351
    00000CD8 1FE9                   MOV.L       R14,@(36,R15)
    00000CDA D3A6                   MOV.L       L1528,R3   ; ___nw__FUl
    00000CDC 430B                   JSR         @R3
    00000CDE E430                   MOV         #48,R4
    00000CE0 2008                   TST         R0,R0
    00000CE2 8D0D                   BT/S        L1352
    00000CE4 1F09                   MOV.L       R0,@(36,R15)
    00000CE6              L1351:                            
    00000CE6 E300                   MOV         #0,R3
    00000CE8 5DF9                   MOV.L       @(36,R15),R13
    00000CEA 1D32                   MOV.L       R3,@(8,R13)
    00000CEC 5DF9                   MOV.L       @(36,R15),R13
    00000CEE 2DE2                   MOV.L       R14,@R13
    00000CF0 5DF9                   MOV.L       @(36,R15),R13
    00000CF2 1DE1                   MOV.L       R14,@(4,R13)
    00000CF4 5DF9                   MOV.L       @(36,R15),R13
    00000CF6 1D3B                   MOV.L       R3,@(44,R13)
    00000CF8 5DF9                   MOV.L       @(36,R15),R13
    00000CFA 1DE9                   MOV.L       R14,@(36,R13)
    00000CFC 5DF9                   MOV.L       @(36,R15),R13
    00000CFE 1DEA                   MOV.L       R14,@(40,R13)
    00000D00              L1352:                            
    00000D00 5DF9                   MOV.L       @(36,R15),R13
    00000D02 E040                   MOV         #64,R0
    00000D04 DC9C                   MOV.L       L1528+4,R12; L405
    00000D06 03FE                   MOV.L       @(R0,R15),R3
    00000D08 1D33                   MOV.L       R3,@(12,R13)
    00000D0A 63E3                   MOV         R14,R3
    00000D0C 2338                   TST         R3,R3
    00000D0E 8F06                   BF/S        L1354




SH SERIES C/C++ Compiler (Ver. 6.0C)                                                                 08-Nov-2021 23:20:04  PAGE   38


SCT OFFSET   CODE       C LABEL     INSTRUCTION OPERAND    COMMENT

    00000D10 2FE2                   MOV.L       R14,@R15
    00000D12 D398                   MOV.L       L1528,R3   ; ___nw__FUl
    00000D14 430B                   JSR         @R3
    00000D16 E424                   MOV         #36,R4
    00000D18 2008                   TST         R0,R0
    00000D1A 8D13                   BT/S        L1355
    00000D1C 2F02                   MOV.L       R0,@R15
    00000D1E              L1354:                            
    00000D1E 62F2                   MOV.L       @R15,R2
    00000D20 D396                   MOV.L       L1528+8,R3 ; __$__vtbl__6Object
    00000D22 1232                   MOV.L       R3,@(8,R2)
    00000D24 62F2                   MOV.L       @R15,R2
    00000D26 22C2                   MOV.L       R12,@R2
    00000D28 63F2                   MOV.L       @R15,R3
    00000D2A 13E1                   MOV.L       R14,@(4,R3)
    00000D2C 63F2                   MOV.L       @R15,R3
    00000D2E D294                   MOV.L       L1528+12,R2; __$__vtbl__6Object__7Texture
    00000D30 1322                   MOV.L       R2,@(8,R3)
    00000D32 63F2                   MOV.L       @R15,R3
    00000D34 D293                   MOV.L       L1528+16,R2; __$UUID_355aae99_e49f_4a07_b7b8_ecf7673e547c
    00000D36 1323                   MOV.L       R2,@(12,R3)
    00000D38 63F2                   MOV.L       @R15,R3
    00000D3A E210                   MOV         #16,R2
    00000D3C 1328                   MOV.L       R2,@(32,R3)
    00000D3E E214                   MOV         #20,R2
    00000D40 63F2                   MOV.L       @R15,R3
    00000D42 1326                   MOV.L       R2,@(24,R3)
    00000D44              L1355:                            
    00000D44 61F2                   MOV.L       @R15,R1
    00000D46 E050                   MOV         #80,R0
    00000D48 0F16                   MOV.L       R1,@(R0,R15)
    00000D4A 63E3                   MOV         R14,R3
    00000D4C 2338                   TST         R3,R3
    00000D4E 8F06                   BF/S        L1357
    00000D50 2FE2                   MOV.L       R14,@R15
    00000D52 D388                   MOV.L       L1528,R3   ; ___nw__FUl
    00000D54 430B                   JSR         @R3
    00000D56 E424                   MOV         #36,R4
    00000D58 2008                   TST         R0,R0
    00000D5A 8D13                   BT/S        L1358
    00000D5C 2F02                   MOV.L       R0,@R15
    00000D5E              L1357:                            
    00000D5E 62F2                   MOV.L       @R15,R2
    00000D60 D386                   MOV.L       L1528+8,R3 ; __$__vtbl__6Object
    00000D62 1232                   MOV.L       R3,@(8,R2)
    00000D64 62F2                   MOV.L       @R15,R2
    00000D66 22C2                   MOV.L       R12,@R2
    00000D68 63F2                   MOV.L       @R15,R3
    00000D6A 13E1                   MOV.L       R14,@(4,R3)
    00000D6C 63F2                   MOV.L       @R15,R3
    00000D6E D284                   MOV.L       L1528+12,R2; __$__vtbl__6Object__7Texture
    00000D70 1322                   MOV.L       R2,@(8,R3)
    00000D72 63F2                   MOV.L       @R15,R3
    00000D74 D284                   MOV.L       L1528+20,R2; __$UUID_3b28f421_9575_4c12_91c4_2c145b435538
    00000D76 1323                   MOV.L       R2,@(12,R3)
    00000D78 63F2                   MOV.L       @R15,R3
    00000D7A E210                   MOV         #16,R2




SH SERIES C/C++ Compiler (Ver. 6.0C)                                                                 08-Nov-2021 23:20:04  PAGE   39


SCT OFFSET   CODE       C LABEL     INSTRUCTION OPERAND    COMMENT

    00000D7C 1328                   MOV.L       R2,@(32,R3)
    00000D7E E214                   MOV         #20,R2
    00000D80 63F2                   MOV.L       @R15,R3
    00000D82 1326                   MOV.L       R2,@(24,R3)
    00000D84              L1358:                            
    00000D84 61F2                   MOV.L       @R15,R1
    00000D86 E058                   MOV         #88,R0
    00000D88 0F16                   MOV.L       R1,@(R0,R15)
    00000D8A 63E3                   MOV         R14,R3
    00000D8C 2338                   TST         R3,R3
    00000D8E 8F06                   BF/S        L1360
    00000D90 2FE2                   MOV.L       R14,@R15
    00000D92 D378                   MOV.L       L1528,R3   ; ___nw__FUl
    00000D94 430B                   JSR         @R3
    00000D96 E424                   MOV         #36,R4
    00000D98 2008                   TST         R0,R0
    00000D9A 8D13                   BT/S        L1361
    00000D9C 2F02                   MOV.L       R0,@R15
    00000D9E              L1360:                            
    00000D9E 62F2                   MOV.L       @R15,R2
    00000DA0 D376                   MOV.L       L1528+8,R3 ; __$__vtbl__6Object
    00000DA2 1232                   MOV.L       R3,@(8,R2)
    00000DA4 62F2                   MOV.L       @R15,R2
    00000DA6 22C2                   MOV.L       R12,@R2
    00000DA8 63F2                   MOV.L       @R15,R3
    00000DAA 13E1                   MOV.L       R14,@(4,R3)
    00000DAC 63F2                   MOV.L       @R15,R3
    00000DAE D274                   MOV.L       L1528+12,R2; __$__vtbl__6Object__7Texture
    00000DB0 1322                   MOV.L       R2,@(8,R3)
    00000DB2 63F2                   MOV.L       @R15,R3
    00000DB4 D275                   MOV.L       L1528+24,R2; __$UUID_53848287_45f6_410e_b7f2_b01019c5a1e9
    00000DB6 1323                   MOV.L       R2,@(12,R3)
    00000DB8 63F2                   MOV.L       @R15,R3
    00000DBA E210                   MOV         #16,R2
    00000DBC 1328                   MOV.L       R2,@(32,R3)
    00000DBE E214                   MOV         #20,R2
    00000DC0 63F2                   MOV.L       @R15,R3
    00000DC2 1326                   MOV.L       R2,@(24,R3)
    00000DC4              L1361:                            
    00000DC4 61F2                   MOV.L       @R15,R1
    00000DC6 E048                   MOV         #72,R0
    00000DC8 0F16                   MOV.L       R1,@(R0,R15)
    00000DCA 63E3                   MOV         R14,R3
    00000DCC 2338                   TST         R3,R3
    00000DCE 8F06                   BF/S        L1363
    00000DD0 2FE2                   MOV.L       R14,@R15
    00000DD2 D368                   MOV.L       L1528,R3   ; ___nw__FUl
    00000DD4 430B                   JSR         @R3
    00000DD6 E424                   MOV         #36,R4
    00000DD8 2008                   TST         R0,R0
    00000DDA 8D13                   BT/S        L1364
    00000DDC 2F02                   MOV.L       R0,@R15
    00000DDE              L1363:                            
    00000DDE 62F2                   MOV.L       @R15,R2
    00000DE0 D366                   MOV.L       L1528+8,R3 ; __$__vtbl__6Object
    00000DE2 1232                   MOV.L       R3,@(8,R2)
    00000DE4 62F2                   MOV.L       @R15,R2




SH SERIES C/C++ Compiler (Ver. 6.0C)                                                                 08-Nov-2021 23:20:04  PAGE   40


SCT OFFSET   CODE       C LABEL     INSTRUCTION OPERAND    COMMENT

    00000DE6 22C2                   MOV.L       R12,@R2
    00000DE8 63F2                   MOV.L       @R15,R3
    00000DEA 13E1                   MOV.L       R14,@(4,R3)
    00000DEC 63F2                   MOV.L       @R15,R3
    00000DEE D264                   MOV.L       L1528+12,R2; __$__vtbl__6Object__7Texture
    00000DF0 1322                   MOV.L       R2,@(8,R3)
    00000DF2 63F2                   MOV.L       @R15,R3
    00000DF4 D266                   MOV.L       L1528+28,R2; __$UUID_600cd8e3_41c3_4a5e_8550_1ef2c44147af
    00000DF6 1323                   MOV.L       R2,@(12,R3)
    00000DF8 63F2                   MOV.L       @R15,R3
    00000DFA E210                   MOV         #16,R2
    00000DFC 1328                   MOV.L       R2,@(32,R3)
    00000DFE E214                   MOV         #20,R2
    00000E00 63F2                   MOV.L       @R15,R3
    00000E02 1326                   MOV.L       R2,@(24,R3)
    00000E04              L1364:                            
    00000E04 61F2                   MOV.L       @R15,R1
    00000E06 E068                   MOV         #104,R0
    00000E08 0F16                   MOV.L       R1,@(R0,R15)
    00000E0A 63E3                   MOV         R14,R3
    00000E0C 2338                   TST         R3,R3
    00000E0E 8F06                   BF/S        L1366
    00000E10 2FE2                   MOV.L       R14,@R15
    00000E12 D358                   MOV.L       L1528,R3   ; ___nw__FUl
    00000E14 430B                   JSR         @R3
    00000E16 E424                   MOV         #36,R4
    00000E18 2008                   TST         R0,R0
    00000E1A 8D13                   BT/S        L1367
    00000E1C 2F02                   MOV.L       R0,@R15
    00000E1E              L1366:                            
    00000E1E 62F2                   MOV.L       @R15,R2
    00000E20 D356                   MOV.L       L1528+8,R3 ; __$__vtbl__6Object
    00000E22 1232                   MOV.L       R3,@(8,R2)
    00000E24 62F2                   MOV.L       @R15,R2
    00000E26 22C2                   MOV.L       R12,@R2
    00000E28 63F2                   MOV.L       @R15,R3
    00000E2A 13E1                   MOV.L       R14,@(4,R3)
    00000E2C 63F2                   MOV.L       @R15,R3
    00000E2E D254                   MOV.L       L1528+12,R2; __$__vtbl__6Object__7Texture
    00000E30 1322                   MOV.L       R2,@(8,R3)
    00000E32 63F2                   MOV.L       @R15,R3
    00000E34 D257                   MOV.L       L1528+32,R2; __$UUID_6432dbba_ba4c_4f25_a9d3_15cf97c6e1ea
    00000E36 1323                   MOV.L       R2,@(12,R3)
    00000E38 63F2                   MOV.L       @R15,R3
    00000E3A E210                   MOV         #16,R2
    00000E3C 1328                   MOV.L       R2,@(32,R3)
    00000E3E E214                   MOV         #20,R2
    00000E40 63F2                   MOV.L       @R15,R3
    00000E42 1326                   MOV.L       R2,@(24,R3)
    00000E44              L1367:                            
    00000E44 61F2                   MOV.L       @R15,R1
    00000E46 E040                   MOV         #64,R0
    00000E48 0F16                   MOV.L       R1,@(R0,R15)
    00000E4A 63E3                   MOV         R14,R3
    00000E4C 2338                   TST         R3,R3
    00000E4E 8F06                   BF/S        L1369
    00000E50 2FE2                   MOV.L       R14,@R15




SH SERIES C/C++ Compiler (Ver. 6.0C)                                                                 08-Nov-2021 23:20:04  PAGE   41


SCT OFFSET   CODE       C LABEL     INSTRUCTION OPERAND    COMMENT

    00000E52 D348                   MOV.L       L1528,R3   ; ___nw__FUl
    00000E54 430B                   JSR         @R3
    00000E56 E424                   MOV         #36,R4
    00000E58 2008                   TST         R0,R0
    00000E5A 8D13                   BT/S        L1370
    00000E5C 2F02                   MOV.L       R0,@R15
    00000E5E              L1369:                            
    00000E5E 62F2                   MOV.L       @R15,R2
    00000E60 D346                   MOV.L       L1528+8,R3 ; __$__vtbl__6Object
    00000E62 1232                   MOV.L       R3,@(8,R2)
    00000E64 62F2                   MOV.L       @R15,R2
    00000E66 22C2                   MOV.L       R12,@R2
    00000E68 63F2                   MOV.L       @R15,R3
    00000E6A 13E1                   MOV.L       R14,@(4,R3)
    00000E6C 63F2                   MOV.L       @R15,R3
    00000E6E D244                   MOV.L       L1528+12,R2; __$__vtbl__6Object__7Texture
    00000E70 1322                   MOV.L       R2,@(8,R3)
    00000E72 63F2                   MOV.L       @R15,R3
    00000E74 D248                   MOV.L       L1528+36,R2; __$UUID_9b63aa6b_0684_4171_a80a_a82e6e29f6ae
    00000E76 1323                   MOV.L       R2,@(12,R3)
    00000E78 63F2                   MOV.L       @R15,R3
    00000E7A E210                   MOV         #16,R2
    00000E7C 1328                   MOV.L       R2,@(32,R3)
    00000E7E E214                   MOV         #20,R2
    00000E80 63F2                   MOV.L       @R15,R3
    00000E82 1326                   MOV.L       R2,@(24,R3)
    00000E84              L1370:                            
    00000E84 61F2                   MOV.L       @R15,R1
    00000E86 E064                   MOV         #100,R0
    00000E88 0F16                   MOV.L       R1,@(R0,R15)
    00000E8A 63E3                   MOV         R14,R3
    00000E8C 2338                   TST         R3,R3
    00000E8E 8F06                   BF/S        L1372
    00000E90 2FE2                   MOV.L       R14,@R15
    00000E92 D338                   MOV.L       L1528,R3   ; ___nw__FUl
    00000E94 430B                   JSR         @R3
    00000E96 E424                   MOV         #36,R4
    00000E98 2008                   TST         R0,R0
    00000E9A 8D13                   BT/S        L1373
    00000E9C 2F02                   MOV.L       R0,@R15
    00000E9E              L1372:                            
    00000E9E 62F2                   MOV.L       @R15,R2
    00000EA0 D336                   MOV.L       L1528+8,R3 ; __$__vtbl__6Object
    00000EA2 1232                   MOV.L       R3,@(8,R2)
    00000EA4 62F2                   MOV.L       @R15,R2
    00000EA6 22C2                   MOV.L       R12,@R2
    00000EA8 63F2                   MOV.L       @R15,R3
    00000EAA 13E1                   MOV.L       R14,@(4,R3)
    00000EAC 63F2                   MOV.L       @R15,R3
    00000EAE D234                   MOV.L       L1528+12,R2; __$__vtbl__6Object__7Texture
    00000EB0 1322                   MOV.L       R2,@(8,R3)
    00000EB2 63F2                   MOV.L       @R15,R3
    00000EB4 D239                   MOV.L       L1528+40,R2; __$UUID_a1bc752c_94cf_41b4_a8f3_a32ec3d9312b
    00000EB6 1323                   MOV.L       R2,@(12,R3)
    00000EB8 63F2                   MOV.L       @R15,R3
    00000EBA E210                   MOV         #16,R2
    00000EBC 1328                   MOV.L       R2,@(32,R3)




SH SERIES C/C++ Compiler (Ver. 6.0C)                                                                 08-Nov-2021 23:20:04  PAGE   42


SCT OFFSET   CODE       C LABEL     INSTRUCTION OPERAND    COMMENT

    00000EBE E214                   MOV         #20,R2
    00000EC0 63F2                   MOV.L       @R15,R3
    00000EC2 1326                   MOV.L       R2,@(24,R3)
    00000EC4              L1373:                            
    00000EC4 61F2                   MOV.L       @R15,R1
    00000EC6 E04C                   MOV         #76,R0
    00000EC8 0F16                   MOV.L       R1,@(R0,R15)
    00000ECA 63E3                   MOV         R14,R3
    00000ECC 2338                   TST         R3,R3
    00000ECE 8F06                   BF/S        L1375
    00000ED0 2FE2                   MOV.L       R14,@R15
    00000ED2 D328                   MOV.L       L1528,R3   ; ___nw__FUl
    00000ED4 430B                   JSR         @R3
    00000ED6 E424                   MOV         #36,R4
    00000ED8 2008                   TST         R0,R0
    00000EDA 8D13                   BT/S        L1376
    00000EDC 2F02                   MOV.L       R0,@R15
    00000EDE              L1375:                            
    00000EDE 62F2                   MOV.L       @R15,R2
    00000EE0 D326                   MOV.L       L1528+8,R3 ; __$__vtbl__6Object
    00000EE2 1232                   MOV.L       R3,@(8,R2)
    00000EE4 62F2                   MOV.L       @R15,R2
    00000EE6 22C2                   MOV.L       R12,@R2
    00000EE8 63F2                   MOV.L       @R15,R3
    00000EEA 13E1                   MOV.L       R14,@(4,R3)
    00000EEC 63F2                   MOV.L       @R15,R3
    00000EEE D224                   MOV.L       L1528+12,R2; __$__vtbl__6Object__7Texture
    00000EF0 1322                   MOV.L       R2,@(8,R3)
    00000EF2 63F2                   MOV.L       @R15,R3
    00000EF4 D22A                   MOV.L       L1528+44,R2; __$UUID_a9e4b5ab_ecdd_4525_8dbd_dbfaef28a6f6
    00000EF6 1323                   MOV.L       R2,@(12,R3)
    00000EF8 63F2                   MOV.L       @R15,R3
    00000EFA E210                   MOV         #16,R2
    00000EFC 1328                   MOV.L       R2,@(32,R3)
    00000EFE E214                   MOV         #20,R2
    00000F00 63F2                   MOV.L       @R15,R3
    00000F02 1326                   MOV.L       R2,@(24,R3)
    00000F04              L1376:                            
    00000F04 61F2                   MOV.L       @R15,R1
    00000F06 E060                   MOV         #96,R0
    00000F08 0F16                   MOV.L       R1,@(R0,R15)
    00000F0A 63E3                   MOV         R14,R3
    00000F0C 2338                   TST         R3,R3
    00000F0E 8F06                   BF/S        L1378
    00000F10 2FE2                   MOV.L       R14,@R15
    00000F12 D318                   MOV.L       L1528,R3   ; ___nw__FUl
    00000F14 430B                   JSR         @R3
    00000F16 E424                   MOV         #36,R4
    00000F18 2008                   TST         R0,R0
    00000F1A 8D13                   BT/S        L1379
    00000F1C 2F02                   MOV.L       R0,@R15
    00000F1E              L1378:                            
    00000F1E 62F2                   MOV.L       @R15,R2
    00000F20 D316                   MOV.L       L1528+8,R3 ; __$__vtbl__6Object
    00000F22 1232                   MOV.L       R3,@(8,R2)
    00000F24 62F2                   MOV.L       @R15,R2
    00000F26 22C2                   MOV.L       R12,@R2




SH SERIES C/C++ Compiler (Ver. 6.0C)                                                                 08-Nov-2021 23:20:04  PAGE   43


SCT OFFSET   CODE       C LABEL     INSTRUCTION OPERAND    COMMENT

    00000F28 63F2                   MOV.L       @R15,R3
    00000F2A 13E1                   MOV.L       R14,@(4,R3)
    00000F2C 63F2                   MOV.L       @R15,R3
    00000F2E D214                   MOV.L       L1528+12,R2; __$__vtbl__6Object__7Texture
    00000F30 1322                   MOV.L       R2,@(8,R3)
    00000F32 63F2                   MOV.L       @R15,R3
    00000F34 D21B                   MOV.L       L1528+48,R2; __$UUID_dc9afec8_2e2e_4996_8271_1ac4cb193c2f
    00000F36 1323                   MOV.L       R2,@(12,R3)
    00000F38 63F2                   MOV.L       @R15,R3
    00000F3A E210                   MOV         #16,R2
    00000F3C 1328                   MOV.L       R2,@(32,R3)
    00000F3E E214                   MOV         #20,R2
    00000F40 63F2                   MOV.L       @R15,R3
    00000F42 1326                   MOV.L       R2,@(24,R3)
    00000F44              L1379:                            
    00000F44 61F2                   MOV.L       @R15,R1
    00000F46 E06C                   MOV         #108,R0
    00000F48 0F16                   MOV.L       R1,@(R0,R15)
    00000F4A 63E3                   MOV         R14,R3
    00000F4C 2338                   TST         R3,R3
    00000F4E 8F06                   BF/S        L1381
    00000F50 2FE2                   MOV.L       R14,@R15
    00000F52 D308                   MOV.L       L1528,R3   ; ___nw__FUl
    00000F54 430B                   JSR         @R3
    00000F56 E424                   MOV         #36,R4
    00000F58 2008                   TST         R0,R0
    00000F5A 8D2F                   BT/S        L1382
    00000F5C 2F02                   MOV.L       R0,@R15
    00000F5E              L1381:                            
    00000F5E 62F2                   MOV.L       @R15,R2
    00000F60 D306                   MOV.L       L1528+8,R3 ; __$__vtbl__6Object
    00000F62 1232                   MOV.L       R3,@(8,R2)
    00000F64 62F2                   MOV.L       @R15,R2
    00000F66 22C2                   MOV.L       R12,@R2
    00000F68 63F2                   MOV.L       @R15,R3
    00000F6A 13E1                   MOV.L       R14,@(4,R3)
    00000F6C 63F2                   MOV.L       @R15,R3
    00000F6E D204                   MOV.L       L1528+12,R2; __$__vtbl__6Object__7Texture
    00000F70 A01A                   BRA         L1519
    00000F72 0009                   NOP
    00000F74              L1528:                            
    00000F74 <00000000>             .DATA.L     ___nw__FUl
    00000F78 <00000000>             .DATA.L     L405
    00000F7C <00000000>             .DATA.L     __$__vtbl__6Object
    00000F80 <00000000>             .DATA.L     __$__vtbl__6Object__7Texture
    00000F84 <00000000>             .DATA.L     __$UUID_355aae99_e49f_4a07_b7b8_ecf7673e547c
    00000F88 <00000000>             .DATA.L     __$UUID_3b28f421_9575_4c12_91c4_2c145b435538
    00000F8C <00000000>             .DATA.L     __$UUID_53848287_45f6_410e_b7f2_b01019c5a1e9
    00000F90 <00000000>             .DATA.L     __$UUID_600cd8e3_41c3_4a5e_8550_1ef2c44147af
    00000F94 <00000000>             .DATA.L     __$UUID_6432dbba_ba4c_4f25_a9d3_15cf97c6e1ea
    00000F98 <00000000>             .DATA.L     __$UUID_9b63aa6b_0684_4171_a80a_a82e6e29f6ae
    00000F9C <00000000>             .DATA.L     __$UUID_a1bc752c_94cf_41b4_a8f3_a32ec3d9312b
    00000FA0 <00000000>             .DATA.L     __$UUID_a9e4b5ab_ecdd_4525_8dbd_dbfaef28a6f6
    00000FA4 <00000000>             .DATA.L     __$UUID_dc9afec8_2e2e_4996_8271_1ac4cb193c2f
    00000FA8              L1519:                            
    00000FA8 1322                   MOV.L       R2,@(8,R3)
    00000FAA 63F2                   MOV.L       @R15,R3




SH SERIES C/C++ Compiler (Ver. 6.0C)                                                                 08-Nov-2021 23:20:04  PAGE   44


SCT OFFSET   CODE       C LABEL     INSTRUCTION OPERAND    COMMENT

    00000FAC D2A5                   MOV.L       L1529+2,R2 ; __$UUID_e4cf6d14_c9f2_4336_bb03_53529e5e4d6f
    00000FAE 1323                   MOV.L       R2,@(12,R3)
    00000FB0 63F2                   MOV.L       @R15,R3
    00000FB2 E210                   MOV         #16,R2
    00000FB4 1328                   MOV.L       R2,@(32,R3)
    00000FB6 E214                   MOV         #20,R2
    00000FB8 63F2                   MOV.L       @R15,R3
    00000FBA 1326                   MOV.L       R2,@(24,R3)
    00000FBC              L1382:                            
    00000FBC 61F2                   MOV.L       @R15,R1
    00000FBE E070                   MOV         #112,R0
    00000FC0 0F16                   MOV.L       R1,@(R0,R15)
    00000FC2 63E3                   MOV         R14,R3
    00000FC4 2338                   TST         R3,R3
    00000FC6 8F06                   BF/S        L1384
    00000FC8 2FE2                   MOV.L       R14,@R15
    00000FCA D39F                   MOV.L       L1529+6,R3 ; ___nw__FUl
    00000FCC 430B                   JSR         @R3
    00000FCE E424                   MOV         #36,R4
    00000FD0 2008                   TST         R0,R0
    00000FD2 8D13                   BT/S        L1385
    00000FD4 2F02                   MOV.L       R0,@R15
    00000FD6              L1384:                            
    00000FD6 62F2                   MOV.L       @R15,R2
    00000FD8 D39C                   MOV.L       L1529+10,R3; __$__vtbl__6Object
    00000FDA 1232                   MOV.L       R3,@(8,R2)
    00000FDC 62F2                   MOV.L       @R15,R2
    00000FDE 22C2                   MOV.L       R12,@R2
    00000FE0 63F2                   MOV.L       @R15,R3
    00000FE2 13E1                   MOV.L       R14,@(4,R3)
    00000FE4 63F2                   MOV.L       @R15,R3
    00000FE6 D29A                   MOV.L       L1529+14,R2; __$__vtbl__6Object__7Texture
    00000FE8 1322                   MOV.L       R2,@(8,R3)
    00000FEA 63F2                   MOV.L       @R15,R3
    00000FEC D299                   MOV.L       L1529+18,R2; __$UUID_e870f483_8f84_44ae_b86c_bb1978372306
    00000FEE 1323                   MOV.L       R2,@(12,R3)
    00000FF0 63F2                   MOV.L       @R15,R3
    00000FF2 E210                   MOV         #16,R2
    00000FF4 1328                   MOV.L       R2,@(32,R3)
    00000FF6 E214                   MOV         #20,R2
    00000FF8 63F2                   MOV.L       @R15,R3
    00000FFA 1326                   MOV.L       R2,@(24,R3)
    00000FFC              L1385:                            
    00000FFC 61F2                   MOV.L       @R15,R1
    00000FFE E05C                   MOV         #92,R0
    00001000 0F16                   MOV.L       R1,@(R0,R15)
    00001002 63E3                   MOV         R14,R3
    00001004 2338                   TST         R3,R3
    00001006 8F06                   BF/S        L1387
    00001008 2FE2                   MOV.L       R14,@R15
    0000100A D38F                   MOV.L       L1529+6,R3 ; ___nw__FUl
    0000100C 430B                   JSR         @R3
    0000100E E424                   MOV         #36,R4
    00001010 2008                   TST         R0,R0
    00001012 8D13                   BT/S        L1388
    00001014 2F02                   MOV.L       R0,@R15
    00001016              L1387:                            




SH SERIES C/C++ Compiler (Ver. 6.0C)                                                                 08-Nov-2021 23:20:04  PAGE   45


SCT OFFSET   CODE       C LABEL     INSTRUCTION OPERAND    COMMENT

    00001016 62F2                   MOV.L       @R15,R2
    00001018 D38C                   MOV.L       L1529+10,R3; __$__vtbl__6Object
    0000101A 1232                   MOV.L       R3,@(8,R2)
    0000101C 62F2                   MOV.L       @R15,R2
    0000101E 22C2                   MOV.L       R12,@R2
    00001020 63F2                   MOV.L       @R15,R3
    00001022 13E1                   MOV.L       R14,@(4,R3)
    00001024 63F2                   MOV.L       @R15,R3
    00001026 D28A                   MOV.L       L1529+14,R2; __$__vtbl__6Object__7Texture
    00001028 1322                   MOV.L       R2,@(8,R3)
    0000102A 63F2                   MOV.L       @R15,R3
    0000102C D28A                   MOV.L       L1529+22,R2; __$UUID_f018f68e_6f34_4b9a_bbc4_9513b3bc17c6
    0000102E 1323                   MOV.L       R2,@(12,R3)
    00001030 63F2                   MOV.L       @R15,R3
    00001032 E210                   MOV         #16,R2
    00001034 1328                   MOV.L       R2,@(32,R3)
    00001036 E214                   MOV         #20,R2
    00001038 63F2                   MOV.L       @R15,R3
    0000103A 1326                   MOV.L       R2,@(24,R3)
    0000103C              L1388:                            
    0000103C 61F2                   MOV.L       @R15,R1
    0000103E 1F1F                   MOV.L       R1,@(60,R15)
    00001040 53FA                   MOV.L       @(40,R15),R3
    00001042 2338                   TST         R3,R3
    00001044 8901                   BT          L1530
    00001046 A53C                   BRA         L1389
    00001048 0009                   NOP
    0000104A              L1530:                            
    0000104A 1FE3                   MOV.L       R14,@(12,R15)
    0000104C DB83                   MOV.L       L1529+26,R11; L408
    0000104E 1FBA                   MOV.L       R11,@(40,R15)
    00001050 DB83                   MOV.L       L1529+30,R11; L894
    00001052 1FB8                   MOV.L       R11,@(32,R15)
    00001054 53F3                   MOV.L       @(12,R15),R3
    00001056 2338                   TST         R3,R3
    00001058 8B07                   BF          L1391
    0000105A D37B                   MOV.L       L1529+6,R3 ; ___nw__FUl
    0000105C 430B                   JSR         @R3
    0000105E E438                   MOV         #56,R4
    00001060 2008                   TST         R0,R0
    00001062 8F02                   BF/S        L1531
    00001064 1F03                   MOV.L       R0,@(12,R15)
    00001066 A0C8                   BRA         L1410
    00001068 0009                   NOP
    0000106A              L1531:                            
    0000106A              L1391:                            
    0000106A 5BF3                   MOV.L       @(12,R15),R11
    0000106C D377                   MOV.L       L1529+10,R3; __$__vtbl__6Object
    0000106E 1B32                   MOV.L       R3,@(8,R11)
    00001070 5BF3                   MOV.L       @(12,R15),R11
    00001072 53FA                   MOV.L       @(40,R15),R3
    00001074 2B32                   MOV.L       R3,@R11
    00001076 5BF3                   MOV.L       @(12,R15),R11
    00001078 53F8                   MOV.L       @(32,R15),R3
    0000107A 1B31                   MOV.L       R3,@(4,R11)
    0000107C 5BF3                   MOV.L       @(12,R15),R11
    0000107E D379                   MOV.L       L1529+34,R3; __$__vtbl__6Object__10GameObject




SH SERIES C/C++ Compiler (Ver. 6.0C)                                                                 08-Nov-2021 23:20:04  PAGE   46


SCT OFFSET   CODE       C LABEL     INSTRUCTION OPERAND    COMMENT

    00001080 1B32                   MOV.L       R3,@(8,R11)
    00001082 E300                   MOV         #0,R3
    00001084 5BF3                   MOV.L       @(12,R15),R11
    00001086 1B35                   MOV.L       R3,@(20,R11)
    00001088 5BF3                   MOV.L       @(12,R15),R11
    0000108A 1BE3                   MOV.L       R14,@(12,R11)
    0000108C 5BF3                   MOV.L       @(12,R15),R11
    0000108E 1BE4                   MOV.L       R14,@(16,R11)
    00001090 5BF3                   MOV.L       @(12,R15),R11
    00001092 1BDA                   MOV.L       R13,@(40,R11)
    00001094 5BF3                   MOV.L       @(12,R15),R11
    00001096 1FE2                   MOV.L       R14,@(8,R15)
    00001098 D373                   MOV.L       L1529+38,R3; L403
    0000109A 1F3E                   MOV.L       R3,@(56,R15)
    0000109C 52F2                   MOV.L       @(8,R15),R2
    0000109E 2228                   TST         R2,R2
    000010A0 8B07                   BF          L1393
    000010A2 D369                   MOV.L       L1529+6,R3 ; ___nw__FUl
    000010A4 430B                   JSR         @R3
    000010A6 E450                   MOV         #80,R4
    000010A8 2008                   TST         R0,R0
    000010AA 8F02                   BF/S        L1532
    000010AC 1F02                   MOV.L       R0,@(8,R15)
    000010AE A094                   BRA         L1409
    000010B0 0009                   NOP
    000010B2              L1532:                            
    000010B2              L1393:                            
    000010B2 52F2                   MOV.L       @(8,R15),R2
    000010B4 D365                   MOV.L       L1529+10,R3; __$__vtbl__6Object
    000010B6 1232                   MOV.L       R3,@(8,R2)
    000010B8 52F2                   MOV.L       @(8,R15),R2
    000010BA 53FE                   MOV.L       @(56,R15),R3
    000010BC 2232                   MOV.L       R3,@R2
    000010BE 52F2                   MOV.L       @(8,R15),R2
    000010C0 12E1                   MOV.L       R14,@(4,R2)
    000010C2 53F2                   MOV.L       @(8,R15),R3
    000010C4 D269                   MOV.L       L1529+42,R2; __$__vtbl__9Component
    000010C6 1322                   MOV.L       R2,@(8,R3)
    000010C8 53F2                   MOV.L       @(8,R15),R3
    000010CA 52F3                   MOV.L       @(12,R15),R2
    000010CC 1324                   MOV.L       R2,@(16,R3)
    000010CE 53F2                   MOV.L       @(8,R15),R3
    000010D0 D267                   MOV.L       L1529+46,R2; __$__vtbl__9Transform
    000010D2 1322                   MOV.L       R2,@(8,R3)
    000010D4 53F2                   MOV.L       @(8,R15),R3
    000010D6 E200                   MOV         #0,R2
    000010D8 1329                   MOV.L       R2,@(36,R3)
    000010DA 53F2                   MOV.L       @(8,R15),R3
    000010DC 13E7                   MOV.L       R14,@(28,R3)
    000010DE 53F2                   MOV.L       @(8,R15),R3
    000010E0 13E8                   MOV.L       R14,@(32,R3)
    000010E2 53F2                   MOV.L       @(8,R15),R3
    000010E4 132A                   MOV.L       R2,@(40,R3)
    000010E6 53F2                   MOV.L       @(8,R15),R3
    000010E8 132B                   MOV.L       R2,@(44,R3)
    000010EA 53F2                   MOV.L       @(8,R15),R3
    000010EC 132C                   MOV.L       R2,@(48,R3)




SH SERIES C/C++ Compiler (Ver. 6.0C)                                                                 08-Nov-2021 23:20:04  PAGE   47


SCT OFFSET   CODE       C LABEL     INSTRUCTION OPERAND    COMMENT

    000010EE E038                   MOV         #56,R0
    000010F0 53F2                   MOV.L       @(8,R15),R3
    000010F2 132D                   MOV.L       R2,@(52,R3)
    000010F4 53F2                   MOV.L       @(8,R15),R3
    000010F6 62E3                   MOV         R14,R2
    000010F8 303C                   ADD         R3,R0
    000010FA 2228                   TST         R2,R2
    000010FC 2F06                   MOV.L       R0,@-R15
    000010FE 8F06                   BF/S        L1395
    00001100 1FE2                   MOV.L       R14,@(8,R15)
    00001102 D351                   MOV.L       L1529+6,R3 ; ___nw__FUl
    00001104 430B                   JSR         @R3
    00001106 E408                   MOV         #8,R4
    00001108 2008                   TST         R0,R0
    0000110A 8D05                   BT/S        L1404
    0000110C 1F02                   MOV.L       R0,@(8,R15)
    0000110E              L1395:                            
    0000110E E100                   MOV         #0,R1
    00001110 52F2                   MOV.L       @(8,R15),R2
    00001112 2212                   MOV.L       R1,@R2
    00001114 52F2                   MOV.L       @(8,R15),R2
    00001116 1211                   MOV.L       R1,@(4,R2)
    00001118              L1404:                            
    00001118 62F6                   MOV.L       @R15+,R2
    0000111A E03C                   MOV         #60,R0
    0000111C 53F1                   MOV.L       @(4,R15),R3
    0000111E 2232                   MOV.L       R3,@R2
    00001120 52F2                   MOV.L       @(8,R15),R2
    00001122 63E3                   MOV         R14,R3
    00001124 302C                   ADD         R2,R0
    00001126 2338                   TST         R3,R3
    00001128 2F06                   MOV.L       R0,@-R15
    0000112A 8F06                   BF/S        L1397
    0000112C 1FE2                   MOV.L       R14,@(8,R15)
    0000112E D346                   MOV.L       L1529+6,R3 ; ___nw__FUl
    00001130 430B                   JSR         @R3
    00001132 E408                   MOV         #8,R4
    00001134 2008                   TST         R0,R0
    00001136 8D05                   BT/S        L1405
    00001138 1F02                   MOV.L       R0,@(8,R15)
    0000113A              L1397:                            
    0000113A 53F2                   MOV.L       @(8,R15),R3
    0000113C D14D                   MOV.L       L1529+50,R1; H'3F800000
    0000113E 2312                   MOV.L       R1,@R3
    00001140 53F2                   MOV.L       @(8,R15),R3
    00001142 1311                   MOV.L       R1,@(4,R3)
    00001144              L1405:                            
    00001144 63F6                   MOV.L       @R15+,R3
    00001146 E040                   MOV         #64,R0
    00001148 52F1                   MOV.L       @(4,R15),R2
    0000114A 2322                   MOV.L       R2,@R3
    0000114C 53F2                   MOV.L       @(8,R15),R3
    0000114E 62E3                   MOV         R14,R2
    00001150 303C                   ADD         R3,R0
    00001152 2228                   TST         R2,R2
    00001154 2F06                   MOV.L       R0,@-R15
    00001156 8F06                   BF/S        L1399




SH SERIES C/C++ Compiler (Ver. 6.0C)                                                                 08-Nov-2021 23:20:04  PAGE   48


SCT OFFSET   CODE       C LABEL     INSTRUCTION OPERAND    COMMENT

    00001158 1FE2                   MOV.L       R14,@(8,R15)
    0000115A D33B                   MOV.L       L1529+6,R3 ; ___nw__FUl
    0000115C 430B                   JSR         @R3
    0000115E E408                   MOV         #8,R4
    00001160 2008                   TST         R0,R0
    00001162 8D05                   BT/S        L1406
    00001164 1F02                   MOV.L       R0,@(8,R15)
    00001166              L1399:                            
    00001166 52F2                   MOV.L       @(8,R15),R2
    00001168 D142                   MOV.L       L1529+50,R1; H'3F800000
    0000116A 2212                   MOV.L       R1,@R2
    0000116C 52F2                   MOV.L       @(8,R15),R2
    0000116E 1211                   MOV.L       R1,@(4,R2)
    00001170              L1406:                            
    00001170 62F6                   MOV.L       @R15+,R2
    00001172 E044                   MOV         #68,R0
    00001174 53F1                   MOV.L       @(4,R15),R3
    00001176 2232                   MOV.L       R3,@R2
    00001178 52F2                   MOV.L       @(8,R15),R2
    0000117A 02E6                   MOV.L       R14,@(R0,R2)
    0000117C 53F2                   MOV.L       @(8,R15),R3
    0000117E E048                   MOV         #72,R0
    00001180 303C                   ADD         R3,R0
    00001182 62E3                   MOV         R14,R2
    00001184 2F06                   MOV.L       R0,@-R15
    00001186 2228                   TST         R2,R2
    00001188 8F06                   BF/S        L1401
    0000118A 1FE2                   MOV.L       R14,@(8,R15)
    0000118C D32E                   MOV.L       L1529+6,R3 ; ___nw__FUl
    0000118E 430B                   JSR         @R3
    00001190 E408                   MOV         #8,R4
    00001192 2008                   TST         R0,R0
    00001194 8D05                   BT/S        L1407
    00001196 1F02                   MOV.L       R0,@(8,R15)
    00001198              L1401:                            
    00001198 52F2                   MOV.L       @(8,R15),R2
    0000119A E100                   MOV         #0,R1
    0000119C 2212                   MOV.L       R1,@R2
    0000119E 52F2                   MOV.L       @(8,R15),R2
    000011A0 1211                   MOV.L       R1,@(4,R2)
    000011A2              L1407:                            
    000011A2 E04C                   MOV         #76,R0
    000011A4 62F6                   MOV.L       @R15+,R2
    000011A6 53F1                   MOV.L       @(4,R15),R3
    000011A8 2232                   MOV.L       R3,@R2
    000011AA 52F2                   MOV.L       @(8,R15),R2
    000011AC 02E6                   MOV.L       R14,@(R0,R2)
    000011AE E018                   MOV         #24,R0
    000011B0 53F2                   MOV.L       @(8,R15),R3
    000011B2 62E3                   MOV         R14,R2
    000011B4 303C                   ADD         R3,R0
    000011B6 2228                   TST         R2,R2
    000011B8 2F06                   MOV.L       R0,@-R15
    000011BA 8F06                   BF/S        L1403
    000011BC 1FE2                   MOV.L       R14,@(8,R15)
    000011BE D322                   MOV.L       L1529+6,R3 ; ___nw__FUl
    000011C0 430B                   JSR         @R3




SH SERIES C/C++ Compiler (Ver. 6.0C)                                                                 08-Nov-2021 23:20:04  PAGE   49


SCT OFFSET   CODE       C LABEL     INSTRUCTION OPERAND    COMMENT

    000011C2 E408                   MOV         #8,R4
    000011C4 2008                   TST         R0,R0
    000011C6 8D05                   BT/S        L1408
    000011C8 1F02                   MOV.L       R0,@(8,R15)
    000011CA              L1403:                            
    000011CA E100                   MOV         #0,R1
    000011CC 52F2                   MOV.L       @(8,R15),R2
    000011CE 2212                   MOV.L       R1,@R2
    000011D0 52F2                   MOV.L       @(8,R15),R2
    000011D2 1211                   MOV.L       R1,@(4,R2)
    000011D4              L1408:                            
    000011D4 62F6                   MOV.L       @R15+,R2
    000011D6 53F1                   MOV.L       @(4,R15),R3
    000011D8 2232                   MOV.L       R3,@R2
    000011DA              L1409:                            
    000011DA E301                   MOV         #1,R3
    000011DC 51F2                   MOV.L       @(8,R15),R1
    000011DE 1B1D                   MOV.L       R1,@(52,R11)
    000011E0 5BF3                   MOV.L       @(12,R15),R11
    000011E2 1B36                   MOV.L       R3,@(24,R11)
    000011E4 5BF3                   MOV.L       @(12,R15),R11
    000011E6 1B37                   MOV.L       R3,@(28,R11)
    000011E8 5BF3                   MOV.L       @(12,R15),R11
    000011EA E300                   MOV         #0,R3
    000011EC 1B38                   MOV.L       R3,@(32,R11)
    000011EE 5BF3                   MOV.L       @(12,R15),R11
    000011F0 1B39                   MOV.L       R3,@(36,R11)
    000011F2 5BF3                   MOV.L       @(12,R15),R11
    000011F4 1B3B                   MOV.L       R3,@(44,R11)
    000011F6 5BF3                   MOV.L       @(12,R15),R11
    000011F8 1B3C                   MOV.L       R3,@(48,R11)
    000011FA              L1410:                            
    000011FA E048                   MOV         #72,R0
    000011FC 5BF3                   MOV.L       @(12,R15),R11
    000011FE E300                   MOV         #0,R3
    00001200 1B87                   MOV.L       R8,@(28,R11)
    00001202 6233                   MOV         R3,R2
    00001204 1B86                   MOV.L       R8,@(24,R11)
    00001206 1BE8                   MOV.L       R14,@(32,R11)
    00001208 54BD                   MOV.L       @(52,R11),R4
    0000120A 044E                   MOV.L       @(R0,R4),R4
    0000120C 2432                   MOV.L       R3,@R4
    0000120E 1431                   MOV.L       R3,@(4,R4)
    00001210 54BD                   MOV.L       @(52,R11),R4
    00001212 544E                   MOV.L       @(56,R4),R4
    00001214 2422                   MOV.L       R2,@R4
    00001216 1421                   MOV.L       R2,@(4,R4)
    00001218 490B                   JSR         @R9
    0000121A E40C                   MOV         #12,R4
    0000121C 2008                   TST         R0,R0
    0000121E 8D06                   BT/S        L1411
    00001220 6C03                   MOV         R0,R12
    00001222 E50C                   MOV         #12,R5
    00001224 D214                   MOV.L       L1529+54,R2; ___memzero
    00001226 420B                   JSR         @R2
    00001228 64C3                   MOV         R12,R4
    0000122A A001                   BRA         L1412




SH SERIES C/C++ Compiler (Ver. 6.0C)                                                                 08-Nov-2021 23:20:04  PAGE   50


SCT OFFSET   CODE       C LABEL     INSTRUCTION OPERAND    COMMENT

    0000122C 64C3                   MOV         R12,R4
    0000122E              L1411:                            
    0000122E 64E3                   MOV         R14,R4
    00001230              L1412:                            
    00001230 24B2                   MOV.L       R11,@R4
    00001232 52D2                   MOV.L       @(8,R13),R2
    00001234 7201                   ADD         #1,R2
    00001236 1D22                   MOV.L       R2,@(8,R13)
    00001238 63D2                   MOV.L       @R13,R3
    0000123A 2338                   TST         R3,R3
    0000123C 8B1E                   BF          L1413
    0000123E A021                   BRA         L955
    00001240 2D42                   MOV.L       R4,@R13
    00001242              L1529:                            
    00001242 0000                   .DATA.W     0
    00001244 <00000000>             .DATA.L     __$UUID_e4cf6d14_c9f2_4336_bb03_53529e5e4d6f
    00001248 <00000000>             .DATA.L     ___nw__FUl
    0000124C <00000000>             .DATA.L     __$__vtbl__6Object
    00001250 <00000000>             .DATA.L     __$__vtbl__6Object__7Texture
    00001254 <00000000>             .DATA.L     __$UUID_e870f483_8f84_44ae_b86c_bb1978372306
    00001258 <00000000>             .DATA.L     __$UUID_f018f68e_6f34_4b9a_bbc4_9513b3bc17c6
    0000125C <00000000>             .DATA.L     L408
    00001260 <00000000>             .DATA.L     L894
    00001264 <00000000>             .DATA.L     __$__vtbl__6Object__10GameObject
    00001268 <00000000>             .DATA.L     L403
    0000126C <00000000>             .DATA.L     __$__vtbl__9Component
    00001270 <00000000>             .DATA.L     __$__vtbl__9Transform
    00001274 3F800000               .DATA.L     H'3F800000
    00001278 <00000000>             .DATA.L     ___memzero
    0000127C              L1413:                            
    0000127C 53D1                   MOV.L       @(4,R13),R3
    0000127E 1432                   MOV.L       R3,@(8,R4)
    00001280 52D1                   MOV.L       @(4,R13),R2
    00001282 1241                   MOV.L       R4,@(4,R2)
    00001284              L955:
    00001284 1D41                   MOV.L       R4,@(4,R13)
    00001286 1FE3                   MOV.L       R14,@(12,R15)
    00001288 DC7D                   MOV.L       L1533+2,R12; L902
    0000128A 1FCA                   MOV.L       R12,@(40,R15)
    0000128C DC7D                   MOV.L       L1533+6,R12; L903
    0000128E 1FC8                   MOV.L       R12,@(32,R15)
    00001290 53F3                   MOV.L       @(12,R15),R3
    00001292 2338                   TST         R3,R3
    00001294 8B07                   BF          L1416
    00001296 D37C                   MOV.L       L1533+10,R3; ___nw__FUl
    00001298 430B                   JSR         @R3
    0000129A E438                   MOV         #56,R4
    0000129C 2008                   TST         R0,R0
    0000129E 8F02                   BF/S        L1534
    000012A0 1F03                   MOV.L       R0,@(12,R15)
    000012A2 A0C8                   BRA         L1435
    000012A4 0009                   NOP
    000012A6              L1534:                            
    000012A6              L1416:                            
    000012A6 5CF3                   MOV.L       @(12,R15),R12
    000012A8 D378                   MOV.L       L1533+14,R3; __$__vtbl__6Object
    000012AA 1C32                   MOV.L       R3,@(8,R12)




SH SERIES C/C++ Compiler (Ver. 6.0C)                                                                 08-Nov-2021 23:20:04  PAGE   51


SCT OFFSET   CODE       C LABEL     INSTRUCTION OPERAND    COMMENT

    000012AC 5CF3                   MOV.L       @(12,R15),R12
    000012AE 53FA                   MOV.L       @(40,R15),R3
    000012B0 2C32                   MOV.L       R3,@R12
    000012B2 5CF3                   MOV.L       @(12,R15),R12
    000012B4 53F8                   MOV.L       @(32,R15),R3
    000012B6 1C31                   MOV.L       R3,@(4,R12)
    000012B8 5CF3                   MOV.L       @(12,R15),R12
    000012BA D375                   MOV.L       L1533+18,R3; __$__vtbl__6Object__10GameObject
    000012BC 1C32                   MOV.L       R3,@(8,R12)
    000012BE E300                   MOV         #0,R3
    000012C0 5CF3                   MOV.L       @(12,R15),R12
    000012C2 1C35                   MOV.L       R3,@(20,R12)
    000012C4 5CF3                   MOV.L       @(12,R15),R12
    000012C6 1CE3                   MOV.L       R14,@(12,R12)
    000012C8 5CF3                   MOV.L       @(12,R15),R12
    000012CA 1CE4                   MOV.L       R14,@(16,R12)
    000012CC 5CF3                   MOV.L       @(12,R15),R12
    000012CE 1CDA                   MOV.L       R13,@(40,R12)
    000012D0 5CF3                   MOV.L       @(12,R15),R12
    000012D2 1FE2                   MOV.L       R14,@(8,R15)
    000012D4 D36F                   MOV.L       L1533+22,R3; L403
    000012D6 1F3E                   MOV.L       R3,@(56,R15)
    000012D8 52F2                   MOV.L       @(8,R15),R2
    000012DA 2228                   TST         R2,R2
    000012DC 8B07                   BF          L1418
    000012DE D36A                   MOV.L       L1533+10,R3; ___nw__FUl
    000012E0 430B                   JSR         @R3
    000012E2 E450                   MOV         #80,R4
    000012E4 2008                   TST         R0,R0
    000012E6 8F02                   BF/S        L1535
    000012E8 1F02                   MOV.L       R0,@(8,R15)
    000012EA A094                   BRA         L1434
    000012EC 0009                   NOP
    000012EE              L1535:                            
    000012EE              L1418:                            
    000012EE 52F2                   MOV.L       @(8,R15),R2
    000012F0 D366                   MOV.L       L1533+14,R3; __$__vtbl__6Object
    000012F2 1232                   MOV.L       R3,@(8,R2)
    000012F4 52F2                   MOV.L       @(8,R15),R2
    000012F6 53FE                   MOV.L       @(56,R15),R3
    000012F8 2232                   MOV.L       R3,@R2
    000012FA 52F2                   MOV.L       @(8,R15),R2
    000012FC 12E1                   MOV.L       R14,@(4,R2)
    000012FE 53F2                   MOV.L       @(8,R15),R3
    00001300 D265                   MOV.L       L1533+26,R2; __$__vtbl__9Component
    00001302 1322                   MOV.L       R2,@(8,R3)
    00001304 53F2                   MOV.L       @(8,R15),R3
    00001306 52F3                   MOV.L       @(12,R15),R2
    00001308 1324                   MOV.L       R2,@(16,R3)
    0000130A 53F2                   MOV.L       @(8,R15),R3
    0000130C D263                   MOV.L       L1533+30,R2; __$__vtbl__9Transform
    0000130E 1322                   MOV.L       R2,@(8,R3)
    00001310 53F2                   MOV.L       @(8,R15),R3
    00001312 E200                   MOV         #0,R2
    00001314 1329                   MOV.L       R2,@(36,R3)
    00001316 53F2                   MOV.L       @(8,R15),R3
    00001318 13E7                   MOV.L       R14,@(28,R3)




SH SERIES C/C++ Compiler (Ver. 6.0C)                                                                 08-Nov-2021 23:20:04  PAGE   52


SCT OFFSET   CODE       C LABEL     INSTRUCTION OPERAND    COMMENT

    0000131A 53F2                   MOV.L       @(8,R15),R3
    0000131C 13E8                   MOV.L       R14,@(32,R3)
    0000131E 53F2                   MOV.L       @(8,R15),R3
    00001320 132A                   MOV.L       R2,@(40,R3)
    00001322 53F2                   MOV.L       @(8,R15),R3
    00001324 132B                   MOV.L       R2,@(44,R3)
    00001326 53F2                   MOV.L       @(8,R15),R3
    00001328 132C                   MOV.L       R2,@(48,R3)
    0000132A E038                   MOV         #56,R0
    0000132C 53F2                   MOV.L       @(8,R15),R3
    0000132E 132D                   MOV.L       R2,@(52,R3)
    00001330 53F2                   MOV.L       @(8,R15),R3
    00001332 62E3                   MOV         R14,R2
    00001334 303C                   ADD         R3,R0
    00001336 2228                   TST         R2,R2
    00001338 2F06                   MOV.L       R0,@-R15
    0000133A 8F06                   BF/S        L1420
    0000133C 1FE2                   MOV.L       R14,@(8,R15)
    0000133E D352                   MOV.L       L1533+10,R3; ___nw__FUl
    00001340 430B                   JSR         @R3
    00001342 E408                   MOV         #8,R4
    00001344 2008                   TST         R0,R0
    00001346 8D05                   BT/S        L1429
    00001348 1F02                   MOV.L       R0,@(8,R15)
    0000134A              L1420:                            
    0000134A E100                   MOV         #0,R1
    0000134C 52F2                   MOV.L       @(8,R15),R2
    0000134E 2212                   MOV.L       R1,@R2
    00001350 52F2                   MOV.L       @(8,R15),R2
    00001352 1211                   MOV.L       R1,@(4,R2)
    00001354              L1429:                            
    00001354 62F6                   MOV.L       @R15+,R2
    00001356 E03C                   MOV         #60,R0
    00001358 53F1                   MOV.L       @(4,R15),R3
    0000135A 2232                   MOV.L       R3,@R2
    0000135C 52F2                   MOV.L       @(8,R15),R2
    0000135E 63E3                   MOV         R14,R3
    00001360 302C                   ADD         R2,R0
    00001362 2338                   TST         R3,R3
    00001364 2F06                   MOV.L       R0,@-R15
    00001366 8F06                   BF/S        L1422
    00001368 1FE2                   MOV.L       R14,@(8,R15)
    0000136A D347                   MOV.L       L1533+10,R3; ___nw__FUl
    0000136C 430B                   JSR         @R3
    0000136E E408                   MOV         #8,R4
    00001370 2008                   TST         R0,R0
    00001372 8D05                   BT/S        L1430
    00001374 1F02                   MOV.L       R0,@(8,R15)
    00001376              L1422:                            
    00001376 53F2                   MOV.L       @(8,R15),R3
    00001378 D149                   MOV.L       L1533+34,R1; H'3F800000
    0000137A 2312                   MOV.L       R1,@R3
    0000137C 53F2                   MOV.L       @(8,R15),R3
    0000137E 1311                   MOV.L       R1,@(4,R3)
    00001380              L1430:                            
    00001380 63F6                   MOV.L       @R15+,R3
    00001382 E040                   MOV         #64,R0




SH SERIES C/C++ Compiler (Ver. 6.0C)                                                                 08-Nov-2021 23:20:04  PAGE   53


SCT OFFSET   CODE       C LABEL     INSTRUCTION OPERAND    COMMENT

    00001384 52F1                   MOV.L       @(4,R15),R2
    00001386 2322                   MOV.L       R2,@R3
    00001388 53F2                   MOV.L       @(8,R15),R3
    0000138A 62E3                   MOV         R14,R2
    0000138C 303C                   ADD         R3,R0
    0000138E 2228                   TST         R2,R2
    00001390 2F06                   MOV.L       R0,@-R15
    00001392 8F06                   BF/S        L1424
    00001394 1FE2                   MOV.L       R14,@(8,R15)
    00001396 D33C                   MOV.L       L1533+10,R3; ___nw__FUl
    00001398 430B                   JSR         @R3
    0000139A E408                   MOV         #8,R4
    0000139C 2008                   TST         R0,R0
    0000139E 8D05                   BT/S        L1431
    000013A0 1F02                   MOV.L       R0,@(8,R15)
    000013A2              L1424:                            
    000013A2 52F2                   MOV.L       @(8,R15),R2
    000013A4 D13E                   MOV.L       L1533+34,R1; H'3F800000
    000013A6 2212                   MOV.L       R1,@R2
    000013A8 52F2                   MOV.L       @(8,R15),R2
    000013AA 1211                   MOV.L       R1,@(4,R2)
    000013AC              L1431:                            
    000013AC 62F6                   MOV.L       @R15+,R2
    000013AE E044                   MOV         #68,R0
    000013B0 53F1                   MOV.L       @(4,R15),R3
    000013B2 2232                   MOV.L       R3,@R2
    000013B4 52F2                   MOV.L       @(8,R15),R2
    000013B6 02E6                   MOV.L       R14,@(R0,R2)
    000013B8 53F2                   MOV.L       @(8,R15),R3
    000013BA E048                   MOV         #72,R0
    000013BC 303C                   ADD         R3,R0
    000013BE 62E3                   MOV         R14,R2
    000013C0 2F06                   MOV.L       R0,@-R15
    000013C2 2228                   TST         R2,R2
    000013C4 8F06                   BF/S        L1426
    000013C6 1FE2                   MOV.L       R14,@(8,R15)
    000013C8 D32F                   MOV.L       L1533+10,R3; ___nw__FUl
    000013CA 430B                   JSR         @R3
    000013CC E408                   MOV         #8,R4
    000013CE 2008                   TST         R0,R0
    000013D0 8D05                   BT/S        L1432
    000013D2 1F02                   MOV.L       R0,@(8,R15)
    000013D4              L1426:                            
    000013D4 52F2                   MOV.L       @(8,R15),R2
    000013D6 E100                   MOV         #0,R1
    000013D8 2212                   MOV.L       R1,@R2
    000013DA 52F2                   MOV.L       @(8,R15),R2
    000013DC 1211                   MOV.L       R1,@(4,R2)
    000013DE              L1432:                            
    000013DE E04C                   MOV         #76,R0
    000013E0 62F6                   MOV.L       @R15+,R2
    000013E2 53F1                   MOV.L       @(4,R15),R3
    000013E4 2232                   MOV.L       R3,@R2
    000013E6 52F2                   MOV.L       @(8,R15),R2
    000013E8 02E6                   MOV.L       R14,@(R0,R2)
    000013EA E018                   MOV         #24,R0
    000013EC 53F2                   MOV.L       @(8,R15),R3




SH SERIES C/C++ Compiler (Ver. 6.0C)                                                                 08-Nov-2021 23:20:04  PAGE   54


SCT OFFSET   CODE       C LABEL     INSTRUCTION OPERAND    COMMENT

    000013EE 62E3                   MOV         R14,R2
    000013F0 303C                   ADD         R3,R0
    000013F2 2228                   TST         R2,R2
    000013F4 2F06                   MOV.L       R0,@-R15
    000013F6 8F06                   BF/S        L1428
    000013F8 1FE2                   MOV.L       R14,@(8,R15)
    000013FA D323                   MOV.L       L1533+10,R3; ___nw__FUl
    000013FC 430B                   JSR         @R3
    000013FE E408                   MOV         #8,R4
    00001400 2008                   TST         R0,R0
    00001402 8D05                   BT/S        L1433
    00001404 1F02                   MOV.L       R0,@(8,R15)
    00001406              L1428:                            
    00001406 E100                   MOV         #0,R1
    00001408 52F2                   MOV.L       @(8,R15),R2
    0000140A 2212                   MOV.L       R1,@R2
    0000140C 52F2                   MOV.L       @(8,R15),R2
    0000140E 1211                   MOV.L       R1,@(4,R2)
    00001410              L1433:                            
    00001410 62F6                   MOV.L       @R15+,R2
    00001412 53F1                   MOV.L       @(4,R15),R3
    00001414 2232                   MOV.L       R3,@R2
    00001416              L1434:                            
    00001416 E301                   MOV         #1,R3
    00001418 51F2                   MOV.L       @(8,R15),R1
    0000141A 1C1D                   MOV.L       R1,@(52,R12)
    0000141C 5CF3                   MOV.L       @(12,R15),R12
    0000141E 1C36                   MOV.L       R3,@(24,R12)
    00001420 5CF3                   MOV.L       @(12,R15),R12
    00001422 1C37                   MOV.L       R3,@(28,R12)
    00001424 5CF3                   MOV.L       @(12,R15),R12
    00001426 E300                   MOV         #0,R3
    00001428 1C38                   MOV.L       R3,@(32,R12)
    0000142A 5CF3                   MOV.L       @(12,R15),R12
    0000142C 1C39                   MOV.L       R3,@(36,R12)
    0000142E 5CF3                   MOV.L       @(12,R15),R12
    00001430 1C3B                   MOV.L       R3,@(44,R12)
    00001432 5CF3                   MOV.L       @(12,R15),R12
    00001434 1C3C                   MOV.L       R3,@(48,R12)
    00001436              L1435:                            
    00001436 E048                   MOV         #72,R0
    00001438 D31A                   MOV.L       L1533+38,R3; H'42300000
    0000143A 5CF3                   MOV.L       @(12,R15),R12
    0000143C D21A                   MOV.L       L1533+42,R2; H'41A00000
    0000143E 1C87                   MOV.L       R8,@(28,R12)
    00001440 1C86                   MOV.L       R8,@(24,R12)
    00001442 1CE8                   MOV.L       R14,@(32,R12)
    00001444 54CD                   MOV.L       @(52,R12),R4
    00001446 044E                   MOV.L       @(R0,R4),R4
    00001448 2432                   MOV.L       R3,@R4
    0000144A 1421                   MOV.L       R2,@(4,R4)
    0000144C 54CD                   MOV.L       @(52,R12),R4
    0000144E 544E                   MOV.L       @(56,R4),R4
    00001450 2432                   MOV.L       R3,@R4
    00001452 1421                   MOV.L       R2,@(4,R4)
    00001454 490B                   JSR         @R9
    00001456 E40C                   MOV         #12,R4




SH SERIES C/C++ Compiler (Ver. 6.0C)                                                                 08-Nov-2021 23:20:04  PAGE   55


SCT OFFSET   CODE       C LABEL     INSTRUCTION OPERAND    COMMENT

    00001458 2008                   TST         R0,R0
    0000145A 8D06                   BT/S        L1436
    0000145C 6A03                   MOV         R0,R10
    0000145E E50C                   MOV         #12,R5
    00001460 D212                   MOV.L       L1533+46,R2; ___memzero
    00001462 420B                   JSR         @R2
    00001464 64A3                   MOV         R10,R4
    00001466 A001                   BRA         L1437
    00001468 64A3                   MOV         R10,R4
    0000146A              L1436:                            
    0000146A 64E3                   MOV         R14,R4
    0000146C              L1437:                            
    0000146C 24C2                   MOV.L       R12,@R4
    0000146E 52D2                   MOV.L       @(8,R13),R2
    00001470 7201                   ADD         #1,R2
    00001472 1D22                   MOV.L       R2,@(8,R13)
    00001474 63D2                   MOV.L       @R13,R3
    00001476 2338                   TST         R3,R3
    00001478 8B1A                   BF          L1438
    0000147A A01D                   BRA         L957
    0000147C 2D42                   MOV.L       R4,@R13
    0000147E              L1533:                            
    0000147E 0000                   .DATA.W     0
    00001480 <00000000>             .DATA.L     L902
    00001484 <00000000>             .DATA.L     L903
    00001488 <00000000>             .DATA.L     ___nw__FUl
    0000148C <00000000>             .DATA.L     __$__vtbl__6Object
    00001490 <00000000>             .DATA.L     __$__vtbl__6Object__10GameObject
    00001494 <00000000>             .DATA.L     L403
    00001498 <00000000>             .DATA.L     __$__vtbl__9Component
    0000149C <00000000>             .DATA.L     __$__vtbl__9Transform
    000014A0 3F800000               .DATA.L     H'3F800000
    000014A4 42300000               .DATA.L     H'42300000
    000014A8 41A00000               .DATA.L     H'41A00000
    000014AC <00000000>             .DATA.L     ___memzero
    000014B0              L1438:                            
    000014B0 53D1                   MOV.L       @(4,R13),R3
    000014B2 1432                   MOV.L       R3,@(8,R4)
    000014B4 52D1                   MOV.L       @(4,R13),R2
    000014B6 1241                   MOV.L       R4,@(4,R2)
    000014B8              L957:
    000014B8 1D41                   MOV.L       R4,@(4,R13)
    000014BA 1FE3                   MOV.L       R14,@(12,R15)
    000014BC DA9C                   MOV.L       L1536+2,R10; L410
    000014BE 1FAA                   MOV.L       R10,@(40,R15)
    000014C0 DA9C                   MOV.L       L1536+6,R10; L911
    000014C2 1FA8                   MOV.L       R10,@(32,R15)
    000014C4 53F3                   MOV.L       @(12,R15),R3
    000014C6 2338                   TST         R3,R3
    000014C8 8B07                   BF          L1441
    000014CA D39B                   MOV.L       L1536+10,R3; ___nw__FUl
    000014CC 430B                   JSR         @R3
    000014CE E438                   MOV         #56,R4
    000014D0 2008                   TST         R0,R0
    000014D2 8F02                   BF/S        L1537
    000014D4 1F03                   MOV.L       R0,@(12,R15)
    000014D6 A0C8                   BRA         L1460




SH SERIES C/C++ Compiler (Ver. 6.0C)                                                                 08-Nov-2021 23:20:04  PAGE   56


SCT OFFSET   CODE       C LABEL     INSTRUCTION OPERAND    COMMENT

    000014D8 0009                   NOP
    000014DA              L1537:                            
    000014DA              L1441:                            
    000014DA 5AF3                   MOV.L       @(12,R15),R10
    000014DC D397                   MOV.L       L1536+14,R3; __$__vtbl__6Object
    000014DE 1A32                   MOV.L       R3,@(8,R10)
    000014E0 5AF3                   MOV.L       @(12,R15),R10
    000014E2 53FA                   MOV.L       @(40,R15),R3
    000014E4 2A32                   MOV.L       R3,@R10
    000014E6 5AF3                   MOV.L       @(12,R15),R10
    000014E8 53F8                   MOV.L       @(32,R15),R3
    000014EA 1A31                   MOV.L       R3,@(4,R10)
    000014EC 5AF3                   MOV.L       @(12,R15),R10
    000014EE D394                   MOV.L       L1536+18,R3; __$__vtbl__6Object__10GameObject
    000014F0 1A32                   MOV.L       R3,@(8,R10)
    000014F2 E300                   MOV         #0,R3
    000014F4 5AF3                   MOV.L       @(12,R15),R10
    000014F6 1A35                   MOV.L       R3,@(20,R10)
    000014F8 5AF3                   MOV.L       @(12,R15),R10
    000014FA 1AE3                   MOV.L       R14,@(12,R10)
    000014FC 5AF3                   MOV.L       @(12,R15),R10
    000014FE 1AE4                   MOV.L       R14,@(16,R10)
    00001500 5AF3                   MOV.L       @(12,R15),R10
    00001502 1ADA                   MOV.L       R13,@(40,R10)
    00001504 5AF3                   MOV.L       @(12,R15),R10
    00001506 1FE2                   MOV.L       R14,@(8,R15)
    00001508 D38E                   MOV.L       L1536+22,R3; L403
    0000150A 1F3E                   MOV.L       R3,@(56,R15)
    0000150C 52F2                   MOV.L       @(8,R15),R2
    0000150E 2228                   TST         R2,R2
    00001510 8B07                   BF          L1443
    00001512 D389                   MOV.L       L1536+10,R3; ___nw__FUl
    00001514 430B                   JSR         @R3
    00001516 E450                   MOV         #80,R4
    00001518 2008                   TST         R0,R0
    0000151A 8F02                   BF/S        L1538
    0000151C 1F02                   MOV.L       R0,@(8,R15)
    0000151E A094                   BRA         L1459
    00001520 0009                   NOP
    00001522              L1538:                            
    00001522              L1443:                            
    00001522 52F2                   MOV.L       @(8,R15),R2
    00001524 D385                   MOV.L       L1536+14,R3; __$__vtbl__6Object
    00001526 1232                   MOV.L       R3,@(8,R2)
    00001528 52F2                   MOV.L       @(8,R15),R2
    0000152A 53FE                   MOV.L       @(56,R15),R3
    0000152C 2232                   MOV.L       R3,@R2
    0000152E 52F2                   MOV.L       @(8,R15),R2
    00001530 12E1                   MOV.L       R14,@(4,R2)
    00001532 53F2                   MOV.L       @(8,R15),R3
    00001534 D284                   MOV.L       L1536+26,R2; __$__vtbl__9Component
    00001536 1322                   MOV.L       R2,@(8,R3)
    00001538 53F2                   MOV.L       @(8,R15),R3
    0000153A 52F3                   MOV.L       @(12,R15),R2
    0000153C 1324                   MOV.L       R2,@(16,R3)
    0000153E 53F2                   MOV.L       @(8,R15),R3
    00001540 D282                   MOV.L       L1536+30,R2; __$__vtbl__9Transform




SH SERIES C/C++ Compiler (Ver. 6.0C)                                                                 08-Nov-2021 23:20:04  PAGE   57


SCT OFFSET   CODE       C LABEL     INSTRUCTION OPERAND    COMMENT

    00001542 1322                   MOV.L       R2,@(8,R3)
    00001544 53F2                   MOV.L       @(8,R15),R3
    00001546 E200                   MOV         #0,R2
    00001548 1329                   MOV.L       R2,@(36,R3)
    0000154A 53F2                   MOV.L       @(8,R15),R3
    0000154C 13E7                   MOV.L       R14,@(28,R3)
    0000154E 53F2                   MOV.L       @(8,R15),R3
    00001550 13E8                   MOV.L       R14,@(32,R3)
    00001552 53F2                   MOV.L       @(8,R15),R3
    00001554 132A                   MOV.L       R2,@(40,R3)
    00001556 53F2                   MOV.L       @(8,R15),R3
    00001558 132B                   MOV.L       R2,@(44,R3)
    0000155A 53F2                   MOV.L       @(8,R15),R3
    0000155C 132C                   MOV.L       R2,@(48,R3)
    0000155E E038                   MOV         #56,R0
    00001560 53F2                   MOV.L       @(8,R15),R3
    00001562 132D                   MOV.L       R2,@(52,R3)
    00001564 53F2                   MOV.L       @(8,R15),R3
    00001566 62E3                   MOV         R14,R2
    00001568 303C                   ADD         R3,R0
    0000156A 2228                   TST         R2,R2
    0000156C 2F06                   MOV.L       R0,@-R15
    0000156E 8F06                   BF/S        L1445
    00001570 1FE2                   MOV.L       R14,@(8,R15)
    00001572 D371                   MOV.L       L1536+10,R3; ___nw__FUl
    00001574 430B                   JSR         @R3
    00001576 E408                   MOV         #8,R4
    00001578 2008                   TST         R0,R0
    0000157A 8D05                   BT/S        L1454
    0000157C 1F02                   MOV.L       R0,@(8,R15)
    0000157E              L1445:                            
    0000157E E100                   MOV         #0,R1
    00001580 52F2                   MOV.L       @(8,R15),R2
    00001582 2212                   MOV.L       R1,@R2
    00001584 52F2                   MOV.L       @(8,R15),R2
    00001586 1211                   MOV.L       R1,@(4,R2)
    00001588              L1454:                            
    00001588 62F6                   MOV.L       @R15+,R2
    0000158A E03C                   MOV         #60,R0
    0000158C 53F1                   MOV.L       @(4,R15),R3
    0000158E 2232                   MOV.L       R3,@R2
    00001590 52F2                   MOV.L       @(8,R15),R2
    00001592 63E3                   MOV         R14,R3
    00001594 302C                   ADD         R2,R0
    00001596 2338                   TST         R3,R3
    00001598 2F06                   MOV.L       R0,@-R15
    0000159A 8F06                   BF/S        L1447
    0000159C 1FE2                   MOV.L       R14,@(8,R15)
    0000159E D366                   MOV.L       L1536+10,R3; ___nw__FUl
    000015A0 430B                   JSR         @R3
    000015A2 E408                   MOV         #8,R4
    000015A4 2008                   TST         R0,R0
    000015A6 8D05                   BT/S        L1455
    000015A8 1F02                   MOV.L       R0,@(8,R15)
    000015AA              L1447:                            
    000015AA 53F2                   MOV.L       @(8,R15),R3
    000015AC D168                   MOV.L       L1536+34,R1; H'3F800000




SH SERIES C/C++ Compiler (Ver. 6.0C)                                                                 08-Nov-2021 23:20:04  PAGE   58


SCT OFFSET   CODE       C LABEL     INSTRUCTION OPERAND    COMMENT

    000015AE 2312                   MOV.L       R1,@R3
    000015B0 53F2                   MOV.L       @(8,R15),R3
    000015B2 1311                   MOV.L       R1,@(4,R3)
    000015B4              L1455:                            
    000015B4 63F6                   MOV.L       @R15+,R3
    000015B6 E040                   MOV         #64,R0
    000015B8 52F1                   MOV.L       @(4,R15),R2
    000015BA 2322                   MOV.L       R2,@R3
    000015BC 53F2                   MOV.L       @(8,R15),R3
    000015BE 62E3                   MOV         R14,R2
    000015C0 303C                   ADD         R3,R0
    000015C2 2228                   TST         R2,R2
    000015C4 2F06                   MOV.L       R0,@-R15
    000015C6 8F06                   BF/S        L1449
    000015C8 1FE2                   MOV.L       R14,@(8,R15)
    000015CA D35B                   MOV.L       L1536+10,R3; ___nw__FUl
    000015CC 430B                   JSR         @R3
    000015CE E408                   MOV         #8,R4
    000015D0 2008                   TST         R0,R0
    000015D2 8D05                   BT/S        L1456
    000015D4 1F02                   MOV.L       R0,@(8,R15)
    000015D6              L1449:                            
    000015D6 52F2                   MOV.L       @(8,R15),R2
    000015D8 D15D                   MOV.L       L1536+34,R1; H'3F800000
    000015DA 2212                   MOV.L       R1,@R2
    000015DC 52F2                   MOV.L       @(8,R15),R2
    000015DE 1211                   MOV.L       R1,@(4,R2)
    000015E0              L1456:                            
    000015E0 62F6                   MOV.L       @R15+,R2
    000015E2 E044                   MOV         #68,R0
    000015E4 53F1                   MOV.L       @(4,R15),R3
    000015E6 2232                   MOV.L       R3,@R2
    000015E8 52F2                   MOV.L       @(8,R15),R2
    000015EA 02E6                   MOV.L       R14,@(R0,R2)
    000015EC 53F2                   MOV.L       @(8,R15),R3
    000015EE E048                   MOV         #72,R0
    000015F0 303C                   ADD         R3,R0
    000015F2 62E3                   MOV         R14,R2
    000015F4 2F06                   MOV.L       R0,@-R15
    000015F6 2228                   TST         R2,R2
    000015F8 8F06                   BF/S        L1451
    000015FA 1FE2                   MOV.L       R14,@(8,R15)
    000015FC D34E                   MOV.L       L1536+10,R3; ___nw__FUl
    000015FE 430B                   JSR         @R3
    00001600 E408                   MOV         #8,R4
    00001602 2008                   TST         R0,R0
    00001604 8D05                   BT/S        L1457
    00001606 1F02                   MOV.L       R0,@(8,R15)
    00001608              L1451:                            
    00001608 52F2                   MOV.L       @(8,R15),R2
    0000160A E100                   MOV         #0,R1
    0000160C 2212                   MOV.L       R1,@R2
    0000160E 52F2                   MOV.L       @(8,R15),R2
    00001610 1211                   MOV.L       R1,@(4,R2)
    00001612              L1457:                            
    00001612 E04C                   MOV         #76,R0
    00001614 62F6                   MOV.L       @R15+,R2




SH SERIES C/C++ Compiler (Ver. 6.0C)                                                                 08-Nov-2021 23:20:04  PAGE   59


SCT OFFSET   CODE       C LABEL     INSTRUCTION OPERAND    COMMENT

    00001616 53F1                   MOV.L       @(4,R15),R3
    00001618 2232                   MOV.L       R3,@R2
    0000161A 52F2                   MOV.L       @(8,R15),R2
    0000161C 02E6                   MOV.L       R14,@(R0,R2)
    0000161E E018                   MOV         #24,R0
    00001620 53F2                   MOV.L       @(8,R15),R3
    00001622 62E3                   MOV         R14,R2
    00001624 303C                   ADD         R3,R0
    00001626 2228                   TST         R2,R2
    00001628 2F06                   MOV.L       R0,@-R15
    0000162A 8F06                   BF/S        L1453
    0000162C 1FE2                   MOV.L       R14,@(8,R15)
    0000162E D342                   MOV.L       L1536+10,R3; ___nw__FUl
    00001630 430B                   JSR         @R3
    00001632 E408                   MOV         #8,R4
    00001634 2008                   TST         R0,R0
    00001636 8D05                   BT/S        L1458
    00001638 1F02                   MOV.L       R0,@(8,R15)
    0000163A              L1453:                            
    0000163A E100                   MOV         #0,R1
    0000163C 52F2                   MOV.L       @(8,R15),R2
    0000163E 2212                   MOV.L       R1,@R2
    00001640 52F2                   MOV.L       @(8,R15),R2
    00001642 1211                   MOV.L       R1,@(4,R2)
    00001644              L1458:                            
    00001644 62F6                   MOV.L       @R15+,R2
    00001646 53F1                   MOV.L       @(4,R15),R3
    00001648 2232                   MOV.L       R3,@R2
    0000164A              L1459:                            
    0000164A E301                   MOV         #1,R3
    0000164C 51F2                   MOV.L       @(8,R15),R1
    0000164E 1A1D                   MOV.L       R1,@(52,R10)
    00001650 5AF3                   MOV.L       @(12,R15),R10
    00001652 1A36                   MOV.L       R3,@(24,R10)
    00001654 5AF3                   MOV.L       @(12,R15),R10
    00001656 1A37                   MOV.L       R3,@(28,R10)
    00001658 5AF3                   MOV.L       @(12,R15),R10
    0000165A E300                   MOV         #0,R3
    0000165C 1A38                   MOV.L       R3,@(32,R10)
    0000165E 5AF3                   MOV.L       @(12,R15),R10
    00001660 1A39                   MOV.L       R3,@(36,R10)
    00001662 5AF3                   MOV.L       @(12,R15),R10
    00001664 1A3B                   MOV.L       R3,@(44,R10)
    00001666 5AF3                   MOV.L       @(12,R15),R10
    00001668 1A3C                   MOV.L       R3,@(48,R10)
    0000166A              L1460:                            
    0000166A E048                   MOV         #72,R0
    0000166C 5AF3                   MOV.L       @(12,R15),R10
    0000166E E300                   MOV         #0,R3
    00001670 1A87                   MOV.L       R8,@(28,R10)
    00001672 6233                   MOV         R3,R2
    00001674 1A86                   MOV.L       R8,@(24,R10)
    00001676 1AE8                   MOV.L       R14,@(32,R10)
    00001678 54AD                   MOV.L       @(52,R10),R4
    0000167A 044E                   MOV.L       @(R0,R4),R4
    0000167C 2432                   MOV.L       R3,@R4
    0000167E 1431                   MOV.L       R3,@(4,R4)




SH SERIES C/C++ Compiler (Ver. 6.0C)                                                                 08-Nov-2021 23:20:04  PAGE   60


SCT OFFSET   CODE       C LABEL     INSTRUCTION OPERAND    COMMENT

    00001680 54AD                   MOV.L       @(52,R10),R4
    00001682 544E                   MOV.L       @(56,R4),R4
    00001684 2422                   MOV.L       R2,@R4
    00001686 1421                   MOV.L       R2,@(4,R4)
    00001688 490B                   JSR         @R9
    0000168A E40C                   MOV         #12,R4
    0000168C 2008                   TST         R0,R0
    0000168E 8D06                   BT/S        L1461
    00001690 1F0A                   MOV.L       R0,@(40,R15)
    00001692 E50C                   MOV         #12,R5
    00001694 D22F                   MOV.L       L1536+38,R2; ___memzero
    00001696 420B                   JSR         @R2
    00001698 6403                   MOV         R0,R4
    0000169A A001                   BRA         L1462
    0000169C 54FA                   MOV.L       @(40,R15),R4
    0000169E              L1461:                            
    0000169E 64E3                   MOV         R14,R4
    000016A0              L1462:                            
    000016A0 24A2                   MOV.L       R10,@R4
    000016A2 52D2                   MOV.L       @(8,R13),R2
    000016A4 7201                   ADD         #1,R2
    000016A6 1D22                   MOV.L       R2,@(8,R13)
    000016A8 63D2                   MOV.L       @R13,R3
    000016AA 2338                   TST         R3,R3
    000016AC 8B01                   BF          L1463
    000016AE A004                   BRA         L958
    000016B0 2D42                   MOV.L       R4,@R13
    000016B2              L1463:                            
    000016B2 53D1                   MOV.L       @(4,R13),R3
    000016B4 1432                   MOV.L       R3,@(8,R4)
    000016B6 52D1                   MOV.L       @(4,R13),R2
    000016B8 1241                   MOV.L       R4,@(4,R2)
    000016BA              L958:
    000016BA 1D41                   MOV.L       R4,@(4,R13)
    000016BC 1FE7                   MOV.L       R14,@(28,R15)
    000016BE D326                   MOV.L       L1536+42,R3; L919
    000016C0 1F3A                   MOV.L       R3,@(40,R15)
    000016C2 52F7                   MOV.L       @(28,R15),R2
    000016C4 2228                   TST         R2,R2
    000016C6 8B05                   BF          L1466
    000016C8 D31B                   MOV.L       L1536+10,R3; ___nw__FUl
    000016CA 430B                   JSR         @R3
    000016CC E420                   MOV         #32,R4
    000016CE 2008                   TST         R0,R0
    000016D0 8D6A                   BT/S        L1471
    000016D2 1F07                   MOV.L       R0,@(28,R15)
    000016D4              L1466:                            
    000016D4 D221                   MOV.L       L1536+46,R2; L408
    000016D6 1F28                   MOV.L       R2,@(32,R15)
    000016D8 53F7                   MOV.L       @(28,R15),R3
    000016DA D218                   MOV.L       L1536+14,R2; __$__vtbl__6Object
    000016DC D116                   MOV.L       L1536+10,R1; ___nw__FUl
    000016DE 1322                   MOV.L       R2,@(8,R3)
    000016E0 53F7                   MOV.L       @(28,R15),R3
    000016E2 52F8                   MOV.L       @(32,R15),R2
    000016E4 2322                   MOV.L       R2,@R3
    000016E6 53F7                   MOV.L       @(28,R15),R3




SH SERIES C/C++ Compiler (Ver. 6.0C)                                                                 08-Nov-2021 23:20:04  PAGE   61


SCT OFFSET   CODE       C LABEL     INSTRUCTION OPERAND    COMMENT

    000016E8 52FA                   MOV.L       @(40,R15),R2
    000016EA 1321                   MOV.L       R2,@(4,R3)
    000016EC 53F7                   MOV.L       @(28,R15),R3
    000016EE D216                   MOV.L       L1536+26,R2; __$__vtbl__9Component
    000016F0 1322                   MOV.L       R2,@(8,R3)
    000016F2 53F7                   MOV.L       @(28,R15),R3
    000016F4 D21A                   MOV.L       L1536+50,R2; __$__vtbl__9Component__9Behaviour
    000016F6 13B4                   MOV.L       R11,@(16,R3)
    000016F8 53F7                   MOV.L       @(28,R15),R3
    000016FA 1322                   MOV.L       R2,@(8,R3)
    000016FC 53F7                   MOV.L       @(28,R15),R3
    000016FE E201                   MOV         #1,R2
    00001700 1326                   MOV.L       R2,@(24,R3)
    00001702 53F7                   MOV.L       @(28,R15),R3
    00001704 1327                   MOV.L       R2,@(28,R3)
    00001706 53F7                   MOV.L       @(28,R15),R3
    00001708 D216                   MOV.L       L1536+54,R2; __$__vtbl__20Component__Behaviour__6Camera
    0000170A 1322                   MOV.L       R2,@(8,R3)
    0000170C 52BA                   MOV.L       @(40,R11),R2
    0000170E 7224                   ADD         #36,R2
    00001710 1F2B                   MOV.L       R2,@(44,R15)
    00001712 410B                   JSR         @R1
    00001714 E40C                   MOV         #12,R4
    00001716 61F3                   MOV         R15,R1
    00001718 7144                   ADD         #68,R1
    0000171A 2008                   TST         R0,R0
    0000171C 8D24                   BT/S        L1467
    0000171E 2102                   MOV.L       R0,@R1
    00001720 D20C                   MOV.L       L1536+38,R2; ___memzero
    00001722 E50C                   MOV         #12,R5
    00001724 420B                   JSR         @R2
    00001726 6403                   MOV         R0,R4
    00001728 E044                   MOV         #68,R0
    0000172A A01E                   BRA         L1469
    0000172C 03FE                   MOV.L       @(R0,R15),R3
    0000172E              L1536:                            
    0000172E 0000                   .DATA.W     0
    00001730 <00000000>             .DATA.L     L410
    00001734 <00000000>             .DATA.L     L911
    00001738 <00000000>             .DATA.L     ___nw__FUl
    0000173C <00000000>             .DATA.L     __$__vtbl__6Object
    00001740 <00000000>             .DATA.L     __$__vtbl__6Object__10GameObject
    00001744 <00000000>             .DATA.L     L403
    00001748 <00000000>             .DATA.L     __$__vtbl__9Component
    0000174C <00000000>             .DATA.L     __$__vtbl__9Transform
    00001750 3F800000               .DATA.L     H'3F800000
    00001754 <00000000>             .DATA.L     ___memzero
    00001758 <00000000>             .DATA.L     L919
    0000175C <00000000>             .DATA.L     L408
    00001760 <00000000>             .DATA.L     __$__vtbl__9Component__9Behaviour
    00001764 <00000000>             .DATA.L     __$__vtbl__20Component__Behaviour__6Camera
    00001768              L1467:                            
    00001768 63E3                   MOV         R14,R3
    0000176A              L1469:                            
    0000176A 6233                   MOV         R3,R2
    0000176C 1F3C                   MOV.L       R3,@(48,R15)
    0000176E 53F7                   MOV.L       @(28,R15),R3




SH SERIES C/C++ Compiler (Ver. 6.0C)                                                                 08-Nov-2021 23:20:04  PAGE   62


SCT OFFSET   CODE       C LABEL     INSTRUCTION OPERAND    COMMENT

    00001770 2232                   MOV.L       R3,@R2
    00001772 52FB                   MOV.L       @(44,R15),R2
    00001774 5322                   MOV.L       @(8,R2),R3
    00001776 7301                   ADD         #1,R3
    00001778 1232                   MOV.L       R3,@(8,R2)
    0000177A 52FB                   MOV.L       @(44,R15),R2
    0000177C 6322                   MOV.L       @R2,R3
    0000177E 2338                   TST         R3,R3
    00001780 8B07                   BF          L1468
    00001782 53FB                   MOV.L       @(44,R15),R3
    00001784 52FC                   MOV.L       @(48,R15),R2
    00001786 2322                   MOV.L       R2,@R3
    00001788 53FB                   MOV.L       @(44,R15),R3
    0000178A 52FC                   MOV.L       @(48,R15),R2
    0000178C 1321                   MOV.L       R2,@(4,R3)
    0000178E A00B                   BRA         L1471
    00001790 0009                   NOP
    00001792              L1468:                            
    00001792 53FC                   MOV.L       @(48,R15),R3
    00001794 52FB                   MOV.L       @(44,R15),R2
    00001796 5121                   MOV.L       @(4,R2),R1
    00001798 1312                   MOV.L       R1,@(8,R3)
    0000179A 53FB                   MOV.L       @(44,R15),R3
    0000179C 51FC                   MOV.L       @(48,R15),R1
    0000179E 5231                   MOV.L       @(4,R3),R2
    000017A0 1211                   MOV.L       R1,@(4,R2)
    000017A2 53FB                   MOV.L       @(44,R15),R3
    000017A4 52FC                   MOV.L       @(48,R15),R2
    000017A6 1321                   MOV.L       R2,@(4,R3)
    000017A8              L1471:                            
    000017A8 53F7                   MOV.L       @(28,R15),R3
    000017AA E054                   MOV         #84,R0
    000017AC 0F36                   MOV.L       R3,@(R0,R15)
    000017AE 490B                   JSR         @R9
    000017B0 E40C                   MOV         #12,R4
    000017B2 2008                   TST         R0,R0
    000017B4 8D06                   BT/S        L1472
    000017B6 1F0A                   MOV.L       R0,@(40,R15)
    000017B8 D272                   MOV.L       L1539,R2   ; ___memzero
    000017BA E50C                   MOV         #12,R5
    000017BC 420B                   JSR         @R2
    000017BE 6403                   MOV         R0,R4
    000017C0 A001                   BRA         L1473
    000017C2 54FA                   MOV.L       @(40,R15),R4
    000017C4              L1472:                            
    000017C4 64E3                   MOV         R14,R4
    000017C6              L1473:                            
    000017C6 E054                   MOV         #84,R0
    000017C8 02FE                   MOV.L       @(R0,R15),R2
    000017CA 2422                   MOV.L       R2,@R4
    000017CC 53B5                   MOV.L       @(20,R11),R3
    000017CE 7301                   ADD         #1,R3
    000017D0 1B35                   MOV.L       R3,@(20,R11)
    000017D2 52B3                   MOV.L       @(12,R11),R2
    000017D4 2228                   TST         R2,R2
    000017D6 8B01                   BF          L1474
    000017D8 A004                   BRA         L959




SH SERIES C/C++ Compiler (Ver. 6.0C)                                                                 08-Nov-2021 23:20:04  PAGE   63


SCT OFFSET   CODE       C LABEL     INSTRUCTION OPERAND    COMMENT

    000017DA 1B43                   MOV.L       R4,@(12,R11)
    000017DC              L1474:                            
    000017DC 53B4                   MOV.L       @(16,R11),R3
    000017DE 1432                   MOV.L       R3,@(8,R4)
    000017E0 52B4                   MOV.L       @(16,R11),R2
    000017E2 1241                   MOV.L       R4,@(4,R2)
    000017E4              L959:
    000017E4 1B44                   MOV.L       R4,@(16,R11)
    000017E6 1FE4                   MOV.L       R14,@(16,R15)
    000017E8 D367                   MOV.L       L1539+4,R3 ; L923
    000017EA 1F3A                   MOV.L       R3,@(40,R15)
    000017EC 52F4                   MOV.L       @(16,R15),R2
    000017EE 2228                   TST         R2,R2
    000017F0 8B05                   BF          L1477
    000017F2 D366                   MOV.L       L1539+8,R3 ; ___nw__FUl
    000017F4 430B                   JSR         @R3
    000017F6 E45C                   MOV         #92,R4
    000017F8 2008                   TST         R0,R0
    000017FA 8D5D                   BT/S        L1478
    000017FC 1F04                   MOV.L       R0,@(16,R15)
    000017FE              L1477:                            
    000017FE D264                   MOV.L       L1539+12,R2; L411
    00001800 1F28                   MOV.L       R2,@(32,R15)
    00001802 53F4                   MOV.L       @(16,R15),R3
    00001804 D263                   MOV.L       L1539+16,R2; __$__vtbl__6Object
    00001806 1322                   MOV.L       R2,@(8,R3)
    00001808 53F4                   MOV.L       @(16,R15),R3
    0000180A 52F8                   MOV.L       @(32,R15),R2
    0000180C 2322                   MOV.L       R2,@R3
    0000180E 53F4                   MOV.L       @(16,R15),R3
    00001810 52FA                   MOV.L       @(40,R15),R2
    00001812 1321                   MOV.L       R2,@(4,R3)
    00001814 53F4                   MOV.L       @(16,R15),R3
    00001816 D260                   MOV.L       L1539+20,R2; __$__vtbl__9Component
    00001818 1322                   MOV.L       R2,@(8,R3)
    0000181A 53F4                   MOV.L       @(16,R15),R3
    0000181C D25F                   MOV.L       L1539+24,R2; __$__vtbl__9Component__9Behaviour
    0000181E 13C4                   MOV.L       R12,@(16,R3)
    00001820 53F4                   MOV.L       @(16,R15),R3
    00001822 1322                   MOV.L       R2,@(8,R3)
    00001824 53F4                   MOV.L       @(16,R15),R3
    00001826 E201                   MOV         #1,R2
    00001828 1326                   MOV.L       R2,@(24,R3)
    0000182A 53F4                   MOV.L       @(16,R15),R3
    0000182C 1327                   MOV.L       R2,@(28,R3)
    0000182E 53F4                   MOV.L       @(16,R15),R3
    00001830 D25B                   MOV.L       L1539+28,R2; __$__vtbl__20Component__Behaviour__13MonoBehaviour
    00001832 1322                   MOV.L       R2,@(8,R3)
    00001834 53F4                   MOV.L       @(16,R15),R3
    00001836 E201                   MOV         #1,R2
    00001838 1328                   MOV.L       R2,@(32,R3)
    0000183A 53F4                   MOV.L       @(16,R15),R3
    0000183C D259                   MOV.L       L1539+32,R2; __$__vtbl__16PlayerController
    0000183E E040                   MOV         #64,R0
    00001840 1322                   MOV.L       R2,@(8,R3)
    00001842 53F4                   MOV.L       @(16,R15),R3
    00001844 02FE                   MOV.L       @(R0,R15),R2




SH SERIES C/C++ Compiler (Ver. 6.0C)                                                                 08-Nov-2021 23:20:04  PAGE   64


SCT OFFSET   CODE       C LABEL     INSTRUCTION OPERAND    COMMENT

    00001846 E048                   MOV         #72,R0
    00001848 132A                   MOV.L       R2,@(40,R3)
    0000184A 53F4                   MOV.L       @(16,R15),R3
    0000184C 02FE                   MOV.L       @(R0,R15),R2
    0000184E E058                   MOV         #88,R0
    00001850 132B                   MOV.L       R2,@(44,R3)
    00001852 53F4                   MOV.L       @(16,R15),R3
    00001854 02FE                   MOV.L       @(R0,R15),R2
    00001856 E05C                   MOV         #92,R0
    00001858 132C                   MOV.L       R2,@(48,R3)
    0000185A 53F4                   MOV.L       @(16,R15),R3
    0000185C 02FE                   MOV.L       @(R0,R15),R2
    0000185E E050                   MOV         #80,R0
    00001860 132D                   MOV.L       R2,@(52,R3)
    00001862 53F4                   MOV.L       @(16,R15),R3
    00001864 02FE                   MOV.L       @(R0,R15),R2
    00001866 E064                   MOV         #100,R0
    00001868 132E                   MOV.L       R2,@(56,R3)
    0000186A 53F4                   MOV.L       @(16,R15),R3
    0000186C 02FE                   MOV.L       @(R0,R15),R2
    0000186E E068                   MOV         #104,R0
    00001870 132F                   MOV.L       R2,@(60,R3)
    00001872 53F4                   MOV.L       @(16,R15),R3
    00001874 02FE                   MOV.L       @(R0,R15),R2
    00001876 E040                   MOV         #64,R0
    00001878 0326                   MOV.L       R2,@(R0,R3)
    0000187A 53F4                   MOV.L       @(16,R15),R3
    0000187C 52FF                   MOV.L       @(60,R15),R2
    0000187E E044                   MOV         #68,R0
    00001880 0326                   MOV.L       R2,@(R0,R3)
    00001882 E06C                   MOV         #108,R0
    00001884 53F4                   MOV.L       @(16,R15),R3
    00001886 02FE                   MOV.L       @(R0,R15),R2
    00001888 E048                   MOV         #72,R0
    0000188A 0326                   MOV.L       R2,@(R0,R3)
    0000188C 53F4                   MOV.L       @(16,R15),R3
    0000188E E070                   MOV         #112,R0
    00001890 02FE                   MOV.L       @(R0,R15),R2
    00001892 E04C                   MOV         #76,R0
    00001894 0326                   MOV.L       R2,@(R0,R3)
    00001896 E04C                   MOV         #76,R0
    00001898 53F4                   MOV.L       @(16,R15),R3
    0000189A 02FE                   MOV.L       @(R0,R15),R2
    0000189C E050                   MOV         #80,R0
    0000189E 0326                   MOV.L       R2,@(R0,R3)
    000018A0 53F4                   MOV.L       @(16,R15),R3
    000018A2 E060                   MOV         #96,R0
    000018A4 02FE                   MOV.L       @(R0,R15),R2
    000018A6 E054                   MOV         #84,R0
    000018A8 0326                   MOV.L       R2,@(R0,R3)
    000018AA E205                   MOV         #5,R2
    000018AC 53F4                   MOV.L       @(16,R15),R3
    000018AE E058                   MOV         #88,R0
    000018B0 0326                   MOV.L       R2,@(R0,R3)
    000018B2 E200                   MOV         #0,R2
    000018B4 53F4                   MOV.L       @(16,R15),R3
    000018B6 1329                   MOV.L       R2,@(36,R3)




SH SERIES C/C++ Compiler (Ver. 6.0C)                                                                 08-Nov-2021 23:20:04  PAGE   65


SCT OFFSET   CODE       C LABEL     INSTRUCTION OPERAND    COMMENT

    000018B8              L1478:                            
    000018B8 51F4                   MOV.L       @(16,R15),R1
    000018BA 1F1F                   MOV.L       R1,@(60,R15)
    000018BC 490B                   JSR         @R9
    000018BE E40C                   MOV         #12,R4
    000018C0 2008                   TST         R0,R0
    000018C2 8D06                   BT/S        L1479
    000018C4 6B03                   MOV         R0,R11
    000018C6 E50C                   MOV         #12,R5
    000018C8 D22E                   MOV.L       L1539,R2   ; ___memzero
    000018CA 420B                   JSR         @R2
    000018CC 64B3                   MOV         R11,R4
    000018CE A001                   BRA         L1480
    000018D0 64B3                   MOV         R11,R4
    000018D2              L1479:                            
    000018D2 64E3                   MOV         R14,R4
    000018D4              L1480:                            
    000018D4 52FF                   MOV.L       @(60,R15),R2
    000018D6 2422                   MOV.L       R2,@R4
    000018D8 53C5                   MOV.L       @(20,R12),R3
    000018DA 7301                   ADD         #1,R3
    000018DC 1C35                   MOV.L       R3,@(20,R12)
    000018DE 52C3                   MOV.L       @(12,R12),R2
    000018E0 2228                   TST         R2,R2
    000018E2 8B01                   BF          L1481
    000018E4 A004                   BRA         L953
    000018E6 1C43                   MOV.L       R4,@(12,R12)
    000018E8              L1481:                            
    000018E8 53C4                   MOV.L       @(16,R12),R3
    000018EA 1432                   MOV.L       R3,@(8,R4)
    000018EC 52C4                   MOV.L       @(16,R12),R2
    000018EE 1241                   MOV.L       R4,@(4,R2)
    000018F0              L953:
    000018F0 1C44                   MOV.L       R4,@(16,R12)
    000018F2 1FE6                   MOV.L       R14,@(24,R15)
    000018F4 D32C                   MOV.L       L1539+36,R3; L927
    000018F6 1F3F                   MOV.L       R3,@(60,R15)
    000018F8 52F6                   MOV.L       @(24,R15),R2
    000018FA 2228                   TST         R2,R2
    000018FC 8B05                   BF          L1484
    000018FE D323                   MOV.L       L1539+8,R3 ; ___nw__FUl
    00001900 430B                   JSR         @R3
    00001902 E428                   MOV         #40,R4
    00001904 2008                   TST         R0,R0
    00001906 8D25                   BT/S        L1485
    00001908 1F06                   MOV.L       R0,@(24,R15)
    0000190A              L1484:                            
    0000190A D228                   MOV.L       L1539+40,R2; L409
    0000190C 1F28                   MOV.L       R2,@(32,R15)
    0000190E 53F6                   MOV.L       @(24,R15),R3
    00001910 D220                   MOV.L       L1539+16,R2; __$__vtbl__6Object
    00001912 1322                   MOV.L       R2,@(8,R3)
    00001914 53F6                   MOV.L       @(24,R15),R3
    00001916 52F8                   MOV.L       @(32,R15),R2
    00001918 2322                   MOV.L       R2,@R3
    0000191A 53F6                   MOV.L       @(24,R15),R3
    0000191C 52FF                   MOV.L       @(60,R15),R2




SH SERIES C/C++ Compiler (Ver. 6.0C)                                                                 08-Nov-2021 23:20:04  PAGE   66


SCT OFFSET   CODE       C LABEL     INSTRUCTION OPERAND    COMMENT

    0000191E 1321                   MOV.L       R2,@(4,R3)
    00001920 53F6                   MOV.L       @(24,R15),R3
    00001922 D21D                   MOV.L       L1539+20,R2; __$__vtbl__9Component
    00001924 1322                   MOV.L       R2,@(8,R3)
    00001926 53F6                   MOV.L       @(24,R15),R3
    00001928 D21C                   MOV.L       L1539+24,R2; __$__vtbl__9Component__9Behaviour
    0000192A 13C4                   MOV.L       R12,@(16,R3)
    0000192C 53F6                   MOV.L       @(24,R15),R3
    0000192E 1322                   MOV.L       R2,@(8,R3)
    00001930 53F6                   MOV.L       @(24,R15),R3
    00001932 E201                   MOV         #1,R2
    00001934 1326                   MOV.L       R2,@(24,R3)
    00001936 53F6                   MOV.L       @(24,R15),R3
    00001938 1327                   MOV.L       R2,@(28,R3)
    0000193A 53F6                   MOV.L       @(24,R15),R3
    0000193C D218                   MOV.L       L1539+28,R2; __$__vtbl__20Component__Behaviour__13MonoBehaviour
    0000193E 1322                   MOV.L       R2,@(8,R3)
    00001940 53F6                   MOV.L       @(24,R15),R3
    00001942 E201                   MOV         #1,R2
    00001944 1328                   MOV.L       R2,@(32,R3)
    00001946 53F6                   MOV.L       @(24,R15),R3
    00001948 D219                   MOV.L       L1539+44,R2; __$__vtbl__6Sprite
    0000194A E040                   MOV         #64,R0
    0000194C 1322                   MOV.L       R2,@(8,R3)
    0000194E 53F6                   MOV.L       @(24,R15),R3
    00001950 02FE                   MOV.L       @(R0,R15),R2
    00001952 1329                   MOV.L       R2,@(36,R3)
    00001954              L1485:                            
    00001954 51F6                   MOV.L       @(24,R15),R1
    00001956 1F1F                   MOV.L       R1,@(60,R15)
    00001958 490B                   JSR         @R9
    0000195A E40C                   MOV         #12,R4
    0000195C 2008                   TST         R0,R0
    0000195E 8D06                   BT/S        L1486
    00001960 6B03                   MOV         R0,R11
    00001962 E50C                   MOV         #12,R5
    00001964 D207                   MOV.L       L1539,R2   ; ___memzero
    00001966 420B                   JSR         @R2
    00001968 64B3                   MOV         R11,R4
    0000196A A001                   BRA         L1487
    0000196C 64B3                   MOV         R11,R4
    0000196E              L1486:                            
    0000196E 64E3                   MOV         R14,R4
    00001970              L1487:                            
    00001970 52FF                   MOV.L       @(60,R15),R2
    00001972 2422                   MOV.L       R2,@R4
    00001974 53C5                   MOV.L       @(20,R12),R3
    00001976 7301                   ADD         #1,R3
    00001978 1C35                   MOV.L       R3,@(20,R12)
    0000197A 52C3                   MOV.L       @(12,R12),R2
    0000197C 2228                   TST         R2,R2
    0000197E 8B19                   BF          L1488
    00001980 A01C                   BRA         L954
    00001982 1C43                   MOV.L       R4,@(12,R12)
    00001984              L1539:                            
    00001984 <00000000>             .DATA.L     ___memzero
    00001988 <00000000>             .DATA.L     L923




SH SERIES C/C++ Compiler (Ver. 6.0C)                                                                 08-Nov-2021 23:20:04  PAGE   67


SCT OFFSET   CODE       C LABEL     INSTRUCTION OPERAND    COMMENT

    0000198C <00000000>             .DATA.L     ___nw__FUl
    00001990 <00000000>             .DATA.L     L411
    00001994 <00000000>             .DATA.L     __$__vtbl__6Object
    00001998 <00000000>             .DATA.L     __$__vtbl__9Component
    0000199C <00000000>             .DATA.L     __$__vtbl__9Component__9Behaviour
    000019A0 <00000000>             .DATA.L     __$__vtbl__20Component__Behaviour__13MonoBehaviour
    000019A4 <00000000>             .DATA.L     __$__vtbl__16PlayerController
    000019A8 <00000000>             .DATA.L     L927
    000019AC <00000000>             .DATA.L     L409
    000019B0 <00000000>             .DATA.L     __$__vtbl__6Sprite
    000019B4              L1488:                            
    000019B4 53C4                   MOV.L       @(16,R12),R3
    000019B6 1432                   MOV.L       R3,@(8,R4)
    000019B8 52C4                   MOV.L       @(16,R12),R2
    000019BA 1241                   MOV.L       R4,@(4,R2)
    000019BC              L954:
    000019BC 1C44                   MOV.L       R4,@(16,R12)
    000019BE 63E3                   MOV         R14,R3
    000019C0 1FE5                   MOV.L       R14,@(20,R15)
    000019C2 2338                   TST         R3,R3
    000019C4 8F06                   BF/S        L1491
    000019C6 1FE1                   MOV.L       R14,@(4,R15)
    000019C8 D351                   MOV.L       L1540+2,R3 ; ___nw__FUl
    000019CA 430B                   JSR         @R3
    000019CC E408                   MOV         #8,R4
    000019CE 2008                   TST         R0,R0
    000019D0 8D05                   BT/S        L1496
    000019D2 1F01                   MOV.L       R0,@(4,R15)
    000019D4              L1491:                            
    000019D4 5CF1                   MOV.L       @(4,R15),R12
    000019D6 D34F                   MOV.L       L1540+6,R3 ; H'41200000
    000019D8 2C32                   MOV.L       R3,@R12
    000019DA 5CF1                   MOV.L       @(4,R15),R12
    000019DC 1C31                   MOV.L       R3,@(4,R12)
    000019DE              L1496:                            
    000019DE E048                   MOV         #72,R0
    000019E0 5CF1                   MOV.L       @(4,R15),R12
    000019E2 63E3                   MOV         R14,R3
    000019E4 0FC6                   MOV.L       R12,@(R0,R15)
    000019E6 2338                   TST         R3,R3
    000019E8 8F06                   BF/S        L1493
    000019EA 1FED                   MOV.L       R14,@(52,R15)
    000019EC D348                   MOV.L       L1540+2,R3 ; ___nw__FUl
    000019EE 430B                   JSR         @R3
    000019F0 E408                   MOV         #8,R4
    000019F2 2008                   TST         R0,R0
    000019F4 8D06                   BT/S        L1497
    000019F6 1F0D                   MOV.L       R0,@(52,R15)
    000019F8              L1493:                            
    000019F8 5CFD                   MOV.L       @(52,R15),R12
    000019FA D347                   MOV.L       L1540+10,R3; H'41800000
    000019FC 2C32                   MOV.L       R3,@R12
    000019FE 5CFD                   MOV.L       @(52,R15),R12
    00001A00 D346                   MOV.L       L1540+14,R3; H'41A00000
    00001A02 1C31                   MOV.L       R3,@(4,R12)
    00001A04              L1497:                            
    00001A04 5CFD                   MOV.L       @(52,R15),R12




SH SERIES C/C++ Compiler (Ver. 6.0C)                                                                 08-Nov-2021 23:20:04  PAGE   68


SCT OFFSET   CODE       C LABEL     INSTRUCTION OPERAND    COMMENT

    00001A06 E04C                   MOV         #76,R0
    00001A08 1FCF                   MOV.L       R12,@(60,R15)
    00001A0A DC45                   MOV.L       L1540+18,R12; L931
    00001A0C 0FC6                   MOV.L       R12,@(R0,R15)
    00001A0E 53F5                   MOV.L       @(20,R15),R3
    00001A10 2338                   TST         R3,R3
    00001A12 8B05                   BF          L1495
    00001A14 D33E                   MOV.L       L1540+2,R3 ; ___nw__FUl
    00001A16 430B                   JSR         @R3
    00001A18 E434                   MOV         #52,R4
    00001A1A 2008                   TST         R0,R0
    00001A1C 8D29                   BT/S        L1498
    00001A1E 1F05                   MOV.L       R0,@(20,R15)
    00001A20              L1495:                            
    00001A20 DC40                   MOV.L       L1540+22,R12; L410
    00001A22 E04C                   MOV         #76,R0
    00001A24 D340                   MOV.L       L1540+26,R3; __$__vtbl__6Object
    00001A26 1FC8                   MOV.L       R12,@(32,R15)
    00001A28 5CF5                   MOV.L       @(20,R15),R12
    00001A2A 1C32                   MOV.L       R3,@(8,R12)
    00001A2C 5CF5                   MOV.L       @(20,R15),R12
    00001A2E 53F8                   MOV.L       @(32,R15),R3
    00001A30 2C32                   MOV.L       R3,@R12
    00001A32 5CF5                   MOV.L       @(20,R15),R12
    00001A34 03FE                   MOV.L       @(R0,R15),R3
    00001A36 1C31                   MOV.L       R3,@(4,R12)
    00001A38 5CF5                   MOV.L       @(20,R15),R12
    00001A3A D33C                   MOV.L       L1540+30,R3; __$__vtbl__9Component
    00001A3C 1C32                   MOV.L       R3,@(8,R12)
    00001A3E 5CF5                   MOV.L       @(20,R15),R12
    00001A40 D33B                   MOV.L       L1540+34,R3; __$__vtbl__9Component__9Behaviour
    00001A42 1CA4                   MOV.L       R10,@(16,R12)
    00001A44 5CF5                   MOV.L       @(20,R15),R12
    00001A46 1C32                   MOV.L       R3,@(8,R12)
    00001A48 5CF5                   MOV.L       @(20,R15),R12
    00001A4A E301                   MOV         #1,R3
    00001A4C 1C36                   MOV.L       R3,@(24,R12)
    00001A4E 5CF5                   MOV.L       @(20,R15),R12
    00001A50 1C37                   MOV.L       R3,@(28,R12)
    00001A52 5CF5                   MOV.L       @(20,R15),R12
    00001A54 D337                   MOV.L       L1540+38,R3; __$__vtbl__20Component__Behaviour__13MonoBehaviour
    00001A56 1C32                   MOV.L       R3,@(8,R12)
    00001A58 5CF5                   MOV.L       @(20,R15),R12
    00001A5A E301                   MOV         #1,R3
    00001A5C 1C38                   MOV.L       R3,@(32,R12)
    00001A5E E048                   MOV         #72,R0
    00001A60 5CF5                   MOV.L       @(20,R15),R12
    00001A62 D335                   MOV.L       L1540+42,R3; __$__vtbl__7Tilemap
    00001A64 1C32                   MOV.L       R3,@(8,R12)
    00001A66 5CF5                   MOV.L       @(20,R15),R12
    00001A68 03FE                   MOV.L       @(R0,R15),R3
    00001A6A 1C3B                   MOV.L       R3,@(44,R12)
    00001A6C 5CF5                   MOV.L       @(20,R15),R12
    00001A6E 53FF                   MOV.L       @(60,R15),R3
    00001A70 1C3C                   MOV.L       R3,@(48,R12)
    00001A72              L1498:                            
    00001A72 5CF5                   MOV.L       @(20,R15),R12




SH SERIES C/C++ Compiler (Ver. 6.0C)                                                                 08-Nov-2021 23:20:04  PAGE   69


SCT OFFSET   CODE       C LABEL     INSTRUCTION OPERAND    COMMENT

    00001A74 490B                   JSR         @R9
    00001A76 E40C                   MOV         #12,R4
    00001A78 2008                   TST         R0,R0
    00001A7A 8D06                   BT/S        L1499
    00001A7C 6B03                   MOV         R0,R11
    00001A7E E50C                   MOV         #12,R5
    00001A80 D22E                   MOV.L       L1540+46,R2; ___memzero
    00001A82 420B                   JSR         @R2
    00001A84 64B3                   MOV         R11,R4
    00001A86 A001                   BRA         L1500
    00001A88 64B3                   MOV         R11,R4
    00001A8A              L1499:                            
    00001A8A 64E3                   MOV         R14,R4
    00001A8C              L1500:                            
    00001A8C 24C2                   MOV.L       R12,@R4
    00001A8E 52A5                   MOV.L       @(20,R10),R2
    00001A90 7201                   ADD         #1,R2
    00001A92 1A25                   MOV.L       R2,@(20,R10)
    00001A94 53A3                   MOV.L       @(12,R10),R3
    00001A96 2338                   TST         R3,R3
    00001A98 8B01                   BF          L1501
    00001A9A A004                   BRA         L956
    00001A9C 1A43                   MOV.L       R4,@(12,R10)
    00001A9E              L1501:                            
    00001A9E 53A4                   MOV.L       @(16,R10),R3
    00001AA0 1432                   MOV.L       R3,@(8,R4)
    00001AA2 52A4                   MOV.L       @(16,R10),R2
    00001AA4 1241                   MOV.L       R4,@(4,R2)
    00001AA6              L956:
    00001AA6 1A44                   MOV.L       R4,@(16,R10)
    00001AA8 D325                   MOV.L       L1540+50,R3; __$__3138_12_UUID_7e3a4722_d0c8_447d_ab17_ce537fe428c4_TilemapData$849
    00001AAA 1C3A                   MOV.L       R3,@(40,R12)
    00001AAC 490B                   JSR         @R9
    00001AAE E408                   MOV         #8,R4
    00001AB0 1C09                   MOV.L       R0,@(36,R12)
    00001AB2 6203                   MOV         R0,R2
    00001AB4 E050                   MOV         #80,R0
    00001AB6 03FE                   MOV.L       @(R0,R15),R3
    00001AB8 2232                   MOV.L       R3,@R2
    00001ABA E040                   MOV         #64,R0
    00001ABC 52C9                   MOV.L       @(36,R12),R2
    00001ABE 03FE                   MOV.L       @(R0,R15),R3
    00001AC0 1231                   MOV.L       R3,@(4,R2)
    00001AC2              L1389:                            
    00001AC2 60D3                   MOV         R13,R0
    00001AC4 7F74                   ADD         #116,R15
    00001AC6 4F26                   LDS.L       @R15+,PR
    00001AC8 68F6                   MOV.L       @R15+,R8
    00001ACA 69F6                   MOV.L       @R15+,R9
    00001ACC 6AF6                   MOV.L       @R15+,R10
    00001ACE 6BF6                   MOV.L       @R15+,R11
    00001AD0 6CF6                   MOV.L       @R15+,R12
    00001AD2 6DF6                   MOV.L       @R15+,R13
    00001AD4 000B                   RTS
    00001AD6 6EF6                   MOV.L       @R15+,R14
    00001AD8              __$get_node__19List__tm__8_P5SceneFi_P15Node__tm__4_Z1Z:
                                                           ; function: Node<T1> *List<T1>::get_node(int) [with T1=Scene *]




SH SERIES C/C++ Compiler (Ver. 6.0C)                                                                 08-Nov-2021 23:20:04  PAGE   70


SCT OFFSET   CODE       C LABEL     INSTRUCTION OPERAND    COMMENT

                                                           ; frame size=0
    00001AD8 E700                   MOV         #0,R7
    00001ADA A002                   BRA         L1504
    00001ADC 6642                   MOV.L       @R4,R6
    00001ADE              L1505:                            
    00001ADE 7701                   ADD         #1,R7
    00001AE0 5661                   MOV.L       @(4,R6),R6
    00001AE2              L1504:                            
    00001AE2 2668                   TST         R6,R6
    00001AE4 8901                   BT          L1506
    00001AE6 3750                   CMP/EQ      R5,R7
    00001AE8 8BF9                   BF          L1505
    00001AEA              L1506:                            
    00001AEA 000B                   RTS
    00001AEC 6063                   MOV         R6,R0
    00001AEE              __$get__19List__tm__8_P5SceneFi_Z1Z:
                                                           ; function: T1 List<T1>::get(int) [with T1=Scene *]
                                                           ; frame size=4
    00001AEE E3FF                   MOV         #-1,R3
    00001AF0 4F22                   STS.L       PR,@-R15
    00001AF2 3533                   CMP/GE      R3,R5
    00001AF4 8B04                   BF          L960
    00001AF6 BFEF                   BSR         __$get_node__19List__tm__8_P5SceneFi_P15Node__tm__4_Z1Z
    00001AF8 0009                   NOP
    00001AFA 6403                   MOV         R0,R4
    00001AFC 2448                   TST         R4,R4
    00001AFE 8B02                   BF          L1510
    00001B00              L960:
    00001B00 4F26                   LDS.L       @R15+,PR
    00001B02 000B                   RTS
    00001B04 E000                   MOV         #0,R0
    00001B06              L1510:                            
    00001B06 6042                   MOV.L       @R4,R0
    00001B08              L1509:                            
    00001B08 4F26                   LDS.L       @R15+,PR
    00001B0A 000B                   RTS
    00001B0C 0009                   NOP
    00001B0E              L1540:                            
    00001B0E 0000                   .DATA.W     0
    00001B10 <00000000>             .DATA.L     ___nw__FUl
    00001B14 41200000               .DATA.L     H'41200000
    00001B18 41800000               .DATA.L     H'41800000
    00001B1C 41A00000               .DATA.L     H'41A00000
    00001B20 <00000000>             .DATA.L     L931
    00001B24 <00000000>             .DATA.L     L410
    00001B28 <00000000>             .DATA.L     __$__vtbl__6Object
    00001B2C <00000000>             .DATA.L     __$__vtbl__9Component
    00001B30 <00000000>             .DATA.L     __$__vtbl__9Component__9Behaviour
    00001B34 <00000000>             .DATA.L     __$__vtbl__20Component__Behaviour__13MonoBehaviour
    00001B38 <00000000>             .DATA.L     __$__vtbl__7Tilemap
    00001B3C <00000000>             .DATA.L     ___memzero
    00001B40 <00000000>             .DATA.L     __$__3138_12_UUID_7e3a4722_d0c8_447d_ab17_ce537fe428c4_TilemapData$849
D   00000000              __$__T31569876:                  ; static: __T31569876
    00000000 <00000000>             .DATA.L     __$__T_6Object
    00000004 00000000               .DATA.L     H'00000000
    00000008 16                     .DATA.B     H'16
    00000009 0000000301             .DATAB.B    3,0




SH SERIES C/C++ Compiler (Ver. 6.0C)                                                                 08-Nov-2021 23:20:04  PAGE   71


SCT OFFSET   CODE       C LABEL     INSTRUCTION OPERAND    COMMENT

             00           
    0000000C              __$__T31571348:                  ; static: __T31571348
    0000000C <00000000>             .DATA.L     __$__T_9Component
    00000010 00000000               .DATA.L     H'00000000
    00000014 16                     .DATA.B     H'16
    00000015 0000000301             .DATAB.B    3,0
             00           
    00000018              __$__T31572904:                  ; static: __T31572904
    00000018 <00000000>             .DATA.L     __$__T_9Component
    0000001C 00000000               .DATA.L     H'00000000
    00000020 16                     .DATA.B     H'16
    00000021 0000000301             .DATAB.B    3,0
             00           
    00000024              __$__T31574368:                  ; static: __T31574368
    00000024 <00000000>             .DATA.L     __$__T_6Object
    00000028 00000000               .DATA.L     H'00000000
    0000002C 16                     .DATA.B     H'16
    0000002D 0000000301             .DATAB.B    3,0
             00           
    00000030              __$__T31576136:                  ; static: __T31576136
    00000030 <00000000>             .DATA.L     __$__T_9Behaviour
    00000034 00000000               .DATA.L     H'00000000
    00000038 16                     .DATA.B     H'16
    00000039 0000000301             .DATAB.B    3,0
             00           
    0000003C              __$__T31577896:                  ; static: __T31577896
    0000003C <00000000>             .DATA.L     __$__T_6Object
    00000040 00000000               .DATA.L     H'00000000
    00000044 16                     .DATA.B     H'16
    00000045 0000000301             .DATAB.B    3,0
             00           
    00000048              __$__T31579360:                  ; static: __T31579360
    00000048 <00000000>             .DATA.L     __$__T_9Behaviour
    0000004C 00000000               .DATA.L     H'00000000
    00000050 16                     .DATA.B     H'16
    00000051 0000000301             .DATAB.B    3,0
             00           
    00000054              __$__T31582288:                  ; static: __T31582288
    00000054 <00000000>             .DATA.L     __$__T_13MonoBehaviour
    00000058 00000000               .DATA.L     H'00000000
    0000005C 12                     .DATA.B     H'12
    0000005D 0000000301             .DATAB.B    3,0
             00           
    00000060              __$__T31586684:                  ; static: __T31586684
    00000060 <00000000>             .DATA.L     __$__T_13MonoBehaviour
    00000064 00000000               .DATA.L     H'00000000
    00000068 12                     .DATA.B     H'12
    00000069 0000000301             .DATAB.B    3,0
             00           
    0000006C              __$__T31588172:                  ; static: __T31588172
    0000006C <00000000>             .DATA.L     __$__T_13MonoBehaviour
    00000070 00000000               .DATA.L     H'00000000
    00000074 12                     .DATA.B     H'12
    00000075 0000000301             .DATAB.B    3,0
             00           
C   00000000              __$UUID_355aae99_e49f_4a07_b7b8_ecf7673e547c:
                                                           ; static: UUID_355aae99_e49f_4a07_b7b8_ecf7673e547c




SH SERIES C/C++ Compiler (Ver. 6.0C)                                                                 08-Nov-2021 23:20:04  PAGE   72


SCT OFFSET   CODE       C LABEL     INSTRUCTION OPERAND    COMMENT

    00000000 0FF00FF00F             .DATA.B     H'0F,H'F0,H'0F,H'F0,H'0F,H'F0,H'0F,H'F0,H'0F,H'F0,H'0F,H'F0,H'08,H'10,H'3F,H'FC,
             F00FF00FF0 +                       H'38,H'1C,H'28,H'14,H'28,H'14,H'28,H'14,H'28,H'14,H'3F,H'FC,H'09,H'90,H'09,H'90,
             0FF008103F +                       H'0F,H'90,H'0F,H'F0,H'00,H'F0,H'00,H'F0
             FC381C2814   
             2814281428   
             143FFC0990   
             09900F900F   
             F000F000F0   
    00000028              __$UUID_3b28f421_9575_4c12_91c4_2c145b435538:
                                                           ; static: UUID_3b28f421_9575_4c12_91c4_2c145b435538
    00000028 0FF00FF00C             .DATA.B     H'0F,H'F0,H'0F,H'F0,H'0C,H'30,H'0C,H'30,H'0A,H'50,H'09,H'90,H'08,H'10,H'3F,H'FC,
             300C300A50 +                       H'38,H'1C,H'28,H'14,H'28,H'14,H'28,H'14,H'28,H'14,H'3F,H'FC,H'09,H'90,H'19,H'90,
             099008103F +                       H'19,H'90,H'1F,H'F0,H'00,H'F0,H'00,H'F0
             FC381C2814   
             2814281428   
             143FFC0990   
             199019901F   
             F000F000F0   
    00000050              __$UUID_53848287_45f6_410e_b7f2_b01019c5a1e9:
                                                           ; static: UUID_53848287_45f6_410e_b7f2_b01019c5a1e9
    00000050 0FF00FF00C             .DATA.B     H'0F,H'F0,H'0F,H'F0,H'0C,H'30,H'0C,H'30,H'0A,H'50,H'09,H'90,H'08,H'10,H'3F,H'FC,
             300C300A50 +                       H'38,H'1C,H'28,H'14,H'28,H'14,H'28,H'14,H'28,H'14,H'3F,H'FC,H'09,H'90,H'09,H'98,
             099008103F +                       H'09,H'98,H'0F,H'F8,H'0F,H'00,H'0F,H'00
             FC381C2814   
             2814281428   
             143FFC0990   
             099809980F   
             F80F000F00   
    00000078              __$UUID_600cd8e3_41c3_4a5e_8550_1ef2c44147af:
                                                           ; static: UUID_600cd8e3_41c3_4a5e_8550_1ef2c44147af
    00000078 0FF00FF00F             .DATA.B     H'0F,H'F0,H'0F,H'F0,H'0F,H'F0,H'0E,H'10,H'0E,H'30,H'0C,H'30,H'08,H'10,H'0F,H'F0,
             F00E100E30 +                       H'0F,H'A0,H'08,H'A0,H'08,H'A0,H'08,H'A0,H'08,H'A0,H'08,H'A0,H'0F,H'E0,H'08,H'20,
             0C3008100F +                       H'08,H'20,H'08,H'20,H'0F,H'E0,H'0F,H'E0
             F00FA008A0   
             08A008A008   
             A008A00FE0   
             0820082008   
             200FE00FE0   
    000000A0              __$UUID_6432dbba_ba4c_4f25_a9d3_15cf97c6e1ea:
                                                           ; static: UUID_6432dbba_ba4c_4f25_a9d3_15cf97c6e1ea
    000000A0 0FF00FF00C             .DATA.B     H'0F,H'F0,H'0F,H'F0,H'0C,H'30,H'0C,H'30,H'0A,H'50,H'09,H'90,H'08,H'10,H'3F,H'FC,
             300C300A50 +                       H'38,H'1C,H'28,H'14,H'28,H'14,H'28,H'14,H'28,H'14,H'3F,H'FC,H'09,H'90,H'09,H'90,
             099008103F +                       H'09,H'90,H'09,H'90,H'0F,H'F0,H'0F,H'F0
             FC381C2814   
             2814281428   
             143FFC0990   
             0990099009   
             900FF00FF0   
    000000C8              __$UUID_9b63aa6b_0684_4171_a80a_a82e6e29f6ae:
                                                           ; static: UUID_9b63aa6b_0684_4171_a80a_a82e6e29f6ae
    000000C8 0FF00FF00F             .DATA.B     H'0F,H'F0,H'0F,H'F0,H'0F,H'F0,H'0F,H'F0,H'0F,H'F0,H'0F,H'F0,H'08,H'10,H'3F,H'FC,
             F00FF00FF0 +                       H'38,H'1C,H'28,H'14,H'28,H'14,H'28,H'14,H'28,H'14,H'3F,H'FC,H'09,H'90,H'09,H'90,
             0FF008103F +                       H'09,H'F0,H'0F,H'F0,H'0F,H'00,H'0F,H'00
             FC381C2814   
             2814281428   
             143FFC0990   
             099009F00F   




SH SERIES C/C++ Compiler (Ver. 6.0C)                                                                 08-Nov-2021 23:20:04  PAGE   73


SCT OFFSET   CODE       C LABEL     INSTRUCTION OPERAND    COMMENT

             F00F000F00   
    000000F0              __$UUID_a1bc752c_94cf_41b4_a8f3_a32ec3d9312b:
                                                           ; static: UUID_a1bc752c_94cf_41b4_a8f3_a32ec3d9312b
    000000F0 0FF00FF00F             .DATA.B     H'0F,H'F0,H'0F,H'F0,H'0F,H'F0,H'08,H'70,H'0C,H'70,H'0C,H'30,H'08,H'10,H'0F,H'F0,
             F008700C70 +                       H'0C,H'08,H'14,H'44,H'24,H'22,H'44,H'11,H'2C,H'1A,H'17,H'F4,H'0E,H'18,H'19,H'0C,
             0C3008100F +                       H'33,H'86,H'22,H'C6,H'3E,H'66,H'3E,H'3E
             F00C081444   
             242244112C   
             1A17F40E18   
             190C338622   
             C63E663E3E   
    00000118              __$UUID_a9e4b5ab_ecdd_4525_8dbd_dbfaef28a6f6:
                                                           ; static: UUID_a9e4b5ab_ecdd_4525_8dbd_dbfaef28a6f6
    00000118 0FF00FF00F             .DATA.B     H'0F,H'F0,H'0F,H'F0,H'0F,H'F0,H'08,H'70,H'0C,H'70,H'0C,H'30,H'08,H'10,H'0F,H'F0,
             F008700C70 +                       H'08,H'18,H'11,H'14,H'22,H'12,H'44,H'11,H'28,H'1A,H'17,H'F4,H'0C,H'50,H'18,H'98,
             0C3008100F +                       H'31,H'8C,H'22,H'CC,H'3E,H'6C,H'3C,H'3C
             F008181114   
             2212441128   
             1A17F40C50   
             1898318C22   
             CC3E6C3C3C   
    00000140              __$UUID_dc9afec8_2e2e_4996_8271_1ac4cb193c2f:
                                                           ; static: UUID_dc9afec8_2e2e_4996_8271_1ac4cb193c2f
    00000140 0FF00FF00F             .DATA.B     H'0F,H'F0,H'0F,H'F0,H'0F,H'F0,H'0E,H'10,H'0E,H'30,H'0C,H'30,H'08,H'10,H'0F,H'F0,
             F00E100E30 +                       H'10,H'30,H'22,H'28,H'44,H'24,H'88,H'22,H'58,H'34,H'2F,H'E8,H'18,H'70,H'30,H'98,
             0C3008100F +                       H'61,H'CC,H'63,H'44,H'66,H'7C,H'7C,H'7C
             F010302228   
             4424882258   
             342FE81870   
             309861CC63   
             44667C7C7C   
    00000168              __$UUID_e4cf6d14_c9f2_4336_bb03_53529e5e4d6f:
                                                           ; static: UUID_e4cf6d14_c9f2_4336_bb03_53529e5e4d6f
    00000168 0FF00FF00F             .DATA.B     H'0F,H'F0,H'0F,H'F0,H'0F,H'F0,H'08,H'70,H'0C,H'70,H'0C,H'30,H'08,H'10,H'0F,H'F0,
             F008700C70 +                       H'05,H'F0,H'05,H'10,H'05,H'10,H'05,H'10,H'05,H'10,H'05,H'10,H'07,H'F0,H'04,H'10,
             0C3008100F +                       H'04,H'10,H'04,H'10,H'07,H'F0,H'07,H'F0
             F005F00510   
             0510051005   
             10051007F0   
             0410041004   
             1007F007F0   
    00000190              __$UUID_e870f483_8f84_44ae_b86c_bb1978372306:
                                                           ; static: UUID_e870f483_8f84_44ae_b86c_bb1978372306
    00000190 0FF00FF00F             .DATA.B     H'0F,H'F0,H'0F,H'F0,H'0F,H'F0,H'0F,H'F0,H'0F,H'F0,H'0F,H'F0,H'08,H'10,H'3F,H'FC,
             F00FF00FF0 +                       H'38,H'1C,H'28,H'14,H'28,H'14,H'28,H'14,H'28,H'14,H'3F,H'FC,H'09,H'90,H'09,H'90,
             0FF008103F +                       H'09,H'90,H'09,H'90,H'0F,H'F0,H'0F,H'F0
             FC381C2814   
             2814281428   
             143FFC0990   
             0990099009   
             900FF00FF0   
    000001B8              __$UUID_f018f68e_6f34_4b9a_bbc4_9513b3bc17c6:
                                                           ; static: UUID_f018f68e_6f34_4b9a_bbc4_9513b3bc17c6
    000001B8 0FF00FF00F             .DATA.B     H'0F,H'F0,H'0F,H'F0,H'0F,H'F0,H'0E,H'10,H'0E,H'30,H'0C,H'30,H'08,H'10,H'0F,H'F0,
             F00E100E30 +                       H'18,H'10,H'28,H'88,H'48,H'44,H'88,H'22,H'58,H'14,H'2F,H'E8,H'0A,H'30,H'19,H'18,
             0C3008100F +                       H'31,H'8C,H'33,H'44,H'36,H'7C,H'3C,H'3C
             F018102888   




SH SERIES C/C++ Compiler (Ver. 6.0C)                                                                 08-Nov-2021 23:20:04  PAGE   74


SCT OFFSET   CODE       C LABEL     INSTRUCTION OPERAND    COMMENT

             4844882258   
             142FE80A30   
             1918318C33   
             44367C3C3C   
C$V 00000000              __$__vtbl__6Object:              ; static: virtual function table for Object
    00000000 0000000000             .DATA.L     H'00000000,H'00000000
             000000       
    00000008 <00000000>             .DATA.L     __$__T_6Object
    0000000C 0000000000             .DATA.L     H'00000000,H'00000000
             000000       
    00000014 <00000000>             .DATA.L     __$Destroy__6ObjectFv
    00000018 0000000000             .DATA.L     H'00000000,H'00000000
             000000       
    00000020 <00000000>             .DATA.L     __$DestroyImmediate__6ObjectFv
    00000024 0000000000             .DATA.L     H'00000000,H'00000000
             000000       
    0000002C <00000000>             .DATA.L     __$DontDestroyOnLoad__6ObjectFv
    00000030 0000000000             .DATA.L     H'00000000,H'00000000
             000000       
    00000038 <00000000>             .DATA.L     __$FindObjectOfType__6ObjectFv
    0000003C 0000000000             .DATA.L     H'00000000,H'00000000
             000000       
    00000044 <00000000>             .DATA.L     __$FindObjectsOfType__6ObjectFv
    00000048 0000000000             .DATA.L     H'00000000,H'00000000
             000000       
    00000050 <00000000>             .DATA.L     __$Instantiate__6ObjectFv
    00000054              __$__vtbl__9Component:           ; static: virtual function table for Component
    00000054 0000000000             .DATA.L     H'00000000,H'00000000
             000000       
    0000005C <00000000>             .DATA.L     __$__T_9Component
    00000060 0000000000             .DATA.L     H'00000000,H'00000000
             000000       
    00000068 <00000000>             .DATA.L     __$Destroy__6ObjectFv
    0000006C 0000000000             .DATA.L     H'00000000,H'00000000
             000000       
    00000074 <00000000>             .DATA.L     __$DestroyImmediate__6ObjectFv
    00000078 0000000000             .DATA.L     H'00000000,H'00000000
             000000       
    00000080 <00000000>             .DATA.L     __$DontDestroyOnLoad__6ObjectFv
    00000084 0000000000             .DATA.L     H'00000000,H'00000000
             000000       
    0000008C <00000000>             .DATA.L     __$FindObjectOfType__6ObjectFv
    00000090 0000000000             .DATA.L     H'00000000,H'00000000
             000000       
    00000098 <00000000>             .DATA.L     __$FindObjectsOfType__6ObjectFv
    0000009C 0000000000             .DATA.L     H'00000000,H'00000000
             000000       
    000000A4 <00000000>             .DATA.L     __$Instantiate__6ObjectFv
    000000A8 0000000000             .DATA.L     H'00000000,H'00000000
             000000       
    000000B0 <00000000>             .DATA.L     __$Awake__9ComponentFv
    000000B4 0000000000             .DATA.L     H'00000000,H'00000000
             000000       
    000000BC <00000000>             .DATA.L     __$FixedUpdate__9ComponentFv
    000000C0 0000000000             .DATA.L     H'00000000,H'00000000
             000000       
    000000C8 <00000000>             .DATA.L     __$LateUpdate__9ComponentFv




SH SERIES C/C++ Compiler (Ver. 6.0C)                                                                 08-Nov-2021 23:20:04  PAGE   75


SCT OFFSET   CODE       C LABEL     INSTRUCTION OPERAND    COMMENT

    000000CC 0000000000             .DATA.L     H'00000000,H'00000000
             000000       
    000000D4 <00000000>             .DATA.L     __$OnAnimatorIK__9ComponentFv
    000000D8 0000000000             .DATA.L     H'00000000,H'00000000
             000000       
    000000E0 <00000000>             .DATA.L     __$OnAnimatorMove__9ComponentFv
    000000E4 0000000000             .DATA.L     H'00000000,H'00000000
             000000       
    000000EC <00000000>             .DATA.L     __$OnApplicationFocus__9ComponentFv
    000000F0 0000000000             .DATA.L     H'00000000,H'00000000
             000000       
    000000F8 <00000000>             .DATA.L     __$OnApplicationPause__9ComponentFv
    000000FC 0000000000             .DATA.L     H'00000000,H'00000000
             000000       
    00000104 <00000000>             .DATA.L     __$OnApplicationQuit__9ComponentFv
    00000108 0000000000             .DATA.L     H'00000000,H'00000000
             000000       
    00000110 <00000000>             .DATA.L     __$OnAudioFilterRead__9ComponentFv
    00000114 0000000000             .DATA.L     H'00000000,H'00000000
             000000       
    0000011C <00000000>             .DATA.L     __$OnBecameInvisible__9ComponentFv
    00000120 0000000000             .DATA.L     H'00000000,H'00000000
             000000       
    00000128 <00000000>             .DATA.L     __$OnBecameVisible__9ComponentFv
    0000012C 0000000000             .DATA.L     H'00000000,H'00000000
             000000       
    00000134 <00000000>             .DATA.L     __$OnCollisionEnter__9ComponentFv
    00000138 0000000000             .DATA.L     H'00000000,H'00000000
             000000       
    00000140 <00000000>             .DATA.L     __$OnCollisionEnter2D__9ComponentFv
    00000144 0000000000             .DATA.L     H'00000000,H'00000000
             000000       
    0000014C <00000000>             .DATA.L     __$OnCollisionExit__9ComponentFv
    00000150 0000000000             .DATA.L     H'00000000,H'00000000
             000000       
    00000158 <00000000>             .DATA.L     __$OnCollisionExit2D__9ComponentFv
    0000015C 0000000000             .DATA.L     H'00000000,H'00000000
             000000       
    00000164 <00000000>             .DATA.L     __$OnCollisionStay__9ComponentFv
    00000168 0000000000             .DATA.L     H'00000000,H'00000000
             000000       
    00000170 <00000000>             .DATA.L     __$OnCollisionStay2D__9ComponentFv
    00000174 0000000000             .DATA.L     H'00000000,H'00000000
             000000       
    0000017C <00000000>             .DATA.L     __$OnConnectedToServer__9ComponentFv
    00000180 0000000000             .DATA.L     H'00000000,H'00000000
             000000       
    00000188 <00000000>             .DATA.L     __$OnControllerColliderHit__9ComponentFv
    0000018C 0000000000             .DATA.L     H'00000000,H'00000000
             000000       
    00000194 <00000000>             .DATA.L     __$OnDestroy__9ComponentFv
    00000198 0000000000             .DATA.L     H'00000000,H'00000000
             000000       
    000001A0 <00000000>             .DATA.L     __$OnDisable__9ComponentFv
    000001A4 0000000000             .DATA.L     H'00000000,H'00000000
             000000       
    000001AC <00000000>             .DATA.L     __$OnDisconnectedFromServer__9ComponentFv




SH SERIES C/C++ Compiler (Ver. 6.0C)                                                                 08-Nov-2021 23:20:04  PAGE   76


SCT OFFSET   CODE       C LABEL     INSTRUCTION OPERAND    COMMENT

    000001B0 0000000000             .DATA.L     H'00000000,H'00000000
             000000       
    000001B8 <00000000>             .DATA.L     __$OnDrawGizmos__9ComponentFv
    000001BC 0000000000             .DATA.L     H'00000000,H'00000000
             000000       
    000001C4 <00000000>             .DATA.L     __$OnDrawGizmosSelected__9ComponentFv
    000001C8 0000000000             .DATA.L     H'00000000,H'00000000
             000000       
    000001D0 <00000000>             .DATA.L     __$OnEnable__9ComponentFv
    000001D4 0000000000             .DATA.L     H'00000000,H'00000000
             000000       
    000001DC <00000000>             .DATA.L     __$OnFailedToConnect__9ComponentFv
    000001E0 0000000000             .DATA.L     H'00000000,H'00000000
             000000       
    000001E8 <00000000>             .DATA.L     __$OnFailedToConnectToMasterServer__9ComponentFv
    000001EC 0000000000             .DATA.L     H'00000000,H'00000000
             000000       
    000001F4 <00000000>             .DATA.L     __$OnGUI__9ComponentFv
    000001F8 0000000000             .DATA.L     H'00000000,H'00000000
             000000       
    00000200 <00000000>             .DATA.L     __$OnJointBreak__9ComponentFv
    00000204 0000000000             .DATA.L     H'00000000,H'00000000
             000000       
    0000020C <00000000>             .DATA.L     __$OnJointBreak2D__9ComponentFv
    00000210 0000000000             .DATA.L     H'00000000,H'00000000
             000000       
    00000218 <00000000>             .DATA.L     __$OnMasterServerEvent__9ComponentFv
    0000021C 0000000000             .DATA.L     H'00000000,H'00000000
             000000       
    00000224 <00000000>             .DATA.L     __$OnMouseDown__9ComponentFv
    00000228 0000000000             .DATA.L     H'00000000,H'00000000
             000000       
    00000230 <00000000>             .DATA.L     __$OnMouseDrag__9ComponentFv
    00000234 0000000000             .DATA.L     H'00000000,H'00000000
             000000       
    0000023C <00000000>             .DATA.L     __$OnMouseEnter__9ComponentFv
    00000240 0000000000             .DATA.L     H'00000000,H'00000000
             000000       
    00000248 <00000000>             .DATA.L     __$OnMouseExit__9ComponentFv
    0000024C 0000000000             .DATA.L     H'00000000,H'00000000
             000000       
    00000254 <00000000>             .DATA.L     __$OnMouseOver__9ComponentFv
    00000258 0000000000             .DATA.L     H'00000000,H'00000000
             000000       
    00000260 <00000000>             .DATA.L     __$OnMouseUp__9ComponentFv
    00000264 0000000000             .DATA.L     H'00000000,H'00000000
             000000       
    0000026C <00000000>             .DATA.L     __$OnMouseUpAsButton__9ComponentFv
    00000270 0000000000             .DATA.L     H'00000000,H'00000000
             000000       
    00000278 <00000000>             .DATA.L     __$OnNetworkInstantiate__9ComponentFv
    0000027C 0000000000             .DATA.L     H'00000000,H'00000000
             000000       
    00000284 <00000000>             .DATA.L     __$OnParticleCollision__9ComponentFv
    00000288 0000000000             .DATA.L     H'00000000,H'00000000
             000000       
    00000290 <00000000>             .DATA.L     __$OnParticleSystemStopped__9ComponentFv




SH SERIES C/C++ Compiler (Ver. 6.0C)                                                                 08-Nov-2021 23:20:04  PAGE   77


SCT OFFSET   CODE       C LABEL     INSTRUCTION OPERAND    COMMENT

    00000294 0000000000             .DATA.L     H'00000000,H'00000000
             000000       
    0000029C <00000000>             .DATA.L     __$OnParticleTrigger__9ComponentFv
    000002A0 0000000000             .DATA.L     H'00000000,H'00000000
             000000       
    000002A8 <00000000>             .DATA.L     __$OnParticleUpdateJobScheduled__9ComponentFv
    000002AC 0000000000             .DATA.L     H'00000000,H'00000000
             000000       
    000002B4 <00000000>             .DATA.L     __$OnPlayerConnected__9ComponentFv
    000002B8 0000000000             .DATA.L     H'00000000,H'00000000
             000000       
    000002C0 <00000000>             .DATA.L     __$OnPlayerDisconnected__9ComponentFv
    000002C4 0000000000             .DATA.L     H'00000000,H'00000000
             000000       
    000002CC <00000000>             .DATA.L     __$OnPostRender__9ComponentFv
    000002D0 0000000000             .DATA.L     H'00000000,H'00000000
             000000       
    000002D8 <00000000>             .DATA.L     __$OnPreCull__9ComponentFv
    000002DC 0000000000             .DATA.L     H'00000000,H'00000000
             000000       
    000002E4 <00000000>             .DATA.L     __$OnPreRender__9ComponentFv
    000002E8 0000000000             .DATA.L     H'00000000,H'00000000
             000000       
    000002F0 <00000000>             .DATA.L     __$OnRenderImage__9ComponentFv
    000002F4 0000000000             .DATA.L     H'00000000,H'00000000
             000000       
    000002FC <00000000>             .DATA.L     __$OnRenderObject__9ComponentFv
    00000300 0000000000             .DATA.L     H'00000000,H'00000000
             000000       
    00000308 <00000000>             .DATA.L     __$OnSerializeNetworkView__9ComponentFv
    0000030C 0000000000             .DATA.L     H'00000000,H'00000000
             000000       
    00000314 <00000000>             .DATA.L     __$OnServerInitialized__9ComponentFv
    00000318 0000000000             .DATA.L     H'00000000,H'00000000
             000000       
    00000320 <00000000>             .DATA.L     __$OnTransformChildrenChanged__9ComponentFv
    00000324 0000000000             .DATA.L     H'00000000,H'00000000
             000000       
    0000032C <00000000>             .DATA.L     __$OnTransformParentChanged__9ComponentFv
    00000330 0000000000             .DATA.L     H'00000000,H'00000000
             000000       
    00000338 <00000000>             .DATA.L     __$OnTriggerEnter__9ComponentFv
    0000033C 0000000000             .DATA.L     H'00000000,H'00000000
             000000       
    00000344 <00000000>             .DATA.L     __$OnTriggerEnter2D__9ComponentFv
    00000348 0000000000             .DATA.L     H'00000000,H'00000000
             000000       
    00000350 <00000000>             .DATA.L     __$OnTriggerExit__9ComponentFv
    00000354 0000000000             .DATA.L     H'00000000,H'00000000
             000000       
    0000035C <00000000>             .DATA.L     __$OnTriggerExit2D__9ComponentFv
    00000360 0000000000             .DATA.L     H'00000000,H'00000000
             000000       
    00000368 <00000000>             .DATA.L     __$OnTriggerStay__9ComponentFv
    0000036C 0000000000             .DATA.L     H'00000000,H'00000000
             000000       
    00000374 <00000000>             .DATA.L     __$OnTriggerStay2D__9ComponentFv




SH SERIES C/C++ Compiler (Ver. 6.0C)                                                                 08-Nov-2021 23:20:04  PAGE   78


SCT OFFSET   CODE       C LABEL     INSTRUCTION OPERAND    COMMENT

    00000378 0000000000             .DATA.L     H'00000000,H'00000000
             000000       
    00000380 <00000000>             .DATA.L     __$OnValidate__9ComponentFv
    00000384 0000000000             .DATA.L     H'00000000,H'00000000
             000000       
    0000038C <00000000>             .DATA.L     __$OnWillRenderObject__9ComponentFv
    00000390 0000000000             .DATA.L     H'00000000,H'00000000
             000000       
    00000398 <00000000>             .DATA.L     __$Reset__9ComponentFv
    0000039C 0000000000             .DATA.L     H'00000000,H'00000000
             000000       
    000003A4 <00000000>             .DATA.L     __$Start__9ComponentFv
    000003A8 0000000000             .DATA.L     H'00000000,H'00000000
             000000       
    000003B0 <00000000>             .DATA.L     __$Update__9ComponentFv
    000003B4              __$__vtbl__9Transform:           ; static: virtual function table for Transform
    000003B4 0000000000             .DATA.L     H'00000000,H'00000000
             000000       
    000003BC <00000000>             .DATA.L     __$__T_9Transform
    000003C0 0000000000             .DATA.L     H'00000000,H'00000000
             000000       
    000003C8 <00000000>             .DATA.L     __$Destroy__6ObjectFv
    000003CC 0000000000             .DATA.L     H'00000000,H'00000000
             000000       
    000003D4 <00000000>             .DATA.L     __$DestroyImmediate__6ObjectFv
    000003D8 0000000000             .DATA.L     H'00000000,H'00000000
             000000       
    000003E0 <00000000>             .DATA.L     __$DontDestroyOnLoad__6ObjectFv
    000003E4 0000000000             .DATA.L     H'00000000,H'00000000
             000000       
    000003EC <00000000>             .DATA.L     __$FindObjectOfType__6ObjectFv
    000003F0 0000000000             .DATA.L     H'00000000,H'00000000
             000000       
    000003F8 <00000000>             .DATA.L     __$FindObjectsOfType__6ObjectFv
    000003FC 0000000000             .DATA.L     H'00000000,H'00000000
             000000       
    00000404 <00000000>             .DATA.L     __$Instantiate__6ObjectFv
    00000408 0000000000             .DATA.L     H'00000000,H'00000000
             000000       
    00000410 <00000000>             .DATA.L     __$Awake__9ComponentFv
    00000414 0000000000             .DATA.L     H'00000000,H'00000000
             000000       
    0000041C <00000000>             .DATA.L     __$FixedUpdate__9ComponentFv
    00000420 0000000000             .DATA.L     H'00000000,H'00000000
             000000       
    00000428 <00000000>             .DATA.L     __$LateUpdate__9ComponentFv
    0000042C 0000000000             .DATA.L     H'00000000,H'00000000
             000000       
    00000434 <00000000>             .DATA.L     __$OnAnimatorIK__9ComponentFv
    00000438 0000000000             .DATA.L     H'00000000,H'00000000
             000000       
    00000440 <00000000>             .DATA.L     __$OnAnimatorMove__9ComponentFv
    00000444 0000000000             .DATA.L     H'00000000,H'00000000
             000000       
    0000044C <00000000>             .DATA.L     __$OnApplicationFocus__9ComponentFv
    00000450 0000000000             .DATA.L     H'00000000,H'00000000
             000000       




SH SERIES C/C++ Compiler (Ver. 6.0C)                                                                 08-Nov-2021 23:20:04  PAGE   79


SCT OFFSET   CODE       C LABEL     INSTRUCTION OPERAND    COMMENT

    00000458 <00000000>             .DATA.L     __$OnApplicationPause__9ComponentFv
    0000045C 0000000000             .DATA.L     H'00000000,H'00000000
             000000       
    00000464 <00000000>             .DATA.L     __$OnApplicationQuit__9ComponentFv
    00000468 0000000000             .DATA.L     H'00000000,H'00000000
             000000       
    00000470 <00000000>             .DATA.L     __$OnAudioFilterRead__9ComponentFv
    00000474 0000000000             .DATA.L     H'00000000,H'00000000
             000000       
    0000047C <00000000>             .DATA.L     __$OnBecameInvisible__9ComponentFv
    00000480 0000000000             .DATA.L     H'00000000,H'00000000
             000000       
    00000488 <00000000>             .DATA.L     __$OnBecameVisible__9ComponentFv
    0000048C 0000000000             .DATA.L     H'00000000,H'00000000
             000000       
    00000494 <00000000>             .DATA.L     __$OnCollisionEnter__9ComponentFv
    00000498 0000000000             .DATA.L     H'00000000,H'00000000
             000000       
    000004A0 <00000000>             .DATA.L     __$OnCollisionEnter2D__9ComponentFv
    000004A4 0000000000             .DATA.L     H'00000000,H'00000000
             000000       
    000004AC <00000000>             .DATA.L     __$OnCollisionExit__9ComponentFv
    000004B0 0000000000             .DATA.L     H'00000000,H'00000000
             000000       
    000004B8 <00000000>             .DATA.L     __$OnCollisionExit2D__9ComponentFv
    000004BC 0000000000             .DATA.L     H'00000000,H'00000000
             000000       
    000004C4 <00000000>             .DATA.L     __$OnCollisionStay__9ComponentFv
    000004C8 0000000000             .DATA.L     H'00000000,H'00000000
             000000       
    000004D0 <00000000>             .DATA.L     __$OnCollisionStay2D__9ComponentFv
    000004D4 0000000000             .DATA.L     H'00000000,H'00000000
             000000       
    000004DC <00000000>             .DATA.L     __$OnConnectedToServer__9ComponentFv
    000004E0 0000000000             .DATA.L     H'00000000,H'00000000
             000000       
    000004E8 <00000000>             .DATA.L     __$OnControllerColliderHit__9ComponentFv
    000004EC 0000000000             .DATA.L     H'00000000,H'00000000
             000000       
    000004F4 <00000000>             .DATA.L     __$OnDestroy__9ComponentFv
    000004F8 0000000000             .DATA.L     H'00000000,H'00000000
             000000       
    00000500 <00000000>             .DATA.L     __$OnDisable__9ComponentFv
    00000504 0000000000             .DATA.L     H'00000000,H'00000000
             000000       
    0000050C <00000000>             .DATA.L     __$OnDisconnectedFromServer__9ComponentFv
    00000510 0000000000             .DATA.L     H'00000000,H'00000000
             000000       
    00000518 <00000000>             .DATA.L     __$OnDrawGizmos__9ComponentFv
    0000051C 0000000000             .DATA.L     H'00000000,H'00000000
             000000       
    00000524 <00000000>             .DATA.L     __$OnDrawGizmosSelected__9ComponentFv
    00000528 0000000000             .DATA.L     H'00000000,H'00000000
             000000       
    00000530 <00000000>             .DATA.L     __$OnEnable__9ComponentFv
    00000534 0000000000             .DATA.L     H'00000000,H'00000000
             000000       




SH SERIES C/C++ Compiler (Ver. 6.0C)                                                                 08-Nov-2021 23:20:04  PAGE   80


SCT OFFSET   CODE       C LABEL     INSTRUCTION OPERAND    COMMENT

    0000053C <00000000>             .DATA.L     __$OnFailedToConnect__9ComponentFv
    00000540 0000000000             .DATA.L     H'00000000,H'00000000
             000000       
    00000548 <00000000>             .DATA.L     __$OnFailedToConnectToMasterServer__9ComponentFv
    0000054C 0000000000             .DATA.L     H'00000000,H'00000000
             000000       
    00000554 <00000000>             .DATA.L     __$OnGUI__9ComponentFv
    00000558 0000000000             .DATA.L     H'00000000,H'00000000
             000000       
    00000560 <00000000>             .DATA.L     __$OnJointBreak__9ComponentFv
    00000564 0000000000             .DATA.L     H'00000000,H'00000000
             000000       
    0000056C <00000000>             .DATA.L     __$OnJointBreak2D__9ComponentFv
    00000570 0000000000             .DATA.L     H'00000000,H'00000000
             000000       
    00000578 <00000000>             .DATA.L     __$OnMasterServerEvent__9ComponentFv
    0000057C 0000000000             .DATA.L     H'00000000,H'00000000
             000000       
    00000584 <00000000>             .DATA.L     __$OnMouseDown__9ComponentFv
    00000588 0000000000             .DATA.L     H'00000000,H'00000000
             000000       
    00000590 <00000000>             .DATA.L     __$OnMouseDrag__9ComponentFv
    00000594 0000000000             .DATA.L     H'00000000,H'00000000
             000000       
    0000059C <00000000>             .DATA.L     __$OnMouseEnter__9ComponentFv
    000005A0 0000000000             .DATA.L     H'00000000,H'00000000
             000000       
    000005A8 <00000000>             .DATA.L     __$OnMouseExit__9ComponentFv
    000005AC 0000000000             .DATA.L     H'00000000,H'00000000
             000000       
    000005B4 <00000000>             .DATA.L     __$OnMouseOver__9ComponentFv
    000005B8 0000000000             .DATA.L     H'00000000,H'00000000
             000000       
    000005C0 <00000000>             .DATA.L     __$OnMouseUp__9ComponentFv
    000005C4 0000000000             .DATA.L     H'00000000,H'00000000
             000000       
    000005CC <00000000>             .DATA.L     __$OnMouseUpAsButton__9ComponentFv
    000005D0 0000000000             .DATA.L     H'00000000,H'00000000
             000000       
    000005D8 <00000000>             .DATA.L     __$OnNetworkInstantiate__9ComponentFv
    000005DC 0000000000             .DATA.L     H'00000000,H'00000000
             000000       
    000005E4 <00000000>             .DATA.L     __$OnParticleCollision__9ComponentFv
    000005E8 0000000000             .DATA.L     H'00000000,H'00000000
             000000       
    000005F0 <00000000>             .DATA.L     __$OnParticleSystemStopped__9ComponentFv
    000005F4 0000000000             .DATA.L     H'00000000,H'00000000
             000000       
    000005FC <00000000>             .DATA.L     __$OnParticleTrigger__9ComponentFv
    00000600 0000000000             .DATA.L     H'00000000,H'00000000
             000000       
    00000608 <00000000>             .DATA.L     __$OnParticleUpdateJobScheduled__9ComponentFv
    0000060C 0000000000             .DATA.L     H'00000000,H'00000000
             000000       
    00000614 <00000000>             .DATA.L     __$OnPlayerConnected__9ComponentFv
    00000618 0000000000             .DATA.L     H'00000000,H'00000000
             000000       




SH SERIES C/C++ Compiler (Ver. 6.0C)                                                                 08-Nov-2021 23:20:04  PAGE   81


SCT OFFSET   CODE       C LABEL     INSTRUCTION OPERAND    COMMENT

    00000620 <00000000>             .DATA.L     __$OnPlayerDisconnected__9ComponentFv
    00000624 0000000000             .DATA.L     H'00000000,H'00000000
             000000       
    0000062C <00000000>             .DATA.L     __$OnPostRender__9ComponentFv
    00000630 0000000000             .DATA.L     H'00000000,H'00000000
             000000       
    00000638 <00000000>             .DATA.L     __$OnPreCull__9ComponentFv
    0000063C 0000000000             .DATA.L     H'00000000,H'00000000
             000000       
    00000644 <00000000>             .DATA.L     __$OnPreRender__9ComponentFv
    00000648 0000000000             .DATA.L     H'00000000,H'00000000
             000000       
    00000650 <00000000>             .DATA.L     __$OnRenderImage__9ComponentFv
    00000654 0000000000             .DATA.L     H'00000000,H'00000000
             000000       
    0000065C <00000000>             .DATA.L     __$OnRenderObject__9ComponentFv
    00000660 0000000000             .DATA.L     H'00000000,H'00000000
             000000       
    00000668 <00000000>             .DATA.L     __$OnSerializeNetworkView__9ComponentFv
    0000066C 0000000000             .DATA.L     H'00000000,H'00000000
             000000       
    00000674 <00000000>             .DATA.L     __$OnServerInitialized__9ComponentFv
    00000678 0000000000             .DATA.L     H'00000000,H'00000000
             000000       
    00000680 <00000000>             .DATA.L     __$OnTransformChildrenChanged__9ComponentFv
    00000684 0000000000             .DATA.L     H'00000000,H'00000000
             000000       
    0000068C <00000000>             .DATA.L     __$OnTransformParentChanged__9ComponentFv
    00000690 0000000000             .DATA.L     H'00000000,H'00000000
             000000       
    00000698 <00000000>             .DATA.L     __$OnTriggerEnter__9ComponentFv
    0000069C 0000000000             .DATA.L     H'00000000,H'00000000
             000000       
    000006A4 <00000000>             .DATA.L     __$OnTriggerEnter2D__9ComponentFv
    000006A8 0000000000             .DATA.L     H'00000000,H'00000000
             000000       
    000006B0 <00000000>             .DATA.L     __$OnTriggerExit__9ComponentFv
    000006B4 0000000000             .DATA.L     H'00000000,H'00000000
             000000       
    000006BC <00000000>             .DATA.L     __$OnTriggerExit2D__9ComponentFv
    000006C0 0000000000             .DATA.L     H'00000000,H'00000000
             000000       
    000006C8 <00000000>             .DATA.L     __$OnTriggerStay__9ComponentFv
    000006CC 0000000000             .DATA.L     H'00000000,H'00000000
             000000       
    000006D4 <00000000>             .DATA.L     __$OnTriggerStay2D__9ComponentFv
    000006D8 0000000000             .DATA.L     H'00000000,H'00000000
             000000       
    000006E0 <00000000>             .DATA.L     __$OnValidate__9ComponentFv
    000006E4 0000000000             .DATA.L     H'00000000,H'00000000
             000000       
    000006EC <00000000>             .DATA.L     __$OnWillRenderObject__9ComponentFv
    000006F0 0000000000             .DATA.L     H'00000000,H'00000000
             000000       
    000006F8 <00000000>             .DATA.L     __$Reset__9ComponentFv
    000006FC 0000000000             .DATA.L     H'00000000,H'00000000
             000000       




SH SERIES C/C++ Compiler (Ver. 6.0C)                                                                 08-Nov-2021 23:20:04  PAGE   82


SCT OFFSET   CODE       C LABEL     INSTRUCTION OPERAND    COMMENT

    00000704 <00000000>             .DATA.L     __$Start__9TransformFv
    00000708 0000000000             .DATA.L     H'00000000,H'00000000
             000000       
    00000710 <00000000>             .DATA.L     __$Update__9TransformFv
    00000714              __$__vtbl__9Component__9Behaviour:
                                                           ; static: virtual function table for Component in Behaviour
    00000714 0000000000             .DATA.L     H'00000000,H'00000000
             000000       
    0000071C <00000000>             .DATA.L     __$__T_9Behaviour
    00000720 0000000000             .DATA.L     H'00000000,H'00000000
             000000       
    00000728 <00000000>             .DATA.L     __$Destroy__6ObjectFv
    0000072C 0000000000             .DATA.L     H'00000000,H'00000000
             000000       
    00000734 <00000000>             .DATA.L     __$DestroyImmediate__6ObjectFv
    00000738 0000000000             .DATA.L     H'00000000,H'00000000
             000000       
    00000740 <00000000>             .DATA.L     __$DontDestroyOnLoad__6ObjectFv
    00000744 0000000000             .DATA.L     H'00000000,H'00000000
             000000       
    0000074C <00000000>             .DATA.L     __$FindObjectOfType__6ObjectFv
    00000750 0000000000             .DATA.L     H'00000000,H'00000000
             000000       
    00000758 <00000000>             .DATA.L     __$FindObjectsOfType__6ObjectFv
    0000075C 0000000000             .DATA.L     H'00000000,H'00000000
             000000       
    00000764 <00000000>             .DATA.L     __$Instantiate__6ObjectFv
    00000768 0000000000             .DATA.L     H'00000000,H'00000000
             000000       
    00000770 <00000000>             .DATA.L     __$Awake__9ComponentFv
    00000774 0000000000             .DATA.L     H'00000000,H'00000000
             000000       
    0000077C <00000000>             .DATA.L     __$FixedUpdate__9ComponentFv
    00000780 0000000000             .DATA.L     H'00000000,H'00000000
             000000       
    00000788 <00000000>             .DATA.L     __$LateUpdate__9ComponentFv
    0000078C 0000000000             .DATA.L     H'00000000,H'00000000
             000000       
    00000794 <00000000>             .DATA.L     __$OnAnimatorIK__9ComponentFv
    00000798 0000000000             .DATA.L     H'00000000,H'00000000
             000000       
    000007A0 <00000000>             .DATA.L     __$OnAnimatorMove__9ComponentFv
    000007A4 0000000000             .DATA.L     H'00000000,H'00000000
             000000       
    000007AC <00000000>             .DATA.L     __$OnApplicationFocus__9ComponentFv
    000007B0 0000000000             .DATA.L     H'00000000,H'00000000
             000000       
    000007B8 <00000000>             .DATA.L     __$OnApplicationPause__9ComponentFv
    000007BC 0000000000             .DATA.L     H'00000000,H'00000000
             000000       
    000007C4 <00000000>             .DATA.L     __$OnApplicationQuit__9ComponentFv
    000007C8 0000000000             .DATA.L     H'00000000,H'00000000
             000000       
    000007D0 <00000000>             .DATA.L     __$OnAudioFilterRead__9ComponentFv
    000007D4 0000000000             .DATA.L     H'00000000,H'00000000
             000000       
    000007DC <00000000>             .DATA.L     __$OnBecameInvisible__9ComponentFv




SH SERIES C/C++ Compiler (Ver. 6.0C)                                                                 08-Nov-2021 23:20:04  PAGE   83


SCT OFFSET   CODE       C LABEL     INSTRUCTION OPERAND    COMMENT

    000007E0 0000000000             .DATA.L     H'00000000,H'00000000
             000000       
    000007E8 <00000000>             .DATA.L     __$OnBecameVisible__9ComponentFv
    000007EC 0000000000             .DATA.L     H'00000000,H'00000000
             000000       
    000007F4 <00000000>             .DATA.L     __$OnCollisionEnter__9ComponentFv
    000007F8 0000000000             .DATA.L     H'00000000,H'00000000
             000000       
    00000800 <00000000>             .DATA.L     __$OnCollisionEnter2D__9ComponentFv
    00000804 0000000000             .DATA.L     H'00000000,H'00000000
             000000       
    0000080C <00000000>             .DATA.L     __$OnCollisionExit__9ComponentFv
    00000810 0000000000             .DATA.L     H'00000000,H'00000000
             000000       
    00000818 <00000000>             .DATA.L     __$OnCollisionExit2D__9ComponentFv
    0000081C 0000000000             .DATA.L     H'00000000,H'00000000
             000000       
    00000824 <00000000>             .DATA.L     __$OnCollisionStay__9ComponentFv
    00000828 0000000000             .DATA.L     H'00000000,H'00000000
             000000       
    00000830 <00000000>             .DATA.L     __$OnCollisionStay2D__9ComponentFv
    00000834 0000000000             .DATA.L     H'00000000,H'00000000
             000000       
    0000083C <00000000>             .DATA.L     __$OnConnectedToServer__9ComponentFv
    00000840 0000000000             .DATA.L     H'00000000,H'00000000
             000000       
    00000848 <00000000>             .DATA.L     __$OnControllerColliderHit__9ComponentFv
    0000084C 0000000000             .DATA.L     H'00000000,H'00000000
             000000       
    00000854 <00000000>             .DATA.L     __$OnDestroy__9ComponentFv
    00000858 0000000000             .DATA.L     H'00000000,H'00000000
             000000       
    00000860 <00000000>             .DATA.L     __$OnDisable__9ComponentFv
    00000864 0000000000             .DATA.L     H'00000000,H'00000000
             000000       
    0000086C <00000000>             .DATA.L     __$OnDisconnectedFromServer__9ComponentFv
    00000870 0000000000             .DATA.L     H'00000000,H'00000000
             000000       
    00000878 <00000000>             .DATA.L     __$OnDrawGizmos__9ComponentFv
    0000087C 0000000000             .DATA.L     H'00000000,H'00000000
             000000       
    00000884 <00000000>             .DATA.L     __$OnDrawGizmosSelected__9ComponentFv
    00000888 0000000000             .DATA.L     H'00000000,H'00000000
             000000       
    00000890 <00000000>             .DATA.L     __$OnEnable__9ComponentFv
    00000894 0000000000             .DATA.L     H'00000000,H'00000000
             000000       
    0000089C <00000000>             .DATA.L     __$OnFailedToConnect__9ComponentFv
    000008A0 0000000000             .DATA.L     H'00000000,H'00000000
             000000       
    000008A8 <00000000>             .DATA.L     __$OnFailedToConnectToMasterServer__9ComponentFv
    000008AC 0000000000             .DATA.L     H'00000000,H'00000000
             000000       
    000008B4 <00000000>             .DATA.L     __$OnGUI__9ComponentFv
    000008B8 0000000000             .DATA.L     H'00000000,H'00000000
             000000       
    000008C0 <00000000>             .DATA.L     __$OnJointBreak__9ComponentFv




SH SERIES C/C++ Compiler (Ver. 6.0C)                                                                 08-Nov-2021 23:20:04  PAGE   84


SCT OFFSET   CODE       C LABEL     INSTRUCTION OPERAND    COMMENT

    000008C4 0000000000             .DATA.L     H'00000000,H'00000000
             000000       
    000008CC <00000000>             .DATA.L     __$OnJointBreak2D__9ComponentFv
    000008D0 0000000000             .DATA.L     H'00000000,H'00000000
             000000       
    000008D8 <00000000>             .DATA.L     __$OnMasterServerEvent__9ComponentFv
    000008DC 0000000000             .DATA.L     H'00000000,H'00000000
             000000       
    000008E4 <00000000>             .DATA.L     __$OnMouseDown__9ComponentFv
    000008E8 0000000000             .DATA.L     H'00000000,H'00000000
             000000       
    000008F0 <00000000>             .DATA.L     __$OnMouseDrag__9ComponentFv
    000008F4 0000000000             .DATA.L     H'00000000,H'00000000
             000000       
    000008FC <00000000>             .DATA.L     __$OnMouseEnter__9ComponentFv
    00000900 0000000000             .DATA.L     H'00000000,H'00000000
             000000       
    00000908 <00000000>             .DATA.L     __$OnMouseExit__9ComponentFv
    0000090C 0000000000             .DATA.L     H'00000000,H'00000000
             000000       
    00000914 <00000000>             .DATA.L     __$OnMouseOver__9ComponentFv
    00000918 0000000000             .DATA.L     H'00000000,H'00000000
             000000       
    00000920 <00000000>             .DATA.L     __$OnMouseUp__9ComponentFv
    00000924 0000000000             .DATA.L     H'00000000,H'00000000
             000000       
    0000092C <00000000>             .DATA.L     __$OnMouseUpAsButton__9ComponentFv
    00000930 0000000000             .DATA.L     H'00000000,H'00000000
             000000       
    00000938 <00000000>             .DATA.L     __$OnNetworkInstantiate__9ComponentFv
    0000093C 0000000000             .DATA.L     H'00000000,H'00000000
             000000       
    00000944 <00000000>             .DATA.L     __$OnParticleCollision__9ComponentFv
    00000948 0000000000             .DATA.L     H'00000000,H'00000000
             000000       
    00000950 <00000000>             .DATA.L     __$OnParticleSystemStopped__9ComponentFv
    00000954 0000000000             .DATA.L     H'00000000,H'00000000
             000000       
    0000095C <00000000>             .DATA.L     __$OnParticleTrigger__9ComponentFv
    00000960 0000000000             .DATA.L     H'00000000,H'00000000
             000000       
    00000968 <00000000>             .DATA.L     __$OnParticleUpdateJobScheduled__9ComponentFv
    0000096C 0000000000             .DATA.L     H'00000000,H'00000000
             000000       
    00000974 <00000000>             .DATA.L     __$OnPlayerConnected__9ComponentFv
    00000978 0000000000             .DATA.L     H'00000000,H'00000000
             000000       
    00000980 <00000000>             .DATA.L     __$OnPlayerDisconnected__9ComponentFv
    00000984 0000000000             .DATA.L     H'00000000,H'00000000
             000000       
    0000098C <00000000>             .DATA.L     __$OnPostRender__9ComponentFv
    00000990 0000000000             .DATA.L     H'00000000,H'00000000
             000000       
    00000998 <00000000>             .DATA.L     __$OnPreCull__9ComponentFv
    0000099C 0000000000             .DATA.L     H'00000000,H'00000000
             000000       
    000009A4 <00000000>             .DATA.L     __$OnPreRender__9ComponentFv




SH SERIES C/C++ Compiler (Ver. 6.0C)                                                                 08-Nov-2021 23:20:04  PAGE   85


SCT OFFSET   CODE       C LABEL     INSTRUCTION OPERAND    COMMENT

    000009A8 0000000000             .DATA.L     H'00000000,H'00000000
             000000       
    000009B0 <00000000>             .DATA.L     __$OnRenderImage__9ComponentFv
    000009B4 0000000000             .DATA.L     H'00000000,H'00000000
             000000       
    000009BC <00000000>             .DATA.L     __$OnRenderObject__9ComponentFv
    000009C0 0000000000             .DATA.L     H'00000000,H'00000000
             000000       
    000009C8 <00000000>             .DATA.L     __$OnSerializeNetworkView__9ComponentFv
    000009CC 0000000000             .DATA.L     H'00000000,H'00000000
             000000       
    000009D4 <00000000>             .DATA.L     __$OnServerInitialized__9ComponentFv
    000009D8 0000000000             .DATA.L     H'00000000,H'00000000
             000000       
    000009E0 <00000000>             .DATA.L     __$OnTransformChildrenChanged__9ComponentFv
    000009E4 0000000000             .DATA.L     H'00000000,H'00000000
             000000       
    000009EC <00000000>             .DATA.L     __$OnTransformParentChanged__9ComponentFv
    000009F0 0000000000             .DATA.L     H'00000000,H'00000000
             000000       
    000009F8 <00000000>             .DATA.L     __$OnTriggerEnter__9ComponentFv
    000009FC 0000000000             .DATA.L     H'00000000,H'00000000
             000000       
    00000A04 <00000000>             .DATA.L     __$OnTriggerEnter2D__9ComponentFv
    00000A08 0000000000             .DATA.L     H'00000000,H'00000000
             000000       
    00000A10 <00000000>             .DATA.L     __$OnTriggerExit__9ComponentFv
    00000A14 0000000000             .DATA.L     H'00000000,H'00000000
             000000       
    00000A1C <00000000>             .DATA.L     __$OnTriggerExit2D__9ComponentFv
    00000A20 0000000000             .DATA.L     H'00000000,H'00000000
             000000       
    00000A28 <00000000>             .DATA.L     __$OnTriggerStay__9ComponentFv
    00000A2C 0000000000             .DATA.L     H'00000000,H'00000000
             000000       
    00000A34 <00000000>             .DATA.L     __$OnTriggerStay2D__9ComponentFv
    00000A38 0000000000             .DATA.L     H'00000000,H'00000000
             000000       
    00000A40 <00000000>             .DATA.L     __$OnValidate__9ComponentFv
    00000A44 0000000000             .DATA.L     H'00000000,H'00000000
             000000       
    00000A4C <00000000>             .DATA.L     __$OnWillRenderObject__9ComponentFv
    00000A50 0000000000             .DATA.L     H'00000000,H'00000000
             000000       
    00000A58 <00000000>             .DATA.L     __$Reset__9ComponentFv
    00000A5C 0000000000             .DATA.L     H'00000000,H'00000000
             000000       
    00000A64 <00000000>             .DATA.L     __$Start__9ComponentFv
    00000A68 0000000000             .DATA.L     H'00000000,H'00000000
             000000       
    00000A70 <00000000>             .DATA.L     __$Update__9ComponentFv
    00000A74              __$__vtbl__6Object__7Texture:    ; static: virtual function table for Object in Texture
    00000A74 0000000000             .DATA.L     H'00000000,H'00000000
             000000       
    00000A7C <00000000>             .DATA.L     __$__T_7Texture
    00000A80 0000000000             .DATA.L     H'00000000,H'00000000
             000000       




SH SERIES C/C++ Compiler (Ver. 6.0C)                                                                 08-Nov-2021 23:20:04  PAGE   86


SCT OFFSET   CODE       C LABEL     INSTRUCTION OPERAND    COMMENT

    00000A88 <00000000>             .DATA.L     __$Destroy__6ObjectFv
    00000A8C 0000000000             .DATA.L     H'00000000,H'00000000
             000000       
    00000A94 <00000000>             .DATA.L     __$DestroyImmediate__6ObjectFv
    00000A98 0000000000             .DATA.L     H'00000000,H'00000000
             000000       
    00000AA0 <00000000>             .DATA.L     __$DontDestroyOnLoad__6ObjectFv
    00000AA4 0000000000             .DATA.L     H'00000000,H'00000000
             000000       
    00000AAC <00000000>             .DATA.L     __$FindObjectOfType__6ObjectFv
    00000AB0 0000000000             .DATA.L     H'00000000,H'00000000
             000000       
    00000AB8 <00000000>             .DATA.L     __$FindObjectsOfType__6ObjectFv
    00000ABC 0000000000             .DATA.L     H'00000000,H'00000000
             000000       
    00000AC4 <00000000>             .DATA.L     __$Instantiate__6ObjectFv
    00000AC8              __$__vtbl__20Component__Behaviour__13MonoBehaviour:
                                                           ; static: virtual function table for Component__Behaviour in MonoBehaviou
                        +                                  r
    00000AC8 0000000000             .DATA.L     H'00000000,H'00000000
             000000       
    00000AD0 <00000000>             .DATA.L     __$__T_13MonoBehaviour
    00000AD4 0000000000             .DATA.L     H'00000000,H'00000000
             000000       
    00000ADC <00000000>             .DATA.L     __$Destroy__6ObjectFv
    00000AE0 0000000000             .DATA.L     H'00000000,H'00000000
             000000       
    00000AE8 <00000000>             .DATA.L     __$DestroyImmediate__6ObjectFv
    00000AEC 0000000000             .DATA.L     H'00000000,H'00000000
             000000       
    00000AF4 <00000000>             .DATA.L     __$DontDestroyOnLoad__6ObjectFv
    00000AF8 0000000000             .DATA.L     H'00000000,H'00000000
             000000       
    00000B00 <00000000>             .DATA.L     __$FindObjectOfType__6ObjectFv
    00000B04 0000000000             .DATA.L     H'00000000,H'00000000
             000000       
    00000B0C <00000000>             .DATA.L     __$FindObjectsOfType__6ObjectFv
    00000B10 0000000000             .DATA.L     H'00000000,H'00000000
             000000       
    00000B18 <00000000>             .DATA.L     __$Instantiate__6ObjectFv
    00000B1C 0000000000             .DATA.L     H'00000000,H'00000000
             000000       
    00000B24 <00000000>             .DATA.L     __$Awake__9ComponentFv
    00000B28 0000000000             .DATA.L     H'00000000,H'00000000
             000000       
    00000B30 <00000000>             .DATA.L     __$FixedUpdate__9ComponentFv
    00000B34 0000000000             .DATA.L     H'00000000,H'00000000
             000000       
    00000B3C <00000000>             .DATA.L     __$LateUpdate__9ComponentFv
    00000B40 0000000000             .DATA.L     H'00000000,H'00000000
             000000       
    00000B48 <00000000>             .DATA.L     __$OnAnimatorIK__9ComponentFv
    00000B4C 0000000000             .DATA.L     H'00000000,H'00000000
             000000       
    00000B54 <00000000>             .DATA.L     __$OnAnimatorMove__9ComponentFv
    00000B58 0000000000             .DATA.L     H'00000000,H'00000000
             000000       




SH SERIES C/C++ Compiler (Ver. 6.0C)                                                                 08-Nov-2021 23:20:04  PAGE   87


SCT OFFSET   CODE       C LABEL     INSTRUCTION OPERAND    COMMENT

    00000B60 <00000000>             .DATA.L     __$OnApplicationFocus__9ComponentFv
    00000B64 0000000000             .DATA.L     H'00000000,H'00000000
             000000       
    00000B6C <00000000>             .DATA.L     __$OnApplicationPause__9ComponentFv
    00000B70 0000000000             .DATA.L     H'00000000,H'00000000
             000000       
    00000B78 <00000000>             .DATA.L     __$OnApplicationQuit__9ComponentFv
    00000B7C 0000000000             .DATA.L     H'00000000,H'00000000
             000000       
    00000B84 <00000000>             .DATA.L     __$OnAudioFilterRead__9ComponentFv
    00000B88 0000000000             .DATA.L     H'00000000,H'00000000
             000000       
    00000B90 <00000000>             .DATA.L     __$OnBecameInvisible__9ComponentFv
    00000B94 0000000000             .DATA.L     H'00000000,H'00000000
             000000       
    00000B9C <00000000>             .DATA.L     __$OnBecameVisible__9ComponentFv
    00000BA0 0000000000             .DATA.L     H'00000000,H'00000000
             000000       
    00000BA8 <00000000>             .DATA.L     __$OnCollisionEnter__9ComponentFv
    00000BAC 0000000000             .DATA.L     H'00000000,H'00000000
             000000       
    00000BB4 <00000000>             .DATA.L     __$OnCollisionEnter2D__9ComponentFv
    00000BB8 0000000000             .DATA.L     H'00000000,H'00000000
             000000       
    00000BC0 <00000000>             .DATA.L     __$OnCollisionExit__9ComponentFv
    00000BC4 0000000000             .DATA.L     H'00000000,H'00000000
             000000       
    00000BCC <00000000>             .DATA.L     __$OnCollisionExit2D__9ComponentFv
    00000BD0 0000000000             .DATA.L     H'00000000,H'00000000
             000000       
    00000BD8 <00000000>             .DATA.L     __$OnCollisionStay__9ComponentFv
    00000BDC 0000000000             .DATA.L     H'00000000,H'00000000
             000000       
    00000BE4 <00000000>             .DATA.L     __$OnCollisionStay2D__9ComponentFv
    00000BE8 0000000000             .DATA.L     H'00000000,H'00000000
             000000       
    00000BF0 <00000000>             .DATA.L     __$OnConnectedToServer__9ComponentFv
    00000BF4 0000000000             .DATA.L     H'00000000,H'00000000
             000000       
    00000BFC <00000000>             .DATA.L     __$OnControllerColliderHit__9ComponentFv
    00000C00 0000000000             .DATA.L     H'00000000,H'00000000
             000000       
    00000C08 <00000000>             .DATA.L     __$OnDestroy__9ComponentFv
    00000C0C 0000000000             .DATA.L     H'00000000,H'00000000
             000000       
    00000C14 <00000000>             .DATA.L     __$OnDisable__9ComponentFv
    00000C18 0000000000             .DATA.L     H'00000000,H'00000000
             000000       
    00000C20 <00000000>             .DATA.L     __$OnDisconnectedFromServer__9ComponentFv
    00000C24 0000000000             .DATA.L     H'00000000,H'00000000
             000000       
    00000C2C <00000000>             .DATA.L     __$OnDrawGizmos__9ComponentFv
    00000C30 0000000000             .DATA.L     H'00000000,H'00000000
             000000       
    00000C38 <00000000>             .DATA.L     __$OnDrawGizmosSelected__9ComponentFv
    00000C3C 0000000000             .DATA.L     H'00000000,H'00000000
             000000       




SH SERIES C/C++ Compiler (Ver. 6.0C)                                                                 08-Nov-2021 23:20:04  PAGE   88


SCT OFFSET   CODE       C LABEL     INSTRUCTION OPERAND    COMMENT

    00000C44 <00000000>             .DATA.L     __$OnEnable__9ComponentFv
    00000C48 0000000000             .DATA.L     H'00000000,H'00000000
             000000       
    00000C50 <00000000>             .DATA.L     __$OnFailedToConnect__9ComponentFv
    00000C54 0000000000             .DATA.L     H'00000000,H'00000000
             000000       
    00000C5C <00000000>             .DATA.L     __$OnFailedToConnectToMasterServer__9ComponentFv
    00000C60 0000000000             .DATA.L     H'00000000,H'00000000
             000000       
    00000C68 <00000000>             .DATA.L     __$OnGUI__9ComponentFv
    00000C6C 0000000000             .DATA.L     H'00000000,H'00000000
             000000       
    00000C74 <00000000>             .DATA.L     __$OnJointBreak__9ComponentFv
    00000C78 0000000000             .DATA.L     H'00000000,H'00000000
             000000       
    00000C80 <00000000>             .DATA.L     __$OnJointBreak2D__9ComponentFv
    00000C84 0000000000             .DATA.L     H'00000000,H'00000000
             000000       
    00000C8C <00000000>             .DATA.L     __$OnMasterServerEvent__9ComponentFv
    00000C90 0000000000             .DATA.L     H'00000000,H'00000000
             000000       
    00000C98 <00000000>             .DATA.L     __$OnMouseDown__9ComponentFv
    00000C9C 0000000000             .DATA.L     H'00000000,H'00000000
             000000       
    00000CA4 <00000000>             .DATA.L     __$OnMouseDrag__9ComponentFv
    00000CA8 0000000000             .DATA.L     H'00000000,H'00000000
             000000       
    00000CB0 <00000000>             .DATA.L     __$OnMouseEnter__9ComponentFv
    00000CB4 0000000000             .DATA.L     H'00000000,H'00000000
             000000       
    00000CBC <00000000>             .DATA.L     __$OnMouseExit__9ComponentFv
    00000CC0 0000000000             .DATA.L     H'00000000,H'00000000
             000000       
    00000CC8 <00000000>             .DATA.L     __$OnMouseOver__9ComponentFv
    00000CCC 0000000000             .DATA.L     H'00000000,H'00000000
             000000       
    00000CD4 <00000000>             .DATA.L     __$OnMouseUp__9ComponentFv
    00000CD8 0000000000             .DATA.L     H'00000000,H'00000000
             000000       
    00000CE0 <00000000>             .DATA.L     __$OnMouseUpAsButton__9ComponentFv
    00000CE4 0000000000             .DATA.L     H'00000000,H'00000000
             000000       
    00000CEC <00000000>             .DATA.L     __$OnNetworkInstantiate__9ComponentFv
    00000CF0 0000000000             .DATA.L     H'00000000,H'00000000
             000000       
    00000CF8 <00000000>             .DATA.L     __$OnParticleCollision__9ComponentFv
    00000CFC 0000000000             .DATA.L     H'00000000,H'00000000
             000000       
    00000D04 <00000000>             .DATA.L     __$OnParticleSystemStopped__9ComponentFv
    00000D08 0000000000             .DATA.L     H'00000000,H'00000000
             000000       
    00000D10 <00000000>             .DATA.L     __$OnParticleTrigger__9ComponentFv
    00000D14 0000000000             .DATA.L     H'00000000,H'00000000
             000000       
    00000D1C <00000000>             .DATA.L     __$OnParticleUpdateJobScheduled__9ComponentFv
    00000D20 0000000000             .DATA.L     H'00000000,H'00000000
             000000       




SH SERIES C/C++ Compiler (Ver. 6.0C)                                                                 08-Nov-2021 23:20:04  PAGE   89


SCT OFFSET   CODE       C LABEL     INSTRUCTION OPERAND    COMMENT

    00000D28 <00000000>             .DATA.L     __$OnPlayerConnected__9ComponentFv
    00000D2C 0000000000             .DATA.L     H'00000000,H'00000000
             000000       
    00000D34 <00000000>             .DATA.L     __$OnPlayerDisconnected__9ComponentFv
    00000D38 0000000000             .DATA.L     H'00000000,H'00000000
             000000       
    00000D40 <00000000>             .DATA.L     __$OnPostRender__9ComponentFv
    00000D44 0000000000             .DATA.L     H'00000000,H'00000000
             000000       
    00000D4C <00000000>             .DATA.L     __$OnPreCull__9ComponentFv
    00000D50 0000000000             .DATA.L     H'00000000,H'00000000
             000000       
    00000D58 <00000000>             .DATA.L     __$OnPreRender__9ComponentFv
    00000D5C 0000000000             .DATA.L     H'00000000,H'00000000
             000000       
    00000D64 <00000000>             .DATA.L     __$OnRenderImage__9ComponentFv
    00000D68 0000000000             .DATA.L     H'00000000,H'00000000
             000000       
    00000D70 <00000000>             .DATA.L     __$OnRenderObject__9ComponentFv
    00000D74 0000000000             .DATA.L     H'00000000,H'00000000
             000000       
    00000D7C <00000000>             .DATA.L     __$OnSerializeNetworkView__9ComponentFv
    00000D80 0000000000             .DATA.L     H'00000000,H'00000000
             000000       
    00000D88 <00000000>             .DATA.L     __$OnServerInitialized__9ComponentFv
    00000D8C 0000000000             .DATA.L     H'00000000,H'00000000
             000000       
    00000D94 <00000000>             .DATA.L     __$OnTransformChildrenChanged__9ComponentFv
    00000D98 0000000000             .DATA.L     H'00000000,H'00000000
             000000       
    00000DA0 <00000000>             .DATA.L     __$OnTransformParentChanged__9ComponentFv
    00000DA4 0000000000             .DATA.L     H'00000000,H'00000000
             000000       
    00000DAC <00000000>             .DATA.L     __$OnTriggerEnter__9ComponentFv
    00000DB0 0000000000             .DATA.L     H'00000000,H'00000000
             000000       
    00000DB8 <00000000>             .DATA.L     __$OnTriggerEnter2D__9ComponentFv
    00000DBC 0000000000             .DATA.L     H'00000000,H'00000000
             000000       
    00000DC4 <00000000>             .DATA.L     __$OnTriggerExit__9ComponentFv
    00000DC8 0000000000             .DATA.L     H'00000000,H'00000000
             000000       
    00000DD0 <00000000>             .DATA.L     __$OnTriggerExit2D__9ComponentFv
    00000DD4 0000000000             .DATA.L     H'00000000,H'00000000
             000000       
    00000DDC <00000000>             .DATA.L     __$OnTriggerStay__9ComponentFv
    00000DE0 0000000000             .DATA.L     H'00000000,H'00000000
             000000       
    00000DE8 <00000000>             .DATA.L     __$OnTriggerStay2D__9ComponentFv
    00000DEC 0000000000             .DATA.L     H'00000000,H'00000000
             000000       
    00000DF4 <00000000>             .DATA.L     __$OnValidate__9ComponentFv
    00000DF8 0000000000             .DATA.L     H'00000000,H'00000000
             000000       
    00000E00 <00000000>             .DATA.L     __$OnWillRenderObject__9ComponentFv
    00000E04 0000000000             .DATA.L     H'00000000,H'00000000
             000000       




SH SERIES C/C++ Compiler (Ver. 6.0C)                                                                 08-Nov-2021 23:20:04  PAGE   90


SCT OFFSET   CODE       C LABEL     INSTRUCTION OPERAND    COMMENT

    00000E0C <00000000>             .DATA.L     __$Reset__9ComponentFv
    00000E10 0000000000             .DATA.L     H'00000000,H'00000000
             000000       
    00000E18 <00000000>             .DATA.L     __$Start__9ComponentFv
    00000E1C 0000000000             .DATA.L     H'00000000,H'00000000
             000000       
    00000E24 <00000000>             .DATA.L     __$Update__9ComponentFv
    00000E28              __$__vtbl__6Object__10GameObject:
                                                           ; static: virtual function table for Object in GameObject
    00000E28 0000000000             .DATA.L     H'00000000,H'00000000
             000000       
    00000E30 <00000000>             .DATA.L     __$__T_10GameObject
    00000E34 0000000000             .DATA.L     H'00000000,H'00000000
             000000       
    00000E3C <00000000>             .DATA.L     __$Destroy__6ObjectFv
    00000E40 0000000000             .DATA.L     H'00000000,H'00000000
             000000       
    00000E48 <00000000>             .DATA.L     __$DestroyImmediate__6ObjectFv
    00000E4C 0000000000             .DATA.L     H'00000000,H'00000000
             000000       
    00000E54 <00000000>             .DATA.L     __$DontDestroyOnLoad__6ObjectFv
    00000E58 0000000000             .DATA.L     H'00000000,H'00000000
             000000       
    00000E60 <00000000>             .DATA.L     __$FindObjectOfType__6ObjectFv
    00000E64 0000000000             .DATA.L     H'00000000,H'00000000
             000000       
    00000E6C <00000000>             .DATA.L     __$FindObjectsOfType__6ObjectFv
    00000E70 0000000000             .DATA.L     H'00000000,H'00000000
             000000       
    00000E78 <00000000>             .DATA.L     __$Instantiate__6ObjectFv
    00000E7C              __$__vtbl__20Component__Behaviour__6Camera:
                                                           ; static: virtual function table for Component__Behaviour in Camera
    00000E7C 0000000000             .DATA.L     H'00000000,H'00000000
             000000       
    00000E84 <00000000>             .DATA.L     __$__T_6Camera
    00000E88 0000000000             .DATA.L     H'00000000,H'00000000
             000000       
    00000E90 <00000000>             .DATA.L     __$Destroy__6ObjectFv
    00000E94 0000000000             .DATA.L     H'00000000,H'00000000
             000000       
    00000E9C <00000000>             .DATA.L     __$DestroyImmediate__6ObjectFv
    00000EA0 0000000000             .DATA.L     H'00000000,H'00000000
             000000       
    00000EA8 <00000000>             .DATA.L     __$DontDestroyOnLoad__6ObjectFv
    00000EAC 0000000000             .DATA.L     H'00000000,H'00000000
             000000       
    00000EB4 <00000000>             .DATA.L     __$FindObjectOfType__6ObjectFv
    00000EB8 0000000000             .DATA.L     H'00000000,H'00000000
             000000       
    00000EC0 <00000000>             .DATA.L     __$FindObjectsOfType__6ObjectFv
    00000EC4 0000000000             .DATA.L     H'00000000,H'00000000
             000000       
    00000ECC <00000000>             .DATA.L     __$Instantiate__6ObjectFv
    00000ED0 0000000000             .DATA.L     H'00000000,H'00000000
             000000       
    00000ED8 <00000000>             .DATA.L     __$Awake__9ComponentFv
    00000EDC 0000000000             .DATA.L     H'00000000,H'00000000




SH SERIES C/C++ Compiler (Ver. 6.0C)                                                                 08-Nov-2021 23:20:04  PAGE   91


SCT OFFSET   CODE       C LABEL     INSTRUCTION OPERAND    COMMENT

             000000       
    00000EE4 <00000000>             .DATA.L     __$FixedUpdate__9ComponentFv
    00000EE8 0000000000             .DATA.L     H'00000000,H'00000000
             000000       
    00000EF0 <00000000>             .DATA.L     __$LateUpdate__9ComponentFv
    00000EF4 0000000000             .DATA.L     H'00000000,H'00000000
             000000       
    00000EFC <00000000>             .DATA.L     __$OnAnimatorIK__9ComponentFv
    00000F00 0000000000             .DATA.L     H'00000000,H'00000000
             000000       
    00000F08 <00000000>             .DATA.L     __$OnAnimatorMove__9ComponentFv
    00000F0C 0000000000             .DATA.L     H'00000000,H'00000000
             000000       
    00000F14 <00000000>             .DATA.L     __$OnApplicationFocus__9ComponentFv
    00000F18 0000000000             .DATA.L     H'00000000,H'00000000
             000000       
    00000F20 <00000000>             .DATA.L     __$OnApplicationPause__9ComponentFv
    00000F24 0000000000             .DATA.L     H'00000000,H'00000000
             000000       
    00000F2C <00000000>             .DATA.L     __$OnApplicationQuit__9ComponentFv
    00000F30 0000000000             .DATA.L     H'00000000,H'00000000
             000000       
    00000F38 <00000000>             .DATA.L     __$OnAudioFilterRead__9ComponentFv
    00000F3C 0000000000             .DATA.L     H'00000000,H'00000000
             000000       
    00000F44 <00000000>             .DATA.L     __$OnBecameInvisible__9ComponentFv
    00000F48 0000000000             .DATA.L     H'00000000,H'00000000
             000000       
    00000F50 <00000000>             .DATA.L     __$OnBecameVisible__9ComponentFv
    00000F54 0000000000             .DATA.L     H'00000000,H'00000000
             000000       
    00000F5C <00000000>             .DATA.L     __$OnCollisionEnter__9ComponentFv
    00000F60 0000000000             .DATA.L     H'00000000,H'00000000
             000000       
    00000F68 <00000000>             .DATA.L     __$OnCollisionEnter2D__9ComponentFv
    00000F6C 0000000000             .DATA.L     H'00000000,H'00000000
             000000       
    00000F74 <00000000>             .DATA.L     __$OnCollisionExit__9ComponentFv
    00000F78 0000000000             .DATA.L     H'00000000,H'00000000
             000000       
    00000F80 <00000000>             .DATA.L     __$OnCollisionExit2D__9ComponentFv
    00000F84 0000000000             .DATA.L     H'00000000,H'00000000
             000000       
    00000F8C <00000000>             .DATA.L     __$OnCollisionStay__9ComponentFv
    00000F90 0000000000             .DATA.L     H'00000000,H'00000000
             000000       
    00000F98 <00000000>             .DATA.L     __$OnCollisionStay2D__9ComponentFv
    00000F9C 0000000000             .DATA.L     H'00000000,H'00000000
             000000       
    00000FA4 <00000000>             .DATA.L     __$OnConnectedToServer__9ComponentFv
    00000FA8 0000000000             .DATA.L     H'00000000,H'00000000
             000000       
    00000FB0 <00000000>             .DATA.L     __$OnControllerColliderHit__9ComponentFv
    00000FB4 0000000000             .DATA.L     H'00000000,H'00000000
             000000       
    00000FBC <00000000>             .DATA.L     __$OnDestroy__9ComponentFv
    00000FC0 0000000000             .DATA.L     H'00000000,H'00000000




SH SERIES C/C++ Compiler (Ver. 6.0C)                                                                 08-Nov-2021 23:20:04  PAGE   92


SCT OFFSET   CODE       C LABEL     INSTRUCTION OPERAND    COMMENT

             000000       
    00000FC8 <00000000>             .DATA.L     __$OnDisable__9ComponentFv
    00000FCC 0000000000             .DATA.L     H'00000000,H'00000000
             000000       
    00000FD4 <00000000>             .DATA.L     __$OnDisconnectedFromServer__9ComponentFv
    00000FD8 0000000000             .DATA.L     H'00000000,H'00000000
             000000       
    00000FE0 <00000000>             .DATA.L     __$OnDrawGizmos__9ComponentFv
    00000FE4 0000000000             .DATA.L     H'00000000,H'00000000
             000000       
    00000FEC <00000000>             .DATA.L     __$OnDrawGizmosSelected__9ComponentFv
    00000FF0 0000000000             .DATA.L     H'00000000,H'00000000
             000000       
    00000FF8 <00000000>             .DATA.L     __$OnEnable__9ComponentFv
    00000FFC 0000000000             .DATA.L     H'00000000,H'00000000
             000000       
    00001004 <00000000>             .DATA.L     __$OnFailedToConnect__9ComponentFv
    00001008 0000000000             .DATA.L     H'00000000,H'00000000
             000000       
    00001010 <00000000>             .DATA.L     __$OnFailedToConnectToMasterServer__9ComponentFv
    00001014 0000000000             .DATA.L     H'00000000,H'00000000
             000000       
    0000101C <00000000>             .DATA.L     __$OnGUI__9ComponentFv
    00001020 0000000000             .DATA.L     H'00000000,H'00000000
             000000       
    00001028 <00000000>             .DATA.L     __$OnJointBreak__9ComponentFv
    0000102C 0000000000             .DATA.L     H'00000000,H'00000000
             000000       
    00001034 <00000000>             .DATA.L     __$OnJointBreak2D__9ComponentFv
    00001038 0000000000             .DATA.L     H'00000000,H'00000000
             000000       
    00001040 <00000000>             .DATA.L     __$OnMasterServerEvent__9ComponentFv
    00001044 0000000000             .DATA.L     H'00000000,H'00000000
             000000       
    0000104C <00000000>             .DATA.L     __$OnMouseDown__9ComponentFv
    00001050 0000000000             .DATA.L     H'00000000,H'00000000
             000000       
    00001058 <00000000>             .DATA.L     __$OnMouseDrag__9ComponentFv
    0000105C 0000000000             .DATA.L     H'00000000,H'00000000
             000000       
    00001064 <00000000>             .DATA.L     __$OnMouseEnter__9ComponentFv
    00001068 0000000000             .DATA.L     H'00000000,H'00000000
             000000       
    00001070 <00000000>             .DATA.L     __$OnMouseExit__9ComponentFv
    00001074 0000000000             .DATA.L     H'00000000,H'00000000
             000000       
    0000107C <00000000>             .DATA.L     __$OnMouseOver__9ComponentFv
    00001080 0000000000             .DATA.L     H'00000000,H'00000000
             000000       
    00001088 <00000000>             .DATA.L     __$OnMouseUp__9ComponentFv
    0000108C 0000000000             .DATA.L     H'00000000,H'00000000
             000000       
    00001094 <00000000>             .DATA.L     __$OnMouseUpAsButton__9ComponentFv
    00001098 0000000000             .DATA.L     H'00000000,H'00000000
             000000       
    000010A0 <00000000>             .DATA.L     __$OnNetworkInstantiate__9ComponentFv
    000010A4 0000000000             .DATA.L     H'00000000,H'00000000




SH SERIES C/C++ Compiler (Ver. 6.0C)                                                                 08-Nov-2021 23:20:04  PAGE   93


SCT OFFSET   CODE       C LABEL     INSTRUCTION OPERAND    COMMENT

             000000       
    000010AC <00000000>             .DATA.L     __$OnParticleCollision__9ComponentFv
    000010B0 0000000000             .DATA.L     H'00000000,H'00000000
             000000       
    000010B8 <00000000>             .DATA.L     __$OnParticleSystemStopped__9ComponentFv
    000010BC 0000000000             .DATA.L     H'00000000,H'00000000
             000000       
    000010C4 <00000000>             .DATA.L     __$OnParticleTrigger__9ComponentFv
    000010C8 0000000000             .DATA.L     H'00000000,H'00000000
             000000       
    000010D0 <00000000>             .DATA.L     __$OnParticleUpdateJobScheduled__9ComponentFv
    000010D4 0000000000             .DATA.L     H'00000000,H'00000000
             000000       
    000010DC <00000000>             .DATA.L     __$OnPlayerConnected__9ComponentFv
    000010E0 0000000000             .DATA.L     H'00000000,H'00000000
             000000       
    000010E8 <00000000>             .DATA.L     __$OnPlayerDisconnected__9ComponentFv
    000010EC 0000000000             .DATA.L     H'00000000,H'00000000
             000000       
    000010F4 <00000000>             .DATA.L     __$OnPostRender__9ComponentFv
    000010F8 0000000000             .DATA.L     H'00000000,H'00000000
             000000       
    00001100 <00000000>             .DATA.L     __$OnPreCull__9ComponentFv
    00001104 0000000000             .DATA.L     H'00000000,H'00000000
             000000       
    0000110C <00000000>             .DATA.L     __$OnPreRender__9ComponentFv
    00001110 0000000000             .DATA.L     H'00000000,H'00000000
             000000       
    00001118 <00000000>             .DATA.L     __$OnRenderImage__9ComponentFv
    0000111C 0000000000             .DATA.L     H'00000000,H'00000000
             000000       
    00001124 <00000000>             .DATA.L     __$OnRenderObject__9ComponentFv
    00001128 0000000000             .DATA.L     H'00000000,H'00000000
             000000       
    00001130 <00000000>             .DATA.L     __$OnSerializeNetworkView__9ComponentFv
    00001134 0000000000             .DATA.L     H'00000000,H'00000000
             000000       
    0000113C <00000000>             .DATA.L     __$OnServerInitialized__9ComponentFv
    00001140 0000000000             .DATA.L     H'00000000,H'00000000
             000000       
    00001148 <00000000>             .DATA.L     __$OnTransformChildrenChanged__9ComponentFv
    0000114C 0000000000             .DATA.L     H'00000000,H'00000000
             000000       
    00001154 <00000000>             .DATA.L     __$OnTransformParentChanged__9ComponentFv
    00001158 0000000000             .DATA.L     H'00000000,H'00000000
             000000       
    00001160 <00000000>             .DATA.L     __$OnTriggerEnter__9ComponentFv
    00001164 0000000000             .DATA.L     H'00000000,H'00000000
             000000       
    0000116C <00000000>             .DATA.L     __$OnTriggerEnter2D__9ComponentFv
    00001170 0000000000             .DATA.L     H'00000000,H'00000000
             000000       
    00001178 <00000000>             .DATA.L     __$OnTriggerExit__9ComponentFv
    0000117C 0000000000             .DATA.L     H'00000000,H'00000000
             000000       
    00001184 <00000000>             .DATA.L     __$OnTriggerExit2D__9ComponentFv
    00001188 0000000000             .DATA.L     H'00000000,H'00000000




SH SERIES C/C++ Compiler (Ver. 6.0C)                                                                 08-Nov-2021 23:20:04  PAGE   94


SCT OFFSET   CODE       C LABEL     INSTRUCTION OPERAND    COMMENT

             000000       
    00001190 <00000000>             .DATA.L     __$OnTriggerStay__9ComponentFv
    00001194 0000000000             .DATA.L     H'00000000,H'00000000
             000000       
    0000119C <00000000>             .DATA.L     __$OnTriggerStay2D__9ComponentFv
    000011A0 0000000000             .DATA.L     H'00000000,H'00000000
             000000       
    000011A8 <00000000>             .DATA.L     __$OnValidate__9ComponentFv
    000011AC 0000000000             .DATA.L     H'00000000,H'00000000
             000000       
    000011B4 <00000000>             .DATA.L     __$OnWillRenderObject__9ComponentFv
    000011B8 0000000000             .DATA.L     H'00000000,H'00000000
             000000       
    000011C0 <00000000>             .DATA.L     __$Reset__9ComponentFv
    000011C4 0000000000             .DATA.L     H'00000000,H'00000000
             000000       
    000011CC <00000000>             .DATA.L     __$Start__9ComponentFv
    000011D0 0000000000             .DATA.L     H'00000000,H'00000000
             000000       
    000011D8 <00000000>             .DATA.L     __$Update__9ComponentFv
    000011DC              __$__vtbl__6Sprite:              ; static: virtual function table for Sprite
    000011DC 0000000000             .DATA.L     H'00000000,H'00000000
             000000       
    000011E4 <00000000>             .DATA.L     __$__T_6Sprite
    000011E8 0000000000             .DATA.L     H'00000000,H'00000000
             000000       
    000011F0 <00000000>             .DATA.L     __$Destroy__6ObjectFv
    000011F4 0000000000             .DATA.L     H'00000000,H'00000000
             000000       
    000011FC <00000000>             .DATA.L     __$DestroyImmediate__6ObjectFv
    00001200 0000000000             .DATA.L     H'00000000,H'00000000
             000000       
    00001208 <00000000>             .DATA.L     __$DontDestroyOnLoad__6ObjectFv
    0000120C 0000000000             .DATA.L     H'00000000,H'00000000
             000000       
    00001214 <00000000>             .DATA.L     __$FindObjectOfType__6ObjectFv
    00001218 0000000000             .DATA.L     H'00000000,H'00000000
             000000       
    00001220 <00000000>             .DATA.L     __$FindObjectsOfType__6ObjectFv
    00001224 0000000000             .DATA.L     H'00000000,H'00000000
             000000       
    0000122C <00000000>             .DATA.L     __$Instantiate__6ObjectFv
    00001230 0000000000             .DATA.L     H'00000000,H'00000000
             000000       
    00001238 <00000000>             .DATA.L     __$Awake__9ComponentFv
    0000123C 0000000000             .DATA.L     H'00000000,H'00000000
             000000       
    00001244 <00000000>             .DATA.L     __$FixedUpdate__9ComponentFv
    00001248 0000000000             .DATA.L     H'00000000,H'00000000
             000000       
    00001250 <00000000>             .DATA.L     __$LateUpdate__9ComponentFv
    00001254 0000000000             .DATA.L     H'00000000,H'00000000
             000000       
    0000125C <00000000>             .DATA.L     __$OnAnimatorIK__9ComponentFv
    00001260 0000000000             .DATA.L     H'00000000,H'00000000
             000000       
    00001268 <00000000>             .DATA.L     __$OnAnimatorMove__9ComponentFv




SH SERIES C/C++ Compiler (Ver. 6.0C)                                                                 08-Nov-2021 23:20:04  PAGE   95


SCT OFFSET   CODE       C LABEL     INSTRUCTION OPERAND    COMMENT

    0000126C 0000000000             .DATA.L     H'00000000,H'00000000
             000000       
    00001274 <00000000>             .DATA.L     __$OnApplicationFocus__9ComponentFv
    00001278 0000000000             .DATA.L     H'00000000,H'00000000
             000000       
    00001280 <00000000>             .DATA.L     __$OnApplicationPause__9ComponentFv
    00001284 0000000000             .DATA.L     H'00000000,H'00000000
             000000       
    0000128C <00000000>             .DATA.L     __$OnApplicationQuit__9ComponentFv
    00001290 0000000000             .DATA.L     H'00000000,H'00000000
             000000       
    00001298 <00000000>             .DATA.L     __$OnAudioFilterRead__9ComponentFv
    0000129C 0000000000             .DATA.L     H'00000000,H'00000000
             000000       
    000012A4 <00000000>             .DATA.L     __$OnBecameInvisible__9ComponentFv
    000012A8 0000000000             .DATA.L     H'00000000,H'00000000
             000000       
    000012B0 <00000000>             .DATA.L     __$OnBecameVisible__9ComponentFv
    000012B4 0000000000             .DATA.L     H'00000000,H'00000000
             000000       
    000012BC <00000000>             .DATA.L     __$OnCollisionEnter__9ComponentFv
    000012C0 0000000000             .DATA.L     H'00000000,H'00000000
             000000       
    000012C8 <00000000>             .DATA.L     __$OnCollisionEnter2D__9ComponentFv
    000012CC 0000000000             .DATA.L     H'00000000,H'00000000
             000000       
    000012D4 <00000000>             .DATA.L     __$OnCollisionExit__9ComponentFv
    000012D8 0000000000             .DATA.L     H'00000000,H'00000000
             000000       
    000012E0 <00000000>             .DATA.L     __$OnCollisionExit2D__9ComponentFv
    000012E4 0000000000             .DATA.L     H'00000000,H'00000000
             000000       
    000012EC <00000000>             .DATA.L     __$OnCollisionStay__9ComponentFv
    000012F0 0000000000             .DATA.L     H'00000000,H'00000000
             000000       
    000012F8 <00000000>             .DATA.L     __$OnCollisionStay2D__9ComponentFv
    000012FC 0000000000             .DATA.L     H'00000000,H'00000000
             000000       
    00001304 <00000000>             .DATA.L     __$OnConnectedToServer__9ComponentFv
    00001308 0000000000             .DATA.L     H'00000000,H'00000000
             000000       
    00001310 <00000000>             .DATA.L     __$OnControllerColliderHit__9ComponentFv
    00001314 0000000000             .DATA.L     H'00000000,H'00000000
             000000       
    0000131C <00000000>             .DATA.L     __$OnDestroy__9ComponentFv
    00001320 0000000000             .DATA.L     H'00000000,H'00000000
             000000       
    00001328 <00000000>             .DATA.L     __$OnDisable__9ComponentFv
    0000132C 0000000000             .DATA.L     H'00000000,H'00000000
             000000       
    00001334 <00000000>             .DATA.L     __$OnDisconnectedFromServer__9ComponentFv
    00001338 0000000000             .DATA.L     H'00000000,H'00000000
             000000       
    00001340 <00000000>             .DATA.L     __$OnDrawGizmos__9ComponentFv
    00001344 0000000000             .DATA.L     H'00000000,H'00000000
             000000       
    0000134C <00000000>             .DATA.L     __$OnDrawGizmosSelected__9ComponentFv




SH SERIES C/C++ Compiler (Ver. 6.0C)                                                                 08-Nov-2021 23:20:04  PAGE   96


SCT OFFSET   CODE       C LABEL     INSTRUCTION OPERAND    COMMENT

    00001350 0000000000             .DATA.L     H'00000000,H'00000000
             000000       
    00001358 <00000000>             .DATA.L     __$OnEnable__9ComponentFv
    0000135C 0000000000             .DATA.L     H'00000000,H'00000000
             000000       
    00001364 <00000000>             .DATA.L     __$OnFailedToConnect__9ComponentFv
    00001368 0000000000             .DATA.L     H'00000000,H'00000000
             000000       
    00001370 <00000000>             .DATA.L     __$OnFailedToConnectToMasterServer__9ComponentFv
    00001374 0000000000             .DATA.L     H'00000000,H'00000000
             000000       
    0000137C <00000000>             .DATA.L     __$OnGUI__9ComponentFv
    00001380 0000000000             .DATA.L     H'00000000,H'00000000
             000000       
    00001388 <00000000>             .DATA.L     __$OnJointBreak__9ComponentFv
    0000138C 0000000000             .DATA.L     H'00000000,H'00000000
             000000       
    00001394 <00000000>             .DATA.L     __$OnJointBreak2D__9ComponentFv
    00001398 0000000000             .DATA.L     H'00000000,H'00000000
             000000       
    000013A0 <00000000>             .DATA.L     __$OnMasterServerEvent__9ComponentFv
    000013A4 0000000000             .DATA.L     H'00000000,H'00000000
             000000       
    000013AC <00000000>             .DATA.L     __$OnMouseDown__9ComponentFv
    000013B0 0000000000             .DATA.L     H'00000000,H'00000000
             000000       
    000013B8 <00000000>             .DATA.L     __$OnMouseDrag__9ComponentFv
    000013BC 0000000000             .DATA.L     H'00000000,H'00000000
             000000       
    000013C4 <00000000>             .DATA.L     __$OnMouseEnter__9ComponentFv
    000013C8 0000000000             .DATA.L     H'00000000,H'00000000
             000000       
    000013D0 <00000000>             .DATA.L     __$OnMouseExit__9ComponentFv
    000013D4 0000000000             .DATA.L     H'00000000,H'00000000
             000000       
    000013DC <00000000>             .DATA.L     __$OnMouseOver__9ComponentFv
    000013E0 0000000000             .DATA.L     H'00000000,H'00000000
             000000       
    000013E8 <00000000>             .DATA.L     __$OnMouseUp__9ComponentFv
    000013EC 0000000000             .DATA.L     H'00000000,H'00000000
             000000       
    000013F4 <00000000>             .DATA.L     __$OnMouseUpAsButton__9ComponentFv
    000013F8 0000000000             .DATA.L     H'00000000,H'00000000
             000000       
    00001400 <00000000>             .DATA.L     __$OnNetworkInstantiate__9ComponentFv
    00001404 0000000000             .DATA.L     H'00000000,H'00000000
             000000       
    0000140C <00000000>             .DATA.L     __$OnParticleCollision__9ComponentFv
    00001410 0000000000             .DATA.L     H'00000000,H'00000000
             000000       
    00001418 <00000000>             .DATA.L     __$OnParticleSystemStopped__9ComponentFv
    0000141C 0000000000             .DATA.L     H'00000000,H'00000000
             000000       
    00001424 <00000000>             .DATA.L     __$OnParticleTrigger__9ComponentFv
    00001428 0000000000             .DATA.L     H'00000000,H'00000000
             000000       
    00001430 <00000000>             .DATA.L     __$OnParticleUpdateJobScheduled__9ComponentFv




SH SERIES C/C++ Compiler (Ver. 6.0C)                                                                 08-Nov-2021 23:20:04  PAGE   97


SCT OFFSET   CODE       C LABEL     INSTRUCTION OPERAND    COMMENT

    00001434 0000000000             .DATA.L     H'00000000,H'00000000
             000000       
    0000143C <00000000>             .DATA.L     __$OnPlayerConnected__9ComponentFv
    00001440 0000000000             .DATA.L     H'00000000,H'00000000
             000000       
    00001448 <00000000>             .DATA.L     __$OnPlayerDisconnected__9ComponentFv
    0000144C 0000000000             .DATA.L     H'00000000,H'00000000
             000000       
    00001454 <00000000>             .DATA.L     __$OnPostRender__9ComponentFv
    00001458 0000000000             .DATA.L     H'00000000,H'00000000
             000000       
    00001460 <00000000>             .DATA.L     __$OnPreCull__9ComponentFv
    00001464 0000000000             .DATA.L     H'00000000,H'00000000
             000000       
    0000146C <00000000>             .DATA.L     __$OnPreRender__9ComponentFv
    00001470 0000000000             .DATA.L     H'00000000,H'00000000
             000000       
    00001478 <00000000>             .DATA.L     __$OnRenderImage__9ComponentFv
    0000147C 0000000000             .DATA.L     H'00000000,H'00000000
             000000       
    00001484 <00000000>             .DATA.L     __$OnRenderObject__9ComponentFv
    00001488 0000000000             .DATA.L     H'00000000,H'00000000
             000000       
    00001490 <00000000>             .DATA.L     __$OnSerializeNetworkView__9ComponentFv
    00001494 0000000000             .DATA.L     H'00000000,H'00000000
             000000       
    0000149C <00000000>             .DATA.L     __$OnServerInitialized__9ComponentFv
    000014A0 0000000000             .DATA.L     H'00000000,H'00000000
             000000       
    000014A8 <00000000>             .DATA.L     __$OnTransformChildrenChanged__9ComponentFv
    000014AC 0000000000             .DATA.L     H'00000000,H'00000000
             000000       
    000014B4 <00000000>             .DATA.L     __$OnTransformParentChanged__9ComponentFv
    000014B8 0000000000             .DATA.L     H'00000000,H'00000000
             000000       
    000014C0 <00000000>             .DATA.L     __$OnTriggerEnter__9ComponentFv
    000014C4 0000000000             .DATA.L     H'00000000,H'00000000
             000000       
    000014CC <00000000>             .DATA.L     __$OnTriggerEnter2D__9ComponentFv
    000014D0 0000000000             .DATA.L     H'00000000,H'00000000
             000000       
    000014D8 <00000000>             .DATA.L     __$OnTriggerExit__9ComponentFv
    000014DC 0000000000             .DATA.L     H'00000000,H'00000000
             000000       
    000014E4 <00000000>             .DATA.L     __$OnTriggerExit2D__9ComponentFv
    000014E8 0000000000             .DATA.L     H'00000000,H'00000000
             000000       
    000014F0 <00000000>             .DATA.L     __$OnTriggerStay__9ComponentFv
    000014F4 0000000000             .DATA.L     H'00000000,H'00000000
             000000       
    000014FC <00000000>             .DATA.L     __$OnTriggerStay2D__9ComponentFv
    00001500 0000000000             .DATA.L     H'00000000,H'00000000
             000000       
    00001508 <00000000>             .DATA.L     __$OnValidate__9ComponentFv
    0000150C 0000000000             .DATA.L     H'00000000,H'00000000
             000000       
    00001514 <00000000>             .DATA.L     __$OnWillRenderObject__9ComponentFv




SH SERIES C/C++ Compiler (Ver. 6.0C)                                                                 08-Nov-2021 23:20:04  PAGE   98


SCT OFFSET   CODE       C LABEL     INSTRUCTION OPERAND    COMMENT

    00001518 0000000000             .DATA.L     H'00000000,H'00000000
             000000       
    00001520 <00000000>             .DATA.L     __$Reset__9ComponentFv
    00001524 0000000000             .DATA.L     H'00000000,H'00000000
             000000       
    0000152C <00000000>             .DATA.L     __$Start__9ComponentFv
    00001530 0000000000             .DATA.L     H'00000000,H'00000000
             000000       
    00001538 <00000000>             .DATA.L     __$Update__6SpriteFv
    0000153C              __$__vtbl__7Tilemap:             ; static: virtual function table for Tilemap
    0000153C 0000000000             .DATA.L     H'00000000,H'00000000
             000000       
    00001544 <00000000>             .DATA.L     __$__T_7Tilemap
    00001548 0000000000             .DATA.L     H'00000000,H'00000000
             000000       
    00001550 <00000000>             .DATA.L     __$Destroy__6ObjectFv
    00001554 0000000000             .DATA.L     H'00000000,H'00000000
             000000       
    0000155C <00000000>             .DATA.L     __$DestroyImmediate__6ObjectFv
    00001560 0000000000             .DATA.L     H'00000000,H'00000000
             000000       
    00001568 <00000000>             .DATA.L     __$DontDestroyOnLoad__6ObjectFv
    0000156C 0000000000             .DATA.L     H'00000000,H'00000000
             000000       
    00001574 <00000000>             .DATA.L     __$FindObjectOfType__6ObjectFv
    00001578 0000000000             .DATA.L     H'00000000,H'00000000
             000000       
    00001580 <00000000>             .DATA.L     __$FindObjectsOfType__6ObjectFv
    00001584 0000000000             .DATA.L     H'00000000,H'00000000
             000000       
    0000158C <00000000>             .DATA.L     __$Instantiate__6ObjectFv
    00001590 0000000000             .DATA.L     H'00000000,H'00000000
             000000       
    00001598 <00000000>             .DATA.L     __$Awake__9ComponentFv
    0000159C 0000000000             .DATA.L     H'00000000,H'00000000
             000000       
    000015A4 <00000000>             .DATA.L     __$FixedUpdate__9ComponentFv
    000015A8 0000000000             .DATA.L     H'00000000,H'00000000
             000000       
    000015B0 <00000000>             .DATA.L     __$LateUpdate__9ComponentFv
    000015B4 0000000000             .DATA.L     H'00000000,H'00000000
             000000       
    000015BC <00000000>             .DATA.L     __$OnAnimatorIK__9ComponentFv
    000015C0 0000000000             .DATA.L     H'00000000,H'00000000
             000000       
    000015C8 <00000000>             .DATA.L     __$OnAnimatorMove__9ComponentFv
    000015CC 0000000000             .DATA.L     H'00000000,H'00000000
             000000       
    000015D4 <00000000>             .DATA.L     __$OnApplicationFocus__9ComponentFv
    000015D8 0000000000             .DATA.L     H'00000000,H'00000000
             000000       
    000015E0 <00000000>             .DATA.L     __$OnApplicationPause__9ComponentFv
    000015E4 0000000000             .DATA.L     H'00000000,H'00000000
             000000       
    000015EC <00000000>             .DATA.L     __$OnApplicationQuit__9ComponentFv
    000015F0 0000000000             .DATA.L     H'00000000,H'00000000
             000000       




SH SERIES C/C++ Compiler (Ver. 6.0C)                                                                 08-Nov-2021 23:20:04  PAGE   99


SCT OFFSET   CODE       C LABEL     INSTRUCTION OPERAND    COMMENT

    000015F8 <00000000>             .DATA.L     __$OnAudioFilterRead__9ComponentFv
    000015FC 0000000000             .DATA.L     H'00000000,H'00000000
             000000       
    00001604 <00000000>             .DATA.L     __$OnBecameInvisible__9ComponentFv
    00001608 0000000000             .DATA.L     H'00000000,H'00000000
             000000       
    00001610 <00000000>             .DATA.L     __$OnBecameVisible__9ComponentFv
    00001614 0000000000             .DATA.L     H'00000000,H'00000000
             000000       
    0000161C <00000000>             .DATA.L     __$OnCollisionEnter__9ComponentFv
    00001620 0000000000             .DATA.L     H'00000000,H'00000000
             000000       
    00001628 <00000000>             .DATA.L     __$OnCollisionEnter2D__9ComponentFv
    0000162C 0000000000             .DATA.L     H'00000000,H'00000000
             000000       
    00001634 <00000000>             .DATA.L     __$OnCollisionExit__9ComponentFv
    00001638 0000000000             .DATA.L     H'00000000,H'00000000
             000000       
    00001640 <00000000>             .DATA.L     __$OnCollisionExit2D__9ComponentFv
    00001644 0000000000             .DATA.L     H'00000000,H'00000000
             000000       
    0000164C <00000000>             .DATA.L     __$OnCollisionStay__9ComponentFv
    00001650 0000000000             .DATA.L     H'00000000,H'00000000
             000000       
    00001658 <00000000>             .DATA.L     __$OnCollisionStay2D__9ComponentFv
    0000165C 0000000000             .DATA.L     H'00000000,H'00000000
             000000       
    00001664 <00000000>             .DATA.L     __$OnConnectedToServer__9ComponentFv
    00001668 0000000000             .DATA.L     H'00000000,H'00000000
             000000       
    00001670 <00000000>             .DATA.L     __$OnControllerColliderHit__9ComponentFv
    00001674 0000000000             .DATA.L     H'00000000,H'00000000
             000000       
    0000167C <00000000>             .DATA.L     __$OnDestroy__9ComponentFv
    00001680 0000000000             .DATA.L     H'00000000,H'00000000
             000000       
    00001688 <00000000>             .DATA.L     __$OnDisable__9ComponentFv
    0000168C 0000000000             .DATA.L     H'00000000,H'00000000
             000000       
    00001694 <00000000>             .DATA.L     __$OnDisconnectedFromServer__9ComponentFv
    00001698 0000000000             .DATA.L     H'00000000,H'00000000
             000000       
    000016A0 <00000000>             .DATA.L     __$OnDrawGizmos__9ComponentFv
    000016A4 0000000000             .DATA.L     H'00000000,H'00000000
             000000       
    000016AC <00000000>             .DATA.L     __$OnDrawGizmosSelected__9ComponentFv
    000016B0 0000000000             .DATA.L     H'00000000,H'00000000
             000000       
    000016B8 <00000000>             .DATA.L     __$OnEnable__9ComponentFv
    000016BC 0000000000             .DATA.L     H'00000000,H'00000000
             000000       
    000016C4 <00000000>             .DATA.L     __$OnFailedToConnect__9ComponentFv
    000016C8 0000000000             .DATA.L     H'00000000,H'00000000
             000000       
    000016D0 <00000000>             .DATA.L     __$OnFailedToConnectToMasterServer__9ComponentFv
    000016D4 0000000000             .DATA.L     H'00000000,H'00000000
             000000       




SH SERIES C/C++ Compiler (Ver. 6.0C)                                                                 08-Nov-2021 23:20:04  PAGE  100


SCT OFFSET   CODE       C LABEL     INSTRUCTION OPERAND    COMMENT

    000016DC <00000000>             .DATA.L     __$OnGUI__9ComponentFv
    000016E0 0000000000             .DATA.L     H'00000000,H'00000000
             000000       
    000016E8 <00000000>             .DATA.L     __$OnJointBreak__9ComponentFv
    000016EC 0000000000             .DATA.L     H'00000000,H'00000000
             000000       
    000016F4 <00000000>             .DATA.L     __$OnJointBreak2D__9ComponentFv
    000016F8 0000000000             .DATA.L     H'00000000,H'00000000
             000000       
    00001700 <00000000>             .DATA.L     __$OnMasterServerEvent__9ComponentFv
    00001704 0000000000             .DATA.L     H'00000000,H'00000000
             000000       
    0000170C <00000000>             .DATA.L     __$OnMouseDown__9ComponentFv
    00001710 0000000000             .DATA.L     H'00000000,H'00000000
             000000       
    00001718 <00000000>             .DATA.L     __$OnMouseDrag__9ComponentFv
    0000171C 0000000000             .DATA.L     H'00000000,H'00000000
             000000       
    00001724 <00000000>             .DATA.L     __$OnMouseEnter__9ComponentFv
    00001728 0000000000             .DATA.L     H'00000000,H'00000000
             000000       
    00001730 <00000000>             .DATA.L     __$OnMouseExit__9ComponentFv
    00001734 0000000000             .DATA.L     H'00000000,H'00000000
             000000       
    0000173C <00000000>             .DATA.L     __$OnMouseOver__9ComponentFv
    00001740 0000000000             .DATA.L     H'00000000,H'00000000
             000000       
    00001748 <00000000>             .DATA.L     __$OnMouseUp__9ComponentFv
    0000174C 0000000000             .DATA.L     H'00000000,H'00000000
             000000       
    00001754 <00000000>             .DATA.L     __$OnMouseUpAsButton__9ComponentFv
    00001758 0000000000             .DATA.L     H'00000000,H'00000000
             000000       
    00001760 <00000000>             .DATA.L     __$OnNetworkInstantiate__9ComponentFv
    00001764 0000000000             .DATA.L     H'00000000,H'00000000
             000000       
    0000176C <00000000>             .DATA.L     __$OnParticleCollision__9ComponentFv
    00001770 0000000000             .DATA.L     H'00000000,H'00000000
             000000       
    00001778 <00000000>             .DATA.L     __$OnParticleSystemStopped__9ComponentFv
    0000177C 0000000000             .DATA.L     H'00000000,H'00000000
             000000       
    00001784 <00000000>             .DATA.L     __$OnParticleTrigger__9ComponentFv
    00001788 0000000000             .DATA.L     H'00000000,H'00000000
             000000       
    00001790 <00000000>             .DATA.L     __$OnParticleUpdateJobScheduled__9ComponentFv
    00001794 0000000000             .DATA.L     H'00000000,H'00000000
             000000       
    0000179C <00000000>             .DATA.L     __$OnPlayerConnected__9ComponentFv
    000017A0 0000000000             .DATA.L     H'00000000,H'00000000
             000000       
    000017A8 <00000000>             .DATA.L     __$OnPlayerDisconnected__9ComponentFv
    000017AC 0000000000             .DATA.L     H'00000000,H'00000000
             000000       
    000017B4 <00000000>             .DATA.L     __$OnPostRender__9ComponentFv
    000017B8 0000000000             .DATA.L     H'00000000,H'00000000
             000000       




SH SERIES C/C++ Compiler (Ver. 6.0C)                                                                 08-Nov-2021 23:20:04  PAGE  101


SCT OFFSET   CODE       C LABEL     INSTRUCTION OPERAND    COMMENT

    000017C0 <00000000>             .DATA.L     __$OnPreCull__9ComponentFv
    000017C4 0000000000             .DATA.L     H'00000000,H'00000000
             000000       
    000017CC <00000000>             .DATA.L     __$OnPreRender__9ComponentFv
    000017D0 0000000000             .DATA.L     H'00000000,H'00000000
             000000       
    000017D8 <00000000>             .DATA.L     __$OnRenderImage__9ComponentFv
    000017DC 0000000000             .DATA.L     H'00000000,H'00000000
             000000       
    000017E4 <00000000>             .DATA.L     __$OnRenderObject__9ComponentFv
    000017E8 0000000000             .DATA.L     H'00000000,H'00000000
             000000       
    000017F0 <00000000>             .DATA.L     __$OnSerializeNetworkView__9ComponentFv
    000017F4 0000000000             .DATA.L     H'00000000,H'00000000
             000000       
    000017FC <00000000>             .DATA.L     __$OnServerInitialized__9ComponentFv
    00001800 0000000000             .DATA.L     H'00000000,H'00000000
             000000       
    00001808 <00000000>             .DATA.L     __$OnTransformChildrenChanged__9ComponentFv
    0000180C 0000000000             .DATA.L     H'00000000,H'00000000
             000000       
    00001814 <00000000>             .DATA.L     __$OnTransformParentChanged__9ComponentFv
    00001818 0000000000             .DATA.L     H'00000000,H'00000000
             000000       
    00001820 <00000000>             .DATA.L     __$OnTriggerEnter__9ComponentFv
    00001824 0000000000             .DATA.L     H'00000000,H'00000000
             000000       
    0000182C <00000000>             .DATA.L     __$OnTriggerEnter2D__9ComponentFv
    00001830 0000000000             .DATA.L     H'00000000,H'00000000
             000000       
    00001838 <00000000>             .DATA.L     __$OnTriggerExit__9ComponentFv
    0000183C 0000000000             .DATA.L     H'00000000,H'00000000
             000000       
    00001844 <00000000>             .DATA.L     __$OnTriggerExit2D__9ComponentFv
    00001848 0000000000             .DATA.L     H'00000000,H'00000000
             000000       
    00001850 <00000000>             .DATA.L     __$OnTriggerStay__9ComponentFv
    00001854 0000000000             .DATA.L     H'00000000,H'00000000
             000000       
    0000185C <00000000>             .DATA.L     __$OnTriggerStay2D__9ComponentFv
    00001860 0000000000             .DATA.L     H'00000000,H'00000000
             000000       
    00001868 <00000000>             .DATA.L     __$OnValidate__9ComponentFv
    0000186C 0000000000             .DATA.L     H'00000000,H'00000000
             000000       
    00001874 <00000000>             .DATA.L     __$OnWillRenderObject__9ComponentFv
    00001878 0000000000             .DATA.L     H'00000000,H'00000000
             000000       
    00001880 <00000000>             .DATA.L     __$Reset__9ComponentFv
    00001884 0000000000             .DATA.L     H'00000000,H'00000000
             000000       
    0000188C <00000000>             .DATA.L     __$Start__9ComponentFv
    00001890 0000000000             .DATA.L     H'00000000,H'00000000
             000000       
    00001898 <00000000>             .DATA.L     __$Update__7TilemapFv
    0000189C              __$__vtbl__16PlayerController:   ; static: virtual function table for PlayerController
    0000189C 0000000000             .DATA.L     H'00000000,H'00000000




SH SERIES C/C++ Compiler (Ver. 6.0C)                                                                 08-Nov-2021 23:20:04  PAGE  102


SCT OFFSET   CODE       C LABEL     INSTRUCTION OPERAND    COMMENT

             000000       
    000018A4 <00000000>             .DATA.L     __$__T_16PlayerController
    000018A8 0000000000             .DATA.L     H'00000000,H'00000000
             000000       
    000018B0 <00000000>             .DATA.L     __$Destroy__6ObjectFv
    000018B4 0000000000             .DATA.L     H'00000000,H'00000000
             000000       
    000018BC <00000000>             .DATA.L     __$DestroyImmediate__6ObjectFv
    000018C0 0000000000             .DATA.L     H'00000000,H'00000000
             000000       
    000018C8 <00000000>             .DATA.L     __$DontDestroyOnLoad__6ObjectFv
    000018CC 0000000000             .DATA.L     H'00000000,H'00000000
             000000       
    000018D4 <00000000>             .DATA.L     __$FindObjectOfType__6ObjectFv
    000018D8 0000000000             .DATA.L     H'00000000,H'00000000
             000000       
    000018E0 <00000000>             .DATA.L     __$FindObjectsOfType__6ObjectFv
    000018E4 0000000000             .DATA.L     H'00000000,H'00000000
             000000       
    000018EC <00000000>             .DATA.L     __$Instantiate__6ObjectFv
    000018F0 0000000000             .DATA.L     H'00000000,H'00000000
             000000       
    000018F8 <00000000>             .DATA.L     __$Awake__9ComponentFv
    000018FC 0000000000             .DATA.L     H'00000000,H'00000000
             000000       
    00001904 <00000000>             .DATA.L     __$FixedUpdate__9ComponentFv
    00001908 0000000000             .DATA.L     H'00000000,H'00000000
             000000       
    00001910 <00000000>             .DATA.L     __$LateUpdate__9ComponentFv
    00001914 0000000000             .DATA.L     H'00000000,H'00000000
             000000       
    0000191C <00000000>             .DATA.L     __$OnAnimatorIK__9ComponentFv
    00001920 0000000000             .DATA.L     H'00000000,H'00000000
             000000       
    00001928 <00000000>             .DATA.L     __$OnAnimatorMove__9ComponentFv
    0000192C 0000000000             .DATA.L     H'00000000,H'00000000
             000000       
    00001934 <00000000>             .DATA.L     __$OnApplicationFocus__9ComponentFv
    00001938 0000000000             .DATA.L     H'00000000,H'00000000
             000000       
    00001940 <00000000>             .DATA.L     __$OnApplicationPause__9ComponentFv
    00001944 0000000000             .DATA.L     H'00000000,H'00000000
             000000       
    0000194C <00000000>             .DATA.L     __$OnApplicationQuit__9ComponentFv
    00001950 0000000000             .DATA.L     H'00000000,H'00000000
             000000       
    00001958 <00000000>             .DATA.L     __$OnAudioFilterRead__9ComponentFv
    0000195C 0000000000             .DATA.L     H'00000000,H'00000000
             000000       
    00001964 <00000000>             .DATA.L     __$OnBecameInvisible__9ComponentFv
    00001968 0000000000             .DATA.L     H'00000000,H'00000000
             000000       
    00001970 <00000000>             .DATA.L     __$OnBecameVisible__9ComponentFv
    00001974 0000000000             .DATA.L     H'00000000,H'00000000
             000000       
    0000197C <00000000>             .DATA.L     __$OnCollisionEnter__9ComponentFv
    00001980 0000000000             .DATA.L     H'00000000,H'00000000




SH SERIES C/C++ Compiler (Ver. 6.0C)                                                                 08-Nov-2021 23:20:04  PAGE  103


SCT OFFSET   CODE       C LABEL     INSTRUCTION OPERAND    COMMENT

             000000       
    00001988 <00000000>             .DATA.L     __$OnCollisionEnter2D__9ComponentFv
    0000198C 0000000000             .DATA.L     H'00000000,H'00000000
             000000       
    00001994 <00000000>             .DATA.L     __$OnCollisionExit__9ComponentFv
    00001998 0000000000             .DATA.L     H'00000000,H'00000000
             000000       
    000019A0 <00000000>             .DATA.L     __$OnCollisionExit2D__9ComponentFv
    000019A4 0000000000             .DATA.L     H'00000000,H'00000000
             000000       
    000019AC <00000000>             .DATA.L     __$OnCollisionStay__9ComponentFv
    000019B0 0000000000             .DATA.L     H'00000000,H'00000000
             000000       
    000019B8 <00000000>             .DATA.L     __$OnCollisionStay2D__9ComponentFv
    000019BC 0000000000             .DATA.L     H'00000000,H'00000000
             000000       
    000019C4 <00000000>             .DATA.L     __$OnConnectedToServer__9ComponentFv
    000019C8 0000000000             .DATA.L     H'00000000,H'00000000
             000000       
    000019D0 <00000000>             .DATA.L     __$OnControllerColliderHit__9ComponentFv
    000019D4 0000000000             .DATA.L     H'00000000,H'00000000
             000000       
    000019DC <00000000>             .DATA.L     __$OnDestroy__9ComponentFv
    000019E0 0000000000             .DATA.L     H'00000000,H'00000000
             000000       
    000019E8 <00000000>             .DATA.L     __$OnDisable__9ComponentFv
    000019EC 0000000000             .DATA.L     H'00000000,H'00000000
             000000       
    000019F4 <00000000>             .DATA.L     __$OnDisconnectedFromServer__9ComponentFv
    000019F8 0000000000             .DATA.L     H'00000000,H'00000000
             000000       
    00001A00 <00000000>             .DATA.L     __$OnDrawGizmos__9ComponentFv
    00001A04 0000000000             .DATA.L     H'00000000,H'00000000
             000000       
    00001A0C <00000000>             .DATA.L     __$OnDrawGizmosSelected__9ComponentFv
    00001A10 0000000000             .DATA.L     H'00000000,H'00000000
             000000       
    00001A18 <00000000>             .DATA.L     __$OnEnable__9ComponentFv
    00001A1C 0000000000             .DATA.L     H'00000000,H'00000000
             000000       
    00001A24 <00000000>             .DATA.L     __$OnFailedToConnect__9ComponentFv
    00001A28 0000000000             .DATA.L     H'00000000,H'00000000
             000000       
    00001A30 <00000000>             .DATA.L     __$OnFailedToConnectToMasterServer__9ComponentFv
    00001A34 0000000000             .DATA.L     H'00000000,H'00000000
             000000       
    00001A3C <00000000>             .DATA.L     __$OnGUI__9ComponentFv
    00001A40 0000000000             .DATA.L     H'00000000,H'00000000
             000000       
    00001A48 <00000000>             .DATA.L     __$OnJointBreak__9ComponentFv
    00001A4C 0000000000             .DATA.L     H'00000000,H'00000000
             000000       
    00001A54 <00000000>             .DATA.L     __$OnJointBreak2D__9ComponentFv
    00001A58 0000000000             .DATA.L     H'00000000,H'00000000
             000000       
    00001A60 <00000000>             .DATA.L     __$OnMasterServerEvent__9ComponentFv
    00001A64 0000000000             .DATA.L     H'00000000,H'00000000




SH SERIES C/C++ Compiler (Ver. 6.0C)                                                                 08-Nov-2021 23:20:04  PAGE  104


SCT OFFSET   CODE       C LABEL     INSTRUCTION OPERAND    COMMENT

             000000       
    00001A6C <00000000>             .DATA.L     __$OnMouseDown__9ComponentFv
    00001A70 0000000000             .DATA.L     H'00000000,H'00000000
             000000       
    00001A78 <00000000>             .DATA.L     __$OnMouseDrag__9ComponentFv
    00001A7C 0000000000             .DATA.L     H'00000000,H'00000000
             000000       
    00001A84 <00000000>             .DATA.L     __$OnMouseEnter__9ComponentFv
    00001A88 0000000000             .DATA.L     H'00000000,H'00000000
             000000       
    00001A90 <00000000>             .DATA.L     __$OnMouseExit__9ComponentFv
    00001A94 0000000000             .DATA.L     H'00000000,H'00000000
             000000       
    00001A9C <00000000>             .DATA.L     __$OnMouseOver__9ComponentFv
    00001AA0 0000000000             .DATA.L     H'00000000,H'00000000
             000000       
    00001AA8 <00000000>             .DATA.L     __$OnMouseUp__9ComponentFv
    00001AAC 0000000000             .DATA.L     H'00000000,H'00000000
             000000       
    00001AB4 <00000000>             .DATA.L     __$OnMouseUpAsButton__9ComponentFv
    00001AB8 0000000000             .DATA.L     H'00000000,H'00000000
             000000       
    00001AC0 <00000000>             .DATA.L     __$OnNetworkInstantiate__9ComponentFv
    00001AC4 0000000000             .DATA.L     H'00000000,H'00000000
             000000       
    00001ACC <00000000>             .DATA.L     __$OnParticleCollision__9ComponentFv
    00001AD0 0000000000             .DATA.L     H'00000000,H'00000000
             000000       
    00001AD8 <00000000>             .DATA.L     __$OnParticleSystemStopped__9ComponentFv
    00001ADC 0000000000             .DATA.L     H'00000000,H'00000000
             000000       
    00001AE4 <00000000>             .DATA.L     __$OnParticleTrigger__9ComponentFv
    00001AE8 0000000000             .DATA.L     H'00000000,H'00000000
             000000       
    00001AF0 <00000000>             .DATA.L     __$OnParticleUpdateJobScheduled__9ComponentFv
    00001AF4 0000000000             .DATA.L     H'00000000,H'00000000
             000000       
    00001AFC <00000000>             .DATA.L     __$OnPlayerConnected__9ComponentFv
    00001B00 0000000000             .DATA.L     H'00000000,H'00000000
             000000       
    00001B08 <00000000>             .DATA.L     __$OnPlayerDisconnected__9ComponentFv
    00001B0C 0000000000             .DATA.L     H'00000000,H'00000000
             000000       
    00001B14 <00000000>             .DATA.L     __$OnPostRender__9ComponentFv
    00001B18 0000000000             .DATA.L     H'00000000,H'00000000
             000000       
    00001B20 <00000000>             .DATA.L     __$OnPreCull__9ComponentFv
    00001B24 0000000000             .DATA.L     H'00000000,H'00000000
             000000       
    00001B2C <00000000>             .DATA.L     __$OnPreRender__9ComponentFv
    00001B30 0000000000             .DATA.L     H'00000000,H'00000000
             000000       
    00001B38 <00000000>             .DATA.L     __$OnRenderImage__9ComponentFv
    00001B3C 0000000000             .DATA.L     H'00000000,H'00000000
             000000       
    00001B44 <00000000>             .DATA.L     __$OnRenderObject__9ComponentFv
    00001B48 0000000000             .DATA.L     H'00000000,H'00000000




SH SERIES C/C++ Compiler (Ver. 6.0C)                                                                 08-Nov-2021 23:20:04  PAGE  105


SCT OFFSET   CODE       C LABEL     INSTRUCTION OPERAND    COMMENT

             000000       
    00001B50 <00000000>             .DATA.L     __$OnSerializeNetworkView__9ComponentFv
    00001B54 0000000000             .DATA.L     H'00000000,H'00000000
             000000       
    00001B5C <00000000>             .DATA.L     __$OnServerInitialized__9ComponentFv
    00001B60 0000000000             .DATA.L     H'00000000,H'00000000
             000000       
    00001B68 <00000000>             .DATA.L     __$OnTransformChildrenChanged__9ComponentFv
    00001B6C 0000000000             .DATA.L     H'00000000,H'00000000
             000000       
    00001B74 <00000000>             .DATA.L     __$OnTransformParentChanged__9ComponentFv
    00001B78 0000000000             .DATA.L     H'00000000,H'00000000
             000000       
    00001B80 <00000000>             .DATA.L     __$OnTriggerEnter__9ComponentFv
    00001B84 0000000000             .DATA.L     H'00000000,H'00000000
             000000       
    00001B8C <00000000>             .DATA.L     __$OnTriggerEnter2D__9ComponentFv
    00001B90 0000000000             .DATA.L     H'00000000,H'00000000
             000000       
    00001B98 <00000000>             .DATA.L     __$OnTriggerExit__9ComponentFv
    00001B9C 0000000000             .DATA.L     H'00000000,H'00000000
             000000       
    00001BA4 <00000000>             .DATA.L     __$OnTriggerExit2D__9ComponentFv
    00001BA8 0000000000             .DATA.L     H'00000000,H'00000000
             000000       
    00001BB0 <00000000>             .DATA.L     __$OnTriggerStay__9ComponentFv
    00001BB4 0000000000             .DATA.L     H'00000000,H'00000000
             000000       
    00001BBC <00000000>             .DATA.L     __$OnTriggerStay2D__9ComponentFv
    00001BC0 0000000000             .DATA.L     H'00000000,H'00000000
             000000       
    00001BC8 <00000000>             .DATA.L     __$OnValidate__9ComponentFv
    00001BCC 0000000000             .DATA.L     H'00000000,H'00000000
             000000       
    00001BD4 <00000000>             .DATA.L     __$OnWillRenderObject__9ComponentFv
    00001BD8 0000000000             .DATA.L     H'00000000,H'00000000
             000000       
    00001BE0 <00000000>             .DATA.L     __$Reset__9ComponentFv
    00001BE4 0000000000             .DATA.L     H'00000000,H'00000000
             000000       
    00001BEC <00000000>             .DATA.L     __$Start__16PlayerControllerFv
    00001BF0 0000000000             .DATA.L     H'00000000,H'00000000
             000000       
    00001BF8 <00000000>             .DATA.L     __$Update__16PlayerControllerFv
C   000001E0              L894:
    000001E0 555549445F             .SDATA      "UUID_7f4f5e06_f8a9_41f1_b9f9_dae0dba98d46"
             3766346635   
             6530365F66   
             3861395F34   
             3166315F62   
             3966395F64   
             6165306462   
             6139386434   
             36           
    00000209 00                     .DATA.B     H'00
    0000020A 00000002               .RES.W      1
    0000020C              L902:




SH SERIES C/C++ Compiler (Ver. 6.0C)                                                                 08-Nov-2021 23:20:04  PAGE  106


SCT OFFSET   CODE       C LABEL     INSTRUCTION OPERAND    COMMENT

    0000020C 506C617965             .SDATA      "Player"
             72           
    00000212 00                     .DATA.B     H'00
    00000213 00000001               .RES.B      1
    00000214              L903:
    00000214 555549445F             .SDATA      "UUID_400c4826_db9d_4390_963a_d132c010b431"
             3430306334   
             3832365F64   
             6239645F34   
             3339305F39   
             3633615F64   
             3133326330   
             3130623433   
             31           
    0000023D 00                     .DATA.B     H'00
    0000023E 00000002               .RES.W      1
    00000240              L911:
    00000240 555549445F             .SDATA      "UUID_131a6cdf_9eb2_4aa9_a1a7_af674e8990ca"
             3133316136   
             6364665F39   
             6562325F34   
             6161395F61   
             3161375F61   
             6636373465   
             3839393063   
             61           
    00000269 00                     .DATA.B     H'00
    0000026A 00000002               .RES.W      1
    0000026C              L919:
    0000026C 555549445F             .SDATA      "UUID_73ea44a9_6256_47d4_be2b_b37bb79f0ba4"
             3733656134   
             3461395F36   
             3235365F34   
             3764345F62   
             6532625F62   
             3337626237   
             3966306261   
             34           
    00000295 00                     .DATA.B     H'00
    00000296 00000002               .RES.W      1
    00000298              L923:
    00000298 555549445F             .SDATA      "UUID_6640de22_b0db_4537_8522_f3a7a703d68f"
             3636343064   
             6532325F62   
             3064625F34   
             3533375F38   
             3532325F66   
             3361376137   
             3033643638   
             66           
    000002C1 00                     .DATA.B     H'00
    000002C2 00000002               .RES.W      1
    000002C4              L927:
    000002C4 555549445F             .SDATA      "UUID_43fd50a2_fd6b_402d_ab19_3ccb56f74fc3"
             3433666435   
             3061325F66   
             6436625F34   




SH SERIES C/C++ Compiler (Ver. 6.0C)                                                                 08-Nov-2021 23:20:04  PAGE  107


SCT OFFSET   CODE       C LABEL     INSTRUCTION OPERAND    COMMENT

             3032645F61   
             6231395F33   
             6363623536   
             6637346663   
             33           
    000002ED 00                     .DATA.B     H'00
    000002EE 00000002               .RES.W      1
    000002F0              L931:
    000002F0 555549445F             .SDATA      "UUID_7e3a4722_d0c8_447d_ab17_ce537fe428c4"
             3765336134   
             3732325F64   
             3063385F34   
             3437645F61   
             6231375F63   
             6535333766   
             6534323863   
             34           
    00000319 00                     .DATA.B     H'00
    0000031A 00000002               .RES.W      1
    0000031C              L401:
    0000031C 4F626A6563             .SDATA      "Object"
             74           
    00000322 00                     .DATA.B     H'00
    00000323 00000001               .RES.B      1
    00000324              L402:
    00000324 436F6D706F             .SDATA      "Component"
             6E656E74     
    0000032D 00                     .DATA.B     H'00
    0000032E 00000002               .RES.W      1
    00000330              L403:
    00000330 5472616E73             .SDATA      "Transform"
             666F726D     
    00000339 00                     .DATA.B     H'00
    0000033A 00000002               .RES.W      1
    0000033C              L404:
    0000033C 4265686176             .SDATA      "Behaviour"
             696F7572     
    00000345 00                     .DATA.B     H'00
    00000346 00000002               .RES.W      1
    00000348              L405:
    00000348 5465787475             .SDATA      "Texture"
             7265         
    0000034F 00                     .DATA.B     H'00
    00000350              L406:
    00000350 4D6F6E6F42             .SDATA      "MonoBehaviour"
             6568617669   
             6F7572       
    0000035D 00                     .DATA.B     H'00
    0000035E 00000002               .RES.W      1
    00000360              L407:
    00000360 47616D654F             .SDATA      "GameObject"
             626A656374   
    0000036A 00                     .DATA.B     H'00
    0000036B 00000001               .RES.B      1
    0000036C              L408:
    0000036C 43616D6572             .SDATA      "Camera"
             61           




SH SERIES C/C++ Compiler (Ver. 6.0C)                                                                 08-Nov-2021 23:20:04  PAGE  108


SCT OFFSET   CODE       C LABEL     INSTRUCTION OPERAND    COMMENT

    00000372 00                     .DATA.B     H'00
    00000373 00000001               .RES.B      1
    00000374              L409:
    00000374 5370726974             .SDATA      "Sprite"
             65           
    0000037A 00                     .DATA.B     H'00
    0000037B 00000001               .RES.B      1
    0000037C              L410:
    0000037C 54696C656D             .SDATA      "Tilemap"
             6170         
    00000383 00                     .DATA.B     H'00
    00000384              L411:
    00000384 506C617965             .SDATA      "PlayerController"
             72436F6E74   
             726F6C6C65   
             72           
    00000394 00                     .DATA.B     H'00
D   00000078              __$__T_6Object:                  ; static: typeinfo for Object
    00000078 <00000000>             .DATA.L     ___vtbl__Q2_3std9type_info,L401,__$__TID_6Object
             <00000000>   
             <00000000>   
    00000084 00000000               .DATA.L     H'00000000
    00000088              __$__T_9Component:               ; static: typeinfo for Component
    00000088 <00000000>             .DATA.L     ___vtbl__Q2_3std9type_info,L402,__$__TID_9Component,__$__T31569876
             <00000000>   
             <00000000>   
             <00000000>   
    00000098              __$__T_9Transform:               ; static: typeinfo for Transform
    00000098 <00000000>             .DATA.L     ___vtbl__Q2_3std9type_info,L403,__$__TID_9Transform,__$__T31571348
             <00000000>   
             <00000000>   
             <00000000>   
    000000A8              __$__T_9Behaviour:               ; static: typeinfo for Behaviour
    000000A8 <00000000>             .DATA.L     ___vtbl__Q2_3std9type_info,L404,__$__TID_9Behaviour,__$__T31572904
             <00000000>   
             <00000000>   
             <00000000>   
    000000B8              __$__T_7Texture:                 ; static: typeinfo for Texture
    000000B8 <00000000>             .DATA.L     ___vtbl__Q2_3std9type_info,L405,__$__TID_7Texture,__$__T31574368
             <00000000>   
             <00000000>   
             <00000000>   
    000000C8              __$__T_13MonoBehaviour:          ; static: typeinfo for MonoBehaviour
    000000C8 <00000000>             .DATA.L     ___vtbl__Q2_3std9type_info,L406,__$__TID_13MonoBehaviour,__$__T31576136
             <00000000>   
             <00000000>   
             <00000000>   
    000000D8              __$__T_10GameObject:             ; static: typeinfo for GameObject
    000000D8 <00000000>             .DATA.L     ___vtbl__Q2_3std9type_info,L407,__$__TID_10GameObject,__$__T31577896
             <00000000>   
             <00000000>   
             <00000000>   
    000000E8              __$__T_6Camera:                  ; static: typeinfo for Camera
    000000E8 <00000000>             .DATA.L     ___vtbl__Q2_3std9type_info,L408,__$__TID_6Camera,__$__T31579360
             <00000000>   
             <00000000>   
             <00000000>   




SH SERIES C/C++ Compiler (Ver. 6.0C)                                                                 08-Nov-2021 23:20:04  PAGE  109


SCT OFFSET   CODE       C LABEL     INSTRUCTION OPERAND    COMMENT

    000000F8              __$__T_6Sprite:                  ; static: typeinfo for Sprite
    000000F8 <00000000>             .DATA.L     ___vtbl__Q2_3std9type_info,L409,__$__TID_6Sprite,__$__T31582288
             <00000000>   
             <00000000>   
             <00000000>   
    00000108              __$__T_7Tilemap:                 ; static: typeinfo for Tilemap
    00000108 <00000000>             .DATA.L     ___vtbl__Q2_3std9type_info,L410,__$__TID_7Tilemap,__$__T31586684
             <00000000>   
             <00000000>   
             <00000000>   
    00000118              __$__T_16PlayerController:       ; static: typeinfo for PlayerController
    00000118 <00000000>             .DATA.L     ___vtbl__Q2_3std9type_info,L411,__$__TID_16PlayerController,__$__T31588172
             <00000000>   
             <00000000>   
             <00000000>   
    00000128              __$__3138_12_UUID_7e3a4722_d0c8_447d_ab17_ce537fe428c4_TilemapData$849:
                                                           ; static: UUID_7e3a4722_d0c8_447d_ab17_ce537fe428c4_TilemapData
    00000128 0000000000             .DATA.L     H'00000000,H'00000000,H'00000001,H'00000000,H'00000000,H'00000000,H'00000000,
             0000000000 +                       H'00000000,H'00000000,H'00000000,H'00000001,H'00000000,H'00000000,H'00000000,
             0001000000 +                       H'00000000,H'00000000,H'00000000,H'00000000,H'00000000,H'00000000,H'00000000,
             0000000000 +                       H'00000000,H'00000000,H'00000000,H'00000000,H'00000000,H'00000000,H'00000000,
             0000000000 +                       H'00000000,H'00000000,H'00000000,H'00000000,H'00000000,H'00000000,H'00000000,
             0000000000 +                       H'00000000,H'00000000,H'00000000,H'00000000,H'00000000,H'00000000,H'00000000,
             0000000000 +                       H'00000000,H'00000000,H'00000000,H'00000000,H'00000000,H'00000000,H'00000000,
             0000000000 +                       H'00000000,H'00000000,H'00000000,H'00000000,H'00000000,H'00000000,H'00000000,
             0000000100 +                       H'00000000,H'00000000,H'00000000,H'00000000,H'00000000,H'00000000,H'00000000,
             0000000000 +                       H'00000000,H'00000000,H'00000000,H'00000000,H'00000000,H'00000000,H'00000000,
             0000000000 +                       H'00000000,H'00000000,H'00000000,H'00000000,H'00000000,H'00000000,H'00000000,
             0000000000 +                       H'00000000,H'00000000,H'00000000,H'00000000,H'00000000,H'00000000,H'00000000,
             0000000000 +                       H'00000000,H'00000000,H'00000000,H'00000000,H'00000000,H'00000000,H'00000000,
             0000000000 +                       H'00000000,H'00000000,H'00000000,H'00000000,H'00000000,H'00000000,H'00000000,
             0000000000 +                       H'00000000,H'00000000
             0000000000   
             0000000000   
             0000000000   
             0000000000   
             0000000000   
             0000000000   
             0000000000   
             0000000000   
             0000000000   
             0000000000   
             0000000000   
             0000000000   
             0000000000   
             0000000000   
             0000000000   
             0000000000   
             0000000000   
             0000000000   
             0000000000   
             0000000000   
             0000000000   
             0000000000   
             0000000000   
             0000000000   
             0000000000   




SH SERIES C/C++ Compiler (Ver. 6.0C)                                                                 08-Nov-2021 23:20:04  PAGE  110


SCT OFFSET   CODE       C LABEL     INSTRUCTION OPERAND    COMMENT

             0000000000   
             0000000000   
             0000000000   
             0000000000   
             0000000000   
             0000000000   
             0000000000   
             0000000000   
             0000000000   
             0000000000   
             0000000000   
             0000000000   
             0000000000   
             0000000000   
             0000000000   
             0000000000   
             0000000000   
             0000000000   
             0000000000   
             0000000000   
             0000000000   
             0000000000   
             0000000000   
             0000000000   
             0000000000   
             0000000000   
             0000000000   
             0000000000   
             0000000000   
             0000000000   
             0000000000   
             0000000000   
             0000000000   
             0000000000   
             0000000000   
             0000000000   
             0000000000   
             0000000000   
             0000000000   
             0000000000   
B_B 00000000              _BR_Size:                        ; static: BR_Size
    00000000 00000004               .RES.L      1
B   00000000              __$__TID_6Object:                ; static: type identifier for Object
    00000000 00000001               .RES.B      1
    00000001              __$__TID_9Component:             ; static: type identifier for Component
    00000001 00000001               .RES.B      1
    00000002              __$__TID_9Transform:             ; static: type identifier for Transform
    00000002 00000001               .RES.B      1
    00000003              __$__TID_9Behaviour:             ; static: type identifier for Behaviour
    00000003 00000001               .RES.B      1
    00000004              __$__TID_7Texture:               ; static: type identifier for Texture
    00000004 00000001               .RES.B      1
    00000005              __$__TID_13MonoBehaviour:        ; static: type identifier for MonoBehaviour
    00000005 00000001               .RES.B      1
    00000006              __$__TID_10GameObject:           ; static: type identifier for GameObject
    00000006 00000001               .RES.B      1
    00000007              __$__TID_6Camera:                ; static: type identifier for Camera




SH SERIES C/C++ Compiler (Ver. 6.0C)                                                                 08-Nov-2021 23:20:04  PAGE  111


SCT OFFSET   CODE       C LABEL     INSTRUCTION OPERAND    COMMENT

    00000007 00000001               .RES.B      1
    00000008              __$__TID_6Sprite:                ; static: type identifier for Sprite
    00000008 00000001               .RES.B      1
    00000009              __$__TID_7Tilemap:               ; static: type identifier for Tilemap
    00000009 00000001               .RES.B      1
    0000000A              __$__TID_16PlayerController:     ; static: type identifier for PlayerController
    0000000A 00000001               .RES.B      1






















































SH SERIES C/C++ Compiler (Ver. 6.0C)                                                                 08-Nov-2021 23:20:04  PAGE    1


******** STATISTICS INFORMATION ********


********** ERROR INFORMATION ***********

NUMBER OF ERRORS:           0
NUMBER OF WARNINGS:        49




******* SOURCE LINE INFORMATION ********

COMPILED SOURCE LINE:      107



******* SECTION SIZE INFORMATION *******

PROGRAM  SECTION (P):                               00001B44 Byte(s)
PROGRAM  SECTION (P$VTBL):                          00000000 Byte(s)
PROGRAM  SECTION (P_BR_Size):                       00000000 Byte(s)
PROGRAM  SECTION (P_TOP):                           0000000C Byte(s)
CONSTANT SECTION (C):                               00000395 Byte(s)
CONSTANT SECTION (C$VTBL):                          00001BFC Byte(s)
CONSTANT SECTION (C_BR_Size):                       00000000 Byte(s)
CONSTANT SECTION (C_TOP):                           00000000 Byte(s)
DATA     SECTION (D):                               000002B8 Byte(s)
DATA     SECTION (D$VTBL):                          00000000 Byte(s)
DATA     SECTION (D_BR_Size):                       00000000 Byte(s)
DATA     SECTION (D_TOP):                           00000000 Byte(s)
BSS      SECTION (B):                               0000000B Byte(s)
BSS      SECTION (B$VTBL):                          00000000 Byte(s)
BSS      SECTION (B_BR_Size):                       00000004 Byte(s)
BSS      SECTION (B_TOP):                           00000000 Byte(s)

 TOTAL PROGRAM SIZE: 00003DA8 Byte(s)



********** LABEL INFORMATION ***********

NUMBER OF EXTERNAL REFERENCE SYMBOLS:           21
NUMBER OF EXTERNAL DEFINITION SYMBOLS:           8
NUMBER OF INTERNAL/EXTERNAL SYMBOLS:           284


















*** COMMAND PARAMETER ***


  -subcommand=C:\Users\leofa\AppData\Local\Temp\hmkED17.tmp 

