SH SERIES C/C++ Compiler (Ver. 6.0C)                                                                 15-May-2021 18:55:24  PAGE    1

************ OBJECT LISTING ************

FILE NAME: C:\Users\leofa\OneDrive\Documents\PycharmProjects\Particule-Casio\Particule\lib\Moteur\SDK Graph 75 85 95\MonochromeLib.c

SCT OFFSET   CODE       C LABEL     INSTRUCTION OPERAND    COMMENT

      Monochrome     1    /*************************************************************/
      Monochrome     2    /** MonochromeLib - monochrome graphic library for fx-9860G **/
      Monochrome     3    /** MonochromeLib is free software                          **/
      Monochrome     4    /** MonochromeLib is now SH4 compatible !                   **/
      Monochrome     5    /**                                                         **/
      Monochrome     6    /** @author Pierre "PierrotLL" Le Gall                      **/
      Monochrome     7    /** @contact legallpierre89@gmail.com                       **/
      Monochrome     8    /**                                                         **/
      Monochrome     9    /** @file MonochromeLib.c                                   **/
      Monochrome    10    /** Code file of MonochromeLib                              **/
      Monochrome    11    /**                                                         **/
      Monochrome    12    /** @date 11-22-2011                                        **/
      Monochrome    13    /*************************************************************/
      Monochrome    14    
      Monochrome    15    #include "MonochromeLib.h"
      Monochrome    16    #include <stdlib.h>
      Monochrome    17    
      Monochrome    18    
      Monochrome    19    /******************************/
      Monochrome    20    /** Dependencies management  **/
      Monochrome    21    /******************************/
      Monochrome    22    
      Monochrome    23    #ifdef ML_ALL
      Monochrome    24            #define ML_CLEAR_VRAM
      Monochrome    25            #define ML_CLEAR_SCREEN
      Monochrome    26            #define ML_DISPLAY_VRAM
      Monochrome    27            #define ML_SET_CONTRAST
      Monochrome    28            #define ML_GET_CONTRAST
      Monochrome    29            #define ML_PIXEL
      Monochrome    30            #define ML_POINT
      Monochrome    31            #define ML_PIXEL_TEST
      Monochrome    32            #define ML_LINE
      Monochrome    33            #define ML_HORIZONTAL_LINE
      Monochrome    34            #define ML_VERTICAL_LINE
      Monochrome    35            #define ML_RECTANGLE
      Monochrome    36            #define ML_POLYGON
      Monochrome    37            #define ML_FILLED_POLYGON
      Monochrome    38            #define ML_CIRCLE
      Monochrome    39            #define ML_FILLED_CIRCLE
      Monochrome    40            #define ML_ELLIPSE
      Monochrome    41            #define ML_ELLIPSE_IN_RECT
      Monochrome    42            #define ML_FILLED_ELLIPSE
      Monochrome    43            #define ML_FILLED_ELLIPSE_IN_RECT
      Monochrome    44            #define ML_HORIZONTAL_SCROLL
      Monochrome    45            #define ML_VERTICAL_SCROLL
      Monochrome    46            #define ML_BMP_OR
      Monochrome    47            #define ML_BMP_AND
      Monochrome    48            #define ML_BMP_XOR
      Monochrome    49            #define ML_BMP_OR_CL
      Monochrome    50            #define ML_BMP_AND_CL
      Monochrome    51            #define ML_BMP_XOR_CL
      Monochrome    52            #define ML_BMP_8_OR
      Monochrome    53            #define ML_BMP_8_AND
      Monochrome    54            #define ML_BMP_8_XOR




SH SERIES C/C++ Compiler (Ver. 6.0C)                                                                 15-May-2021 18:55:24  PAGE    2


SCT OFFSET   CODE       C LABEL     INSTRUCTION OPERAND    COMMENT

      Monochrome    55            #define ML_BMP_8_OR_CL
      Monochrome    56            #define ML_BMP_8_AND_CL
      Monochrome    57            #define ML_BMP_8_XOR_CL
      Monochrome    58            #define ML_BMP_16_OR
      Monochrome    59            #define ML_BMP_16_AND
      Monochrome    60            #define ML_BMP_16_XOR
      Monochrome    61            #define ML_BMP_16_OR_CL
      Monochrome    62            #define ML_BMP_16_AND_CL
      Monochrome    63            #define ML_BMP_16_XOR_CL
      Monochrome    64    #endif
      Monochrome    65    
      Monochrome    66    #ifdef ML_POLYGON
      Monochrome    67            #define ML_LINE
      Monochrome    68    #endif
      Monochrome    69    
      Monochrome    70    #ifdef ML_LINE
      Monochrome    71            #define ML_PIXEL
      Monochrome    72    #endif
      Monochrome    73    
      Monochrome    74    #ifdef ML_POINT
      Monochrome    75            #define ML_PIXEL
      Monochrome    76            #define ML_RECTANGLE
      Monochrome    77    #endif
      Monochrome    78    
      Monochrome    79    #ifdef ML_RECTANGLE
      Monochrome    80            #define ML_HORIZONTAL_LINE
      Monochrome    81    #endif
      Monochrome    82    
      Monochrome    83    #ifdef ML_FILLED_POLYGON
      Monochrome    84            #define ML_HORIZONTAL_LINE
      Monochrome    85    #endif
      Monochrome    86    
      Monochrome    87    #ifdef ML_CIRCLE
      Monochrome    88            #define ML_PIXEL
      Monochrome    89    #endif
      Monochrome    90    
      Monochrome    91    #ifdef ML_FILLED_CIRCLE
      Monochrome    92            #define ML_HORIZONTAL_LINE
      Monochrome    93    #endif
      Monochrome    94    
      Monochrome    95    #ifdef ML_ELLIPSE_IN_RECT
      Monochrome    96            #define ML_ELLIPSE
      Monochrome    97    #endif
      Monochrome    98    
      Monochrome    99    #ifdef ML_ELLIPSE
      Monochrome   100            #define ML_PIXEL
      Monochrome   101    #endif
      Monochrome   102    
      Monochrome   103    #ifdef ML_FILLED_ELLIPSE_IN_RECT
      Monochrome   104            #define ML_FILLED_ELLIPSE
      Monochrome   105    #endif
      Monochrome   106    
      Monochrome   107    #ifdef ML_FILLED_ELLIPSE
      Monochrome   108            #define ML_HORIZONTAL_LINE
      Monochrome   109    #endif
      Monochrome   110    
      Monochrome   111    




SH SERIES C/C++ Compiler (Ver. 6.0C)                                                                 15-May-2021 18:55:24  PAGE    3


SCT OFFSET   CODE       C LABEL     INSTRUCTION OPERAND    COMMENT

      Monochrome   112    /***************/
      Monochrome   113    /** Functions **/
      Monochrome   114    /***************/
      Monochrome   115    
      Monochrome   116    #define sgn(x)  (x<0?-1:1)
      Monochrome   117    #define rnd(x)  ((int)(x+0.5))
      Monochrome   118    
      Monochrome   119    //Thanks to Simon Lothar for this function
      Monochrome   120    typedef char*(*sc_cpv)(void);
      Monochrome   121    const unsigned int sc0135[] = { 0xD201D002, 0x422B0009, 0x80010070, 0x0135 };
      Monochrome   122    #define ML_vram_adress (*(sc_cpv)sc0135)
      Monochrome   123    
      Monochrome   124    
      Monochrome   125    #ifdef ML_CLEAR_VRAM
      Monochrome   126    void ML_clear_vram()
P   00000000              _ML_clear_vram:                  ; function: ML_clear_vram
                                                           ; frame size=8
    00000000 2FD6                   MOV.L       R13,@-R15
    00000002 4F22                   STS.L       PR,@-R15
      Monochrome   127    {
      Monochrome   128            int i, end, *pointer_long, vram;
      Monochrome   129            char *pointer_byte;
      Monochrome   130            vram = (int)ML_vram_adress();
    00000004 D33E                   MOV.L       L1271+4,R3 ; _sc0135
    00000006 430B                   JSR         @R3
    00000008 0009                   NOP
    0000000A 6703                   MOV         R0,R7
      Monochrome   131            end = 4-vram&3;
    0000000C E004                   MOV         #4,R0
    0000000E 3078                   SUB         R7,R0
    00000010 E603                   MOV         #3,R6
    00000012 2609                   AND         R0,R6
      Monochrome   132            pointer_byte = (char*)vram;
    00000014 6D73                   MOV         R7,R13
      Monochrome   133            for(i=0 ; i<end ; i++) pointer_byte[i] = 0;
    00000016 E400                   MOV         #0,R4
    00000018 6143                   MOV         R4,R1
    0000001A 4615                   CMP/PL      R6
    0000001C 8F05                   BF/S        L842
    0000001E 6573                   MOV         R7,R5
    00000020              L843:                             
    00000020 2540                   MOV.B       R4,@R5
    00000022 7101                   ADD         #1,R1
    00000024 3163                   CMP/GE      R6,R1
    00000026 8FFB                   BF/S        L843
    00000028 7501                   ADD         #1,R5
    0000002A              L842:                             
      Monochrome   134            pointer_long = (int*) (vram+end);
    0000002A 6163                   MOV         R6,R1
    0000002C 9066                   MOV.W       L1271,R0   ; H'03FC
    0000002E 317C                   ADD         R7,R1
    00000030 6513                   MOV         R1,R5
    00000032 301C                   ADD         R1,R0
      Monochrome   135            for(i=0 ; i<255 ; i++) pointer_long[i] = 0;
    00000034              L844:                             
    00000034 2542                   MOV.L       R4,@R5
    00000036 7504                   ADD         #4,R5




SH SERIES C/C++ Compiler (Ver. 6.0C)                                                                 15-May-2021 18:55:24  PAGE    4


SCT OFFSET   CODE       C LABEL     INSTRUCTION OPERAND    COMMENT

    00000038 3502                   CMP/HS      R0,R5
    0000003A 8BFB                   BF          L844
      Monochrome   136            pointer_byte += 1020+end;
    0000003C 925E                   MOV.W       L1271,R2   ; H'03FC
    0000003E 362C                   ADD         R2,R6
    00000040 3D6C                   ADD         R6,R13
      Monochrome   137            end = vram&3;
    00000042 E603                   MOV         #3,R6
    00000044 2679                   AND         R7,R6
      Monochrome   138            for(i=0 ; i<end ; i++) pointer_byte[i] = 0;
    00000046 6743                   MOV         R4,R7
    00000048 4615                   CMP/PL      R6
    0000004A 8F05                   BF/S        L845
    0000004C 65D3                   MOV         R13,R5
    0000004E              L846:                             
    0000004E 7701                   ADD         #1,R7
    00000050 2540                   MOV.B       R4,@R5
    00000052 3763                   CMP/GE      R6,R7
    00000054 8FFB                   BF/S        L846
    00000056 7501                   ADD         #1,R5
    00000058              L845:                             
      Monochrome   139    }
    00000058 4F26                   LDS.L       @R15+,PR
    0000005A 000B                   RTS
    0000005C 6DF6                   MOV.L       @R15+,R13
      Monochrome   140    #endif
      Monochrome   141    
      Monochrome   142    #ifdef ML_CLEAR_SCREEN
      Monochrome   143    void ML_clear_screen()
    0000005E              _ML_clear_screen:                ; function: ML_clear_screen
                                                           ; frame size=12
      Monochrome   144    {
      Monochrome   145            char *LCD_register_selector = (char*)0xB4000000, *LCD_data_register = (char*)0xB4010000;
      Monochrome   146            int i, j;
      Monochrome   147            for(i=0 ; i<64 ; i++)
    0000005E E704                   MOV         #4,R7
    00000060 D528                   MOV.L       L1271+8,R5 ; H'B4000000
    00000062 E600                   MOV         #0,R6
    00000064 D428                   MOV.L       L1271+12,R4; H'B4010000
    00000066 6163                   MOV         R6,R1
    00000068 2FC6                   MOV.L       R12,@-R15
    0000006A EC07                   MOV         #7,R12
    0000006C 2FB6                   MOV.L       R11,@-R15
    0000006E EB10                   MOV         #16,R11
    00000070 2FA6                   MOV.L       R10,@-R15
    00000072 EA40                   MOV         #64,R10
    00000074              L847:                             
      Monochrome   148            {
      Monochrome   149                    *LCD_register_selector = 4;
    00000074 2570                   MOV.B       R7,@R5
      Monochrome   150                    *LCD_data_register = i|192;
    00000076 E3C0                   MOV         #-64,R3
    00000078 231B                   OR          R1,R3
      Monochrome   151                    *LCD_register_selector = 4;
      Monochrome   152                    *LCD_data_register = 0;
      Monochrome   153                    *LCD_register_selector = 7;
      Monochrome   154                    for(j=0 ; j<16 ; j++) *LCD_data_register = 0;




SH SERIES C/C++ Compiler (Ver. 6.0C)                                                                 15-May-2021 18:55:24  PAGE    5


SCT OFFSET   CODE       C LABEL     INSTRUCTION OPERAND    COMMENT

    0000007A 60B3                   MOV         R11,R0
    0000007C 2430                   MOV.B       R3,@R4
    0000007E 2570                   MOV.B       R7,@R5
    00000080 2460                   MOV.B       R6,@R4
    00000082 25C0                   MOV.B       R12,@R5
    00000084              L848:                             
    00000084 4010                   DT          R0
    00000086 8FFD                   BF/S        L848
    00000088 2460                   MOV.B       R6,@R4
    0000008A 7101                   ADD         #1,R1
    0000008C 31A3                   CMP/GE      R10,R1
    0000008E 8BF1                   BF          L847
      Monochrome   155            }
      Monochrome   156    }
    00000090 6AF6                   MOV.L       @R15+,R10
    00000092 6BF6                   MOV.L       @R15+,R11
    00000094 000B                   RTS
    00000096 6CF6                   MOV.L       @R15+,R12
      Monochrome   157    #endif
      Monochrome   158    
      Monochrome   159    #ifdef ML_DISPLAY_VRAM
      Monochrome   160    void ML_display_vram()
    00000098              _ML_display_vram:                ; function: ML_display_vram
                                                           ; frame size=20
    00000098 2FC6                   MOV.L       R12,@-R15
    0000009A 2FB6                   MOV.L       R11,@-R15
    0000009C 2FA6                   MOV.L       R10,@-R15
    0000009E 2F96                   MOV.L       R9,@-R15
    000000A0 4F22                   STS.L       PR,@-R15
      Monochrome   161    {
      Monochrome   162            char *LCD_register_selector = (char*)0xB4000000, *LCD_data_register = (char*)0xB4010000, *vram;
      Monochrome   163            int i, j;
      Monochrome   164            vram = ML_vram_adress();
    000000A2 DC17                   MOV.L       L1271+4,R12; _sc0135
    000000A4 4C0B                   JSR         @R12
    000000A6 0009                   NOP
      Monochrome   165            for(i=0 ; i<64 ; i++)
    000000A8 D516                   MOV.L       L1271+8,R5 ; H'B4000000
    000000AA 6C03                   MOV         R0,R12
    000000AC D416                   MOV.L       L1271+12,R4; H'B4010000
    000000AE E940                   MOV         #64,R9
    000000B0 EA10                   MOV         #16,R10
    000000B2 EB07                   MOV         #7,R11
    000000B4 E100                   MOV         #0,R1
    000000B6 E704                   MOV         #4,R7
    000000B8 6013                   MOV         R1,R0
    000000BA              L849:                             
      Monochrome   166            {
      Monochrome   167                    *LCD_register_selector = 4;
      Monochrome   168                    *LCD_data_register = i|192;
    000000BA E3C0                   MOV         #-64,R3
    000000BC 2570                   MOV.B       R7,@R5
      Monochrome   169                    *LCD_register_selector = 4;
      Monochrome   170                    *LCD_data_register = 0;
      Monochrome   171                    *LCD_register_selector = 7;
      Monochrome   172                    for(j=0 ; j<16 ; j++) *LCD_data_register = *vram++;
    000000BE 66A3                   MOV         R10,R6




SH SERIES C/C++ Compiler (Ver. 6.0C)                                                                 15-May-2021 18:55:24  PAGE    6


SCT OFFSET   CODE       C LABEL     INSTRUCTION OPERAND    COMMENT

    000000C0 230B                   OR          R0,R3
    000000C2 2430                   MOV.B       R3,@R4
    000000C4 2570                   MOV.B       R7,@R5
    000000C6 2410                   MOV.B       R1,@R4
    000000C8 25B0                   MOV.B       R11,@R5
    000000CA              L850:                             
    000000CA 4610                   DT          R6
    000000CC 63C4                   MOV.B       @R12+,R3
    000000CE 8FFC                   BF/S        L850
    000000D0 2430                   MOV.B       R3,@R4
    000000D2 7001                   ADD         #1,R0
    000000D4 3093                   CMP/GE      R9,R0
    000000D6 8BF0                   BF          L849
      Monochrome   173            }
      Monochrome   174    }
    000000D8 4F26                   LDS.L       @R15+,PR
    000000DA 69F6                   MOV.L       @R15+,R9
    000000DC 6AF6                   MOV.L       @R15+,R10
    000000DE 6BF6                   MOV.L       @R15+,R11
    000000E0 000B                   RTS
    000000E2 6CF6                   MOV.L       @R15+,R12
      Monochrome   175    #endif
      Monochrome   176    
      Monochrome   177    #ifdef ML_SET_CONTRAST
      Monochrome   178    void ML_set_contrast(unsigned char contrast)
    000000E4              _ML_set_contrast:                ; function: ML_set_contrast
                                                           ; frame size=0
      Monochrome   179    {
      Monochrome   180            char *LCD_register_selector = (char*)0xB4000000, *LCD_data_register = (char*)0xB4010000;
      Monochrome   181            *LCD_register_selector = 6;
    000000E4 D207                   MOV.L       L1271+8,R2 ; H'B4000000
    000000E6 E306                   MOV         #6,R3
      Monochrome   182            *LCD_data_register = contrast;
    000000E8 D107                   MOV.L       L1271+12,R1; H'B4010000
    000000EA 2230                   MOV.B       R3,@R2
      Monochrome   183    }
    000000EC 000B                   RTS
    000000EE 2140                   MOV.B       R4,@R1
      Monochrome   184    #endif
      Monochrome   185    
      Monochrome   186    #ifdef ML_GET_CONTRAST
      Monochrome   187    unsigned char ML_get_contrast()
    000000F0              _ML_get_contrast:                ; function: ML_get_contrast
                                                           ; frame size=0
      Monochrome   188    {
      Monochrome   189            char *LCD_register_selector = (char*)0xB4000000, *LCD_data_register = (char*)0xB4010000;
      Monochrome   190            *LCD_register_selector = 6;
    000000F0 D204                   MOV.L       L1271+8,R2 ; H'B4000000
    000000F2 E306                   MOV         #6,R3
      Monochrome   191            return *LCD_data_register;
    000000F4 D104                   MOV.L       L1271+12,R1; H'B4010000
    000000F6 2230                   MOV.B       R3,@R2
      Monochrome   192    }
    000000F8 000B                   RTS
    000000FA 6010                   MOV.B       @R1,R0
    000000FC              L1271:                            
    000000FC 03FC                   .DATA.W     H'03FC




SH SERIES C/C++ Compiler (Ver. 6.0C)                                                                 15-May-2021 18:55:24  PAGE    7


SCT OFFSET   CODE       C LABEL     INSTRUCTION OPERAND    COMMENT

    000000FE 0000                   .DATA.W     0
    00000100 <00000000>             .DATA.L     _sc0135
    00000104 B4000000               .DATA.L     H'B4000000
    00000108 B4010000               .DATA.L     H'B4010000
      Monochrome   193    #endif
      Monochrome   194    
      Monochrome   195    #ifdef ML_PIXEL
      Monochrome   196    void ML_pixel(int x, int y, ML_Color color)
    0000010C              _ML_pixel:                       ; function: ML_pixel
                                                           ; frame size=16
    0000010C 2FE6                   MOV.L       R14,@-R15
    0000010E 6E43                   MOV         R4,R14
      Monochrome   197    {
      Monochrome   198            char* vram = ML_vram_adress();
    00000110 D346                   MOV.L       L1272+2,R3 ; _sc0135
    00000112 2FD6                   MOV.L       R13,@-R15
    00000114 4F22                   STS.L       PR,@-R15
    00000116 6D53                   MOV         R5,R13
    00000118 7FFC                   ADD         #-4,R15
    0000011A 430B                   JSR         @R3
    0000011C 2F62                   MOV.L       R6,@R15
      Monochrome   199            if(x&~127 || y&~63) return;
    0000011E E280                   MOV         #-128,R2
    00000120 22E8                   TST         R14,R2
    00000122 8F35                   BF/S        L854
    00000124 6603                   MOV         R0,R6
    00000126 E1C0                   MOV         #-64,R1
    00000128 21D8                   TST         R13,R1
    0000012A 8B31                   BF          L854
    0000012C 957D                   MOV.W       L1272,R5   ; H'0080
    0000012E 64D3                   MOV         R13,R4
    00000130 60F2                   MOV.L       @R15,R0
    00000132 63E3                   MOV         R14,R3
    00000134 4408                   SHLL2       R4
    00000136 4408                   SHLL2       R4
    00000138 4321                   SHAR        R3
    0000013A 4321                   SHAR        R3
    0000013C 4321                   SHAR        R3
    0000013E 343C                   ADD         R3,R4
    00000140 346C                   ADD         R6,R4
    00000142 E307                   MOV         #7,R3
    00000144 23E9                   AND         R14,R3
    00000146 633B                   NEG         R3,R3
    00000148 8801                   CMP/EQ      #1,R0
    0000014A 8D08                   BT/S        L828
    0000014C 453C                   SHAD        R3,R5
    0000014E 8800                   CMP/EQ      #0,R0
    00000150 8908                   BT          L829
    00000152 8802                   CMP/EQ      #2,R0
    00000154 890A                   BT          L830
    00000156 8803                   CMP/EQ      #3,R0
    00000158 890C                   BT          L831
    0000015A A019                   BRA         L854
    0000015C 0009                   NOP
    0000015E              L828:                            ; case label 
      Monochrome   200            switch(color)
      Monochrome   201            {




SH SERIES C/C++ Compiler (Ver. 6.0C)                                                                 15-May-2021 18:55:24  PAGE    8


SCT OFFSET   CODE       C LABEL     INSTRUCTION OPERAND    COMMENT

      Monochrome   202                    case ML_BLACK:
      Monochrome   203                            vram[(y<<4)+(x>>3)] |= 128>>(x&7);
    0000015E 6340                   MOV.B       @R4,R3
      Monochrome   204                            break;
    00000160 A011                   BRA         L1269
    00000162 235B                   OR          R5,R3
    00000164              L829:                            ; case label 
      Monochrome   205                    case ML_WHITE:
      Monochrome   206                            vram[(y<<4)+(x>>3)] &= ~(128>>(x&7));
    00000164 6340                   MOV.B       @R4,R3
    00000166 6557                   NOT         R5,R5
      Monochrome   207                            break;
    00000168 A00D                   BRA         L1269
    0000016A 2359                   AND         R5,R3
    0000016C              L830:                            ; case label 
      Monochrome   208                    case ML_XOR:
      Monochrome   209                            vram[(y<<4)+(x>>3)] ^= 128>>(x&7);
    0000016C 6140                   MOV.B       @R4,R1
    0000016E 215A                   XOR         R5,R1
      Monochrome   210                            break;
    00000170 A00E                   BRA         L854
    00000172 2410                   MOV.B       R1,@R4
    00000174              L831:                            ; case label 
      Monochrome   211                    case ML_CHECKER:
      Monochrome   212                            if(y&1^x&1) vram[(y<<4)+(x>>3)] &= ~(128>>(x&7));
    00000174 E601                   MOV         #1,R6
    00000176 2D69                   AND         R6,R13
    00000178 2E69                   AND         R6,R14
    0000017A 2DEA                   XOR         R14,R13
    0000017C 2DD8                   TST         R13,R13
    0000017E 8904                   BT          L856
    00000180 6340                   MOV.B       @R4,R3
    00000182 6557                   NOT         R5,R5
    00000184 2359                   AND         R5,R3
    00000186              L1269:                            
    00000186 A003                   BRA         L854
    00000188 2430                   MOV.B       R3,@R4
    0000018A              L856:                             
      Monochrome   213                            else vram[(y<<4)+(x>>3)] |= 128>>(x&7);
    0000018A 6140                   MOV.B       @R4,R1
    0000018C 215B                   OR          R5,R1
    0000018E 2410                   MOV.B       R1,@R4
      Monochrome   214                            break;
      Monochrome   215            }
      Monochrome   216    }
    00000190              L854:                             
    00000190 7F04                   ADD         #4,R15
    00000192 4F26                   LDS.L       @R15+,PR
    00000194 6DF6                   MOV.L       @R15+,R13
    00000196 000B                   RTS
    00000198 6EF6                   MOV.L       @R15+,R14
      Monochrome   217    #endif
      Monochrome   218    
      Monochrome   219    #ifdef ML_POINT
      Monochrome   220    void ML_point(int x, int y, int width, ML_Color color)
    0000019A              _ML_point:                       ; function: ML_point
                                                           ; frame size=36




SH SERIES C/C++ Compiler (Ver. 6.0C)                                                                 15-May-2021 18:55:24  PAGE    9


SCT OFFSET   CODE       C LABEL     INSTRUCTION OPERAND    COMMENT

      Monochrome   221    {
      Monochrome   222            if(width < 1) return;
    0000019A E301                   MOV         #1,R3
    0000019C 2FE6                   MOV.L       R14,@-R15
    0000019E 3633                   CMP/GE      R3,R6
    000001A0 2FD6                   MOV.L       R13,@-R15
    000001A2 6D53                   MOV         R5,R13
    000001A4 2FC6                   MOV.L       R12,@-R15
    000001A6 6C43                   MOV         R4,R12
    000001A8 2FB6                   MOV.L       R11,@-R15
    000001AA 4F22                   STS.L       PR,@-R15
    000001AC 7FFC                   ADD         #-4,R15
    000001AE 8F24                   BF/S        L859
    000001B0 2F72                   MOV.L       R7,@R15
      Monochrome   223            if(width == 1) ML_pixel(x, y, color);
    000001B2 6063                   MOV         R6,R0
    000001B4 8801                   CMP/EQ      #1,R0
    000001B6 8B09                   BF          L860
    000001B8 66F2                   MOV.L       @R15,R6
    000001BA 65D3                   MOV         R13,R5
    000001BC 64C3                   MOV         R12,R4
    000001BE 7F04                   ADD         #4,R15
    000001C0 4F26                   LDS.L       @R15+,PR
    000001C2 6BF6                   MOV.L       @R15+,R11
    000001C4 6CF6                   MOV.L       @R15+,R12
    000001C6 6DF6                   MOV.L       @R15+,R13
    000001C8 AFA0                   BRA         _ML_pixel
    000001CA 6EF6                   MOV.L       @R15+,R14
    000001CC              L860:                             
      Monochrome   224            else
      Monochrome   225            {
      Monochrome   226                    int padding, pair;
      Monochrome   227                    padding = width>>1;
      Monochrome   228                    pair = !(width&1);
      Monochrome   229                    ML_rectangle(x-padding+pair, y-padding+pair, x+padding, y+padding, 0, 0, color);
    000001CC 63F2                   MOV.L       @R15,R3
    000001CE E200                   MOV         #0,R2
    000001D0 2F36                   MOV.L       R3,@-R15
    000001D2 67D3                   MOV         R13,R7
    000001D4 2F26                   MOV.L       R2,@-R15
    000001D6 65D3                   MOV         R13,R5
    000001D8 2F26                   MOV.L       R2,@-R15
    000001DA 64C3                   MOV         R12,R4
    000001DC 6E63                   MOV         R6,R14
    000001DE 4E21                   SHAR        R14
    000001E0 EB01                   MOV         #1,R11
    000001E2 2B69                   AND         R6,R11
    000001E4 2BB8                   TST         R11,R11
    000001E6 0B29                   MOVT        R11
    000001E8 37EC                   ADD         R14,R7
    000001EA 66C3                   MOV         R12,R6
    000001EC 36EC                   ADD         R14,R6
    000001EE 35E8                   SUB         R14,R5
    000001F0 35BC                   ADD         R11,R5
    000001F2 34E8                   SUB         R14,R4
    000001F4 B29E                   BSR         _ML_rectangle
    000001F6 34BC                   ADD         R11,R4




SH SERIES C/C++ Compiler (Ver. 6.0C)                                                                 15-May-2021 18:55:24  PAGE   10


SCT OFFSET   CODE       C LABEL     INSTRUCTION OPERAND    COMMENT

    000001F8 7F0C                   ADD         #12,R15
      Monochrome   230            }
      Monochrome   231    }
    000001FA              L859:                             
    000001FA 7F04                   ADD         #4,R15
    000001FC 4F26                   LDS.L       @R15+,PR
    000001FE 6BF6                   MOV.L       @R15+,R11
    00000200 6CF6                   MOV.L       @R15+,R12
    00000202 6DF6                   MOV.L       @R15+,R13
    00000204 000B                   RTS
    00000206 6EF6                   MOV.L       @R15+,R14
      Monochrome   232    #endif
      Monochrome   233    
      Monochrome   234    #ifdef ML_PIXEL_TEST
      Monochrome   235    ML_Color ML_pixel_test(int x, int y)
    00000208              _ML_pixel_test:                  ; function: ML_pixel_test
                                                           ; frame size=12
    00000208 2FE6                   MOV.L       R14,@-R15
      Monochrome   236    {
      Monochrome   237            char *vram, byte;
      Monochrome   238            if(x&~127 || y&~63) return ML_TRANSPARENT;
    0000020A E380                   MOV         #-128,R3
    0000020C 4F22                   STS.L       PR,@-R15
    0000020E 6E43                   MOV         R4,R14
    00000210 7FFC                   ADD         #-4,R15
    00000212 23E8                   TST         R14,R3
    00000214 8F04                   BF/S        L864
    00000216 2F52                   MOV.L       R5,@R15
    00000218 62F2                   MOV.L       @R15,R2
    0000021A E3C0                   MOV         #-64,R3
    0000021C 2238                   TST         R3,R2
    0000021E 8907                   BT          L863
    00000220              L864:                             
    00000220 E0FF                   MOV         #-1,R0
    00000222 7F04                   ADD         #4,R15
    00000224 4F26                   LDS.L       @R15+,PR
    00000226 000B                   RTS
    00000228 6EF6                   MOV.L       @R15+,R14
    0000022A              L1272:                            
    0000022A 0080                   .DATA.W     H'0080
    0000022C <00000000>             .DATA.L     _sc0135
    00000230              L863:                             
      Monochrome   239            vram = ML_vram_adress();
    00000230 D344                   MOV.L       L1273+2,R3 ; _sc0135
    00000232 430B                   JSR         @R3
    00000234 0009                   NOP
    00000236 6403                   MOV         R0,R4
      Monochrome   240            byte = 1<<(7-(x&7));
      Monochrome   241            return (vram[(y<<4)+(x>>3)] & byte ? ML_BLACK : ML_WHITE);
    00000238 60F2                   MOV.L       @R15,R0
    0000023A E507                   MOV         #7,R5
    0000023C E601                   MOV         #1,R6
    0000023E 62E3                   MOV         R14,R2
    00000240 2259                   AND         R5,R2
    00000242 6353                   MOV         R5,R3
    00000244 3328                   SUB         R2,R3
    00000246 6563                   MOV         R6,R5




SH SERIES C/C++ Compiler (Ver. 6.0C)                                                                 15-May-2021 18:55:24  PAGE   11


SCT OFFSET   CODE       C LABEL     INSTRUCTION OPERAND    COMMENT

    00000248 453C                   SHAD        R3,R5
    0000024A 4008                   SHLL2       R0
    0000024C 4008                   SHLL2       R0
    0000024E 4E21                   SHAR        R14
    00000250 4E21                   SHAR        R14
    00000252 4E21                   SHAR        R14
    00000254 30EC                   ADD         R14,R0
    00000256 655E                   EXTS.B      R5,R5
    00000258 004C                   MOV.B       @(R0,R4),R0
    0000025A 2058                   TST         R5,R0
    0000025C 8904                   BT          L866
    0000025E 6063                   MOV         R6,R0
    00000260 7F04                   ADD         #4,R15
    00000262 4F26                   LDS.L       @R15+,PR
    00000264 000B                   RTS
    00000266 6EF6                   MOV.L       @R15+,R14
    00000268              L866:                             
    00000268 E000                   MOV         #0,R0
      Monochrome   242            
      Monochrome   243    }
    0000026A              L865:                             
    0000026A 7F04                   ADD         #4,R15
    0000026C 4F26                   LDS.L       @R15+,PR
    0000026E 000B                   RTS
    00000270 6EF6                   MOV.L       @R15+,R14
      Monochrome   244    #endif
      Monochrome   245    
      Monochrome   246    #ifdef ML_LINE
      Monochrome   247    void ML_line(int x1, int y1, int x2, int y2, ML_Color color)
    00000272              _ML_line:                        ; function: ML_line
                                                           ; frame size=40
    00000272 2FE6                   MOV.L       R14,@-R15
    00000274 2FD6                   MOV.L       R13,@-R15
      Monochrome   248    {
      Monochrome   249            int i, x, y, dx, dy, sx, sy, cumul;
      Monochrome   250            x = x1;
      Monochrome   251            y = y1;
      Monochrome   252            dx = x2 - x1;
    00000276 6E63                   MOV         R6,R14
    00000278 2FC6                   MOV.L       R12,@-R15
    0000027A 3E48                   SUB         R4,R14
    0000027C 2FB6                   MOV.L       R11,@-R15
    0000027E 6C53                   MOV         R5,R12
    00000280 2FA6                   MOV.L       R10,@-R15
    00000282 6B43                   MOV         R4,R11
    00000284 2F96                   MOV.L       R9,@-R15
      Monochrome   253            dy = y2 - y1;
    00000286 6A73                   MOV         R7,R10
    00000288 2F86                   MOV.L       R8,@-R15
      Monochrome   254            sx = sgn(dx);
    0000028A 4E11                   CMP/PZ      R14
    0000028C 4F22                   STS.L       PR,@-R15
    0000028E 7FF8                   ADD         #-8,R15
    00000290 59FA                   MOV.L       @(40,R15),R9
    00000292 8D02                   BT/S        L868
    00000294 3A58                   SUB         R5,R10
    00000296 A001                   BRA         L869




SH SERIES C/C++ Compiler (Ver. 6.0C)                                                                 15-May-2021 18:55:24  PAGE   12


SCT OFFSET   CODE       C LABEL     INSTRUCTION OPERAND    COMMENT

    00000298 E8FF                   MOV         #-1,R8
    0000029A              L868:                             
    0000029A E801                   MOV         #1,R8
    0000029C              L869:                             
      Monochrome   255            sy = sgn(dy);
    0000029C 4A11                   CMP/PZ      R10
    0000029E 8901                   BT          L870
    000002A0 A001                   BRA         L871
    000002A2 E2FF                   MOV         #-1,R2
    000002A4              L870:                             
    000002A4 E201                   MOV         #1,R2
    000002A6              L871:                             
    000002A6 1F21                   MOV.L       R2,@(4,R15)
      Monochrome   256            dx = abs(dx);
    000002A8 D327                   MOV.L       L1273+6,R3 ; _abs
    000002AA 430B                   JSR         @R3
    000002AC 64E3                   MOV         R14,R4
    000002AE 6D03                   MOV         R0,R13
      Monochrome   257            dy = abs(dy);
    000002B0 D225                   MOV.L       L1273+6,R2 ; _abs
    000002B2 420B                   JSR         @R2
    000002B4 64A3                   MOV         R10,R4
    000002B6 6E03                   MOV         R0,R14
      Monochrome   258            ML_pixel(x, y, color);
    000002B8 6693                   MOV         R9,R6
    000002BA 65C3                   MOV         R12,R5
    000002BC BF26                   BSR         _ML_pixel
    000002BE 64B3                   MOV         R11,R4
      Monochrome   259            if(dx > dy)
    000002C0 3DE7                   CMP/GT      R14,R13
    000002C2 8F1B                   BF/S        L872
    000002C4 E401                   MOV         #1,R4
      Monochrome   260            {
      Monochrome   261                    cumul = dx / 2;
    000002C6 6AD3                   MOV         R13,R10
    000002C8 E300                   MOV         #0,R3
    000002CA 33A7                   CMP/GT      R10,R3
    000002CC 3A3E                   ADDC        R3,R10
    000002CE 4A21                   SHAR        R10
      Monochrome   262                    for(i=1 ; i<dx ; i++)
    000002D0 6343                   MOV         R4,R3
    000002D2 33D3                   CMP/GE      R13,R3
    000002D4 8D2B                   BT/S        L876
    000002D6 2F42                   MOV.L       R4,@R15
    000002D8              L874:                             
      Monochrome   263                    {
      Monochrome   264                            x += sx;
      Monochrome   265                            cumul += dy;
    000002D8 3AEC                   ADD         R14,R10
      Monochrome   266                            if(cumul > dx)
    000002DA 3AD7                   CMP/GT      R13,R10
    000002DC 8F03                   BF/S        L875
    000002DE 3B8C                   ADD         R8,R11
      Monochrome   267                            {
      Monochrome   268                                    cumul -= dx;
      Monochrome   269                                    y += sy;
    000002E0 52F1                   MOV.L       @(4,R15),R2




SH SERIES C/C++ Compiler (Ver. 6.0C)                                                                 15-May-2021 18:55:24  PAGE   13


SCT OFFSET   CODE       C LABEL     INSTRUCTION OPERAND    COMMENT

    000002E2 3AD8                   SUB         R13,R10
    000002E4 3C2C                   ADD         R2,R12
    000002E6              L875:                             
      Monochrome   270                            }
      Monochrome   271                            ML_pixel(x, y, color);
    000002E6 6693                   MOV         R9,R6
    000002E8 65C3                   MOV         R12,R5
    000002EA BF0F                   BSR         _ML_pixel
    000002EC 64B3                   MOV         R11,R4
    000002EE 62F2                   MOV.L       @R15,R2
    000002F0 7201                   ADD         #1,R2
    000002F2 32D3                   CMP/GE      R13,R2
    000002F4 8FF0                   BF/S        L874
    000002F6 2F22                   MOV.L       R2,@R15
    000002F8 A019                   BRA         L876
    000002FA 0009                   NOP
    000002FC              L872:                             
      Monochrome   272                    }
      Monochrome   273            }
      Monochrome   274            else
      Monochrome   275            {
      Monochrome   276                    cumul = dy / 2;
    000002FC 6AE3                   MOV         R14,R10
    000002FE E300                   MOV         #0,R3
    00000300 33A7                   CMP/GT      R10,R3
    00000302 3A3E                   ADDC        R3,R10
    00000304 4A21                   SHAR        R10
      Monochrome   277                    for(i=1 ; i<dy ; i++)
    00000306 6343                   MOV         R4,R3
    00000308 33E3                   CMP/GE      R14,R3
    0000030A 8D10                   BT/S        L876
    0000030C 2F42                   MOV.L       R4,@R15
    0000030E              L878:                             
      Monochrome   278                    {
      Monochrome   279                            y += sy;
      Monochrome   280                            cumul += dx;
    0000030E 3ADC                   ADD         R13,R10
    00000310 51F1                   MOV.L       @(4,R15),R1
      Monochrome   281                            if(cumul > dy)
    00000312 3AE7                   CMP/GT      R14,R10
    00000314 8F02                   BF/S        L879
    00000316 3C1C                   ADD         R1,R12
      Monochrome   282                            {
      Monochrome   283                                    cumul -= dy;
    00000318 3AE8                   SUB         R14,R10
      Monochrome   284                                    x += sx;
    0000031A 3B8C                   ADD         R8,R11
    0000031C              L879:                             
      Monochrome   285                            }
      Monochrome   286                            ML_pixel(x, y, color);
    0000031C 6693                   MOV         R9,R6
    0000031E 65C3                   MOV         R12,R5
    00000320 BEF4                   BSR         _ML_pixel
    00000322 64B3                   MOV         R11,R4
    00000324 63F2                   MOV.L       @R15,R3
    00000326 7301                   ADD         #1,R3
    00000328 33E3                   CMP/GE      R14,R3




SH SERIES C/C++ Compiler (Ver. 6.0C)                                                                 15-May-2021 18:55:24  PAGE   14


SCT OFFSET   CODE       C LABEL     INSTRUCTION OPERAND    COMMENT

    0000032A 8FF0                   BF/S        L878
    0000032C 2F32                   MOV.L       R3,@R15
    0000032E              L876:                             
      Monochrome   287                    }
      Monochrome   288            }
      Monochrome   289    }
    0000032E 7F08                   ADD         #8,R15
    00000330 4F26                   LDS.L       @R15+,PR
    00000332 68F6                   MOV.L       @R15+,R8
    00000334 69F6                   MOV.L       @R15+,R9
    00000336 6AF6                   MOV.L       @R15+,R10
    00000338 6BF6                   MOV.L       @R15+,R11
    0000033A 6CF6                   MOV.L       @R15+,R12
    0000033C 6DF6                   MOV.L       @R15+,R13
    0000033E 000B                   RTS
    00000340 6EF6                   MOV.L       @R15+,R14
    00000342              L1273:                            
    00000342 0000                   .DATA.W     0
    00000344 <00000000>             .DATA.L     _sc0135
    00000348 <00000000>             .DATA.L     _abs
      Monochrome   290    #endif
      Monochrome   291    
      Monochrome   292    #ifdef ML_HORIZONTAL_LINE
      Monochrome   293    void ML_horizontal_line(int y, int x1, int x2, ML_Color color)
    0000034C              _ML_horizontal_line:             ; function: ML_horizontal_line
                                                           ; frame size=44
    0000034C 2FE6                   MOV.L       R14,@-R15
    0000034E 2FD6                   MOV.L       R13,@-R15
    00000350 2FC6                   MOV.L       R12,@-R15
    00000352 6C53                   MOV         R5,R12
      Monochrome   294    {
      Monochrome   295        int i;
      Monochrome   296        char checker;
      Monochrome   297        char* vram = ML_vram_adress();
    00000354 D332                   MOV.L       L1274+2,R3 ; _sc0135
    00000356 2FB6                   MOV.L       R11,@-R15
    00000358 2FA6                   MOV.L       R10,@-R15
    0000035A 6B63                   MOV         R6,R11
    0000035C 2F96                   MOV.L       R9,@-R15
    0000035E 2F86                   MOV.L       R8,@-R15
    00000360 4F22                   STS.L       PR,@-R15
    00000362 7FF4                   ADD         #-12,R15
    00000364 2F42                   MOV.L       R4,@R15
    00000366 430B                   JSR         @R3
    00000368 1F72                   MOV.L       R7,@(8,R15)
    0000036A 6603                   MOV         R0,R6
      Monochrome   298        if(y&~63 || (x1<0 && x2<0) || (x1>127 && x2>127)) return;
    0000036C 62F2                   MOV.L       @R15,R2
    0000036E E3C0                   MOV         #-64,R3
    00000370 2238                   TST         R3,R2
    00000372 8901                   BT          L1275
    00000374 A136                   BRA         L883
    00000376 0009                   NOP
    00000378              L1275:                            
    00000378 4C11                   CMP/PZ      R12
    0000037A 8903                   BT          L882
    0000037C 4B11                   CMP/PZ      R11




SH SERIES C/C++ Compiler (Ver. 6.0C)                                                                 15-May-2021 18:55:24  PAGE   15


SCT OFFSET   CODE       C LABEL     INSTRUCTION OPERAND    COMMENT

    0000037E 8901                   BT          L1276
    00000380 A130                   BRA         L883
    00000382 0009                   NOP
    00000384              L1276:                            
    00000384              L882:                             
    00000384 E37F                   MOV         #127,R3
    00000386 3C37                   CMP/GT      R3,R12
    00000388 8B03                   BF          L880
    0000038A 3B37                   CMP/GT      R3,R11
    0000038C 8B01                   BF          L1277
    0000038E A129                   BRA         L883
    00000390 0009                   NOP
    00000392              L1277:                            
    00000392              L880:                             
      Monochrome   299        if(x1 > x2)
    00000392 3CB7                   CMP/GT      R11,R12
    00000394 8F03                   BF/S        L884
      Monochrome   300        {
      Monochrome   301            i = x1;
      Monochrome   302            x1 = x2;
      Monochrome   303            x2 = i;
      Monochrome   304        }
      Monochrome   305        if(x1 < 0) x1 = 0;
    00000396 E800                   MOV         #0,R8
    00000398 64C3                   MOV         R12,R4
    0000039A 6CB3                   MOV         R11,R12
    0000039C 6B43                   MOV         R4,R11
    0000039E              L884:                             
    0000039E 4C11                   CMP/PZ      R12
    000003A0 8D01                   BT/S        L885
      Monochrome   306        if(x2 > 127) x2 = 127;
    000003A2 E47F                   MOV         #127,R4
    000003A4 6C83                   MOV         R8,R12
    000003A6              L885:                             
    000003A6 3B47                   CMP/GT      R4,R11
    000003A8 8F01                   BF/S        L886
    000003AA E707                   MOV         #7,R7
    000003AC 6B43                   MOV         R4,R11
    000003AE              L886:                             
    000003AE 65C3                   MOV         R12,R5
    000003B0 6DF2                   MOV.L       @R15,R13
    000003B2 69C3                   MOV         R12,R9
    000003B4 9433                   MOV.W       L1274,R4   ; H'00FF
    000003B6 6EB3                   MOV         R11,R14
    000003B8 4521                   SHAR        R5
    000003BA 4521                   SHAR        R5
    000003BC 4521                   SHAR        R5
    000003BE 4E21                   SHAR        R14
    000003C0 4E21                   SHAR        R14
    000003C2 4E21                   SHAR        R14
    000003C4 4D08                   SHLL2       R13
    000003C6 4D08                   SHLL2       R13
    000003C8 2979                   AND         R7,R9
    000003CA 6AB3                   MOV         R11,R10
    000003CC 60C3                   MOV         R12,R0
    000003CE 4011                   CMP/PZ      R0
    000003D0 8F02                   BF/S        L887




SH SERIES C/C++ Compiler (Ver. 6.0C)                                                                 15-May-2021 18:55:24  PAGE   16


SCT OFFSET   CODE       C LABEL     INSTRUCTION OPERAND    COMMENT

    000003D2 2A79                   AND         R7,R10
    000003D4 A005                   BRA         L888
    000003D6 C907                   AND         #7,R0
    000003D8              L887:                             
    000003D8 6007                   NOT         R0,R0
    000003DA 7001                   ADD         #1,R0
    000003DC C907                   AND         #7,R0
    000003DE 6007                   NOT         R0,R0
    000003E0 7001                   ADD         #1,R0
    000003E2              L888:                             
    000003E2 6303                   MOV         R0,R3
    000003E4 60B3                   MOV         R11,R0
    000003E6 4011                   CMP/PZ      R0
    000003E8 8B01                   BF          L889
    000003EA A005                   BRA         L890
    000003EC C907                   AND         #7,R0
    000003EE              L889:                             
    000003EE 6007                   NOT         R0,R0
    000003F0 7001                   ADD         #1,R0
    000003F2 C907                   AND         #7,R0
    000003F4 6007                   NOT         R0,R0
    000003F6 7001                   ADD         #1,R0
    000003F8              L890:                             
    000003F8 3308                   SUB         R0,R3
    000003FA 7307                   ADD         #7,R3
    000003FC 633B                   NEG         R3,R3
    000003FE 6043                   MOV         R4,R0
    00000400 403C                   SHAD        R3,R0
    00000402 1F01                   MOV.L       R0,@(4,R15)
    00000404 50F2                   MOV.L       @(8,R15),R0
    00000406 8801                   CMP/EQ      #1,R0
    00000408 890C                   BT          L832
    0000040A 8800                   CMP/EQ      #0,R0
    0000040C 8934                   BT          L833
    0000040E 8802                   CMP/EQ      #2,R0
    00000410 8965                   BT          L834
    00000412 8803                   CMP/EQ      #3,R0
    00000414 8B01                   BF          L1278
    00000416 A091                   BRA         L835
    00000418 0009                   NOP
    0000041A              L1278:                            
    0000041A A0E3                   BRA         L883
    0000041C 0009                   NOP
    0000041E              L1274:                            
    0000041E 00FF                   .DATA.W     H'00FF
    00000420 <00000000>             .DATA.L     _sc0135
    00000424              L832:                            ; case label 
      Monochrome   307        switch(color)
      Monochrome   308        {
      Monochrome   309            case ML_BLACK:
      Monochrome   310                            if(x1>>3 != x2>>3)
    00000424 35E0                   CMP/EQ      R14,R5
    00000426 891E                   BT          L892
      Monochrome   311                            {
      Monochrome   312                                    vram[(y<<4)+(x1>>3)] |= 255 >> (x1&7);
    00000428 60D3                   MOV         R13,R0
    0000042A 305C                   ADD         R5,R0




SH SERIES C/C++ Compiler (Ver. 6.0C)                                                                 15-May-2021 18:55:24  PAGE   17


SCT OFFSET   CODE       C LABEL     INSTRUCTION OPERAND    COMMENT

    0000042C 016C                   MOV.B       @(R0,R6),R1
      Monochrome   313                                    vram[(y<<4)+(x2>>3)] |= 255 << 7-(x2&7);
    0000042E 37A8                   SUB         R10,R7
    00000430 639B                   NEG         R9,R3
    00000432 6243                   MOV         R4,R2
    00000434 423C                   SHAD        R3,R2
    00000436 212B                   OR          R2,R1
    00000438 0614                   MOV.B       R1,@(R0,R6)
    0000043A 447C                   SHAD        R7,R4
    0000043C 60E3                   MOV         R14,R0
    0000043E 30DC                   ADD         R13,R0
    00000440 036C                   MOV.B       @(R0,R6),R3
      Monochrome   314                                    for(i=(x1>>3)+1 ; i<x2>>3 ; i++)
    00000442 7501                   ADD         #1,R5
    00000444 234B                   OR          R4,R3
    00000446 64D3                   MOV         R13,R4
    00000448 0634                   MOV.B       R3,@(R0,R6)
    0000044A 35E3                   CMP/GE      R14,R5
    0000044C 345C                   ADD         R5,R4
    0000044E 346C                   ADD         R6,R4
    00000450 8F02                   BF/S        L1279
    00000452 E6FF                   MOV         #-1,R6
    00000454 A0C6                   BRA         L883
    00000456 0009                   NOP
    00000458              L1279:                            
    00000458              L894:                             
      Monochrome   315                                            vram[(y<<4) + i] = 255;
    00000458 2460                   MOV.B       R6,@R4
    0000045A 7501                   ADD         #1,R5
    0000045C 35E3                   CMP/GE      R14,R5
    0000045E 8FFB                   BF/S        L894
    00000460 7401                   ADD         #1,R4
    00000462 A0BF                   BRA         L883
    00000464 0009                   NOP
    00000466              L892:                             
      Monochrome   316                            }
      Monochrome   317                            else vram[(y<<4)+(x1>>3)] |= (255>>(x1%8 + 7-x2%8))<<(7-(x2&7));
    00000466 60D3                   MOV         R13,R0
    00000468 53F1                   MOV.L       @(4,R15),R3
    0000046A 37A8                   SUB         R10,R7
    0000046C 305C                   ADD         R5,R0
    0000046E 437C                   SHAD        R7,R3
    00000470 026C                   MOV.B       @(R0,R6),R2
    00000472 223B                   OR          R3,R2
      Monochrome   318                            break;
    00000474 A0B6                   BRA         L883
    00000476 0624                   MOV.B       R2,@(R0,R6)
    00000478              L833:                            ; case label 
      Monochrome   319                    case ML_WHITE:
      Monochrome   320                            if(x1>>3 != x2>>3)
    00000478 35E0                   CMP/EQ      R14,R5
    0000047A 8920                   BT          L896
      Monochrome   321                            {
      Monochrome   322                                    vram[(y<<4)+(x1>>3)] &= 255 << 8-(x1&7);
    0000047C 60D3                   MOV         R13,R0
    0000047E 305C                   ADD         R5,R0
    00000480 E308                   MOV         #8,R3




SH SERIES C/C++ Compiler (Ver. 6.0C)                                                                 15-May-2021 18:55:24  PAGE   18


SCT OFFSET   CODE       C LABEL     INSTRUCTION OPERAND    COMMENT

    00000482 3398                   SUB         R9,R3
    00000484 6243                   MOV         R4,R2
    00000486 423C                   SHAD        R3,R2
    00000488 036C                   MOV.B       @(R0,R6),R3
      Monochrome   323                                    vram[(y<<4)+(x2>>3)] &= 255 >> 1+(x2&7);
      Monochrome   324                                    for(i=(x1>>3)+1 ; i<x2>>3 ; i++)
    0000048A 7501                   ADD         #1,R5
    0000048C 2329                   AND         R2,R3
    0000048E 35E3                   CMP/GE      R14,R5
    00000490 0634                   MOV.B       R3,@(R0,R6)
    00000492 60E3                   MOV         R14,R0
    00000494 30DC                   ADD         R13,R0
    00000496 63A3                   MOV         R10,R3
    00000498 026C                   MOV.B       @(R0,R6),R2
    0000049A 7301                   ADD         #1,R3
    0000049C 633B                   NEG         R3,R3
    0000049E 443C                   SHAD        R3,R4
    000004A0 2249                   AND         R4,R2
    000004A2 64D3                   MOV         R13,R4
    000004A4 0624                   MOV.B       R2,@(R0,R6)
    000004A6 345C                   ADD         R5,R4
    000004A8 8F02                   BF/S        L1280
    000004AA 346C                   ADD         R6,R4
    000004AC A09A                   BRA         L883
    000004AE 0009                   NOP
    000004B0              L1280:                            
    000004B0              L898:                             
      Monochrome   325                                            vram[(y<<4) + i] = 0;
    000004B0 2480                   MOV.B       R8,@R4
    000004B2 7501                   ADD         #1,R5
    000004B4 35E3                   CMP/GE      R14,R5
    000004B6 8FFB                   BF/S        L898
    000004B8 7401                   ADD         #1,R4
    000004BA A093                   BRA         L883
    000004BC 0009                   NOP
    000004BE              L896:                             
      Monochrome   326                            }
      Monochrome   327                            else vram[(y<<4)+(x1>>3)] &= (255<<8-(x1&7)) | (255>>1+(x2&7));
    000004BE 60D3                   MOV         R13,R0
    000004C0 305C                   ADD         R5,R0
    000004C2 E308                   MOV         #8,R3
    000004C4 3398                   SUB         R9,R3
    000004C6 6243                   MOV         R4,R2
    000004C8 423C                   SHAD        R3,R2
    000004CA 63A3                   MOV         R10,R3
    000004CC 7301                   ADD         #1,R3
    000004CE 633B                   NEG         R3,R3
    000004D0 6143                   MOV         R4,R1
    000004D2 413C                   SHAD        R3,R1
    000004D4 036C                   MOV.B       @(R0,R6),R3
    000004D6 221B                   OR          R1,R2
    000004D8 2329                   AND         R2,R3
      Monochrome   328                            break;
    000004DA A083                   BRA         L883
    000004DC 0634                   MOV.B       R3,@(R0,R6)
    000004DE              L834:                            ; case label 
      Monochrome   329                    case ML_XOR:




SH SERIES C/C++ Compiler (Ver. 6.0C)                                                                 15-May-2021 18:55:24  PAGE   19


SCT OFFSET   CODE       C LABEL     INSTRUCTION OPERAND    COMMENT

      Monochrome   330                            if(x1>>3 != x2>>3)
    000004DE 35E0                   CMP/EQ      R14,R5
    000004E0 891E                   BT          L900
      Monochrome   331                            {
      Monochrome   332                                    vram[(y<<4)+(x1>>3)] ^= 255 >> (x1&7);
    000004E2 60D3                   MOV         R13,R0
    000004E4 305C                   ADD         R5,R0
    000004E6 639B                   NEG         R9,R3
    000004E8 016C                   MOV.B       @(R0,R6),R1
      Monochrome   333                                    vram[(y<<4)+(x2>>3)] ^= 255 << 7-(x2&7);
    000004EA 37A8                   SUB         R10,R7
    000004EC 6243                   MOV         R4,R2
    000004EE 423C                   SHAD        R3,R2
    000004F0 212A                   XOR         R2,R1
    000004F2 6343                   MOV         R4,R3
    000004F4 0614                   MOV.B       R1,@(R0,R6)
      Monochrome   334                                    for(i=(x1>>3)+1 ; i<(x2>>3) ; i++)
    000004F6 7501                   ADD         #1,R5
    000004F8 60E3                   MOV         R14,R0
    000004FA 30DC                   ADD         R13,R0
    000004FC 026C                   MOV.B       @(R0,R6),R2
    000004FE 35E3                   CMP/GE      R14,R5
    00000500 437C                   SHAD        R7,R3
    00000502 223A                   XOR         R3,R2
    00000504 0624                   MOV.B       R2,@(R0,R6)
    00000506 63D3                   MOV         R13,R3
    00000508 335C                   ADD         R5,R3
    0000050A 8D6B                   BT/S        L883
    0000050C 363C                   ADD         R3,R6
    0000050E              L902:                             
    0000050E 7501                   ADD         #1,R5
      Monochrome   335                                            vram[(y<<4) + i] ^= 255;
    00000510 6360                   MOV.B       @R6,R3
    00000512 35E3                   CMP/GE      R14,R5
    00000514 234A                   XOR         R4,R3
    00000516 2630                   MOV.B       R3,@R6
    00000518 8FF9                   BF/S        L902
    0000051A 7601                   ADD         #1,R6
    0000051C A062                   BRA         L883
    0000051E 0009                   NOP
    00000520              L900:                             
      Monochrome   336                            }
      Monochrome   337                            else vram[(y<<4)+(x1>>3)] ^= (255>>((x1&7) + 7-(x2&7)))<<(7-(x2&7));
    00000520 60D3                   MOV         R13,R0
    00000522 305C                   ADD         R5,R0
    00000524 6393                   MOV         R9,R3
    00000526 33A8                   SUB         R10,R3
    00000528 7307                   ADD         #7,R3
    0000052A 633B                   NEG         R3,R3
    0000052C 443C                   SHAD        R3,R4
    0000052E E207                   MOV         #7,R2
    00000530 036C                   MOV.B       @(R0,R6),R3
    00000532 32A8                   SUB         R10,R2
    00000534 442C                   SHAD        R2,R4
    00000536 234A                   XOR         R4,R3
      Monochrome   338                            break;
    00000538 A054                   BRA         L883




SH SERIES C/C++ Compiler (Ver. 6.0C)                                                                 15-May-2021 18:55:24  PAGE   20


SCT OFFSET   CODE       C LABEL     INSTRUCTION OPERAND    COMMENT

    0000053A 0634                   MOV.B       R3,@(R0,R6)
    0000053C              L835:                            ; case label 
      Monochrome   339                    case ML_CHECKER:
      Monochrome   340                            checker = (y&1 ? 85 : 170);
    0000053C 60F2                   MOV.L       @R15,R0
    0000053E C801                   TST         #1,R0
    00000540 8901                   BT          L904
    00000542 A001                   BRA         L905
    00000544 EC55                   MOV         #85,R12
    00000546              L904:                             
    00000546 9C57                   MOV.W       L1281,R12  ; H'00AA
    00000548              L905:                             
      Monochrome   341                            if(x1>>3 != x2>>3)
    00000548 35E0                   CMP/EQ      R14,R5
    0000054A 8932                   BT          L906
      Monochrome   342                            {
      Monochrome   343                                    vram[(y<<4)+(x1>>3)] &= 255 << 8-(x1&7);
    0000054C 63D3                   MOV         R13,R3
    0000054E 335C                   ADD         R5,R3
    00000550 336C                   ADD         R6,R3
    00000552 629B                   NEG         R9,R2
    00000554 1F31                   MOV.L       R3,@(4,R15)
    00000556 6143                   MOV         R4,R1
    00000558 7208                   ADD         #8,R2
    0000055A 412C                   SHAD        R2,R1
    0000055C 6230                   MOV.B       @R3,R2
    0000055E 2219                   AND         R1,R2
    00000560 2320                   MOV.B       R2,@R3
      Monochrome   344                                    vram[(y<<4)+(x2>>3)] &= 255 >> 1+(x2&7);
    00000562 6143                   MOV         R4,R1
    00000564 63E3                   MOV         R14,R3
    00000566 33DC                   ADD         R13,R3
    00000568 336C                   ADD         R6,R3
    0000056A 62A3                   MOV         R10,R2
    0000056C 2F32                   MOV.L       R3,@R15
    0000056E 7201                   ADD         #1,R2
    00000570 6030                   MOV.B       @R3,R0
    00000572 622B                   NEG         R2,R2
    00000574 412C                   SHAD        R2,R1
    00000576 2019                   AND         R1,R0
    00000578 2300                   MOV.B       R0,@R3
      Monochrome   345                                    vram[(y<<4)+(x1>>3)] |= checker & 255>>(x1&7);
    0000057A 629B                   NEG         R9,R2
    0000057C 53F1                   MOV.L       @(4,R15),R3
    0000057E 6143                   MOV         R4,R1
    00000580 412C                   SHAD        R2,R1
    00000582 21C9                   AND         R12,R1
    00000584 6230                   MOV.B       @R3,R2
    00000586 221B                   OR          R1,R2
    00000588 2320                   MOV.B       R2,@R3
      Monochrome   346                                    vram[(y<<4)+(x2>>3)] |= checker & 255<<7-(x2&7);
    0000058A 63F2                   MOV.L       @R15,R3
    0000058C 6230                   MOV.B       @R3,R2
      Monochrome   347                                    for(i=(x1>>3)+1 ; i<x2>>3 ; i++)
    0000058E 7501                   ADD         #1,R5
    00000590 37A8                   SUB         R10,R7
    00000592 447C                   SHAD        R7,R4




SH SERIES C/C++ Compiler (Ver. 6.0C)                                                                 15-May-2021 18:55:24  PAGE   21


SCT OFFSET   CODE       C LABEL     INSTRUCTION OPERAND    COMMENT

    00000594 24C9                   AND         R12,R4
    00000596 224B                   OR          R4,R2
    00000598 2320                   MOV.B       R2,@R3
    0000059A 64D3                   MOV         R13,R4
    0000059C 345C                   ADD         R5,R4
    0000059E 35E3                   CMP/GE      R14,R5
    000005A0 8D20                   BT/S        L883
    000005A2 346C                   ADD         R6,R4
    000005A4              L908:                             
      Monochrome   348                                            vram[(y<<4) + i] = checker;
    000005A4 24C0                   MOV.B       R12,@R4
    000005A6 7501                   ADD         #1,R5
    000005A8 35E3                   CMP/GE      R14,R5
    000005AA 8FFB                   BF/S        L908
    000005AC 7401                   ADD         #1,R4
    000005AE A019                   BRA         L883
    000005B0 0009                   NOP
    000005B2              L906:                             
      Monochrome   349                            }
      Monochrome   350                            else
      Monochrome   351                            {
      Monochrome   352                                    vram[(y<<4)+(x1>>3)] &= (255<<8-(x1&7)) | (255>>1+(x2&7));
    000005B2 63D3                   MOV         R13,R3
    000005B4 335C                   ADD         R5,R3
    000005B6 336C                   ADD         R6,R3
    000005B8 2F32                   MOV.L       R3,@R15
    000005BA E208                   MOV         #8,R2
    000005BC 3298                   SUB         R9,R2
    000005BE 6143                   MOV         R4,R1
    000005C0 412C                   SHAD        R2,R1
    000005C2 62A3                   MOV         R10,R2
    000005C4 7201                   ADD         #1,R2
    000005C6 622B                   NEG         R2,R2
    000005C8 6043                   MOV         R4,R0
    000005CA 402C                   SHAD        R2,R0
    000005CC 6230                   MOV.B       @R3,R2
      Monochrome   353                                    vram[(y<<4)+(x1>>3)] |= checker & (255>>(x1%8 + 7-x2%8))<<(7-(x2&7));
    000005CE 37A8                   SUB         R10,R7
    000005D0 210B                   OR          R0,R1
    000005D2 2219                   AND         R1,R2
    000005D4 2320                   MOV.B       R2,@R3
    000005D6 63F2                   MOV.L       @R15,R3
    000005D8 52F1                   MOV.L       @(4,R15),R2
    000005DA 427C                   SHAD        R7,R2
    000005DC 6130                   MOV.B       @R3,R1
    000005DE 22C9                   AND         R12,R2
    000005E0 212B                   OR          R2,R1
    000005E2 2310                   MOV.B       R1,@R3
      Monochrome   354                            }
      Monochrome   355                            break;
      Monochrome   356        }
      Monochrome   357    }
    000005E4              L883:                             
    000005E4 7F0C                   ADD         #12,R15
    000005E6 4F26                   LDS.L       @R15+,PR
    000005E8 68F6                   MOV.L       @R15+,R8
    000005EA 69F6                   MOV.L       @R15+,R9




SH SERIES C/C++ Compiler (Ver. 6.0C)                                                                 15-May-2021 18:55:24  PAGE   22


SCT OFFSET   CODE       C LABEL     INSTRUCTION OPERAND    COMMENT

    000005EC 6AF6                   MOV.L       @R15+,R10
    000005EE 6BF6                   MOV.L       @R15+,R11
    000005F0 6CF6                   MOV.L       @R15+,R12
    000005F2 6DF6                   MOV.L       @R15+,R13
    000005F4 000B                   RTS
    000005F6 6EF6                   MOV.L       @R15+,R14
    000005F8              L1281:                            
    000005F8 00AA                   .DATA.W     H'00AA
      Monochrome   358    
      Monochrome   359    #endif
      Monochrome   360    
      Monochrome   361    #ifdef ML_VERTICAL_LINE
      Monochrome   362    void ML_vertical_line(int x, int y1, int y2, ML_Color color)
    000005FA              _ML_vertical_line:               ; function: ML_vertical_line
                                                           ; frame size=24
    000005FA 2FE6                   MOV.L       R14,@-R15
    000005FC 2FD6                   MOV.L       R13,@-R15
    000005FE 6E53                   MOV         R5,R14
      Monochrome   363    {
      Monochrome   364        int i, j;
      Monochrome   365        char checker, byte, *vram = ML_vram_adress();
    00000600 D338                   MOV.L       L1282+2,R3 ; _sc0135
    00000602 6D63                   MOV         R6,R13
    00000604 2FC6                   MOV.L       R12,@-R15
    00000606 6C43                   MOV         R4,R12
    00000608 4F22                   STS.L       PR,@-R15
    0000060A 7FF8                   ADD         #-8,R15
    0000060C 430B                   JSR         @R3
    0000060E 2F72                   MOV.L       R7,@R15
      Monochrome   366            if(x&~127 || (y1<0 && y2<0) || (y1>63 && y2>63)) return;
    00000610 E380                   MOV         #-128,R3
    00000612 23C8                   TST         R12,R3
    00000614 8D02                   BT/S        L1283
    00000616 1F01                   MOV.L       R0,@(4,R15)
    00000618 A086                   BRA         L913
    0000061A 0009                   NOP
    0000061C              L1283:                            
    0000061C 4E11                   CMP/PZ      R14
    0000061E 8903                   BT          L912
    00000620 4D11                   CMP/PZ      R13
    00000622 8901                   BT          L1284
    00000624 A080                   BRA         L913
    00000626 0009                   NOP
    00000628              L1284:                            
    00000628              L912:                             
    00000628 E33F                   MOV         #63,R3
    0000062A 3E37                   CMP/GT      R3,R14
    0000062C 8B03                   BF          L910
    0000062E 3D37                   CMP/GT      R3,R13
    00000630 8B01                   BF          L1285
    00000632 A079                   BRA         L913
    00000634 0009                   NOP
    00000636              L1285:                            
    00000636              L910:                             
      Monochrome   367            if(y1 > y2)
    00000636 3ED7                   CMP/GT      R13,R14
    00000638 8B02                   BF          L914




SH SERIES C/C++ Compiler (Ver. 6.0C)                                                                 15-May-2021 18:55:24  PAGE   23


SCT OFFSET   CODE       C LABEL     INSTRUCTION OPERAND    COMMENT

      Monochrome   368            {
      Monochrome   369                    int tmp = y1;
    0000063A 64E3                   MOV         R14,R4
      Monochrome   370                    y1 = y2;
    0000063C 6ED3                   MOV         R13,R14
      Monochrome   371                    y2 = tmp;
    0000063E 6D43                   MOV         R4,R13
    00000640              L914:                             
      Monochrome   372            }
      Monochrome   373            if(y1 < 0) y1 = 0;
    00000640 4E11                   CMP/PZ      R14
    00000642 8D01                   BT/S        L915
      Monochrome   374            if(y2 > 63) y2 = 63;
    00000644 E43F                   MOV         #63,R4
    00000646 EE00                   MOV         #0,R14
    00000648              L915:                             
    00000648 3D47                   CMP/GT      R4,R13
    0000064A 8B00                   BF          L916
    0000064C 6D43                   MOV         R4,R13
    0000064E              L916:                             
      Monochrome   375    
      Monochrome   376            i = (y1<<4)+(x>>3);
    0000064E 64E3                   MOV         R14,R4
    00000650 9747                   MOV.W       L1282,R7   ; H'0080
    00000652 E607                   MOV         #7,R6
    00000654 60F2                   MOV.L       @R15,R0
    00000656 65C3                   MOV         R12,R5
    00000658 4408                   SHLL2       R4
    0000065A 4408                   SHLL2       R4
    0000065C 4521                   SHAR        R5
    0000065E 4521                   SHAR        R5
    00000660 4521                   SHAR        R5
    00000662 345C                   ADD         R5,R4
      Monochrome   377            j = (y2<<4)+(x>>3);
    00000664 4D08                   SHLL2       R13
    00000666 4D08                   SHLL2       R13
    00000668 35DC                   ADD         R13,R5
    0000066A 8801                   CMP/EQ      #1,R0
    0000066C 5DF1                   MOV.L       @(4,R15),R13
    0000066E 8D08                   BT/S        L836
    00000670 3D4C                   ADD         R4,R13
    00000672 8800                   CMP/EQ      #0,R0
    00000674 8915                   BT          L837
    00000676 8802                   CMP/EQ      #2,R0
    00000678 8923                   BT          L838
    0000067A 8803                   CMP/EQ      #3,R0
    0000067C 8934                   BT          L839
    0000067E A053                   BRA         L913
    00000680 0009                   NOP
    00000682              L836:                            ; case label 
      Monochrome   378            switch(color)
      Monochrome   379            {
      Monochrome   380                    case ML_BLACK:
      Monochrome   381                            byte = 128>>(x&7);
    00000682 2C69                   AND         R6,R12
    00000684 6CCB                   NEG         R12,R12
    00000686 6E73                   MOV         R7,R14




SH SERIES C/C++ Compiler (Ver. 6.0C)                                                                 15-May-2021 18:55:24  PAGE   24


SCT OFFSET   CODE       C LABEL     INSTRUCTION OPERAND    COMMENT

    00000688 4ECC                   SHAD        R12,R14
      Monochrome   382                            for( ; i<=j ; i+=16)
    0000068A 3457                   CMP/GT      R5,R4
    0000068C 8D4C                   BT/S        L913
    0000068E 66D3                   MOV         R13,R6
    00000690              L919:                             
      Monochrome   383                                    vram[i] |= byte;
    00000690 6260                   MOV.B       @R6,R2
    00000692 7410                   ADD         #16,R4
    00000694 22EB                   OR          R14,R2
    00000696 3457                   CMP/GT      R5,R4
    00000698 2620                   MOV.B       R2,@R6
    0000069A 8FF9                   BF/S        L919
    0000069C 7610                   ADD         #16,R6
      Monochrome   384                            break;
    0000069E A043                   BRA         L913
    000006A0 0009                   NOP
    000006A2              L837:                            ; case label 
      Monochrome   385                    case ML_WHITE:
      Monochrome   386                            byte = ~(128>>(x&7));
    000006A2 2C69                   AND         R6,R12
    000006A4 6CCB                   NEG         R12,R12
    000006A6 47CC                   SHAD        R12,R7
    000006A8 6E77                   NOT         R7,R14
      Monochrome   387                            for( ; i<=j ; i+=16)
    000006AA 3457                   CMP/GT      R5,R4
    000006AC 8D3C                   BT/S        L913
    000006AE 66D3                   MOV         R13,R6
    000006B0              L921:                             
      Monochrome   388                                    vram[i] &= byte;
    000006B0 6260                   MOV.B       @R6,R2
    000006B2 7410                   ADD         #16,R4
    000006B4 22E9                   AND         R14,R2
    000006B6 3457                   CMP/GT      R5,R4
    000006B8 2620                   MOV.B       R2,@R6
    000006BA 8FF9                   BF/S        L921
    000006BC 7610                   ADD         #16,R6
      Monochrome   389                            break;
    000006BE A033                   BRA         L913
    000006C0 0009                   NOP
    000006C2              L838:                            ; case label 
      Monochrome   390                    case ML_XOR:
      Monochrome   391                            byte = 128>>(x&7);
    000006C2 2C69                   AND         R6,R12
    000006C4 6CCB                   NEG         R12,R12
    000006C6 6E73                   MOV         R7,R14
    000006C8 4ECC                   SHAD        R12,R14
      Monochrome   392                            for( ; i<=j ; i+=16)
    000006CA 3457                   CMP/GT      R5,R4
    000006CC 8D2C                   BT/S        L913
    000006CE 66D3                   MOV         R13,R6
    000006D0              L923:                             
      Monochrome   393                                    vram[i] ^= byte;
    000006D0 6260                   MOV.B       @R6,R2
    000006D2 7410                   ADD         #16,R4
    000006D4 22EA                   XOR         R14,R2
    000006D6 3457                   CMP/GT      R5,R4




SH SERIES C/C++ Compiler (Ver. 6.0C)                                                                 15-May-2021 18:55:24  PAGE   25


SCT OFFSET   CODE       C LABEL     INSTRUCTION OPERAND    COMMENT

    000006D8 2620                   MOV.B       R2,@R6
    000006DA 8FF9                   BF/S        L923
    000006DC 7610                   ADD         #16,R6
      Monochrome   394                            break;
    000006DE A023                   BRA         L913
    000006E0 0009                   NOP
    000006E2              L1282:                            
    000006E2 0080                   .DATA.W     H'0080
    000006E4 <00000000>             .DATA.L     _sc0135
    000006E8              L839:                            ; case label 
      Monochrome   395                    case ML_CHECKER:
      Monochrome   396                            byte = 128>>(x&7);
    000006E8 26C9                   AND         R12,R6
    000006EA 666B                   NEG         R6,R6
    000006EC 6073                   MOV         R7,R0
    000006EE 406C                   SHAD        R6,R0
      Monochrome   397                            checker = y1&1^x&1;
    000006F0 E701                   MOV         #1,R7
    000006F2 27E9                   AND         R14,R7
    000006F4 E301                   MOV         #1,R3
    000006F6 2C39                   AND         R3,R12
    000006F8 27CA                   XOR         R12,R7
    000006FA 66D3                   MOV         R13,R6
    000006FC 6ED3                   MOV         R13,R14
      Monochrome   398                            for( ; i<=j ; i+=16)
    000006FE 3457                   CMP/GT      R5,R4
    00000700 8D12                   BT/S        L913
    00000702 6D07                   NOT         R0,R13
    00000704              L925:                             
      Monochrome   399                            {
      Monochrome   400                                    if(checker) vram[i] &= ~byte;
    00000704 637E                   EXTS.B      R7,R3
    00000706 2338                   TST         R3,R3
    00000708 8D04                   BT/S        L926
      Monochrome   401                                    else vram[i] |= byte;
      Monochrome   402                                    checker = !checker;
    0000070A 677E                   EXTS.B      R7,R7
    0000070C 62E0                   MOV.B       @R14,R2
    0000070E 22D9                   AND         R13,R2
    00000710 A003                   BRA         L927
    00000712 2E20                   MOV.B       R2,@R14
    00000714              L926:                             
    00000714 6160                   MOV.B       @R6,R1
    00000716 210B                   OR          R0,R1
    00000718 2610                   MOV.B       R1,@R6
    0000071A              L927:                             
    0000071A 2778                   TST         R7,R7
    0000071C 0729                   MOVT        R7
    0000071E 7410                   ADD         #16,R4
    00000720 7610                   ADD         #16,R6
    00000722 3457                   CMP/GT      R5,R4
    00000724 8FEE                   BF/S        L925
    00000726 7E10                   ADD         #16,R14
    00000728              L913:                             
      Monochrome   403                            }
      Monochrome   404                            break;
      Monochrome   405            }




SH SERIES C/C++ Compiler (Ver. 6.0C)                                                                 15-May-2021 18:55:24  PAGE   26


SCT OFFSET   CODE       C LABEL     INSTRUCTION OPERAND    COMMENT

      Monochrome   406    }
    00000728 7F08                   ADD         #8,R15
    0000072A 4F26                   LDS.L       @R15+,PR
    0000072C 6CF6                   MOV.L       @R15+,R12
    0000072E 6DF6                   MOV.L       @R15+,R13
    00000730 000B                   RTS
    00000732 6EF6                   MOV.L       @R15+,R14
      Monochrome   407    #endif
      Monochrome   408    
      Monochrome   409    #ifdef ML_RECTANGLE
      Monochrome   410    void ML_rectangle(int x1, int y1, int x2, int y2, int border_width, ML_Color border_color, ML_Color fill_c
                         +olor)
    00000734              _ML_rectangle:                   ; function: ML_rectangle
                                                           ; frame size=48
    00000734 2FE6                   MOV.L       R14,@-R15
    00000736 2FD6                   MOV.L       R13,@-R15
    00000738 2FC6                   MOV.L       R12,@-R15
    0000073A 6D43                   MOV         R4,R13
    0000073C 2FB6                   MOV.L       R11,@-R15
    0000073E 6C63                   MOV         R6,R12
    00000740 2FA6                   MOV.L       R10,@-R15
      Monochrome   411    {
      Monochrome   412            int i;
      Monochrome   413            if(x1 > x2)
    00000742 3DC7                   CMP/GT      R12,R13
    00000744 2F96                   MOV.L       R9,@-R15
    00000746 2F86                   MOV.L       R8,@-R15
    00000748 4F22                   STS.L       PR,@-R15
    0000074A 7FF0                   ADD         #-16,R15
    0000074C 5EFC                   MOV.L       @(48,R15),R14
    0000074E 8F03                   BF/S        L929
    00000750 5BFD                   MOV.L       @(52,R15),R11
      Monochrome   414            {
      Monochrome   415                    i = x1;
    00000752 64D3                   MOV         R13,R4
      Monochrome   416                    x1 = x2;
    00000754 6DC3                   MOV         R12,R13
      Monochrome   417                    x2 = i;
    00000756 6C43                   MOV         R4,R12
    00000758              L929:                             
      Monochrome   418            }
      Monochrome   419            if(y1 > y2)
    00000758 3577                   CMP/GT      R7,R5
    0000075A 8B02                   BF          L930
      Monochrome   420            {
      Monochrome   421                    i = y1;
    0000075C 6453                   MOV         R5,R4
      Monochrome   422                    y1 = y2;
    0000075E 6573                   MOV         R7,R5
      Monochrome   423                    y2 = i;
    00000760 6743                   MOV         R4,R7
    00000762              L930:                             
    00000762 64C3                   MOV         R12,R4
    00000764 34D8                   SUB         R13,R4
    00000766 E300                   MOV         #0,R3
    00000768 3347                   CMP/GT      R4,R3
    0000076A 343E                   ADDC        R3,R4




SH SERIES C/C++ Compiler (Ver. 6.0C)                                                                 15-May-2021 18:55:24  PAGE   27


SCT OFFSET   CODE       C LABEL     INSTRUCTION OPERAND    COMMENT

    0000076C 4421                   SHAR        R4
    0000076E 7401                   ADD         #1,R4
    00000770 3E47                   CMP/GT      R4,R14
    00000772 8B00                   BF          L931
      Monochrome   424            }
      Monochrome   425            if(border_width > (x2-x1)/2+1) border_width = (x2-x1)/2+1;
    00000774 6E43                   MOV         R4,R14
    00000776              L931:                             
    00000776 6473                   MOV         R7,R4
    00000778 3458                   SUB         R5,R4
    0000077A E300                   MOV         #0,R3
    0000077C 3347                   CMP/GT      R4,R3
    0000077E 343E                   ADDC        R3,R4
    00000780 4421                   SHAR        R4
    00000782 7401                   ADD         #1,R4
    00000784 3E47                   CMP/GT      R4,R14
    00000786 8F01                   BF/S        L932
    00000788 6353                   MOV         R5,R3
      Monochrome   426            if(border_width > (y2-y1)/2+1) border_width = (y2-y1)/2+1;
    0000078A 6E43                   MOV         R4,R14
    0000078C              L932:                             
    0000078C 33EC                   ADD         R14,R3
    0000078E 6873                   MOV         R7,R8
    00000790 1F33                   MOV.L       R3,@(12,R15)
    00000792 62D3                   MOV         R13,R2
    00000794 32EC                   ADD         R14,R2
    00000796 61C3                   MOV         R12,R1
    00000798 1F22                   MOV.L       R2,@(8,R15)
    0000079A 60B3                   MOV         R11,R0
    0000079C 31E8                   SUB         R14,R1
    0000079E 88FF                   CMP/EQ      #-1,R0
    000007A0 2F12                   MOV.L       R1,@R15
    000007A2 8D2D                   BT/S        L933
    000007A4 38E8                   SUB         R14,R8
    000007A6 4E15                   CMP/PL      R14
    000007A8 8B2A                   BF          L933
      Monochrome   427            if(border_color != ML_TRANSPARENT && border_width > 0)
      Monochrome   428            {
      Monochrome   429                    for(i=0 ; i<border_width ; i++)
    000007AA E300                   MOV         #0,R3
    000007AC 1F31                   MOV.L       R3,@(4,R15)
    000007AE 6973                   MOV         R7,R9
    000007B0 4E15                   CMP/PL      R14
    000007B2 8F11                   BF/S        L934
    000007B4 6A53                   MOV         R5,R10
    000007B6              L935:                             
      Monochrome   430                    {
      Monochrome   431                            ML_horizontal_line(y1+i, x1, x2, border_color);
    000007B6 67B3                   MOV         R11,R7
    000007B8 66C3                   MOV         R12,R6
    000007BA 65D3                   MOV         R13,R5
    000007BC BDC6                   BSR         _ML_horizontal_line
    000007BE 64A3                   MOV         R10,R4
      Monochrome   432                            ML_horizontal_line(y2-i, x1, x2, border_color);
    000007C0 67B3                   MOV         R11,R7
    000007C2 66C3                   MOV         R12,R6
    000007C4 65D3                   MOV         R13,R5




SH SERIES C/C++ Compiler (Ver. 6.0C)                                                                 15-May-2021 18:55:24  PAGE   28


SCT OFFSET   CODE       C LABEL     INSTRUCTION OPERAND    COMMENT

    000007C6 BDC1                   BSR         _ML_horizontal_line
    000007C8 6493                   MOV         R9,R4
    000007CA 79FF                   ADD         #-1,R9
    000007CC 52F1                   MOV.L       @(4,R15),R2
    000007CE 7201                   ADD         #1,R2
    000007D0 1F21                   MOV.L       R2,@(4,R15)
    000007D2 32E3                   CMP/GE      R14,R2
    000007D4 8FEF                   BF/S        L935
    000007D6 7A01                   ADD         #1,R10
    000007D8              L934:                             
      Monochrome   433                    }
      Monochrome   434                    for(i=y1+border_width ; i<=y2-border_width ; i++)
    000007D8 5EF3                   MOV.L       @(12,R15),R14
    000007DA 5AF2                   MOV.L       @(8,R15),R10
    000007DC 69F2                   MOV.L       @R15,R9
    000007DE 3E87                   CMP/GT      R8,R14
    000007E0 7AFF                   ADD         #-1,R10
    000007E2 8D0D                   BT/S        L933
    000007E4 7901                   ADD         #1,R9
    000007E6              L937:                             
      Monochrome   435                    {
      Monochrome   436                            ML_horizontal_line(i, x1, x1+border_width-1, border_color);
    000007E6 67B3                   MOV         R11,R7
    000007E8 66A3                   MOV         R10,R6
    000007EA 65D3                   MOV         R13,R5
    000007EC BDAE                   BSR         _ML_horizontal_line
    000007EE 64E3                   MOV         R14,R4
      Monochrome   437                            ML_horizontal_line(i, x2-border_width+1, x2, border_color);
    000007F0 67B3                   MOV         R11,R7
    000007F2 66C3                   MOV         R12,R6
    000007F4 6593                   MOV         R9,R5
    000007F6 BDA9                   BSR         _ML_horizontal_line
    000007F8 64E3                   MOV         R14,R4
    000007FA 7E01                   ADD         #1,R14
    000007FC 3E87                   CMP/GT      R8,R14
    000007FE 8BF2                   BF          L937
    00000800              L933:                             
      Monochrome   438                    }
      Monochrome   439            }
      Monochrome   440            if(fill_color != ML_TRANSPARENT)
    00000800 50FE                   MOV.L       @(56,R15),R0
    00000802 88FF                   CMP/EQ      #-1,R0
    00000804 890A                   BT          L938
      Monochrome   441            {
      Monochrome   442                    for(i=y1+border_width ; i<=y2-border_width ; i++)
    00000806 5EF3                   MOV.L       @(12,R15),R14
    00000808 3E87                   CMP/GT      R8,R14
    0000080A 8907                   BT          L938
    0000080C              L940:                             
      Monochrome   443                            ML_horizontal_line(i, x1+border_width, x2-border_width, fill_color);
    0000080C 57FE                   MOV.L       @(56,R15),R7
    0000080E 66F2                   MOV.L       @R15,R6
    00000810 55F2                   MOV.L       @(8,R15),R5
    00000812 BD9B                   BSR         _ML_horizontal_line
    00000814 64E3                   MOV         R14,R4
    00000816 7E01                   ADD         #1,R14
    00000818 3E87                   CMP/GT      R8,R14




SH SERIES C/C++ Compiler (Ver. 6.0C)                                                                 15-May-2021 18:55:24  PAGE   29


SCT OFFSET   CODE       C LABEL     INSTRUCTION OPERAND    COMMENT

    0000081A 8BF7                   BF          L940
    0000081C              L938:                             
      Monochrome   444            }
      Monochrome   445    }
    0000081C 7F10                   ADD         #16,R15
    0000081E 4F26                   LDS.L       @R15+,PR
    00000820 68F6                   MOV.L       @R15+,R8
    00000822 69F6                   MOV.L       @R15+,R9
    00000824 6AF6                   MOV.L       @R15+,R10
    00000826 6BF6                   MOV.L       @R15+,R11
    00000828 6CF6                   MOV.L       @R15+,R12
    0000082A 6DF6                   MOV.L       @R15+,R13
    0000082C 000B                   RTS
    0000082E 6EF6                   MOV.L       @R15+,R14
      Monochrome   446    #endif
      Monochrome   447    
      Monochrome   448    #ifdef ML_POLYGON
      Monochrome   449    void ML_polygon(const int *x, const int *y, int nb_vertices, ML_Color color)
    00000830              _ML_polygon:                     ; function: ML_polygon
                                                           ; frame size=44
    00000830 2FE6                   MOV.L       R14,@-R15
      Monochrome   450    {
      Monochrome   451            int i;
      Monochrome   452            if(nb_vertices < 1) return;
    00000832 E301                   MOV         #1,R3
    00000834 2FD6                   MOV.L       R13,@-R15
    00000836 3633                   CMP/GE      R3,R6
    00000838 2FC6                   MOV.L       R12,@-R15
    0000083A 6D43                   MOV         R4,R13
    0000083C 2FB6                   MOV.L       R11,@-R15
    0000083E 6C53                   MOV         R5,R12
    00000840 2FA6                   MOV.L       R10,@-R15
    00000842 2F96                   MOV.L       R9,@-R15
    00000844 2F86                   MOV.L       R8,@-R15
    00000846 4F22                   STS.L       PR,@-R15
    00000848 7FF8                   ADD         #-8,R15
    0000084A 8F21                   BF/S        L942
    0000084C 2F72                   MOV.L       R7,@R15
    0000084E 6863                   MOV         R6,R8
    00000850 78FF                   ADD         #-1,R8
      Monochrome   453            for(i=0 ; i<nb_vertices-1 ; i++)
    00000852 4815                   CMP/PL      R8
    00000854 8F11                   BF/S        L943
    00000856 EE00                   MOV         #0,R14
    00000858              L944:                             
      Monochrome   454                    ML_line(x[i], y[i], x[i+1], y[i+1], color);
    00000858 62F2                   MOV.L       @R15,R2
    0000085A 69E3                   MOV         R14,R9
    0000085C 2F26                   MOV.L       R2,@-R15
    0000085E 4908                   SHLL2       R9
    00000860 6A93                   MOV         R9,R10
    00000862 3ACC                   ADD         R12,R10
    00000864 57A1                   MOV.L       @(4,R10),R7
    00000866 6B93                   MOV         R9,R11
    00000868 65A2                   MOV.L       @R10,R5
    0000086A 3BDC                   ADD         R13,R11
    0000086C 56B1                   MOV.L       @(4,R11),R6




SH SERIES C/C++ Compiler (Ver. 6.0C)                                                                 15-May-2021 18:55:24  PAGE   30


SCT OFFSET   CODE       C LABEL     INSTRUCTION OPERAND    COMMENT

    0000086E BD00                   BSR         _ML_line
    00000870 64B2                   MOV.L       @R11,R4
    00000872 7E01                   ADD         #1,R14
    00000874 3E83                   CMP/GE      R8,R14
    00000876 8FEF                   BF/S        L944
    00000878 7F04                   ADD         #4,R15
    0000087A              L943:                             
      Monochrome   455            ML_line(x[i], y[i], x[0], y[0], color);
    0000087A 60E3                   MOV         R14,R0
    0000087C 63F2                   MOV.L       @R15,R3
    0000087E 4008                   SHLL2       R0
    00000880 2F36                   MOV.L       R3,@-R15
    00000882 67C2                   MOV.L       @R12,R7
    00000884 66D2                   MOV.L       @R13,R6
    00000886 1F02                   MOV.L       R0,@(8,R15)
    00000888 05CE                   MOV.L       @(R0,R12),R5
    0000088A BCF2                   BSR         _ML_line
    0000088C 04DE                   MOV.L       @(R0,R13),R4
    0000088E 7F04                   ADD         #4,R15
      Monochrome   456    }
    00000890              L942:                             
    00000890 7F08                   ADD         #8,R15
    00000892 4F26                   LDS.L       @R15+,PR
    00000894 68F6                   MOV.L       @R15+,R8
    00000896 69F6                   MOV.L       @R15+,R9
    00000898 6AF6                   MOV.L       @R15+,R10
    0000089A 6BF6                   MOV.L       @R15+,R11
    0000089C 6CF6                   MOV.L       @R15+,R12
    0000089E 6DF6                   MOV.L       @R15+,R13
    000008A0 000B                   RTS
    000008A2 6EF6                   MOV.L       @R15+,R14
      Monochrome   457    #endif
      Monochrome   458    
      Monochrome   459    #ifdef ML_FILLED_POLYGON
      Monochrome   460    static int ML_filled_polygon_quicksord_partition(int *t, int p, int r)
    000008A4              __$ML_filled_polygon_quicksord_partition:
                                                           ; function: ML_filled_polygon_quicksord_partition
                                                           ; frame size=20
    000008A4 2FE6                   MOV.L       R14,@-R15
      Monochrome   461    {
      Monochrome   462            int i, j, x, tmp;
      Monochrome   463            j = p - 1;
      Monochrome   464            x = t[r];
      Monochrome   465            for(i=p ; i<r ; i++)
    000008A6 6753                   MOV         R5,R7
    000008A8 2FD6                   MOV.L       R13,@-R15
    000008AA 6E53                   MOV         R5,R14
    000008AC 2FC6                   MOV.L       R12,@-R15
    000008AE 3763                   CMP/GE      R6,R7
    000008B0 7FF8                   ADD         #-8,R15
    000008B2 7EFF                   ADD         #-1,R14
    000008B4 6C63                   MOV         R6,R12
    000008B6 4C08                   SHLL2       R12
    000008B8 3C4C                   ADD         R4,R12
    000008BA 4508                   SHLL2       R5
    000008BC 1FC1                   MOV.L       R12,@(4,R15)
    000008BE 354C                   ADD         R4,R5




SH SERIES C/C++ Compiler (Ver. 6.0C)                                                                 15-May-2021 18:55:24  PAGE   31


SCT OFFSET   CODE       C LABEL     INSTRUCTION OPERAND    COMMENT

    000008C0 6CC2                   MOV.L       @R12,R12
    000008C2 2F52                   MOV.L       R5,@R15
    000008C4 8D10                   BT/S        L945
    000008C6 6D53                   MOV         R5,R13
    000008C8              L946:                             
      Monochrome   466            {
      Monochrome   467                    if(x > t[i])
    000008C8 62D2                   MOV.L       @R13,R2
    000008CA 3C27                   CMP/GT      R2,R12
    000008CC 8F08                   BF/S        L947
    000008CE 7701                   ADD         #1,R7
      Monochrome   468                    {
      Monochrome   469                            j++;
      Monochrome   470                            tmp = t[j];
      Monochrome   471                            t[j] = t[i];
    000008D0 6352                   MOV.L       @R5,R3
    000008D2 7E01                   ADD         #1,R14
    000008D4 60E3                   MOV         R14,R0
    000008D6 4008                   SHLL2       R0
    000008D8 304C                   ADD         R4,R0
    000008DA 6102                   MOV.L       @R0,R1
    000008DC 2032                   MOV.L       R3,@R0
      Monochrome   472                            t[i] = tmp;
    000008DE 2512                   MOV.L       R1,@R5
    000008E0              L947:                             
    000008E0 7504                   ADD         #4,R5
    000008E2 3763                   CMP/GE      R6,R7
    000008E4 8FF0                   BF/S        L946
    000008E6 7D04                   ADD         #4,R13
    000008E8              L945:                             
      Monochrome   473                    }
      Monochrome   474            }
      Monochrome   475            t[r] = t[j+1];
    000008E8 53F1                   MOV.L       @(4,R15),R3
    000008EA 65E3                   MOV         R14,R5
    000008EC 4508                   SHLL2       R5
    000008EE 354C                   ADD         R4,R5
    000008F0 7504                   ADD         #4,R5
      Monochrome   476            t[j+1] = x;
      Monochrome   477            return j + 1;
    000008F2 60E3                   MOV         R14,R0
    000008F4 6252                   MOV.L       @R5,R2
    000008F6 7001                   ADD         #1,R0
    000008F8 2322                   MOV.L       R2,@R3
    000008FA 25C2                   MOV.L       R12,@R5
      Monochrome   478    }
    000008FC 7F08                   ADD         #8,R15
    000008FE 6CF6                   MOV.L       @R15+,R12
    00000900 6DF6                   MOV.L       @R15+,R13
    00000902 000B                   RTS
    00000904 6EF6                   MOV.L       @R15+,R14
      Monochrome   479    
      Monochrome   480    static void ML_filled_polygon_quicksord(int* t, int p, int r)
    00000906              __$ML_filled_polygon_quicksord:  ; function: ML_filled_polygon_quicksord
                                                           ; frame size=20
    00000906 2FE6                   MOV.L       R14,@-R15
    00000908 2FD6                   MOV.L       R13,@-R15




SH SERIES C/C++ Compiler (Ver. 6.0C)                                                                 15-May-2021 18:55:24  PAGE   32


SCT OFFSET   CODE       C LABEL     INSTRUCTION OPERAND    COMMENT

    0000090A 6E53                   MOV         R5,R14
    0000090C 2FC6                   MOV.L       R12,@-R15
    0000090E 6D63                   MOV         R6,R13
    00000910 4F22                   STS.L       PR,@-R15
    00000912 7FFC                   ADD         #-4,R15
    00000914 2F42                   MOV.L       R4,@R15
    00000916              L949:                             
      Monochrome   481    {
      Monochrome   482            int q;
      Monochrome   483            if(p < r)
    00000916 3ED3                   CMP/GE      R13,R14
    00000918 890E                   BT          L950
      Monochrome   484            {
      Monochrome   485                    q = ML_filled_polygon_quicksord_partition(t, p, r);
    0000091A 66D3                   MOV         R13,R6
    0000091C 65E3                   MOV         R14,R5
    0000091E BFC1                   BSR         __$ML_filled_polygon_quicksord_partition
    00000920 64F2                   MOV.L       @R15,R4
    00000922 6C03                   MOV         R0,R12
      Monochrome   486                    ML_filled_polygon_quicksord(t, p, q-1);
    00000924 6603                   MOV         R0,R6
    00000926 76FF                   ADD         #-1,R6
    00000928 65E3                   MOV         R14,R5
    0000092A BFEC                   BSR         __$ML_filled_polygon_quicksord
    0000092C 64F2                   MOV.L       @R15,R4
      Monochrome   487                    ML_filled_polygon_quicksord(t, q+1, r);
    0000092E 65D3                   MOV         R13,R5
    00000930 64C3                   MOV         R12,R4
    00000932 7401                   ADD         #1,R4
    00000934 AFEF                   BRA         L949
    00000936 6E43                   MOV         R4,R14
    00000938              L950:                             
      Monochrome   488            }
      Monochrome   489    }
    00000938 7F04                   ADD         #4,R15
    0000093A 4F26                   LDS.L       @R15+,PR
    0000093C 6CF6                   MOV.L       @R15+,R12
    0000093E 6DF6                   MOV.L       @R15+,R13
    00000940 000B                   RTS
    00000942 6EF6                   MOV.L       @R15+,R14
      Monochrome   490    
      Monochrome   491    
      Monochrome   492    void ML_filled_polygon(const int *x, const int *y, int nb_vertices, ML_Color color)
    00000944              _ML_filled_polygon:              ; function: ML_filled_polygon
                                                           ; frame size=108
                                                           ; used runtime library name:
                                                           ; __divls, __modls, __addd, __dtoi, __itod
    00000944 2FE6                   MOV.L       R14,@-R15
      Monochrome   493    {
      Monochrome   494            int i, j, dx, dy, ymin, ymax;
      Monochrome   495            int *cut_in_line, nb_cut;
      Monochrome   496            if(nb_vertices < 3) return;
    00000946 E303                   MOV         #3,R3
    00000948 2FD6                   MOV.L       R13,@-R15
    0000094A 2FC6                   MOV.L       R12,@-R15
    0000094C 2FB6                   MOV.L       R11,@-R15
    0000094E 6B63                   MOV         R6,R11




SH SERIES C/C++ Compiler (Ver. 6.0C)                                                                 15-May-2021 18:55:24  PAGE   33


SCT OFFSET   CODE       C LABEL     INSTRUCTION OPERAND    COMMENT

    00000950 2FA6                   MOV.L       R10,@-R15
    00000952 3B33                   CMP/GE      R3,R11
    00000954 2F96                   MOV.L       R9,@-R15
    00000956 6A53                   MOV         R5,R10
    00000958 2F86                   MOV.L       R8,@-R15
    0000095A 4F22                   STS.L       PR,@-R15
    0000095C 4F12                   STS.L       MACL,@-R15
    0000095E 7FD8                   ADD         #-40,R15
    00000960 1F44                   MOV.L       R4,@(16,R15)
    00000962 8D02                   BT/S        L1286
    00000964 1F73                   MOV.L       R7,@(12,R15)
    00000966 A100                   BRA         L952
    00000968 0009                   NOP
    0000096A              L1286:                            
      Monochrome   497            cut_in_line = malloc(nb_vertices*sizeof(int));
    0000096A 64B3                   MOV         R11,R4
    0000096C D384                   MOV.L       L1287,R3   ; _malloc
    0000096E 430B                   JSR         @R3
    00000970 4408                   SHLL2       R4
    00000972 6D03                   MOV         R0,R13
      Monochrome   498            if(!cut_in_line) return;
    00000974 2DD8                   TST         R13,R13
    00000976 8B01                   BF          L1288
    00000978 A0F7                   BRA         L952
    0000097A 0009                   NOP
    0000097C              L1288:                            
      Monochrome   499            ymin = ymax = y[0];
    0000097C 6EA2                   MOV.L       @R10,R14
      Monochrome   500            for(i=1 ; i<nb_vertices ; i++)
    0000097E E801                   MOV         #1,R8
    00000980 1FE6                   MOV.L       R14,@(24,R15)
    00000982 E704                   MOV         #4,R7
    00000984 6483                   MOV         R8,R4
    00000986 37AC                   ADD         R10,R7
    00000988 6573                   MOV         R7,R5
    0000098A 34B3                   CMP/GE      R11,R4
    0000098C 8D12                   BT/S        L954
    0000098E 6673                   MOV         R7,R6
    00000990              L955:                             
      Monochrome   501            {
      Monochrome   502                    if(y[i] < ymin) ymin = y[i];
    00000990 6043                   MOV         R4,R0
    00000992 4008                   SHLL2       R0
    00000994 03AE                   MOV.L       @(R0,R10),R3
    00000996 33E3                   CMP/GE      R14,R3
    00000998 8900                   BT          L956
    0000099A 6E72                   MOV.L       @R7,R14
    0000099C              L956:                             
      Monochrome   503                    if(y[i] > ymax) ymax = y[i];
    0000099C 53F6                   MOV.L       @(24,R15),R3
    0000099E 6262                   MOV.L       @R6,R2
    000009A0 3237                   CMP/GT      R3,R2
    000009A2 8F02                   BF/S        L957
    000009A4 7401                   ADD         #1,R4
    000009A6 6252                   MOV.L       @R5,R2
    000009A8 1F26                   MOV.L       R2,@(24,R15)
    000009AA              L957:                             




SH SERIES C/C++ Compiler (Ver. 6.0C)                                                                 15-May-2021 18:55:24  PAGE   34


SCT OFFSET   CODE       C LABEL     INSTRUCTION OPERAND    COMMENT

    000009AA 7504                   ADD         #4,R5
    000009AC 7604                   ADD         #4,R6
    000009AE 34B3                   CMP/GE      R11,R4
    000009B0 8FEE                   BF/S        L955
    000009B2 7704                   ADD         #4,R7
    000009B4              L954:                             
      Monochrome   504            }
      Monochrome   505            for(i=ymin ; i<=ymax ; i++)
    000009B4 A0C7                   BRA         L958
    000009B6 6CE3                   MOV         R14,R12
    000009B8              L959:                             
      Monochrome   506            {
      Monochrome   507                    nb_cut = 0;
    000009B8 E900                   MOV         #0,R9
      Monochrome   508                    for(j=0 ; j<nb_vertices ; j++)
    000009BA 6E93                   MOV         R9,R14
    000009BC 6393                   MOV         R9,R3
    000009BE 4B15                   CMP/PL      R11
    000009C0 2F32                   MOV.L       R3,@R15
    000009C2 1F81                   MOV.L       R8,@(4,R15)
    000009C4 8F73                   BF/S        L960
    000009C6 1F82                   MOV.L       R8,@(8,R15)
    000009C8              L961:                             
      Monochrome   509                    {
      Monochrome   510                            if((y[j]<=i && y[(j+1)%nb_vertices]>=i) || (y[j]>=i && y[(j+1)%nb_vertices]<=i))
    000009C8 60E3                   MOV         R14,R0
    000009CA 4008                   SHLL2       R0
    000009CC 04AE                   MOV.L       @(R0,R10),R4
    000009CE 34C7                   CMP/GT      R12,R4
    000009D0 8908                   BT          L964
    000009D2 61E3                   MOV         R14,R1
    000009D4 D36B                   MOV.L       L1287+4,R3 ; __modls
    000009D6 7101                   ADD         #1,R1
    000009D8 430B                   JSR         @R3
    000009DA 60B3                   MOV         R11,R0
    000009DC 4008                   SHLL2       R0
    000009DE 02AE                   MOV.L       @(R0,R10),R2
    000009E0 32C3                   CMP/GE      R12,R2
    000009E2 890A                   BT          L963
    000009E4              L964:                             
    000009E4 34C3                   CMP/GE      R12,R4
    000009E6 8B56                   BF          L962
    000009E8 D366                   MOV.L       L1287+4,R3 ; __modls
    000009EA 61E3                   MOV         R14,R1
    000009EC 7101                   ADD         #1,R1
    000009EE 430B                   JSR         @R3
    000009F0 60B3                   MOV         R11,R0
    000009F2 4008                   SHLL2       R0
    000009F4 02AE                   MOV.L       @(R0,R10),R2
    000009F6 32C7                   CMP/GT      R12,R2
    000009F8 894D                   BT          L962
    000009FA              L963:                             
      Monochrome   511                            {
      Monochrome   512                                    dy = abs(y[j]-y[(j+1)%nb_vertices]);
    000009FA 60E3                   MOV         R14,R0
    000009FC 51F2                   MOV.L       @(8,R15),R1
    000009FE 4008                   SHLL2       R0




SH SERIES C/C++ Compiler (Ver. 6.0C)                                                                 15-May-2021 18:55:24  PAGE   35


SCT OFFSET   CODE       C LABEL     INSTRUCTION OPERAND    COMMENT

    00000A00 D360                   MOV.L       L1287+4,R3 ; __modls
    00000A02 04AE                   MOV.L       @(R0,R10),R4
    00000A04 430B                   JSR         @R3
    00000A06 60B3                   MOV         R11,R0
    00000A08 D25F                   MOV.L       L1287+8,R2 ; _abs
    00000A0A 4008                   SHLL2       R0
    00000A0C 03AE                   MOV.L       @(R0,R10),R3
    00000A0E 420B                   JSR         @R2
    00000A10 3438                   SUB         R3,R4
      Monochrome   513                                    if(dy)
    00000A12 2008                   TST         R0,R0
    00000A14 8D3F                   BT/S        L962
    00000A16 1F05                   MOV.L       R0,@(20,R15)
      Monochrome   514                                    {
      Monochrome   515                                            dx = x[(j+1)%nb_vertices]-x[j];
    00000A18 51F1                   MOV.L       @(4,R15),R1
    00000A1A D25A                   MOV.L       L1287+4,R2 ; __modls
    00000A1C 420B                   JSR         @R2
    00000A1E 60B3                   MOV         R11,R0
    00000A20 53F4                   MOV.L       @(16,R15),R3
      Monochrome   516                                            cut_in_line[nb_cut] = x[j] + rnd(abs(i-y[j]+sgn(i-y[j])/2)*dx/dy);
    00000A22 64C3                   MOV         R12,R4
    00000A24 4008                   SHLL2       R0
    00000A26 023E                   MOV.L       @(R0,R3),R2
    00000A28 60F2                   MOV.L       @R15,R0
    00000A2A 013E                   MOV.L       @(R0,R3),R1
    00000A2C 1F18                   MOV.L       R1,@(32,R15)
    00000A2E 3218                   SUB         R1,R2
    00000A30 1F27                   MOV.L       R2,@(28,R15)
    00000A32 6193                   MOV         R9,R1
    00000A34 4108                   SHLL2       R1
    00000A36 31DC                   ADD         R13,R1
    00000A38 2F16                   MOV.L       R1,@-R15
    00000A3A 7FF8                   ADD         #-8,R15
    00000A3C 50F3                   MOV.L       @(12,R15),R0
    00000A3E 02AE                   MOV.L       @(R0,R10),R2
    00000A40 3428                   SUB         R2,R4
    00000A42 4411                   CMP/PZ      R4
    00000A44 8D02                   BT/S        L966
    00000A46 1F2C                   MOV.L       R2,@(48,R15)
    00000A48 A001                   BRA         L967
    00000A4A E4FF                   MOV         #-1,R4
    00000A4C              L966:                             
    00000A4C E401                   MOV         #1,R4
    00000A4E              L967:                             
    00000A4E E300                   MOV         #0,R3
    00000A50 52FC                   MOV.L       @(48,R15),R2
    00000A52 3347                   CMP/GT      R4,R3
    00000A54 343E                   ADDC        R3,R4
    00000A56 4421                   SHAR        R4
    00000A58 D34B                   MOV.L       L1287+8,R3 ; _abs
    00000A5A 3428                   SUB         R2,R4
    00000A5C 430B                   JSR         @R3
    00000A5E 34CC                   ADD         R12,R4
    00000A60 51FA                   MOV.L       @(40,R15),R1
    00000A62 0017                   MUL.L       R1,R0
    00000A64 D349                   MOV.L       L1287+12,R3; __divls




SH SERIES C/C++ Compiler (Ver. 6.0C)                                                                 15-May-2021 18:55:24  PAGE   36


SCT OFFSET   CODE       C LABEL     INSTRUCTION OPERAND    COMMENT

    00000A66 011A                   STS         MACL,R1
    00000A68 430B                   JSR         @R3
    00000A6A 50F8                   MOV.L       @(32,R15),R0
    00000A6C D248                   MOV.L       L1287+16,R2; __itod
    00000A6E 7FF8                   ADD         #-8,R15
    00000A70 420B                   JSR         @R2
    00000A72 2FF6                   MOV.L       R15,@-R15
    00000A74 D148                   MOV.L       L1287+24,R1; __addd
    00000A76 E300                   MOV         #0,R3
    00000A78 2F36                   MOV.L       R3,@-R15
    00000A7A D346                   MOV.L       L1287+20,R3; H'3FE00000
    00000A7C 2F36                   MOV.L       R3,@-R15
    00000A7E 62F3                   MOV         R15,R2
    00000A80 7210                   ADD         #16,R2
    00000A82 410B                   JSR         @R1
    00000A84 2F26                   MOV.L       R2,@-R15
    00000A86 D345                   MOV.L       L1287+28,R3; __dtoi
    00000A88 430B                   JSR         @R3
    00000A8A 0009                   NOP
    00000A8C 52F9                   MOV.L       @(36,R15),R2
      Monochrome   517                                            nb_cut++;
    00000A8E 7901                   ADD         #1,R9
    00000A90 63F6                   MOV.L       @R15+,R3
    00000A92 302C                   ADD         R2,R0
    00000A94 2302                   MOV.L       R0,@R3
    00000A96              L962:                             
    00000A96 7E01                   ADD         #1,R14
    00000A98 62F2                   MOV.L       @R15,R2
    00000A9A 3EB3                   CMP/GE      R11,R14
    00000A9C 7204                   ADD         #4,R2
    00000A9E 2F22                   MOV.L       R2,@R15
    00000AA0 53F1                   MOV.L       @(4,R15),R3
    00000AA2 7301                   ADD         #1,R3
    00000AA4 1F31                   MOV.L       R3,@(4,R15)
    00000AA6 51F2                   MOV.L       @(8,R15),R1
    00000AA8 7101                   ADD         #1,R1
    00000AAA 8F8D                   BF/S        L961
    00000AAC 1F12                   MOV.L       R1,@(8,R15)
    00000AAE              L960:                             
      Monochrome   518                                    }
      Monochrome   519                            }
      Monochrome   520                    }
      Monochrome   521                    ML_filled_polygon_quicksord(cut_in_line, 0, nb_cut-1);
    00000AAE 6693                   MOV         R9,R6
    00000AB0 76FF                   ADD         #-1,R6
    00000AB2 E500                   MOV         #0,R5
    00000AB4 1F61                   MOV.L       R6,@(4,R15)
    00000AB6 BF26                   BSR         __$ML_filled_polygon_quicksord
    00000AB8 64D3                   MOV         R13,R4
      Monochrome   522                    j = 0;
    00000ABA EE00                   MOV         #0,R14
    00000ABC 6493                   MOV         R9,R4
      Monochrome   523                    while(j<nb_cut-2 && cut_in_line[j]==cut_in_line[j+1]) j++;
    00000ABE A001                   BRA         L968
    00000AC0 74FE                   ADD         #-2,R4
    00000AC2              L969:                             
    00000AC2 7E01                   ADD         #1,R14




SH SERIES C/C++ Compiler (Ver. 6.0C)                                                                 15-May-2021 18:55:24  PAGE   37


SCT OFFSET   CODE       C LABEL     INSTRUCTION OPERAND    COMMENT

    00000AC4              L968:                             
    00000AC4 3E43                   CMP/GE      R4,R14
    00000AC6 893B                   BT          L971
    00000AC8 60E3                   MOV         R14,R0
    00000ACA 4008                   SHLL2       R0
    00000ACC 03DE                   MOV.L       @(R0,R13),R3
    00000ACE 62E3                   MOV         R14,R2
    00000AD0 4208                   SHLL2       R2
    00000AD2 32DC                   ADD         R13,R2
    00000AD4 5121                   MOV.L       @(4,R2),R1
    00000AD6 3310                   CMP/EQ      R1,R3
    00000AD8 89F3                   BT          L969
      Monochrome   524                    while(j < nb_cut)
    00000ADA A031                   BRA         L971
    00000ADC 0009                   NOP
    00000ADE              L972:                             
    00000ADE 63E3                   MOV         R14,R3
    00000AE0 4308                   SHLL2       R3
    00000AE2 33DC                   ADD         R13,R3
    00000AE4 1F32                   MOV.L       R3,@(8,R15)
    00000AE6 52F1                   MOV.L       @(4,R15),R2
    00000AE8 3E20                   CMP/EQ      R2,R14
    00000AEA 8B0A                   BF          L973
      Monochrome   525                    {
      Monochrome   526                            if(j == nb_cut-1) ML_horizontal_line(i, cut_in_line[j-1]+1, cut_in_line[j], color)
                         +;
    00000AEC 57F3                   MOV.L       @(12,R15),R7
    00000AEE 60E3                   MOV         R14,R0
    00000AF0 6632                   MOV.L       @R3,R6
    00000AF2 70FF                   ADD         #-1,R0
    00000AF4 4008                   SHLL2       R0
    00000AF6 05DE                   MOV.L       @(R0,R13),R5
    00000AF8 7501                   ADD         #1,R5
    00000AFA BC27                   BSR         _ML_horizontal_line
    00000AFC 64C3                   MOV         R12,R4
    00000AFE A01E                   BRA         L974
    00000B00 0009                   NOP
    00000B02              L973:                             
      Monochrome   527                            else
      Monochrome   528                            {
      Monochrome   529                                    dx = 1;
      Monochrome   530                                    while(j+dx<nb_cut-1 && cut_in_line[j+dx]==cut_in_line[j+dx+1]) dx++;
    00000B02 A003                   BRA         L975
    00000B04 2F82                   MOV.L       R8,@R15
    00000B06              L976:                             
    00000B06 63F2                   MOV.L       @R15,R3
    00000B08 7301                   ADD         #1,R3
    00000B0A 2F32                   MOV.L       R3,@R15
    00000B0C              L975:                             
    00000B0C 64F2                   MOV.L       @R15,R4
    00000B0E 34EC                   ADD         R14,R4
    00000B10 53F1                   MOV.L       @(4,R15),R3
    00000B12 3433                   CMP/GE      R3,R4
    00000B14 8908                   BT          L977
    00000B16 6043                   MOV         R4,R0
    00000B18 4008                   SHLL2       R0
    00000B1A 6243                   MOV         R4,R2




SH SERIES C/C++ Compiler (Ver. 6.0C)                                                                 15-May-2021 18:55:24  PAGE   38


SCT OFFSET   CODE       C LABEL     INSTRUCTION OPERAND    COMMENT

    00000B1C 03DE                   MOV.L       @(R0,R13),R3
    00000B1E 4208                   SHLL2       R2
    00000B20 32DC                   ADD         R13,R2
    00000B22 5121                   MOV.L       @(4,R2),R1
    00000B24 3310                   CMP/EQ      R1,R3
    00000B26 89EE                   BT          L976
    00000B28              L977:                             
      Monochrome   531                                    ML_horizontal_line(i, cut_in_line[j], cut_in_line[j+dx], color);
    00000B28 57F3                   MOV.L       @(12,R15),R7
    00000B2A 60F2                   MOV.L       @R15,R0
    00000B2C 55F2                   MOV.L       @(8,R15),R5
    00000B2E 30EC                   ADD         R14,R0
    00000B30 6552                   MOV.L       @R5,R5
    00000B32 4008                   SHLL2       R0
    00000B34 06DE                   MOV.L       @(R0,R13),R6
    00000B36 BC09                   BSR         _ML_horizontal_line
    00000B38 64C3                   MOV         R12,R4
      Monochrome   532                                    j += dx;
    00000B3A 62F2                   MOV.L       @R15,R2
    00000B3C 3E2C                   ADD         R2,R14
    00000B3E              L974:                             
      Monochrome   533                            }
      Monochrome   534                            j++;
    00000B3E 7E01                   ADD         #1,R14
    00000B40              L971:                             
    00000B40 3E93                   CMP/GE      R9,R14
    00000B42 8BCC                   BF          L972
    00000B44 7C01                   ADD         #1,R12
    00000B46              L958:                             
    00000B46 52F6                   MOV.L       @(24,R15),R2
    00000B48 3C27                   CMP/GT      R2,R12
    00000B4A 8901                   BT          L1289
    00000B4C AF34                   BRA         L959
    00000B4E 0009                   NOP
    00000B50              L1289:                            
      Monochrome   535                    }
      Monochrome   536            }
      Monochrome   537            free(cut_in_line);
    00000B50 D213                   MOV.L       L1287+32,R2; _free
    00000B52 64D3                   MOV         R13,R4
    00000B54 7F28                   ADD         #40,R15
    00000B56 4F16                   LDS.L       @R15+,MACL
    00000B58 4F26                   LDS.L       @R15+,PR
    00000B5A 68F6                   MOV.L       @R15+,R8
    00000B5C 69F6                   MOV.L       @R15+,R9
    00000B5E 6AF6                   MOV.L       @R15+,R10
    00000B60 6BF6                   MOV.L       @R15+,R11
    00000B62 6CF6                   MOV.L       @R15+,R12
    00000B64 6DF6                   MOV.L       @R15+,R13
    00000B66 422B                   JMP         @R2
    00000B68 6EF6                   MOV.L       @R15+,R14
    00000B6A              L952:                             
      Monochrome   538    }
    00000B6A 7F28                   ADD         #40,R15
    00000B6C 4F16                   LDS.L       @R15+,MACL
    00000B6E 4F26                   LDS.L       @R15+,PR
    00000B70 68F6                   MOV.L       @R15+,R8




SH SERIES C/C++ Compiler (Ver. 6.0C)                                                                 15-May-2021 18:55:24  PAGE   39


SCT OFFSET   CODE       C LABEL     INSTRUCTION OPERAND    COMMENT

    00000B72 69F6                   MOV.L       @R15+,R9
    00000B74 6AF6                   MOV.L       @R15+,R10
    00000B76 6BF6                   MOV.L       @R15+,R11
    00000B78 6CF6                   MOV.L       @R15+,R12
    00000B7A 6DF6                   MOV.L       @R15+,R13
    00000B7C 000B                   RTS
    00000B7E 6EF6                   MOV.L       @R15+,R14
    00000B80              L1287:                            
    00000B80 <00000000>             .DATA.L     _malloc
    00000B84 <00000000>             .DATA.L     __modls
    00000B88 <00000000>             .DATA.L     _abs
    00000B8C <00000000>             .DATA.L     __divls
    00000B90 <00000000>             .DATA.L     __itod
    00000B94 3FE00000               .DATA.L     H'3FE00000
    00000B98 <00000000>             .DATA.L     __addd
    00000B9C <00000000>             .DATA.L     __dtoi
    00000BA0 <00000000>             .DATA.L     _free
      Monochrome   539    #endif
      Monochrome   540    
      Monochrome   541    #ifdef ML_CIRCLE
      Monochrome   542    void ML_circle(int x, int y, int radius, ML_Color color)
    00000BA4              _ML_circle:                      ; function: ML_circle
                                                           ; frame size=40
    00000BA4 2FE6                   MOV.L       R14,@-R15
    00000BA6 2FD6                   MOV.L       R13,@-R15
    00000BA8 2FC6                   MOV.L       R12,@-R15
    00000BAA 2FB6                   MOV.L       R11,@-R15
    00000BAC 2FA6                   MOV.L       R10,@-R15
    00000BAE 6B53                   MOV         R5,R11
    00000BB0 2F96                   MOV.L       R9,@-R15
    00000BB2 6A43                   MOV         R4,R10
    00000BB4 2F86                   MOV.L       R8,@-R15
    00000BB6 6863                   MOV         R6,R8
    00000BB8 4F22                   STS.L       PR,@-R15
      Monochrome   543    {
      Monochrome   544            int plot_x, plot_y, d;
      Monochrome   545    
      Monochrome   546            if(radius < 0) return;
    00000BBA 4811                   CMP/PZ      R8
    00000BBC 7FF8                   ADD         #-8,R15
    00000BBE 8F60                   BF/S        L979
    00000BC0 6C73                   MOV         R7,R12
      Monochrome   547            plot_x = 0;
    00000BC2 ED00                   MOV         #0,R13
      Monochrome   548            plot_y = radius;
    00000BC4 6E83                   MOV         R8,R14
      Monochrome   549            d = 1 - radius;
    00000BC6 E901                   MOV         #1,R9
    00000BC8 3988                   SUB         R8,R9
      Monochrome   550    
      Monochrome   551            ML_pixel(x, y+plot_y, color);
    00000BCA 66C3                   MOV         R12,R6
    00000BCC 65B3                   MOV         R11,R5
    00000BCE 35EC                   ADD         R14,R5
    00000BD0 BA9C                   BSR         _ML_pixel
    00000BD2 64A3                   MOV         R10,R4
      Monochrome   552            if(radius)




SH SERIES C/C++ Compiler (Ver. 6.0C)                                                                 15-May-2021 18:55:24  PAGE   40


SCT OFFSET   CODE       C LABEL     INSTRUCTION OPERAND    COMMENT

    00000BD4 2888                   TST         R8,R8
    00000BD6 890E                   BT          L980
      Monochrome   553            {
      Monochrome   554                    ML_pixel(x, y-plot_y, color);
    00000BD8 66C3                   MOV         R12,R6
    00000BDA 65B3                   MOV         R11,R5
    00000BDC 35E8                   SUB         R14,R5
    00000BDE BA95                   BSR         _ML_pixel
    00000BE0 64A3                   MOV         R10,R4
      Monochrome   555                    ML_pixel(x+plot_y, y, color);
    00000BE2 66C3                   MOV         R12,R6
    00000BE4 65B3                   MOV         R11,R5
    00000BE6 64A3                   MOV         R10,R4
    00000BE8 BA90                   BSR         _ML_pixel
    00000BEA 34EC                   ADD         R14,R4
      Monochrome   556                    ML_pixel(x-plot_y, y, color);
    00000BEC 66C3                   MOV         R12,R6
    00000BEE 65B3                   MOV         R11,R5
    00000BF0 64A3                   MOV         R10,R4
    00000BF2 BA8B                   BSR         _ML_pixel
    00000BF4 34E8                   SUB         R14,R4
    00000BF6              L980:                             
      Monochrome   557            }
      Monochrome   558            while(plot_y > plot_x)
    00000BF6 4E15                   CMP/PL      R14
    00000BF8 8B43                   BF          L979
    00000BFA              L982:                             
      Monochrome   559            {
      Monochrome   560                    if(d < 0)
    00000BFA 4911                   CMP/PZ      R9
    00000BFC 8904                   BT          L983
      Monochrome   561                            d += 2*plot_x+3;
    00000BFE 63D3                   MOV         R13,R3
    00000C00 4300                   SHLL        R3
    00000C02 7303                   ADD         #3,R3
    00000C04 A006                   BRA         L984
    00000C06 393C                   ADD         R3,R9
    00000C08              L983:                             
      Monochrome   562                    else
      Monochrome   563                    {
      Monochrome   564                            d += 2*(plot_x-plot_y)+5;
    00000C08 63D3                   MOV         R13,R3
    00000C0A 33E8                   SUB         R14,R3
    00000C0C 4300                   SHLL        R3
    00000C0E 7305                   ADD         #5,R3
    00000C10 393C                   ADD         R3,R9
      Monochrome   565                            plot_y--;
    00000C12 7EFF                   ADD         #-1,R14
    00000C14              L984:                             
      Monochrome   566                    }
      Monochrome   567                    plot_x++;
    00000C14 7D01                   ADD         #1,R13
      Monochrome   568                    if(plot_y >= plot_x)
    00000C16 3ED3                   CMP/GE      R13,R14
    00000C18 8B17                   BF          L985
      Monochrome   569                    {
      Monochrome   570                            ML_pixel(x+plot_x, y+plot_y, color);




SH SERIES C/C++ Compiler (Ver. 6.0C)                                                                 15-May-2021 18:55:24  PAGE   41


SCT OFFSET   CODE       C LABEL     INSTRUCTION OPERAND    COMMENT

    00000C1A 66C3                   MOV         R12,R6
    00000C1C 65B3                   MOV         R11,R5
    00000C1E 35EC                   ADD         R14,R5
    00000C20 2F52                   MOV.L       R5,@R15
    00000C22 64A3                   MOV         R10,R4
    00000C24 34DC                   ADD         R13,R4
    00000C26 BA71                   BSR         _ML_pixel
    00000C28 1F41                   MOV.L       R4,@(4,R15)
      Monochrome   571                            ML_pixel(x-plot_x, y+plot_y, color);
    00000C2A 66C3                   MOV         R12,R6
    00000C2C 65F2                   MOV.L       @R15,R5
    00000C2E 68A3                   MOV         R10,R8
    00000C30 38D8                   SUB         R13,R8
    00000C32 BA6B                   BSR         _ML_pixel
    00000C34 6483                   MOV         R8,R4
      Monochrome   572                            ML_pixel(x+plot_x, y-plot_y, color);
    00000C36 66C3                   MOV         R12,R6
    00000C38 65B3                   MOV         R11,R5
    00000C3A 35E8                   SUB         R14,R5
    00000C3C 2F52                   MOV.L       R5,@R15
    00000C3E BA65                   BSR         _ML_pixel
    00000C40 54F1                   MOV.L       @(4,R15),R4
      Monochrome   573                            ML_pixel(x-plot_x, y-plot_y, color);
    00000C42 66C3                   MOV         R12,R6
    00000C44 65F2                   MOV.L       @R15,R5
    00000C46 BA61                   BSR         _ML_pixel
    00000C48 6483                   MOV         R8,R4
    00000C4A              L985:                             
      Monochrome   574                    }
      Monochrome   575                    if(plot_y > plot_x)
    00000C4A 3ED7                   CMP/GT      R13,R14
    00000C4C 8B17                   BF          L986
      Monochrome   576                    {
      Monochrome   577                            ML_pixel(x+plot_y, y+plot_x, color);
    00000C4E 66C3                   MOV         R12,R6
    00000C50 65B3                   MOV         R11,R5
    00000C52 35DC                   ADD         R13,R5
    00000C54 2F52                   MOV.L       R5,@R15
    00000C56 64A3                   MOV         R10,R4
    00000C58 34EC                   ADD         R14,R4
    00000C5A BA57                   BSR         _ML_pixel
    00000C5C 1F41                   MOV.L       R4,@(4,R15)
      Monochrome   578                            ML_pixel(x-plot_y, y+plot_x, color);
    00000C5E 66C3                   MOV         R12,R6
    00000C60 65F2                   MOV.L       @R15,R5
    00000C62 68A3                   MOV         R10,R8
    00000C64 38E8                   SUB         R14,R8
    00000C66 BA51                   BSR         _ML_pixel
    00000C68 6483                   MOV         R8,R4
      Monochrome   579                            ML_pixel(x+plot_y, y-plot_x, color);
    00000C6A 66C3                   MOV         R12,R6
    00000C6C 65B3                   MOV         R11,R5
    00000C6E 35D8                   SUB         R13,R5
    00000C70 2F52                   MOV.L       R5,@R15
    00000C72 BA4B                   BSR         _ML_pixel
    00000C74 54F1                   MOV.L       @(4,R15),R4
      Monochrome   580                            ML_pixel(x-plot_y, y-plot_x, color);




SH SERIES C/C++ Compiler (Ver. 6.0C)                                                                 15-May-2021 18:55:24  PAGE   42


SCT OFFSET   CODE       C LABEL     INSTRUCTION OPERAND    COMMENT

    00000C76 66C3                   MOV         R12,R6
    00000C78 65F2                   MOV.L       @R15,R5
    00000C7A BA47                   BSR         _ML_pixel
    00000C7C 6483                   MOV         R8,R4
    00000C7E              L986:                             
    00000C7E 3ED7                   CMP/GT      R13,R14
    00000C80 89BB                   BT          L982
    00000C82              L979:                             
      Monochrome   581                    }
      Monochrome   582            }
      Monochrome   583    }
    00000C82 7F08                   ADD         #8,R15
    00000C84 4F26                   LDS.L       @R15+,PR
    00000C86 68F6                   MOV.L       @R15+,R8
    00000C88 69F6                   MOV.L       @R15+,R9
    00000C8A 6AF6                   MOV.L       @R15+,R10
    00000C8C 6BF6                   MOV.L       @R15+,R11
    00000C8E 6CF6                   MOV.L       @R15+,R12
    00000C90 6DF6                   MOV.L       @R15+,R13
    00000C92 000B                   RTS
    00000C94 6EF6                   MOV.L       @R15+,R14
      Monochrome   584    #endif
      Monochrome   585    
      Monochrome   586    #ifdef ML_FILLED_CIRCLE
      Monochrome   587    void ML_filled_circle(int x, int y, int radius, ML_Color color)
    00000C96              _ML_filled_circle:               ; function: ML_filled_circle
                                                           ; frame size=36
      Monochrome   588    {
      Monochrome   589            int plot_x, plot_y, d;
      Monochrome   590    
      Monochrome   591            if(radius < 0) return;
    00000C96 4611                   CMP/PZ      R6
    00000C98 2FE6                   MOV.L       R14,@-R15
    00000C9A 2FD6                   MOV.L       R13,@-R15
    00000C9C 2FC6                   MOV.L       R12,@-R15
    00000C9E 6C43                   MOV         R4,R12
    00000CA0 2FB6                   MOV.L       R11,@-R15
    00000CA2 2FA6                   MOV.L       R10,@-R15
    00000CA4 2F96                   MOV.L       R9,@-R15
    00000CA6 6A53                   MOV         R5,R10
    00000CA8 2F86                   MOV.L       R8,@-R15
    00000CAA 4F22                   STS.L       PR,@-R15
    00000CAC 7FFC                   ADD         #-4,R15
    00000CAE 8F41                   BF/S        L988
    00000CB0 6B73                   MOV         R7,R11
      Monochrome   592            plot_x = 0;
    00000CB2 ED00                   MOV         #0,R13
      Monochrome   593            plot_y = radius;
    00000CB4 6E63                   MOV         R6,R14
      Monochrome   594            d = 1 - radius;
    00000CB6 E901                   MOV         #1,R9
    00000CB8 3968                   SUB         R6,R9
      Monochrome   595    
      Monochrome   596            ML_horizontal_line(y, x-plot_y, x+plot_y, color);
    00000CBA 67B3                   MOV         R11,R7
    00000CBC 66C3                   MOV         R12,R6
    00000CBE 36EC                   ADD         R14,R6




SH SERIES C/C++ Compiler (Ver. 6.0C)                                                                 15-May-2021 18:55:24  PAGE   43


SCT OFFSET   CODE       C LABEL     INSTRUCTION OPERAND    COMMENT

    00000CC0 65C3                   MOV         R12,R5
    00000CC2 35E8                   SUB         R14,R5
    00000CC4 BB42                   BSR         _ML_horizontal_line
    00000CC6 64A3                   MOV         R10,R4
      Monochrome   597            while(plot_y > plot_x)
    00000CC8 4E15                   CMP/PL      R14
    00000CCA 8B33                   BF          L988
    00000CCC              L990:                             
      Monochrome   598            {
      Monochrome   599                    if(d < 0)
    00000CCC 4911                   CMP/PZ      R9
    00000CCE 8904                   BT          L991
      Monochrome   600                            d += 2*plot_x+3;
    00000CD0 63D3                   MOV         R13,R3
    00000CD2 4300                   SHLL        R3
    00000CD4 7303                   ADD         #3,R3
    00000CD6 A018                   BRA         L992
    00000CD8 393C                   ADD         R3,R9
    00000CDA              L991:                             
      Monochrome   601                    else {
      Monochrome   602                            d += 2*(plot_x-plot_y)+5;
    00000CDA 63D3                   MOV         R13,R3
    00000CDC 33E8                   SUB         R14,R3
    00000CDE 4300                   SHLL        R3
    00000CE0 7305                   ADD         #5,R3
    00000CE2 393C                   ADD         R3,R9
      Monochrome   603                            plot_y--;
    00000CE4 7EFF                   ADD         #-1,R14
      Monochrome   604                            ML_horizontal_line(y+plot_y+1, x-plot_x, x+plot_x, color);
    00000CE6 67B3                   MOV         R11,R7
    00000CE8 68C3                   MOV         R12,R8
    00000CEA 38DC                   ADD         R13,R8
    00000CEC 6683                   MOV         R8,R6
    00000CEE 65C3                   MOV         R12,R5
    00000CF0 35D8                   SUB         R13,R5
    00000CF2 64A3                   MOV         R10,R4
    00000CF4 2F52                   MOV.L       R5,@R15
    00000CF6 34EC                   ADD         R14,R4
    00000CF8 BB28                   BSR         _ML_horizontal_line
    00000CFA 7401                   ADD         #1,R4
      Monochrome   605                            ML_horizontal_line(y-plot_y-1, x-plot_x, x+plot_x, color);
    00000CFC 65F2                   MOV.L       @R15,R5
    00000CFE 64A3                   MOV         R10,R4
    00000D00 67B3                   MOV         R11,R7
    00000D02 6683                   MOV         R8,R6
    00000D04 34E8                   SUB         R14,R4
    00000D06 BB21                   BSR         _ML_horizontal_line
    00000D08 74FF                   ADD         #-1,R4
    00000D0A              L992:                             
      Monochrome   606                    }
      Monochrome   607                    plot_x++;
    00000D0A 7D01                   ADD         #1,R13
      Monochrome   608                    if(plot_y >= plot_x)
    00000D0C 3ED3                   CMP/GE      R13,R14
    00000D0E 8B0F                   BF          L993
      Monochrome   609                    {
      Monochrome   610                            ML_horizontal_line(y+plot_x, x-plot_y, x+plot_y, color);




SH SERIES C/C++ Compiler (Ver. 6.0C)                                                                 15-May-2021 18:55:24  PAGE   44


SCT OFFSET   CODE       C LABEL     INSTRUCTION OPERAND    COMMENT

    00000D10 67B3                   MOV         R11,R7
    00000D12 66C3                   MOV         R12,R6
    00000D14 36EC                   ADD         R14,R6
    00000D16 68C3                   MOV         R12,R8
    00000D18 2F62                   MOV.L       R6,@R15
    00000D1A 64A3                   MOV         R10,R4
    00000D1C 38E8                   SUB         R14,R8
    00000D1E 6583                   MOV         R8,R5
    00000D20 BB14                   BSR         _ML_horizontal_line
    00000D22 34DC                   ADD         R13,R4
      Monochrome   611                            ML_horizontal_line(y-plot_x, x-plot_y, x+plot_y, color);
    00000D24 66F2                   MOV.L       @R15,R6
    00000D26 6583                   MOV         R8,R5
    00000D28 67B3                   MOV         R11,R7
    00000D2A 64A3                   MOV         R10,R4
    00000D2C BB0E                   BSR         _ML_horizontal_line
    00000D2E 34D8                   SUB         R13,R4
    00000D30              L993:                             
    00000D30 3ED7                   CMP/GT      R13,R14
    00000D32 89CB                   BT          L990
    00000D34              L988:                             
      Monochrome   612                    }
      Monochrome   613            }
      Monochrome   614    }
    00000D34 7F04                   ADD         #4,R15
    00000D36 4F26                   LDS.L       @R15+,PR
    00000D38 68F6                   MOV.L       @R15+,R8
    00000D3A 69F6                   MOV.L       @R15+,R9
    00000D3C 6AF6                   MOV.L       @R15+,R10
    00000D3E 6BF6                   MOV.L       @R15+,R11
    00000D40 6CF6                   MOV.L       @R15+,R12
    00000D42 6DF6                   MOV.L       @R15+,R13
    00000D44 000B                   RTS
    00000D46 6EF6                   MOV.L       @R15+,R14
      Monochrome   615    #endif
      Monochrome   616    
      Monochrome   617    #ifdef ML_ELLIPSE
      Monochrome   618    void ML_ellipse(int x, int y, int radius1, int radius2, ML_Color color)
    00000D48              _ML_ellipse:                     ; function: ML_ellipse
                                                           ; frame size=128
                                                           ; used runtime library name:
                                                           ; __adds, __addd, __subdr, __muld, __dtos, __itos, __itod, __gtd, __lts
    00000D48 2FE6                   MOV.L       R14,@-R15
    00000D4A 2FD6                   MOV.L       R13,@-R15
    00000D4C 2FC6                   MOV.L       R12,@-R15
    00000D4E 6C73                   MOV         R7,R12
    00000D50 2FB6                   MOV.L       R11,@-R15
    00000D52 2FA6                   MOV.L       R10,@-R15
    00000D54 2F96                   MOV.L       R9,@-R15
    00000D56 6A63                   MOV         R6,R10
    00000D58 2F86                   MOV.L       R8,@-R15
    00000D5A 6953                   MOV         R5,R9
    00000D5C 4F22                   STS.L       PR,@-R15
    00000D5E 6843                   MOV         R4,R8
    00000D60 4F12                   STS.L       MACL,@-R15
      Monochrome   619    {
      Monochrome   620            int plot_x, plot_y;




SH SERIES C/C++ Compiler (Ver. 6.0C)                                                                 15-May-2021 18:55:24  PAGE   45


SCT OFFSET   CODE       C LABEL     INSTRUCTION OPERAND    COMMENT

      Monochrome   621            float d1, d2;
      Monochrome   622            if(radius1 < 1 || radius2 < 1) return;
    00000D62 E401                   MOV         #1,R4
    00000D64 7FE8                   ADD         #-24,R15
    00000D66 3A43                   CMP/GE      R4,R10
    00000D68 8D02                   BT/S        L1290
    00000D6A 5BFF                   MOV.L       @(60,R15),R11
    00000D6C A13A                   BRA         L996
    00000D6E 0009                   NOP
    00000D70              L1290:                            
    00000D70 3C43                   CMP/GE      R4,R12
    00000D72 8901                   BT          L1291
    00000D74 A136                   BRA         L996
    00000D76 0009                   NOP
    00000D78              L1291:                            
      Monochrome   623            plot_x = 0;
      Monochrome   624            plot_y = radius2;
      Monochrome   625            d1 = radius2*radius2 - radius1*radius1*radius2 + radius1*radius1/4;
    00000D78 0AA7                   MUL.L       R10,R10
    00000D7A ED00                   MOV         #0,R13
    00000D7C 6EC3                   MOV         R12,R14
    00000D7E 001A                   STS         MACL,R0
    00000D80 4011                   CMP/PZ      R0
    00000D82 8D01                   BT/S        L997
    00000D84 1F02                   MOV.L       R0,@(8,R15)
    00000D86 7003                   ADD         #3,R0
    00000D88              L997:                             
    00000D88 52F2                   MOV.L       @(8,R15),R2
    00000D8A 4021                   SHAR        R0
    00000D8C 02C7                   MUL.L       R12,R2
    00000D8E 4021                   SHAR        R0
    00000D90 021A                   STS         MACL,R2
    00000D92 3028                   SUB         R2,R0
    00000D94 0CC7                   MUL.L       R12,R12
    00000D96 031A                   STS         MACL,R3
    00000D98 1F35                   MOV.L       R3,@(20,R15)
    00000D9A D212                   MOV.L       L1292+2,R2 ; __itos
    00000D9C 420B                   JSR         @R2
    00000D9E 303C                   ADD         R3,R0
    00000DA0 2F02                   MOV.L       R0,@R15
      Monochrome   626            ML_pixel(x, y+plot_y, color);
    00000DA2 66B3                   MOV         R11,R6
    00000DA4 6593                   MOV         R9,R5
    00000DA6 35EC                   ADD         R14,R5
    00000DA8 B9B0                   BSR         _ML_pixel
    00000DAA 6483                   MOV         R8,R4
      Monochrome   627            ML_pixel(x, y-plot_y, color);
    00000DAC 66B3                   MOV         R11,R6
    00000DAE 6593                   MOV         R9,R5
    00000DB0 35E8                   SUB         R14,R5
      Monochrome   628            while(radius1*radius1*(plot_y-.5) > radius2*radius2*(plot_x+1))
    00000DB2 A045                   BRA         L1270
    00000DB4 6483                   MOV         R8,R4
    00000DB6              L999:                             
    00000DB6 64D3                   MOV         R13,R4
    00000DB8 61F2                   MOV.L       @R15,R1
    00000DBA 4400                   SHLL        R4




SH SERIES C/C++ Compiler (Ver. 6.0C)                                                                 15-May-2021 18:55:24  PAGE   46


SCT OFFSET   CODE       C LABEL     INSTRUCTION OPERAND    COMMENT

    00000DBC D30A                   MOV.L       L1292+6,R3 ; __lts
    00000DBE 7403                   ADD         #3,R4
    00000DC0 04C7                   MUL.L       R12,R4
    00000DC2 041A                   STS         MACL,R4
    00000DC4 04C7                   MUL.L       R12,R4
    00000DC6 041A                   STS         MACL,R4
    00000DC8 430B                   JSR         @R3
    00000DCA E000                   MOV         #0,R0
    00000DCC 8800                   CMP/EQ      #0,R0
    00000DCE 890F                   BT          L1000
      Monochrome   629            {
      Monochrome   630                    if(d1 < 0)
      Monochrome   631                    {
      Monochrome   632                            d1 += radius2*radius2*(2*plot_x+3);
    00000DD0 D204                   MOV.L       L1292+2,R2 ; __itos
    00000DD2 420B                   JSR         @R2
    00000DD4 6043                   MOV         R4,R0
    00000DD6 D305                   MOV.L       L1292+10,R3; __adds
    00000DD8 430B                   JSR         @R3
    00000DDA 61F2                   MOV.L       @R15,R1
    00000DDC 2F02                   MOV.L       R0,@R15
      Monochrome   633                            plot_x++;
    00000DDE A018                   BRA         L1001
    00000DE0 7D01                   ADD         #1,R13
    00000DE2              L1292:                            
    00000DE2 0000                   .DATA.W     0
    00000DE4 <00000000>             .DATA.L     __itos
    00000DE8 <00000000>             .DATA.L     __lts
    00000DEC <00000000>             .DATA.L     __adds
    00000DF0              L1000:                            
      Monochrome   634                    } else {
      Monochrome   635                            d1 += radius2*radius2*(2*plot_x+3) + radius1*radius1*(-2*plot_y+2);
    00000DF0 D3BA                   MOV.L       L1293+2,R3 ; __itos
    00000DF2 62E3                   MOV         R14,R2
    00000DF4 4200                   SHLL        R2
    00000DF6 E002                   MOV         #2,R0
    00000DF8 3028                   SUB         R2,R0
    00000DFA 00A7                   MUL.L       R10,R0
    00000DFC 001A                   STS         MACL,R0
    00000DFE 00A7                   MUL.L       R10,R0
    00000E00 001A                   STS         MACL,R0
    00000E02 430B                   JSR         @R3
    00000E04 304C                   ADD         R4,R0
    00000E06 D2B6                   MOV.L       L1293+6,R2 ; __adds
    00000E08 420B                   JSR         @R2
    00000E0A 61F2                   MOV.L       @R15,R1
    00000E0C 2F02                   MOV.L       R0,@R15
      Monochrome   636                            plot_x++;
    00000E0E 7D01                   ADD         #1,R13
      Monochrome   637                            plot_y--;
    00000E10 7EFF                   ADD         #-1,R14
    00000E12              L1001:                            
      Monochrome   638                    }
      Monochrome   639                    ML_pixel(x+plot_x, y+plot_y, color);
    00000E12 66B3                   MOV         R11,R6
    00000E14 6593                   MOV         R9,R5
    00000E16 35EC                   ADD         R14,R5




SH SERIES C/C++ Compiler (Ver. 6.0C)                                                                 15-May-2021 18:55:24  PAGE   47


SCT OFFSET   CODE       C LABEL     INSTRUCTION OPERAND    COMMENT

    00000E18 1F51                   MOV.L       R5,@(4,R15)
    00000E1A 6483                   MOV         R8,R4
    00000E1C 34DC                   ADD         R13,R4
    00000E1E B975                   BSR         _ML_pixel
    00000E20 1F43                   MOV.L       R4,@(12,R15)
      Monochrome   640                    ML_pixel(x-plot_x, y+plot_y, color);
    00000E22 66B3                   MOV         R11,R6
    00000E24 55F1                   MOV.L       @(4,R15),R5
    00000E26 6483                   MOV         R8,R4
    00000E28 34D8                   SUB         R13,R4
    00000E2A B96F                   BSR         _ML_pixel
    00000E2C 1F44                   MOV.L       R4,@(16,R15)
      Monochrome   641                    ML_pixel(x+plot_x, y-plot_y, color);
    00000E2E 66B3                   MOV         R11,R6
    00000E30 6593                   MOV         R9,R5
    00000E32 35E8                   SUB         R14,R5
    00000E34 1F51                   MOV.L       R5,@(4,R15)
    00000E36 B969                   BSR         _ML_pixel
    00000E38 54F3                   MOV.L       @(12,R15),R4
      Monochrome   642                    ML_pixel(x-plot_x, y-plot_y, color);
    00000E3A 66B3                   MOV         R11,R6
    00000E3C 55F1                   MOV.L       @(4,R15),R5
    00000E3E 54F4                   MOV.L       @(16,R15),R4
    00000E40              L1270:                            
    00000E40 B964                   BSR         _ML_pixel
    00000E42 0009                   NOP
    00000E44 D2A7                   MOV.L       L1293+10,R2; __itod
    00000E46 7FF8                   ADD         #-8,R15
    00000E48 50F4                   MOV.L       @(16,R15),R0
    00000E4A 7FF8                   ADD         #-8,R15
    00000E4C 420B                   JSR         @R2
    00000E4E 2FF6                   MOV.L       R15,@-R15
    00000E50 D3A4                   MOV.L       L1293+10,R3; __itod
    00000E52 60E3                   MOV         R14,R0
    00000E54 7FF0                   ADD         #-16,R15
    00000E56 430B                   JSR         @R3
    00000E58 2FF6                   MOV.L       R15,@-R15
    00000E5A E200                   MOV         #0,R2
    00000E5C D1A3                   MOV.L       L1293+18,R1; __addd
    00000E5E 2F26                   MOV.L       R2,@-R15
    00000E60 D2A1                   MOV.L       L1293+14,R2; H'BFE00000
    00000E62 2F26                   MOV.L       R2,@-R15
    00000E64 63F3                   MOV         R15,R3
    00000E66 7310                   ADD         #16,R3
    00000E68 410B                   JSR         @R1
    00000E6A 2F36                   MOV.L       R3,@-R15
    00000E6C D0A0                   MOV.L       L1293+22,R0; __muld
    00000E6E 62F3                   MOV         R15,R2
    00000E70 7210                   ADD         #16,R2
    00000E72 400B                   JSR         @R0
    00000E74 2F26                   MOV.L       R2,@-R15
    00000E76 60D3                   MOV         R13,R0
    00000E78 D39A                   MOV.L       L1293+10,R3; __itod
    00000E7A 7FF8                   ADD         #-8,R15
    00000E7C 7001                   ADD         #1,R0
    00000E7E 00C7                   MUL.L       R12,R0
    00000E80 001A                   STS         MACL,R0




SH SERIES C/C++ Compiler (Ver. 6.0C)                                                                 15-May-2021 18:55:24  PAGE   48


SCT OFFSET   CODE       C LABEL     INSTRUCTION OPERAND    COMMENT

    00000E82 00C7                   MUL.L       R12,R0
    00000E84 001A                   STS         MACL,R0
    00000E86 430B                   JSR         @R3
    00000E88 2FF6                   MOV.L       R15,@-R15
    00000E8A D29A                   MOV.L       L1293+26,R2; __gtd
    00000E8C 420B                   JSR         @R2
    00000E8E 0009                   NOP
    00000E90 8800                   CMP/EQ      #0,R0
    00000E92 8B90                   BF          L999
      Monochrome   643            }
      Monochrome   644            d2 = radius2*radius2*(plot_x+.5)*(plot_x+.5) + radius1*radius1*(plot_y-1)*(plot_y-1) - radius1*rad
                         +ius1*radius2*radius2;
    00000E94 D393                   MOV.L       L1293+10,R3; __itod
    00000E96 7FE0                   ADD         #-32,R15
    00000E98 50FD                   MOV.L       @(52,R15),R0
    00000E9A 7FF8                   ADD         #-8,R15
    00000E9C 430B                   JSR         @R3
    00000E9E 2FF6                   MOV.L       R15,@-R15
    00000EA0 D290                   MOV.L       L1293+10,R2; __itod
    00000EA2 60D3                   MOV         R13,R0
    00000EA4 7FF0                   ADD         #-16,R15
    00000EA6 420B                   JSR         @R2
    00000EA8 2FF6                   MOV.L       R15,@-R15
    00000EAA E300                   MOV         #0,R3
    00000EAC D18F                   MOV.L       L1293+18,R1; __addd
    00000EAE 2F36                   MOV.L       R3,@-R15
    00000EB0 D391                   MOV.L       L1293+30,R3; H'3FE00000
    00000EB2 2F36                   MOV.L       R3,@-R15
    00000EB4 62F3                   MOV         R15,R2
    00000EB6 7210                   ADD         #16,R2
    00000EB8 410B                   JSR         @R1
    00000EBA 2F26                   MOV.L       R2,@-R15
    00000EBC D08C                   MOV.L       L1293+22,R0; __muld
    00000EBE 63F3                   MOV         R15,R3
    00000EC0 7310                   ADD         #16,R3
    00000EC2 400B                   JSR         @R0
    00000EC4 2F36                   MOV.L       R3,@-R15
    00000EC6 60D3                   MOV         R13,R0
    00000EC8 D286                   MOV.L       L1293+10,R2; __itod
    00000ECA 7FF0                   ADD         #-16,R15
    00000ECC 420B                   JSR         @R2
    00000ECE 2FF6                   MOV.L       R15,@-R15
    00000ED0 D186                   MOV.L       L1293+18,R1; __addd
    00000ED2 E300                   MOV         #0,R3
    00000ED4 2F36                   MOV.L       R3,@-R15
    00000ED6 D388                   MOV.L       L1293+30,R3; H'3FE00000
    00000ED8 2F36                   MOV.L       R3,@-R15
    00000EDA 62F3                   MOV         R15,R2
    00000EDC 7210                   ADD         #16,R2
    00000EDE 410B                   JSR         @R1
    00000EE0 2F26                   MOV.L       R2,@-R15
    00000EE2 63F3                   MOV         R15,R3
    00000EE4 D082                   MOV.L       L1293+22,R0; __muld
    00000EE6 7310                   ADD         #16,R3
    00000EE8 400B                   JSR         @R0
    00000EEA 2F36                   MOV.L       R3,@-R15
    00000EEC D37D                   MOV.L       L1293+10,R3; __itod




SH SERIES C/C++ Compiler (Ver. 6.0C)                                                                 15-May-2021 18:55:24  PAGE   49


SCT OFFSET   CODE       C LABEL     INSTRUCTION OPERAND    COMMENT

    00000EEE 64E3                   MOV         R14,R4
    00000EF0 74FF                   ADD         #-1,R4
    00000EF2 7FF8                   ADD         #-8,R15
    00000EF4 0447                   MUL.L       R4,R4
    00000EF6 001A                   STS         MACL,R0
    00000EF8 00A7                   MUL.L       R10,R0
    00000EFA 001A                   STS         MACL,R0
    00000EFC 00A7                   MUL.L       R10,R0
    00000EFE 001A                   STS         MACL,R0
    00000F00 430B                   JSR         @R3
    00000F02 2FF6                   MOV.L       R15,@-R15
    00000F04 D179                   MOV.L       L1293+18,R1; __addd
    00000F06 62F3                   MOV         R15,R2
    00000F08 7210                   ADD         #16,R2
    00000F0A 410B                   JSR         @R1
    00000F0C 2F26                   MOV.L       R2,@-R15
    00000F0E 50F6                   MOV.L       @(24,R15),R0
    00000F10 D374                   MOV.L       L1293+10,R3; __itod
    00000F12 7FF8                   ADD         #-8,R15
    00000F14 00C7                   MUL.L       R12,R0
    00000F16 001A                   STS         MACL,R0
    00000F18 00C7                   MUL.L       R12,R0
    00000F1A 001A                   STS         MACL,R0
    00000F1C 430B                   JSR         @R3
    00000F1E 2FF6                   MOV.L       R15,@-R15
    00000F20 D176                   MOV.L       L1293+34,R1; __subdr
    00000F22 62F3                   MOV         R15,R2
    00000F24 7210                   ADD         #16,R2
    00000F26 410B                   JSR         @R1
    00000F28 2F26                   MOV.L       R2,@-R15
    00000F2A D375                   MOV.L       L1293+38,R3; __dtos
    00000F2C 430B                   JSR         @R3
    00000F2E 0009                   NOP
    00000F30 2F02                   MOV.L       R0,@R15
    00000F32 6483                   MOV         R8,R4
    00000F34 34D8                   SUB         R13,R4
    00000F36 6383                   MOV         R8,R3
    00000F38 1F42                   MOV.L       R4,@(8,R15)
      Monochrome   645            while(plot_y > 0)
    00000F3A 4E15                   CMP/PL      R14
    00000F3C 33DC                   ADD         R13,R3
    00000F3E 1F31                   MOV.L       R3,@(4,R15)
    00000F40 8F50                   BF/S        L996
    00000F42 1F44                   MOV.L       R4,@(16,R15)
    00000F44              L1003:                            
      Monochrome   646            {
      Monochrome   647                    if(d2 < 0)
    00000F44 61F2                   MOV.L       @R15,R1
    00000F46 D36F                   MOV.L       L1293+42,R3; __lts
    00000F48 430B                   JSR         @R3
    00000F4A E000                   MOV         #0,R0
    00000F4C 8800                   CMP/EQ      #0,R0
    00000F4E 8921                   BT          L1004
      Monochrome   648                    {
      Monochrome   649                            d2 += radius2*radius2*(2*plot_x+2) + radius1*radius1*(-2*plot_y+3);
    00000F50 60D3                   MOV         R13,R0
    00000F52 4000                   SHLL        R0




SH SERIES C/C++ Compiler (Ver. 6.0C)                                                                 15-May-2021 18:55:24  PAGE   50


SCT OFFSET   CODE       C LABEL     INSTRUCTION OPERAND    COMMENT

    00000F54 7002                   ADD         #2,R0
    00000F56 63E3                   MOV         R14,R3
    00000F58 00C7                   MUL.L       R12,R0
    00000F5A E203                   MOV         #3,R2
    00000F5C 001A                   STS         MACL,R0
    00000F5E 4300                   SHLL        R3
    00000F60 00C7                   MUL.L       R12,R0
    00000F62 3238                   SUB         R3,R2
    00000F64 D35D                   MOV.L       L1293+2,R3 ; __itos
    00000F66 001A                   STS         MACL,R0
    00000F68 02A7                   MUL.L       R10,R2
    00000F6A 021A                   STS         MACL,R2
    00000F6C 02A7                   MUL.L       R10,R2
    00000F6E 021A                   STS         MACL,R2
    00000F70 430B                   JSR         @R3
    00000F72 302C                   ADD         R2,R0
    00000F74 D25A                   MOV.L       L1293+6,R2 ; __adds
    00000F76 420B                   JSR         @R2
    00000F78 61F2                   MOV.L       @R15,R1
      Monochrome   650                            plot_y--;
    00000F7A 7EFF                   ADD         #-1,R14
    00000F7C 2F02                   MOV.L       R0,@R15
      Monochrome   651                            plot_x++;
    00000F7E 7D01                   ADD         #1,R13
    00000F80 53F2                   MOV.L       @(8,R15),R3
    00000F82 73FF                   ADD         #-1,R3
    00000F84 1F32                   MOV.L       R3,@(8,R15)
    00000F86 52F1                   MOV.L       @(4,R15),R2
    00000F88 7201                   ADD         #1,R2
    00000F8A 1F21                   MOV.L       R2,@(4,R15)
    00000F8C 51F4                   MOV.L       @(16,R15),R1
    00000F8E 71FF                   ADD         #-1,R1
    00000F90 A00F                   BRA         L1005
    00000F92 1F14                   MOV.L       R1,@(16,R15)
    00000F94              L1004:                            
      Monochrome   652                    } else {
      Monochrome   653                            d2 += radius1*radius1*(-2*plot_y+3);
    00000F94 D351                   MOV.L       L1293+2,R3 ; __itos
    00000F96 62E3                   MOV         R14,R2
    00000F98 4200                   SHLL        R2
    00000F9A E003                   MOV         #3,R0
    00000F9C 3028                   SUB         R2,R0
    00000F9E 00A7                   MUL.L       R10,R0
    00000FA0 001A                   STS         MACL,R0
    00000FA2 00A7                   MUL.L       R10,R0
    00000FA4 430B                   JSR         @R3
    00000FA6 001A                   STS         MACL,R0
    00000FA8 D24D                   MOV.L       L1293+6,R2 ; __adds
    00000FAA 420B                   JSR         @R2
    00000FAC 61F2                   MOV.L       @R15,R1
      Monochrome   654                            plot_y--;
    00000FAE 7EFF                   ADD         #-1,R14
    00000FB0 2F02                   MOV.L       R0,@R15
    00000FB2              L1005:                            
      Monochrome   655                    }
      Monochrome   656                    ML_pixel(x+plot_x, y+plot_y, color);
    00000FB2 66B3                   MOV         R11,R6




SH SERIES C/C++ Compiler (Ver. 6.0C)                                                                 15-May-2021 18:55:24  PAGE   51


SCT OFFSET   CODE       C LABEL     INSTRUCTION OPERAND    COMMENT

    00000FB4 6593                   MOV         R9,R5
    00000FB6 35EC                   ADD         R14,R5
    00000FB8 1F53                   MOV.L       R5,@(12,R15)
    00000FBA 6483                   MOV         R8,R4
    00000FBC B8A6                   BSR         _ML_pixel
    00000FBE 34DC                   ADD         R13,R4
      Monochrome   657                    ML_pixel(x-plot_x, y+plot_y, color);
    00000FC0 55F3                   MOV.L       @(12,R15),R5
    00000FC2 66B3                   MOV         R11,R6
    00000FC4 B8A2                   BSR         _ML_pixel
    00000FC6 54F4                   MOV.L       @(16,R15),R4
      Monochrome   658                    if(plot_y > 0)
    00000FC8 4E15                   CMP/PL      R14
    00000FCA 8B09                   BF          L1006
      Monochrome   659                    {
      Monochrome   660                            ML_pixel(x+plot_x, y-plot_y, color);
    00000FCC 66B3                   MOV         R11,R6
    00000FCE 6593                   MOV         R9,R5
    00000FD0 35E8                   SUB         R14,R5
    00000FD2 1F53                   MOV.L       R5,@(12,R15)
    00000FD4 B89A                   BSR         _ML_pixel
    00000FD6 54F1                   MOV.L       @(4,R15),R4
      Monochrome   661                            ML_pixel(x-plot_x, y-plot_y, color);
    00000FD8 55F3                   MOV.L       @(12,R15),R5
    00000FDA 66B3                   MOV         R11,R6
    00000FDC B896                   BSR         _ML_pixel
    00000FDE 54F2                   MOV.L       @(8,R15),R4
    00000FE0              L1006:                            
    00000FE0 4E15                   CMP/PL      R14
    00000FE2 89AF                   BT          L1003
    00000FE4              L996:                             
      Monochrome   662                    }
      Monochrome   663            }
      Monochrome   664    }
    00000FE4 7F18                   ADD         #24,R15
    00000FE6 4F16                   LDS.L       @R15+,MACL
    00000FE8 4F26                   LDS.L       @R15+,PR
    00000FEA 68F6                   MOV.L       @R15+,R8
    00000FEC 69F6                   MOV.L       @R15+,R9
    00000FEE 6AF6                   MOV.L       @R15+,R10
    00000FF0 6BF6                   MOV.L       @R15+,R11
    00000FF2 6CF6                   MOV.L       @R15+,R12
    00000FF4 6DF6                   MOV.L       @R15+,R13
    00000FF6 000B                   RTS
    00000FF8 6EF6                   MOV.L       @R15+,R14
      Monochrome   665    #endif
      Monochrome   666    
      Monochrome   667    #ifdef ML_ELLIPSE_IN_RECT
      Monochrome   668    void ML_ellipse_in_rect(int x1, int y1, int x2, int y2, ML_Color color)
    00000FFA              _ML_ellipse_in_rect:             ; function: ML_ellipse_in_rect
                                                           ; frame size=24
    00000FFA 2FE6                   MOV.L       R14,@-R15
    00000FFC 2FD6                   MOV.L       R13,@-R15
    00000FFE 6E43                   MOV         R4,R14
    00001000 2FC6                   MOV.L       R12,@-R15
      Monochrome   669    {
      Monochrome   670            int radius1, radius2;




SH SERIES C/C++ Compiler (Ver. 6.0C)                                                                 15-May-2021 18:55:24  PAGE   52


SCT OFFSET   CODE       C LABEL     INSTRUCTION OPERAND    COMMENT

      Monochrome   671            if(x1 > x2)
    00001002 3E67                   CMP/GT      R6,R14
    00001004 2FB6                   MOV.L       R11,@-R15
    00001006 4F22                   STS.L       PR,@-R15
    00001008 8F03                   BF/S        L1007
    0000100A 6D53                   MOV         R5,R13
      Monochrome   672            {
      Monochrome   673                    int tmp = x1;
    0000100C 64E3                   MOV         R14,R4
      Monochrome   674                    x1 = x2;
    0000100E 6E63                   MOV         R6,R14
      Monochrome   675                    x2 = tmp;
    00001010 6643                   MOV         R4,R6
    00001012              L1007:                            
      Monochrome   676            }
      Monochrome   677            if(y1 > y2)
    00001012 3D77                   CMP/GT      R7,R13
    00001014 8F03                   BF/S        L1008
      Monochrome   678            {
      Monochrome   679                    int tmp = y1;
      Monochrome   680                    y1 = y2;
      Monochrome   681                    y2 = tmp;
      Monochrome   682            }
      Monochrome   683            radius1 = (x2-x1)/2;
    00001016 36E8                   SUB         R14,R6
    00001018 64D3                   MOV         R13,R4
    0000101A 6D73                   MOV         R7,R13
    0000101C 6743                   MOV         R4,R7
    0000101E              L1008:                            
    0000101E 6B63                   MOV         R6,R11
      Monochrome   684            radius2 = (y2-y1)/2;
      Monochrome   685            ML_ellipse(x1+radius1, y1+radius2, radius1, radius2, color);
    00001020 52F5                   MOV.L       @(20,R15),R2
    00001022 65D3                   MOV         R13,R5
    00001024 2F26                   MOV.L       R2,@-R15
    00001026 64E3                   MOV         R14,R4
    00001028 E300                   MOV         #0,R3
    0000102A 33B7                   CMP/GT      R11,R3
    0000102C 3B3E                   ADDC        R3,R11
    0000102E 4B21                   SHAR        R11
    00001030 37D8                   SUB         R13,R7
    00001032 6C73                   MOV         R7,R12
    00001034 33C7                   CMP/GT      R12,R3
    00001036 3C3E                   ADDC        R3,R12
    00001038 4C21                   SHAR        R12
    0000103A 67C3                   MOV         R12,R7
    0000103C 66B3                   MOV         R11,R6
    0000103E 35CC                   ADD         R12,R5
    00001040 BE82                   BSR         _ML_ellipse
    00001042 34BC                   ADD         R11,R4
      Monochrome   686    }
    00001044 7F04                   ADD         #4,R15
    00001046 4F26                   LDS.L       @R15+,PR
    00001048 6BF6                   MOV.L       @R15+,R11
    0000104A 6CF6                   MOV.L       @R15+,R12
    0000104C 6DF6                   MOV.L       @R15+,R13
    0000104E 000B                   RTS




SH SERIES C/C++ Compiler (Ver. 6.0C)                                                                 15-May-2021 18:55:24  PAGE   53


SCT OFFSET   CODE       C LABEL     INSTRUCTION OPERAND    COMMENT

    00001050 6EF6                   MOV.L       @R15+,R14
      Monochrome   687    #endif
      Monochrome   688    
      Monochrome   689    #ifdef ML_FILLED_ELLIPSE
      Monochrome   690    void ML_filled_ellipse(int x, int y, int radius1, int radius2, ML_Color color)
    00001052              _ML_filled_ellipse:              ; function: ML_filled_ellipse
                                                           ; frame size=124
                                                           ; used runtime library name:
                                                           ; __adds, __addd, __subdr, __muld, __dtos, __itos, __itod, __gtd, __lts
    00001052 2FE6                   MOV.L       R14,@-R15
    00001054 2FD6                   MOV.L       R13,@-R15
    00001056 2FC6                   MOV.L       R12,@-R15
    00001058 2FB6                   MOV.L       R11,@-R15
    0000105A 6C73                   MOV         R7,R12
    0000105C 2FA6                   MOV.L       R10,@-R15
    0000105E 6B63                   MOV         R6,R11
    00001060 2F96                   MOV.L       R9,@-R15
    00001062 6953                   MOV         R5,R9
    00001064 2F86                   MOV.L       R8,@-R15
    00001066 6843                   MOV         R4,R8
    00001068 4F22                   STS.L       PR,@-R15
      Monochrome   691    {
      Monochrome   692            int plot_x, plot_y;
      Monochrome   693            float d1, d2;
      Monochrome   694            if(radius1 < 1 || radius2 < 1) return;
    0000106A E401                   MOV         #1,R4
    0000106C 4F12                   STS.L       MACL,@-R15
    0000106E 3B43                   CMP/GE      R4,R11
    00001070 7FEC                   ADD         #-20,R15
    00001072 8D02                   BT/S        L1294
    00001074 5AFE                   MOV.L       @(56,R15),R10
    00001076 A13F                   BRA         L1011
    00001078 0009                   NOP
    0000107A              L1294:                            
    0000107A 3C43                   CMP/GE      R4,R12
    0000107C 8901                   BT          L1295
    0000107E A13B                   BRA         L1011
    00001080 0009                   NOP
    00001082              L1295:                            
      Monochrome   695            plot_x = 0;
    00001082 ED00                   MOV         #0,R13
      Monochrome   696            plot_y = radius2;
      Monochrome   697            d1 = radius2*radius2 - radius1*radius1*radius2 + radius1*radius1/4;
    00001084 0BB7                   MUL.L       R11,R11
    00001086 6EC3                   MOV         R12,R14
    00001088 001A                   STS         MACL,R0
    0000108A 4011                   CMP/PZ      R0
    0000108C 8D01                   BT/S        L1012
    0000108E 1F02                   MOV.L       R0,@(8,R15)
    00001090 7003                   ADD         #3,R0
    00001092              L1012:                            
    00001092 4021                   SHAR        R0
    00001094 52F2                   MOV.L       @(8,R15),R2
    00001096 4021                   SHAR        R0
    00001098 02C7                   MUL.L       R12,R2
    0000109A 021A                   STS         MACL,R2
    0000109C 0CC7                   MUL.L       R12,R12




SH SERIES C/C++ Compiler (Ver. 6.0C)                                                                 15-May-2021 18:55:24  PAGE   54


SCT OFFSET   CODE       C LABEL     INSTRUCTION OPERAND    COMMENT

    0000109E 3028                   SUB         R2,R0
    000010A0 D20E                   MOV.L       L1293+2,R2 ; __itos
    000010A2 031A                   STS         MACL,R3
    000010A4 1F34                   MOV.L       R3,@(16,R15)
    000010A6 420B                   JSR         @R2
    000010A8 303C                   ADD         R3,R0
      Monochrome   698            while(radius1*radius1*(plot_y-.5) > radius2*radius2*(plot_x+1))
    000010AA A04E                   BRA         L1013
    000010AC 2F02                   MOV.L       R0,@R15
    000010AE              L1014:                            
    000010AE 64D3                   MOV         R13,R4
    000010B0 61F2                   MOV.L       @R15,R1
    000010B2 4400                   SHLL        R4
    000010B4 D313                   MOV.L       L1293+42,R3; __lts
    000010B6 7403                   ADD         #3,R4
    000010B8 04C7                   MUL.L       R12,R4
    000010BA 041A                   STS         MACL,R4
    000010BC 04C7                   MUL.L       R12,R4
    000010BE 041A                   STS         MACL,R4
    000010C0 430B                   JSR         @R3
    000010C2 E000                   MOV         #0,R0
    000010C4 8800                   CMP/EQ      #0,R0
    000010C6 891F                   BT          L1015
      Monochrome   699            {
      Monochrome   700                    if(d1 < 0)
      Monochrome   701                    {
      Monochrome   702                            d1 += radius2*radius2*(2*plot_x+3);
    000010C8 D204                   MOV.L       L1293+2,R2 ; __itos
    000010CA 420B                   JSR         @R2
    000010CC 6043                   MOV         R4,R0
    000010CE D304                   MOV.L       L1293+6,R3 ; __adds
    000010D0 430B                   JSR         @R3
    000010D2 61F2                   MOV.L       @R15,R1
    000010D4 2F02                   MOV.L       R0,@R15
      Monochrome   703                            plot_x++;
    000010D6 A038                   BRA         L1013
    000010D8 7D01                   ADD         #1,R13
    000010DA              L1293:                            
    000010DA 0000                   .DATA.W     0
    000010DC <00000000>             .DATA.L     __itos
    000010E0 <00000000>             .DATA.L     __adds
    000010E4 <00000000>             .DATA.L     __itod
    000010E8 BFE00000               .DATA.L     H'BFE00000
    000010EC <00000000>             .DATA.L     __addd
    000010F0 <00000000>             .DATA.L     __muld
    000010F4 <00000000>             .DATA.L     __gtd
    000010F8 3FE00000               .DATA.L     H'3FE00000
    000010FC <00000000>             .DATA.L     __subdr
    00001100 <00000000>             .DATA.L     __dtos
    00001104 <00000000>             .DATA.L     __lts
    00001108              L1015:                            
      Monochrome   704                    } else {
      Monochrome   705                            d1 += radius2*radius2*(2*plot_x+3) + radius1*radius1*(-2*plot_y+2);
    00001108 D3A0                   MOV.L       L1296+2,R3 ; __itos
    0000110A 62E3                   MOV         R14,R2
    0000110C 4200                   SHLL        R2
    0000110E E002                   MOV         #2,R0




SH SERIES C/C++ Compiler (Ver. 6.0C)                                                                 15-May-2021 18:55:24  PAGE   55


SCT OFFSET   CODE       C LABEL     INSTRUCTION OPERAND    COMMENT

    00001110 3028                   SUB         R2,R0
    00001112 00B7                   MUL.L       R11,R0
    00001114 001A                   STS         MACL,R0
    00001116 00B7                   MUL.L       R11,R0
    00001118 001A                   STS         MACL,R0
    0000111A 430B                   JSR         @R3
    0000111C 304C                   ADD         R4,R0
    0000111E D29C                   MOV.L       L1296+6,R2 ; __adds
    00001120 420B                   JSR         @R2
    00001122 61F2                   MOV.L       @R15,R1
    00001124 2F02                   MOV.L       R0,@R15
      Monochrome   706                            ML_horizontal_line(y+plot_y, x-plot_x, x+plot_x, color);
    00001126 67A3                   MOV         R10,R7
    00001128 6683                   MOV         R8,R6
    0000112A 36DC                   ADD         R13,R6
    0000112C 1F61                   MOV.L       R6,@(4,R15)
    0000112E 6583                   MOV         R8,R5
    00001130 35D8                   SUB         R13,R5
    00001132 6493                   MOV         R9,R4
    00001134 1F53                   MOV.L       R5,@(12,R15)
    00001136 B909                   BSR         _ML_horizontal_line
    00001138 34EC                   ADD         R14,R4
      Monochrome   707                            ML_horizontal_line(y-plot_y, x-plot_x, x+plot_x, color);
    0000113A 67A3                   MOV         R10,R7
    0000113C 56F1                   MOV.L       @(4,R15),R6
    0000113E 6493                   MOV         R9,R4
    00001140 55F3                   MOV.L       @(12,R15),R5
    00001142 B903                   BSR         _ML_horizontal_line
    00001144 34E8                   SUB         R14,R4
      Monochrome   708                            plot_x++;
    00001146 7D01                   ADD         #1,R13
      Monochrome   709                            plot_y--;
    00001148 7EFF                   ADD         #-1,R14
    0000114A              L1013:                            
    0000114A 7FF8                   ADD         #-8,R15
    0000114C D291                   MOV.L       L1296+10,R2; __itod
    0000114E 50F4                   MOV.L       @(16,R15),R0
    00001150 7FF8                   ADD         #-8,R15
    00001152 420B                   JSR         @R2
    00001154 2FF6                   MOV.L       R15,@-R15
    00001156 60E3                   MOV         R14,R0
    00001158 D38E                   MOV.L       L1296+10,R3; __itod
    0000115A 7FF0                   ADD         #-16,R15
    0000115C 430B                   JSR         @R3
    0000115E 2FF6                   MOV.L       R15,@-R15
    00001160 D18E                   MOV.L       L1296+18,R1; __addd
    00001162 E200                   MOV         #0,R2
    00001164 2F26                   MOV.L       R2,@-R15
    00001166 D28C                   MOV.L       L1296+14,R2; H'BFE00000
    00001168 2F26                   MOV.L       R2,@-R15
    0000116A 63F3                   MOV         R15,R3
    0000116C 7310                   ADD         #16,R3
    0000116E 410B                   JSR         @R1
    00001170 2F36                   MOV.L       R3,@-R15
    00001172 62F3                   MOV         R15,R2
    00001174 D08A                   MOV.L       L1296+22,R0; __muld
    00001176 7210                   ADD         #16,R2




SH SERIES C/C++ Compiler (Ver. 6.0C)                                                                 15-May-2021 18:55:24  PAGE   56


SCT OFFSET   CODE       C LABEL     INSTRUCTION OPERAND    COMMENT

    00001178 400B                   JSR         @R0
    0000117A 2F26                   MOV.L       R2,@-R15
    0000117C D385                   MOV.L       L1296+10,R3; __itod
    0000117E 60D3                   MOV         R13,R0
    00001180 7001                   ADD         #1,R0
    00001182 7FF8                   ADD         #-8,R15
    00001184 00C7                   MUL.L       R12,R0
    00001186 001A                   STS         MACL,R0
    00001188 00C7                   MUL.L       R12,R0
    0000118A 001A                   STS         MACL,R0
    0000118C 430B                   JSR         @R3
    0000118E 2FF6                   MOV.L       R15,@-R15
    00001190 D284                   MOV.L       L1296+26,R2; __gtd
    00001192 420B                   JSR         @R2
    00001194 0009                   NOP
    00001196 8800                   CMP/EQ      #0,R0
    00001198 8B89                   BF          L1014
      Monochrome   710                    }
      Monochrome   711            }
      Monochrome   712            ML_horizontal_line(y+plot_y, x-plot_x, x+plot_x, color);
    0000119A 67A3                   MOV         R10,R7
    0000119C 6683                   MOV         R8,R6
    0000119E 36DC                   ADD         R13,R6
    000011A0 1F61                   MOV.L       R6,@(4,R15)
    000011A2 6583                   MOV         R8,R5
    000011A4 35D8                   SUB         R13,R5
    000011A6 6493                   MOV         R9,R4
    000011A8 1F53                   MOV.L       R5,@(12,R15)
    000011AA B8CF                   BSR         _ML_horizontal_line
    000011AC 34EC                   ADD         R14,R4
      Monochrome   713            ML_horizontal_line(y-plot_y, x-plot_x, x+plot_x, color);
    000011AE 67A3                   MOV         R10,R7
    000011B0 56F1                   MOV.L       @(4,R15),R6
    000011B2 6493                   MOV         R9,R4
    000011B4 55F3                   MOV.L       @(12,R15),R5
    000011B6 B8C9                   BSR         _ML_horizontal_line
    000011B8 34E8                   SUB         R14,R4
      Monochrome   714            d2 = radius2*radius2*(plot_x+.5)*(plot_x+.5) + radius1*radius1*(plot_y-1)*(plot_y-1) - radius1*rad
                         +ius1*radius2*radius2;
    000011BA 7FE0                   ADD         #-32,R15
    000011BC D275                   MOV.L       L1296+10,R2; __itod
    000011BE 50FC                   MOV.L       @(48,R15),R0
    000011C0 7FF8                   ADD         #-8,R15
    000011C2 420B                   JSR         @R2
    000011C4 2FF6                   MOV.L       R15,@-R15
    000011C6 60D3                   MOV         R13,R0
    000011C8 D372                   MOV.L       L1296+10,R3; __itod
    000011CA 7FF0                   ADD         #-16,R15
    000011CC 430B                   JSR         @R3
    000011CE 2FF6                   MOV.L       R15,@-R15
    000011D0 D172                   MOV.L       L1296+18,R1; __addd
    000011D2 E200                   MOV         #0,R2
    000011D4 2F26                   MOV.L       R2,@-R15
    000011D6 D274                   MOV.L       L1296+30,R2; H'3FE00000
    000011D8 2F26                   MOV.L       R2,@-R15
    000011DA 63F3                   MOV         R15,R3
    000011DC 7310                   ADD         #16,R3




SH SERIES C/C++ Compiler (Ver. 6.0C)                                                                 15-May-2021 18:55:24  PAGE   57


SCT OFFSET   CODE       C LABEL     INSTRUCTION OPERAND    COMMENT

    000011DE 410B                   JSR         @R1
    000011E0 2F36                   MOV.L       R3,@-R15
    000011E2 62F3                   MOV         R15,R2
    000011E4 D06E                   MOV.L       L1296+22,R0; __muld
    000011E6 7210                   ADD         #16,R2
    000011E8 400B                   JSR         @R0
    000011EA 2F26                   MOV.L       R2,@-R15
    000011EC D369                   MOV.L       L1296+10,R3; __itod
    000011EE 60D3                   MOV         R13,R0
    000011F0 7FF0                   ADD         #-16,R15
    000011F2 430B                   JSR         @R3
    000011F4 2FF6                   MOV.L       R15,@-R15
    000011F6 E200                   MOV         #0,R2
    000011F8 D168                   MOV.L       L1296+18,R1; __addd
    000011FA 2F26                   MOV.L       R2,@-R15
    000011FC D26A                   MOV.L       L1296+30,R2; H'3FE00000
    000011FE 2F26                   MOV.L       R2,@-R15
    00001200 63F3                   MOV         R15,R3
    00001202 7310                   ADD         #16,R3
    00001204 410B                   JSR         @R1
    00001206 2F36                   MOV.L       R3,@-R15
    00001208 D065                   MOV.L       L1296+22,R0; __muld
    0000120A 62F3                   MOV         R15,R2
    0000120C 7210                   ADD         #16,R2
    0000120E 400B                   JSR         @R0
    00001210 2F26                   MOV.L       R2,@-R15
    00001212 64E3                   MOV         R14,R4
    00001214 D35F                   MOV.L       L1296+10,R3; __itod
    00001216 7FF8                   ADD         #-8,R15
    00001218 74FF                   ADD         #-1,R4
    0000121A 0447                   MUL.L       R4,R4
    0000121C 001A                   STS         MACL,R0
    0000121E 00B7                   MUL.L       R11,R0
    00001220 001A                   STS         MACL,R0
    00001222 00B7                   MUL.L       R11,R0
    00001224 001A                   STS         MACL,R0
    00001226 430B                   JSR         @R3
    00001228 2FF6                   MOV.L       R15,@-R15
    0000122A 62F3                   MOV         R15,R2
    0000122C D15B                   MOV.L       L1296+18,R1; __addd
    0000122E 7210                   ADD         #16,R2
    00001230 410B                   JSR         @R1
    00001232 2F26                   MOV.L       R2,@-R15
    00001234 50F6                   MOV.L       @(24,R15),R0
    00001236 7FF8                   ADD         #-8,R15
    00001238 D356                   MOV.L       L1296+10,R3; __itod
    0000123A 00C7                   MUL.L       R12,R0
    0000123C 001A                   STS         MACL,R0
    0000123E 00C7                   MUL.L       R12,R0
    00001240 001A                   STS         MACL,R0
    00001242 430B                   JSR         @R3
    00001244 2FF6                   MOV.L       R15,@-R15
    00001246 62F3                   MOV         R15,R2
    00001248 D158                   MOV.L       L1296+34,R1; __subdr
    0000124A 7210                   ADD         #16,R2
    0000124C 410B                   JSR         @R1
    0000124E 2F26                   MOV.L       R2,@-R15




SH SERIES C/C++ Compiler (Ver. 6.0C)                                                                 15-May-2021 18:55:24  PAGE   58


SCT OFFSET   CODE       C LABEL     INSTRUCTION OPERAND    COMMENT

    00001250 D357                   MOV.L       L1296+38,R3; __dtos
    00001252 430B                   JSR         @R3
    00001254 0009                   NOP
      Monochrome   715            while(plot_y > 0)
    00001256 4E15                   CMP/PL      R14
    00001258 2F02                   MOV.L       R0,@R15
    0000125A 53F3                   MOV.L       @(12,R15),R3
    0000125C 1F32                   MOV.L       R3,@(8,R15)
    0000125E 52F1                   MOV.L       @(4,R15),R2
    00001260 1F24                   MOV.L       R2,@(16,R15)
    00001262 53F3                   MOV.L       @(12,R15),R3
    00001264 1F31                   MOV.L       R3,@(4,R15)
    00001266 8B47                   BF          L1011
    00001268              L1018:                            
      Monochrome   716            {
      Monochrome   717                    if(d2 < 0)
    00001268 61F2                   MOV.L       @R15,R1
    0000126A D252                   MOV.L       L1296+42,R2; __lts
    0000126C 420B                   JSR         @R2
    0000126E E000                   MOV         #0,R0
    00001270 8800                   CMP/EQ      #0,R0
    00001272 8921                   BT          L1019
      Monochrome   718                    {
      Monochrome   719                            d2 += radius2*radius2*(2*plot_x+2) + radius1*radius1*(-2*plot_y+3);
    00001274 60D3                   MOV         R13,R0
    00001276 4000                   SHLL        R0
    00001278 7002                   ADD         #2,R0
    0000127A 63E3                   MOV         R14,R3
    0000127C 00C7                   MUL.L       R12,R0
    0000127E E203                   MOV         #3,R2
    00001280 001A                   STS         MACL,R0
    00001282 4300                   SHLL        R3
    00001284 00C7                   MUL.L       R12,R0
    00001286 3238                   SUB         R3,R2
    00001288 D340                   MOV.L       L1296+2,R3 ; __itos
    0000128A 001A                   STS         MACL,R0
    0000128C 02B7                   MUL.L       R11,R2
    0000128E 021A                   STS         MACL,R2
    00001290 02B7                   MUL.L       R11,R2
    00001292 021A                   STS         MACL,R2
    00001294 430B                   JSR         @R3
    00001296 302C                   ADD         R2,R0
    00001298 D23D                   MOV.L       L1296+6,R2 ; __adds
    0000129A 420B                   JSR         @R2
    0000129C 61F2                   MOV.L       @R15,R1
      Monochrome   720                            plot_y--;
    0000129E 7EFF                   ADD         #-1,R14
    000012A0 2F02                   MOV.L       R0,@R15
      Monochrome   721                            plot_x++;
    000012A2 7D01                   ADD         #1,R13
    000012A4 53F2                   MOV.L       @(8,R15),R3
    000012A6 73FF                   ADD         #-1,R3
    000012A8 1F32                   MOV.L       R3,@(8,R15)
    000012AA 52F4                   MOV.L       @(16,R15),R2
    000012AC 7201                   ADD         #1,R2
    000012AE 1F24                   MOV.L       R2,@(16,R15)
    000012B0 51F1                   MOV.L       @(4,R15),R1




SH SERIES C/C++ Compiler (Ver. 6.0C)                                                                 15-May-2021 18:55:24  PAGE   59


SCT OFFSET   CODE       C LABEL     INSTRUCTION OPERAND    COMMENT

    000012B2 71FF                   ADD         #-1,R1
    000012B4 A00F                   BRA         L1020
    000012B6 1F11                   MOV.L       R1,@(4,R15)
    000012B8              L1019:                            
      Monochrome   722                    } else {
      Monochrome   723                            d2 += radius1*radius1*(-2*plot_y+3);
    000012B8 D334                   MOV.L       L1296+2,R3 ; __itos
    000012BA 62E3                   MOV         R14,R2
    000012BC 4200                   SHLL        R2
    000012BE E003                   MOV         #3,R0
    000012C0 3028                   SUB         R2,R0
    000012C2 00B7                   MUL.L       R11,R0
    000012C4 001A                   STS         MACL,R0
    000012C6 00B7                   MUL.L       R11,R0
    000012C8 430B                   JSR         @R3
    000012CA 001A                   STS         MACL,R0
    000012CC D230                   MOV.L       L1296+6,R2 ; __adds
    000012CE 420B                   JSR         @R2
    000012D0 61F2                   MOV.L       @R15,R1
      Monochrome   724                            plot_y--;
    000012D2 7EFF                   ADD         #-1,R14
    000012D4 2F02                   MOV.L       R0,@R15
    000012D6              L1020:                            
      Monochrome   725                    }
      Monochrome   726                    ML_horizontal_line(y+plot_y, x-plot_x, x+plot_x, color);
    000012D6 67A3                   MOV         R10,R7
    000012D8 55F1                   MOV.L       @(4,R15),R5
    000012DA 6493                   MOV         R9,R4
    000012DC 6683                   MOV         R8,R6
    000012DE 36DC                   ADD         R13,R6
    000012E0 B834                   BSR         _ML_horizontal_line
    000012E2 34EC                   ADD         R14,R4
      Monochrome   727                    if(plot_y > 0)
    000012E4 4E15                   CMP/PL      R14
    000012E6 8B05                   BF          L1021
      Monochrome   728                            ML_horizontal_line(y-plot_y, x-plot_x, x+plot_x, color);
    000012E8 56F4                   MOV.L       @(16,R15),R6
    000012EA 6493                   MOV         R9,R4
    000012EC 55F2                   MOV.L       @(8,R15),R5
    000012EE 67A3                   MOV         R10,R7
    000012F0 B82C                   BSR         _ML_horizontal_line
    000012F2 34E8                   SUB         R14,R4
    000012F4              L1021:                            
    000012F4 4E15                   CMP/PL      R14
    000012F6 89B7                   BT          L1018
    000012F8              L1011:                            
      Monochrome   729            }
      Monochrome   730    }
    000012F8 7F14                   ADD         #20,R15
    000012FA 4F16                   LDS.L       @R15+,MACL
    000012FC 4F26                   LDS.L       @R15+,PR
    000012FE 68F6                   MOV.L       @R15+,R8
    00001300 69F6                   MOV.L       @R15+,R9
    00001302 6AF6                   MOV.L       @R15+,R10
    00001304 6BF6                   MOV.L       @R15+,R11
    00001306 6CF6                   MOV.L       @R15+,R12
    00001308 6DF6                   MOV.L       @R15+,R13




SH SERIES C/C++ Compiler (Ver. 6.0C)                                                                 15-May-2021 18:55:24  PAGE   60


SCT OFFSET   CODE       C LABEL     INSTRUCTION OPERAND    COMMENT

    0000130A 000B                   RTS
    0000130C 6EF6                   MOV.L       @R15+,R14
      Monochrome   731    #endif
      Monochrome   732    
      Monochrome   733    #ifdef ML_FILLED_ELLIPSE_IN_RECT
      Monochrome   734    void ML_filled_ellipse_in_rect(int x1, int y1, int x2, int y2, ML_Color color)
    0000130E              _ML_filled_ellipse_in_rect:      ; function: ML_filled_ellipse_in_rect
                                                           ; frame size=24
    0000130E 2FE6                   MOV.L       R14,@-R15
    00001310 2FD6                   MOV.L       R13,@-R15
    00001312 6E43                   MOV         R4,R14
    00001314 2FC6                   MOV.L       R12,@-R15
      Monochrome   735    {
      Monochrome   736            int radius1, radius2;
      Monochrome   737            if(x1 > x2)
    00001316 3E67                   CMP/GT      R6,R14
    00001318 2FB6                   MOV.L       R11,@-R15
    0000131A 4F22                   STS.L       PR,@-R15
    0000131C 8F03                   BF/S        L1022
    0000131E 6D53                   MOV         R5,R13
      Monochrome   738            {
      Monochrome   739                    int tmp = x1;
    00001320 64E3                   MOV         R14,R4
      Monochrome   740                    x1 = x2;
    00001322 6E63                   MOV         R6,R14
      Monochrome   741                    x2 = tmp;
    00001324 6643                   MOV         R4,R6
    00001326              L1022:                            
      Monochrome   742            }
      Monochrome   743            if(y1 > y2)
    00001326 3D77                   CMP/GT      R7,R13
    00001328 8F03                   BF/S        L1023
      Monochrome   744            {
      Monochrome   745                    int tmp = y1;
      Monochrome   746                    y1 = y2;
      Monochrome   747                    y2 = tmp;
      Monochrome   748            }
      Monochrome   749            radius1 = (x2-x1)/2;
    0000132A 36E8                   SUB         R14,R6
    0000132C 64D3                   MOV         R13,R4
    0000132E 6D73                   MOV         R7,R13
    00001330 6743                   MOV         R4,R7
    00001332              L1023:                            
    00001332 6B63                   MOV         R6,R11
      Monochrome   750            radius2 = (y2-y1)/2;
      Monochrome   751            ML_filled_ellipse(x1+radius1, y1+radius2, radius1, radius2, color);
    00001334 52F5                   MOV.L       @(20,R15),R2
    00001336 65D3                   MOV         R13,R5
    00001338 2F26                   MOV.L       R2,@-R15
    0000133A 64E3                   MOV         R14,R4
    0000133C E300                   MOV         #0,R3
    0000133E 33B7                   CMP/GT      R11,R3
    00001340 3B3E                   ADDC        R3,R11
    00001342 4B21                   SHAR        R11
    00001344 37D8                   SUB         R13,R7
    00001346 6C73                   MOV         R7,R12
    00001348 33C7                   CMP/GT      R12,R3




SH SERIES C/C++ Compiler (Ver. 6.0C)                                                                 15-May-2021 18:55:24  PAGE   61


SCT OFFSET   CODE       C LABEL     INSTRUCTION OPERAND    COMMENT

    0000134A 3C3E                   ADDC        R3,R12
    0000134C 4C21                   SHAR        R12
    0000134E 67C3                   MOV         R12,R7
    00001350 66B3                   MOV         R11,R6
    00001352 35CC                   ADD         R12,R5
    00001354 BE7D                   BSR         _ML_filled_ellipse
    00001356 34BC                   ADD         R11,R4
      Monochrome   752    }
    00001358 7F04                   ADD         #4,R15
    0000135A 4F26                   LDS.L       @R15+,PR
    0000135C 6BF6                   MOV.L       @R15+,R11
    0000135E 6CF6                   MOV.L       @R15+,R12
    00001360 6DF6                   MOV.L       @R15+,R13
    00001362 000B                   RTS
    00001364 6EF6                   MOV.L       @R15+,R14
      Monochrome   753    #endif
      Monochrome   754    
      Monochrome   755    #ifdef ML_HORIZONTAL_SCROLL
      Monochrome   756    void ML_horizontal_scroll(int scroll)
    00001366              _ML_horizontal_scroll:           ; function: ML_horizontal_scroll
                                                           ; frame size=80
    00001366 2FE6                   MOV.L       R14,@-R15
    00001368 2FD6                   MOV.L       R13,@-R15
    0000136A 2FC6                   MOV.L       R12,@-R15
    0000136C 2FB6                   MOV.L       R11,@-R15
    0000136E 2FA6                   MOV.L       R10,@-R15
    00001370 2F96                   MOV.L       R9,@-R15
    00001372 2F86                   MOV.L       R8,@-R15
    00001374 4F22                   STS.L       PR,@-R15
    00001376 7FD0                   ADD         #-48,R15
      Monochrome   757    {
      Monochrome   758            int i, j;
      Monochrome   759            char line[16], shift, *vram;
      Monochrome   760            unsigned char next;
      Monochrome   761            unsigned short word;
      Monochrome   762            vram = ML_vram_adress();
    00001378 DE0F                   MOV.L       L1296+46,R14; _sc0135
    0000137A 4E0B                   JSR         @R14
    0000137C 6C43                   MOV         R4,R12
    0000137E 6E03                   MOV         R0,R14
      Monochrome   763            scroll %= 128;
    00001380 4C11                   CMP/PZ      R12
    00001382 8F1B                   BF/S        L1024
    00001384 E37F                   MOV         #127,R3
    00001386 A01E                   BRA         L1025
    00001388 2C39                   AND         R3,R12
    0000138A              L1296:                            
    0000138A 0000                   .DATA.W     0
    0000138C <00000000>             .DATA.L     __itos
    00001390 <00000000>             .DATA.L     __adds
    00001394 <00000000>             .DATA.L     __itod
    00001398 BFE00000               .DATA.L     H'BFE00000
    0000139C <00000000>             .DATA.L     __addd
    000013A0 <00000000>             .DATA.L     __muld
    000013A4 <00000000>             .DATA.L     __gtd
    000013A8 3FE00000               .DATA.L     H'3FE00000
    000013AC <00000000>             .DATA.L     __subdr




SH SERIES C/C++ Compiler (Ver. 6.0C)                                                                 15-May-2021 18:55:24  PAGE   62


SCT OFFSET   CODE       C LABEL     INSTRUCTION OPERAND    COMMENT

    000013B0 <00000000>             .DATA.L     __dtos
    000013B4 <00000000>             .DATA.L     __lts
    000013B8 <00000000>             .DATA.L     _sc0135
    000013BC              L1024:                            
    000013BC 6CC7                   NOT         R12,R12
    000013BE 7C01                   ADD         #1,R12
    000013C0 2C39                   AND         R3,R12
    000013C2 6CC7                   NOT         R12,R12
    000013C4 7C01                   ADD         #1,R12
    000013C6              L1025:                            
      Monochrome   764            shift = 8-(scroll&7);
    000013C6 E107                   MOV         #7,R1
    000013C8 21C9                   AND         R12,R1
    000013CA E008                   MOV         #8,R0
    000013CC 3018                   SUB         R1,R0
      Monochrome   765            for(i=0 ; i<64 ; i++)
    000013CE E700                   MOV         #0,R7
    000013D0 80F4                   MOV.B       R0,@(4,R15)
    000013D2 6DE3                   MOV         R14,R13
    000013D4 6A73                   MOV         R7,R10
    000013D6 6873                   MOV         R7,R8
    000013D8 69E3                   MOV         R14,R9
    000013DA 790F                   ADD         #15,R9
    000013DC 64F3                   MOV         R15,R4
    000013DE 7420                   ADD         #32,R4
    000013E0 6343                   MOV         R4,R3
    000013E2 7310                   ADD         #16,R3
    000013E4 1F32                   MOV.L       R3,@(8,R15)
    000013E6 4C21                   SHAR        R12
    000013E8 4C21                   SHAR        R12
    000013EA 4C21                   SHAR        R12
    000013EC 1FC4                   MOV.L       R12,@(16,R15)
    000013EE 6243                   MOV         R4,R2
    000013F0 1F25                   MOV.L       R2,@(20,R15)
    000013F2 6123                   MOV         R2,R1
    000013F4 710F                   ADD         #15,R1
    000013F6 EC0F                   MOV         #15,R12
    000013F8 1F16                   MOV.L       R1,@(24,R15)
    000013FA 740E                   ADD         #14,R4
    000013FC 1F47                   MOV.L       R4,@(28,R15)
    000013FE              L1026:                            
      Monochrome   766            {
      Monochrome   767                    for(j=0 ; j<16 ; j++) line[j] = vram[(i<<4)+((j-(scroll>>3)+15)&15)];
    000013FE 6473                   MOV         R7,R4
    00001400 53F4                   MOV.L       @(16,R15),R3
    00001402 66A3                   MOV         R10,R6
    00001404 3438                   SUB         R3,R4
    00001406 6543                   MOV         R4,R5
    00001408 54F5                   MOV.L       @(20,R15),R4
    0000140A 4608                   SHLL2       R6
    0000140C 750F                   ADD         #15,R5
    0000140E 4608                   SHLL2       R6
    00001410              L1027:                            
    00001410 6053                   MOV         R5,R0
    00001412 20C9                   AND         R12,R0
    00001414 306C                   ADD         R6,R0
    00001416 03EC                   MOV.B       @(R0,R14),R3




SH SERIES C/C++ Compiler (Ver. 6.0C)                                                                 15-May-2021 18:55:24  PAGE   63


SCT OFFSET   CODE       C LABEL     INSTRUCTION OPERAND    COMMENT

    00001418 2430                   MOV.B       R3,@R4
    0000141A 7401                   ADD         #1,R4
    0000141C 52F2                   MOV.L       @(8,R15),R2
    0000141E 3422                   CMP/HS      R2,R4
    00001420 8FF6                   BF/S        L1027
    00001422 7501                   ADD         #1,R5
      Monochrome   768                    next = line[15];
    00001424 56F6                   MOV.L       @(24,R15),R6
      Monochrome   769                    vram[(i<<4)+15] = 0;
      Monochrome   770                    for(j=15 ; j>0 ; j--)
    00001426 6BC3                   MOV         R12,R11
    00001428 6660                   MOV.B       @R6,R6
    0000142A 6483                   MOV         R8,R4
    0000142C 2970                   MOV.B       R7,@R9
    0000142E 740F                   ADD         #15,R4
    00001430 55F7                   MOV.L       @(28,R15),R5
    00001432              L1028:                            
      Monochrome   771                    {
      Monochrome   772                            word = next << shift;
    00001432 666C                   EXTU.B      R6,R6
    00001434 84F4                   MOV.B       @(4,R15),R0
      Monochrome   773                            next = line[j-1];
      Monochrome   774                            vram[(i<<4)+j] |= *((char*)&word+1);
    00001436 63F3                   MOV         R15,R3
    00001438 460D                   SHLD        R0,R6
    0000143A 6043                   MOV         R4,R0
    0000143C 2F61                   MOV.W       R6,@R15
    0000143E E201                   MOV         #1,R2
    00001440 6650                   MOV.B       @R5,R6
    00001442 7BFF                   ADD         #-1,R11
    00001444 323C                   ADD         R3,R2
    00001446 4B15                   CMP/PL      R11
    00001448 6320                   MOV.B       @R2,R3
    0000144A 02EC                   MOV.B       @(R0,R14),R2
    0000144C 223B                   OR          R3,R2
      Monochrome   775                            vram[(i<<4)+j-1] = *((char*)&word);
    0000144E 63F3                   MOV         R15,R3
    00001450 0E24                   MOV.B       R2,@(R0,R14)
    00001452 70FF                   ADD         #-1,R0
    00001454 1F03                   MOV.L       R0,@(12,R15)
    00001456 6230                   MOV.B       @R3,R2
    00001458 0E24                   MOV.B       R2,@(R0,R14)
    0000145A 54F3                   MOV.L       @(12,R15),R4
    0000145C 8DE9                   BT/S        L1028
    0000145E 75FF                   ADD         #-1,R5
      Monochrome   776                    }
      Monochrome   777                    word = next << shift;
    00001460 84F4                   MOV.B       @(4,R15),R0
      Monochrome   778                    vram[(i<<4)] |= *((char*)&word+1);
    00001462 63F3                   MOV         R15,R3
    00001464 666C                   EXTU.B      R6,R6
    00001466 460D                   SHLD        R0,R6
    00001468 2F61                   MOV.W       R6,@R15
    0000146A 7A01                   ADD         #1,R10
    0000146C 8431                   MOV.B       @(1,R3),R0
    0000146E 7810                   ADD         #16,R8
    00001470 62D0                   MOV.B       @R13,R2




SH SERIES C/C++ Compiler (Ver. 6.0C)                                                                 15-May-2021 18:55:24  PAGE   64


SCT OFFSET   CODE       C LABEL     INSTRUCTION OPERAND    COMMENT

      Monochrome   779                    vram[(i<<4)+15] |= *((char*)&word);
    00001472 63F3                   MOV         R15,R3
    00001474 220B                   OR          R0,R2
    00001476 2D20                   MOV.B       R2,@R13
    00001478 6330                   MOV.B       @R3,R3
    0000147A 84DF                   MOV.B       @(15,R13),R0
    0000147C 203B                   OR          R3,R0
    0000147E E340                   MOV         #64,R3
    00001480 80DF                   MOV.B       R0,@(15,R13)
    00001482 3A33                   CMP/GE      R3,R10
    00001484 7D10                   ADD         #16,R13
    00001486 8FBA                   BF/S        L1026
    00001488 7910                   ADD         #16,R9
      Monochrome   780            }
      Monochrome   781    }
    0000148A 7F30                   ADD         #48,R15
    0000148C 4F26                   LDS.L       @R15+,PR
    0000148E 68F6                   MOV.L       @R15+,R8
    00001490 69F6                   MOV.L       @R15+,R9
    00001492 6AF6                   MOV.L       @R15+,R10
    00001494 6BF6                   MOV.L       @R15+,R11
    00001496 6CF6                   MOV.L       @R15+,R12
    00001498 6DF6                   MOV.L       @R15+,R13
    0000149A 000B                   RTS
    0000149C 6EF6                   MOV.L       @R15+,R14
      Monochrome   782    #endif
      Monochrome   783    
      Monochrome   784    #ifdef ML_VERTICAL_SCROLL
      Monochrome   785    void ML_vertical_scroll(int scroll)
    0000149E              _ML_vertical_scroll:             ; function: ML_vertical_scroll
                                                           ; frame size=104
    0000149E 2FE6                   MOV.L       R14,@-R15
    000014A0 2FD6                   MOV.L       R13,@-R15
    000014A2 2FC6                   MOV.L       R12,@-R15
    000014A4 2FB6                   MOV.L       R11,@-R15
    000014A6 2FA6                   MOV.L       R10,@-R15
    000014A8 2F86                   MOV.L       R8,@-R15
    000014AA 4F22                   STS.L       PR,@-R15
      Monochrome   786    {
      Monochrome   787            int i, j;
      Monochrome   788            char column[64], *vram = ML_vram_adress();
    000014AC D31F                   MOV.L       L1297,R3   ; _sc0135
    000014AE 7FB4                   ADD         #-76,R15
    000014B0 430B                   JSR         @R3
    000014B2 2F42                   MOV.L       R4,@R15
    000014B4 1F01                   MOV.L       R0,@(4,R15)
      Monochrome   789            scroll %= 64;
    000014B6 60F2                   MOV.L       @R15,R0
    000014B8 4011                   CMP/PZ      R0
    000014BA 8B01                   BF          L1029
    000014BC A005                   BRA         L1030
    000014BE C93F                   AND         #63,R0
    000014C0              L1029:                            
    000014C0 6007                   NOT         R0,R0
    000014C2 7001                   ADD         #1,R0
    000014C4 C93F                   AND         #63,R0
    000014C6 6007                   NOT         R0,R0




SH SERIES C/C++ Compiler (Ver. 6.0C)                                                                 15-May-2021 18:55:24  PAGE   65


SCT OFFSET   CODE       C LABEL     INSTRUCTION OPERAND    COMMENT

    000014C8 7001                   ADD         #1,R0
    000014CA              L1030:                            
      Monochrome   790            for(i=0 ; i<16 ; i++)
    000014CA EC00                   MOV         #0,R12
    000014CC 2F02                   MOV.L       R0,@R15
    000014CE 6EF3                   MOV         R15,R14
    000014D0 67C3                   MOV         R12,R7
    000014D2 7E0C                   ADD         #12,R14
    000014D4 68E3                   MOV         R14,R8
    000014D6 7840                   ADD         #64,R8
    000014D8 EA10                   MOV         #16,R10
    000014DA EB3F                   MOV         #63,R11
    000014DC ED40                   MOV         #64,R13
    000014DE 63E3                   MOV         R14,R3
    000014E0 1F32                   MOV.L       R3,@(8,R15)
    000014E2              L1031:                            
    000014E2 51F1                   MOV.L       @(4,R15),R1
    000014E4 54F2                   MOV.L       @(8,R15),R4
    000014E6 317C                   ADD         R7,R1
    000014E8 6513                   MOV         R1,R5
      Monochrome   791            {
      Monochrome   792                    for(j=0 ; j<64 ; j++) column[j] = vram[(j<<4)+i];
    000014EA              L1032:                            
    000014EA 6250                   MOV.B       @R5,R2
    000014EC 2420                   MOV.B       R2,@R4
    000014EE 7401                   ADD         #1,R4
    000014F0 3482                   CMP/HS      R8,R4
    000014F2 8FFA                   BF/S        L1032
    000014F4 7510                   ADD         #16,R5
      Monochrome   793                    for(j=0 ; j<64 ; j++) vram[(j<<4)+i] = column[(j-scroll+64)&63];
    000014F6 66C3                   MOV         R12,R6
    000014F8 63F2                   MOV.L       @R15,R3
    000014FA 64C3                   MOV         R12,R4
    000014FC 3438                   SUB         R3,R4
    000014FE 7440                   ADD         #64,R4
    00001500 6513                   MOV         R1,R5
    00001502              L1033:                            
    00001502 6043                   MOV         R4,R0
    00001504 20B9                   AND         R11,R0
    00001506 7601                   ADD         #1,R6
    00001508 03EC                   MOV.B       @(R0,R14),R3
    0000150A 7401                   ADD         #1,R4
    0000150C 2530                   MOV.B       R3,@R5
    0000150E 36D3                   CMP/GE      R13,R6
    00001510 8FF7                   BF/S        L1033
    00001512 7510                   ADD         #16,R5
    00001514 7701                   ADD         #1,R7
    00001516 37A3                   CMP/GE      R10,R7
    00001518 8BE3                   BF          L1031
      Monochrome   794            }
      Monochrome   795    }
    0000151A 7F4C                   ADD         #76,R15
    0000151C 4F26                   LDS.L       @R15+,PR
    0000151E 68F6                   MOV.L       @R15+,R8
    00001520 6AF6                   MOV.L       @R15+,R10
    00001522 6BF6                   MOV.L       @R15+,R11
    00001524 6CF6                   MOV.L       @R15+,R12




SH SERIES C/C++ Compiler (Ver. 6.0C)                                                                 15-May-2021 18:55:24  PAGE   66


SCT OFFSET   CODE       C LABEL     INSTRUCTION OPERAND    COMMENT

    00001526 6DF6                   MOV.L       @R15+,R13
    00001528 000B                   RTS
    0000152A 6EF6                   MOV.L       @R15+,R14
    0000152C              L1297:                            
    0000152C <00000000>             .DATA.L     _sc0135
      Monochrome   796    #endif
      Monochrome   797    
      Monochrome   798    #ifdef ML_BMP_OR
      Monochrome   799    void ML_bmp_or(const unsigned char *bmp, int x, int y, int width, int height)
    00001530              _ML_bmp_or:                      ; function: ML_bmp_or
                                                           ; frame size=60
    00001530 2FE6                   MOV.L       R14,@-R15
    00001532 6E63                   MOV         R6,R14
    00001534 2FD6                   MOV.L       R13,@-R15
    00001536 2FC6                   MOV.L       R12,@-R15
    00001538 2FB6                   MOV.L       R11,@-R15
    0000153A 6B43                   MOV         R4,R11
    0000153C 2FA6                   MOV.L       R10,@-R15
    0000153E 6A53                   MOV         R5,R10
    00001540 2F96                   MOV.L       R9,@-R15
    00001542 6973                   MOV         R7,R9
    00001544 2F86                   MOV.L       R8,@-R15
      Monochrome   800    {
      Monochrome   801            unsigned short line;
      Monochrome   802            char shift, *screen, *p=(char*)&line;
      Monochrome   803            int i, j, begin=0, end=height, real_width=(width-1>>3<<3)+8;
    00001546 6C93                   MOV         R9,R12
    00001548 4F22                   STS.L       PR,@-R15
    0000154A E800                   MOV         #0,R8
    0000154C 4F12                   STS.L       MACL,@-R15
    0000154E 7CFF                   ADD         #-1,R12
    00001550 7FE8                   ADD         #-24,R15
    00001552 6DF3                   MOV         R15,R13
    00001554 54FF                   MOV.L       @(60,R15),R4
    00001556 4C21                   SHAR        R12
    00001558 2F82                   MOV.L       R8,@R15
    0000155A 7D04                   ADD         #4,R13
    0000155C 1F45                   MOV.L       R4,@(20,R15)
    0000155E 4C21                   SHAR        R12
    00001560 4C21                   SHAR        R12
    00001562 62C3                   MOV         R12,R2
    00001564 4208                   SHLL2       R2
    00001566 4200                   SHLL        R2
    00001568 7208                   ADD         #8,R2
      Monochrome   804            if(!bmp || x<0 || x>128-width || y<1-height || y>63 || width<1 || height<1) return;
    0000156A 2BB8                   TST         R11,R11
    0000156C 8F02                   BF/S        L1298
    0000156E 1F23                   MOV.L       R2,@(12,R15)
    00001570 A085                   BRA         L1036
    00001572 0009                   NOP
    00001574              L1298:                            
    00001574 4A11                   CMP/PZ      R10
    00001576 8901                   BT          L1299
    00001578 A081                   BRA         L1036
    0000157A 0009                   NOP
    0000157C              L1299:                            
    0000157C 933D                   MOV.W       L1300,R3   ; H'0080




SH SERIES C/C++ Compiler (Ver. 6.0C)                                                                 15-May-2021 18:55:24  PAGE   67


SCT OFFSET   CODE       C LABEL     INSTRUCTION OPERAND    COMMENT

    0000157E 3398                   SUB         R9,R3
    00001580 3A37                   CMP/GT      R3,R10
    00001582 8B01                   BF          L1301
    00001584 A07B                   BRA         L1036
    00001586 0009                   NOP
    00001588              L1301:                            
    00001588 E301                   MOV         #1,R3
    0000158A 3348                   SUB         R4,R3
    0000158C 3E33                   CMP/GE      R3,R14
    0000158E 8B76                   BF          L1036
    00001590 E33F                   MOV         #63,R3
    00001592 3E37                   CMP/GT      R3,R14
    00001594 8973                   BT          L1036
    00001596 E001                   MOV         #1,R0
    00001598 3903                   CMP/GE      R0,R9
    0000159A 8B70                   BF          L1036
    0000159C 3403                   CMP/GE      R0,R4
    0000159E 8B6E                   BF          L1036
      Monochrome   805            if(y < 0) begin = -y;
    000015A0 4E11                   CMP/PZ      R14
    000015A2 8D02                   BT/S        L1037
      Monochrome   806            if(y+height > 64) end = 64-y;
    000015A4 E540                   MOV         #64,R5
    000015A6 62EB                   NEG         R14,R2
    000015A8 2F22                   MOV.L       R2,@R15
    000015AA              L1037:                            
    000015AA 34EC                   ADD         R14,R4
    000015AC 3457                   CMP/GT      R5,R4
    000015AE 8B01                   BF          L1038
    000015B0 35E8                   SUB         R14,R5
    000015B2 1F55                   MOV.L       R5,@(20,R15)
    000015B4              L1038:                            
      Monochrome   807            shift = 8-(x&7);
    000015B4 E307                   MOV         #7,R3
    000015B6 23A9                   AND         R10,R3
    000015B8 E208                   MOV         #8,R2
    000015BA 3238                   SUB         R3,R2
      Monochrome   808            screen = ML_vram_adress()+(y+begin<<4)+(x>>3);
    000015BC D30F                   MOV.L       L1300+2,R3 ; _sc0135
    000015BE E010                   MOV         #16,R0
    000015C0 430B                   JSR         @R3
    000015C2 0F24                   MOV.B       R2,@(R0,R15)
    000015C4 62F2                   MOV.L       @R15,R2
    000015C6 63A3                   MOV         R10,R3
    000015C8 3E2C                   ADD         R2,R14
    000015CA 4E08                   SHLL2       R14
    000015CC 4E08                   SHLL2       R14
    000015CE 30EC                   ADD         R14,R0
    000015D0 4321                   SHAR        R3
    000015D2 4321                   SHAR        R3
    000015D4 4321                   SHAR        R3
    000015D6 6503                   MOV         R0,R5
    000015D8 353C                   ADD         R3,R5
      Monochrome   809            for(i=begin ; i<end ; i++)
    000015DA 6623                   MOV         R2,R6
    000015DC 63D3                   MOV         R13,R3
    000015DE 7301                   ADD         #1,R3




SH SERIES C/C++ Compiler (Ver. 6.0C)                                                                 15-May-2021 18:55:24  PAGE   68


SCT OFFSET   CODE       C LABEL     INSTRUCTION OPERAND    COMMENT

    000015E0 2F32                   MOV.L       R3,@R15
    000015E2 54F3                   MOV.L       @(12,R15),R4
    000015E4 6143                   MOV         R4,R1
    000015E6 4121                   SHAR        R1
    000015E8 4121                   SHAR        R1
    000015EA 4121                   SHAR        R1
    000015EC 1F12                   MOV.L       R1,@(8,R15)
    000015EE 6243                   MOV         R4,R2
    000015F0 3298                   SUB         R9,R2
    000015F2 E9FF                   MOV         #-1,R9
    000015F4 492C                   SHAD        R2,R9
    000015F6 A03F                   BRA         L1039
    000015F8 3A4C                   ADD         R4,R10
    000015FA              L1300:                            
    000015FA 0080                   .DATA.W     H'0080
    000015FC <00000000>             .DATA.L     _sc0135
    00001600              L1040:                            
    00001600 57F2                   MOV.L       @(8,R15),R7
    00001602 E010                   MOV         #16,R0
    00001604 0767                   MUL.L       R6,R7
    00001606 4C15                   CMP/PL      R12
      Monochrome   810            {
      Monochrome   811                    for(j=0 ; j<width-1>>3 ; j++)
    00001608 6483                   MOV         R8,R4
    0000160A 071A                   STS         MACL,R7
    0000160C 8F18                   BF/S        L1041
    0000160E 0EFC                   MOV.B       @(R0,R15),R14
    00001610              L1042:                            
      Monochrome   812                    {
      Monochrome   813                            line = bmp[i*(real_width>>3)+j]<<shift;
    00001610 6073                   MOV         R7,R0
    00001612 304C                   ADD         R4,R0
    00001614 00BC                   MOV.B       @(R0,R11),R0
    00001616 600C                   EXTU.B      R0,R0
    00001618 40ED                   SHLD        R14,R0
    0000161A 81F2                   MOV.W       R0,@(4,R15)
      Monochrome   814                            screen[j] |= *p;
    0000161C 63D0                   MOV.B       @R13,R3
    0000161E 6043                   MOV         R4,R0
    00001620 025C                   MOV.B       @(R0,R5),R2
    00001622 223B                   OR          R3,R2
    00001624 0524                   MOV.B       R2,@(R0,R5)
      Monochrome   815                            if(shift!=8) screen[j+1] |= *(p+1);
    00001626 60E3                   MOV         R14,R0
    00001628 8808                   CMP/EQ      #8,R0
    0000162A 8906                   BT          L1043
    0000162C 62F2                   MOV.L       @R15,R2
    0000162E 6343                   MOV         R4,R3
    00001630 6220                   MOV.B       @R2,R2
    00001632 335C                   ADD         R5,R3
    00001634 8431                   MOV.B       @(1,R3),R0
    00001636 202B                   OR          R2,R0
    00001638 8031                   MOV.B       R0,@(1,R3)
    0000163A              L1043:                            
    0000163A 7401                   ADD         #1,R4
    0000163C 34C3                   CMP/GE      R12,R4
    0000163E 8BE7                   BF          L1042




SH SERIES C/C++ Compiler (Ver. 6.0C)                                                                 15-May-2021 18:55:24  PAGE   69


SCT OFFSET   CODE       C LABEL     INSTRUCTION OPERAND    COMMENT

    00001640              L1041:                            
      Monochrome   816                    }
      Monochrome   817                    line = (bmp[i*(real_width>>3)+j] & -1<<(real_width-width))<<shift;
    00001640 50F2                   MOV.L       @(8,R15),R0
      Monochrome   818                    screen[j] |= *p;
    00001642 6743                   MOV         R4,R7
    00001644 0067                   MUL.L       R6,R0
    00001646 375C                   ADD         R5,R7
    00001648 001A                   STS         MACL,R0
    0000164A 304C                   ADD         R4,R0
    0000164C 00BC                   MOV.B       @(R0,R11),R0
    0000164E 600C                   EXTU.B      R0,R0
    00001650 2099                   AND         R9,R0
    00001652 40EC                   SHAD        R14,R0
    00001654 81F2                   MOV.W       R0,@(4,R15)
      Monochrome   819                    if(shift!=8 && x+real_width<129) screen[j+1] |= *(p+1);
    00001656 60E3                   MOV         R14,R0
    00001658 63D0                   MOV.B       @R13,R3
    0000165A 8808                   CMP/EQ      #8,R0
    0000165C 6270                   MOV.B       @R7,R2
    0000165E 223B                   OR          R3,R2
    00001660 8D08                   BT/S        L1044
    00001662 2720                   MOV.B       R2,@R7
    00001664 9216                   MOV.W       L1302,R2   ; H'0081
    00001666 3A23                   CMP/GE      R2,R10
    00001668 8904                   BT          L1044
    0000166A 61F2                   MOV.L       @R15,R1
    0000166C 8471                   MOV.B       @(1,R7),R0
    0000166E 6310                   MOV.B       @R1,R3
    00001670 203B                   OR          R3,R0
    00001672 8071                   MOV.B       R0,@(1,R7)
    00001674              L1044:                            
      Monochrome   820                    screen += 16;
    00001674 7510                   ADD         #16,R5
    00001676 7601                   ADD         #1,R6
    00001678              L1039:                            
    00001678 53F5                   MOV.L       @(20,R15),R3
    0000167A 3633                   CMP/GE      R3,R6
    0000167C 8BC0                   BF          L1040
    0000167E              L1036:                            
      Monochrome   821            }
      Monochrome   822    }
    0000167E 7F18                   ADD         #24,R15
    00001680 4F16                   LDS.L       @R15+,MACL
    00001682 4F26                   LDS.L       @R15+,PR
    00001684 68F6                   MOV.L       @R15+,R8
    00001686 69F6                   MOV.L       @R15+,R9
    00001688 6AF6                   MOV.L       @R15+,R10
    0000168A 6BF6                   MOV.L       @R15+,R11
    0000168C 6CF6                   MOV.L       @R15+,R12
    0000168E 6DF6                   MOV.L       @R15+,R13
    00001690 000B                   RTS
    00001692 6EF6                   MOV.L       @R15+,R14
    00001694              L1302:                            
    00001694 0081                   .DATA.W     H'0081
      Monochrome   823    #endif
      Monochrome   824    




SH SERIES C/C++ Compiler (Ver. 6.0C)                                                                 15-May-2021 18:55:24  PAGE   70


SCT OFFSET   CODE       C LABEL     INSTRUCTION OPERAND    COMMENT

      Monochrome   825    #ifdef ML_BMP_AND
      Monochrome   826    void ML_bmp_and(const unsigned char *bmp, int x, int y, int width, int height)
    00001696              _ML_bmp_and:                     ; function: ML_bmp_and
                                                           ; frame size=60
    00001696 2FE6                   MOV.L       R14,@-R15
    00001698 2FD6                   MOV.L       R13,@-R15
    0000169A 6E63                   MOV         R6,R14
    0000169C 2FC6                   MOV.L       R12,@-R15
    0000169E 2FB6                   MOV.L       R11,@-R15
    000016A0 2FA6                   MOV.L       R10,@-R15
    000016A2 6B53                   MOV         R5,R11
    000016A4 2F96                   MOV.L       R9,@-R15
    000016A6 6A43                   MOV         R4,R10
    000016A8 2F86                   MOV.L       R8,@-R15
      Monochrome   827    {
      Monochrome   828            unsigned short line;
      Monochrome   829            char shift, *screen, *p=(char*)&line;
      Monochrome   830            int i, j, begin=0, end=height, real_width=(width-1>>3<<3)+8;
    000016AA E800                   MOV         #0,R8
    000016AC 4F22                   STS.L       PR,@-R15
    000016AE 6983                   MOV         R8,R9
    000016B0 4F12                   STS.L       MACL,@-R15
    000016B2 7FE8                   ADD         #-24,R15
    000016B4 1F71                   MOV.L       R7,@(4,R15)
    000016B6 6DF3                   MOV         R15,R13
    000016B8 54FF                   MOV.L       @(60,R15),R4
    000016BA 1F45                   MOV.L       R4,@(20,R15)
    000016BC 5CF1                   MOV.L       @(4,R15),R12
    000016BE 7CFF                   ADD         #-1,R12
    000016C0 4C21                   SHAR        R12
    000016C2 4C21                   SHAR        R12
    000016C4 4C21                   SHAR        R12
    000016C6 62C3                   MOV         R12,R2
    000016C8 4208                   SHLL2       R2
    000016CA 4200                   SHLL        R2
    000016CC 7208                   ADD         #8,R2
      Monochrome   831            if(!bmp || x<0 || x>128-width || y<1-height || y>63 || width<1 || height<1) return;
    000016CE 2AA8                   TST         R10,R10
    000016D0 8F02                   BF/S        L1303
    000016D2 1F24                   MOV.L       R2,@(16,R15)
    000016D4 A08E                   BRA         L1047
    000016D6 0009                   NOP
    000016D8              L1303:                            
    000016D8 4B11                   CMP/PZ      R11
    000016DA 8901                   BT          L1304
    000016DC A08A                   BRA         L1047
    000016DE 0009                   NOP
    000016E0              L1304:                            
    000016E0 53F1                   MOV.L       @(4,R15),R3
    000016E2 9140                   MOV.W       L1305,R1   ; H'0080
    000016E4 3138                   SUB         R3,R1
    000016E6 3B17                   CMP/GT      R1,R11
    000016E8 8B01                   BF          L1306
    000016EA A083                   BRA         L1047
    000016EC 0009                   NOP
    000016EE              L1306:                            
    000016EE E001                   MOV         #1,R0




SH SERIES C/C++ Compiler (Ver. 6.0C)                                                                 15-May-2021 18:55:24  PAGE   71


SCT OFFSET   CODE       C LABEL     INSTRUCTION OPERAND    COMMENT

    000016F0 3048                   SUB         R4,R0
    000016F2 3E03                   CMP/GE      R0,R14
    000016F4 8901                   BT          L1307
    000016F6 A07D                   BRA         L1047
    000016F8 0009                   NOP
    000016FA              L1307:                            
    000016FA E13F                   MOV         #63,R1
    000016FC 3E17                   CMP/GT      R1,R14
    000016FE 8979                   BT          L1047
    00001700 E001                   MOV         #1,R0
    00001702 3303                   CMP/GE      R0,R3
    00001704 8B76                   BF          L1047
    00001706 E201                   MOV         #1,R2
    00001708 3423                   CMP/GE      R2,R4
    0000170A 8B73                   BF          L1047
      Monochrome   832            if(y < 0) begin = -y;
    0000170C 4E11                   CMP/PZ      R14
    0000170E 8D01                   BT/S        L1048
      Monochrome   833            if(y+height > 64) end = 64-y;
    00001710 E540                   MOV         #64,R5
    00001712 69EB                   NEG         R14,R9
    00001714              L1048:                            
    00001714 34EC                   ADD         R14,R4
    00001716 3457                   CMP/GT      R5,R4
    00001718 8F02                   BF/S        L1049
      Monochrome   834            shift = 8-(x&7);
    0000171A E307                   MOV         #7,R3
    0000171C 35E8                   SUB         R14,R5
    0000171E 1F55                   MOV.L       R5,@(20,R15)
    00001720              L1049:                            
    00001720 23B9                   AND         R11,R3
    00001722 E008                   MOV         #8,R0
    00001724 3038                   SUB         R3,R0
      Monochrome   835            screen = ML_vram_adress()+(y+begin<<4)+(x>>3);
    00001726 D311                   MOV.L       L1305+6,R3 ; _sc0135
    00001728 430B                   JSR         @R3
    0000172A 80FC                   MOV.B       R0,@(12,R15)
    0000172C 3E9C                   ADD         R9,R14
    0000172E 4E08                   SHLL2       R14
    00001730 4E08                   SHLL2       R14
    00001732 30EC                   ADD         R14,R0
    00001734 62B3                   MOV         R11,R2
    00001736 4221                   SHAR        R2
    00001738 4221                   SHAR        R2
    0000173A 4221                   SHAR        R2
    0000173C 6503                   MOV         R0,R5
    0000173E 352C                   ADD         R2,R5
    00001740 52F4                   MOV.L       @(16,R15),R2
    00001742 E308                   MOV         #8,R3
      Monochrome   836            for(i=begin ; i<end ; i++)
    00001744 6693                   MOV         R9,R6
    00001746 69D3                   MOV         R13,R9
    00001748 7901                   ADD         #1,R9
    0000174A 4221                   SHAR        R2
    0000174C 4221                   SHAR        R2
    0000174E 4221                   SHAR        R2
    00001750 1F22                   MOV.L       R2,@(8,R15)




SH SERIES C/C++ Compiler (Ver. 6.0C)                                                                 15-May-2021 18:55:24  PAGE   72


SCT OFFSET   CODE       C LABEL     INSTRUCTION OPERAND    COMMENT

    00001752 50F1                   MOV.L       @(4,R15),R0
    00001754 C907                   AND         #7,R0
    00001756 3308                   SUB         R0,R3
    00001758 9006                   MOV.W       L1305+2,R0 ; H'00FF
    0000175A 633B                   NEG         R3,R3
    0000175C 403C                   SHAD        R3,R0
    0000175E 80F4                   MOV.B       R0,@(4,R15)
    00001760 53F4                   MOV.L       @(16,R15),R3
    00001762 A044                   BRA         L1050
    00001764 3B3C                   ADD         R3,R11
    00001766              L1305:                            
    00001766 0080                   .DATA.W     H'0080
    00001768 00FF                   .DATA.W     H'00FF
    0000176A 0000                   .DATA.W     0
    0000176C <00000000>             .DATA.L     _sc0135
    00001770              L1051:                            
    00001770 57F2                   MOV.L       @(8,R15),R7
    00001772 4C15                   CMP/PL      R12
    00001774 84FC                   MOV.B       @(12,R15),R0
      Monochrome   837            {
      Monochrome   838                    for(j=0 ; j<width-1>>3 ; j++)
    00001776 6483                   MOV         R8,R4
    00001778 0767                   MUL.L       R6,R7
    0000177A 071A                   STS         MACL,R7
    0000177C 8F19                   BF/S        L1052
    0000177E 6E03                   MOV         R0,R14
    00001780              L1053:                            
      Monochrome   839                    {
      Monochrome   840                            line = ~((unsigned char)~bmp[i*(real_width>>3)+j]<<shift);
    00001780 6073                   MOV         R7,R0
    00001782 304C                   ADD         R4,R0
    00001784 03AC                   MOV.B       @(R0,R10),R3
      Monochrome   841                            screen[j] &= *p;
    00001786 6043                   MOV         R4,R0
    00001788 6337                   NOT         R3,R3
    0000178A 633C                   EXTU.B      R3,R3
    0000178C 43ED                   SHLD        R14,R3
    0000178E 6337                   NOT         R3,R3
    00001790 2F31                   MOV.W       R3,@R15
    00001792 62D0                   MOV.B       @R13,R2
    00001794 015C                   MOV.B       @(R0,R5),R1
    00001796 2129                   AND         R2,R1
    00001798 0514                   MOV.B       R1,@(R0,R5)
      Monochrome   842                            if(shift!=8) screen[j+1] &= *(p+1);
    0000179A 60E3                   MOV         R14,R0
    0000179C 8808                   CMP/EQ      #8,R0
    0000179E 8905                   BT          L1054
    000017A0 6290                   MOV.B       @R9,R2
    000017A2 6343                   MOV         R4,R3
    000017A4 335C                   ADD         R5,R3
    000017A6 8431                   MOV.B       @(1,R3),R0
    000017A8 2029                   AND         R2,R0
    000017AA 8031                   MOV.B       R0,@(1,R3)
    000017AC              L1054:                            
    000017AC 7401                   ADD         #1,R4
    000017AE 34C3                   CMP/GE      R12,R4
    000017B0 8BE6                   BF          L1053




SH SERIES C/C++ Compiler (Ver. 6.0C)                                                                 15-May-2021 18:55:24  PAGE   73


SCT OFFSET   CODE       C LABEL     INSTRUCTION OPERAND    COMMENT

    000017B2              L1052:                            
      Monochrome   843                    }
      Monochrome   844                    line = ~((unsigned char)~(bmp[i*(real_width>>3)+j] | (unsigned char)-1>>8-(width&7))<<shif
                         +t);
      Monochrome   845                    screen[j] &= *p;
    000017B2 6743                   MOV         R4,R7
    000017B4 50F2                   MOV.L       @(8,R15),R0
    000017B6 375C                   ADD         R5,R7
    000017B8 0067                   MUL.L       R6,R0
    000017BA 001A                   STS         MACL,R0
    000017BC 304C                   ADD         R4,R0
    000017BE 03AC                   MOV.B       @(R0,R10),R3
    000017C0 84F4                   MOV.B       @(4,R15),R0
    000017C2 203B                   OR          R3,R0
    000017C4 6007                   NOT         R0,R0
    000017C6 600C                   EXTU.B      R0,R0
    000017C8 40ED                   SHLD        R14,R0
    000017CA 6007                   NOT         R0,R0
    000017CC 2F01                   MOV.W       R0,@R15
      Monochrome   846                    if(shift!=8 && x+real_width<129) screen[j+1] &= *(p+1);
    000017CE 60E3                   MOV         R14,R0
    000017D0 63D0                   MOV.B       @R13,R3
    000017D2 8808                   CMP/EQ      #8,R0
    000017D4 6270                   MOV.B       @R7,R2
    000017D6 2239                   AND         R3,R2
    000017D8 8D07                   BT/S        L1055
    000017DA 2720                   MOV.B       R2,@R7
    000017DC 9215                   MOV.W       L1308,R2   ; H'0081
    000017DE 3B23                   CMP/GE      R2,R11
    000017E0 8903                   BT          L1055
    000017E2 6390                   MOV.B       @R9,R3
    000017E4 8471                   MOV.B       @(1,R7),R0
    000017E6 2039                   AND         R3,R0
    000017E8 8071                   MOV.B       R0,@(1,R7)
    000017EA              L1055:                            
      Monochrome   847                    screen += 16;
    000017EA 7510                   ADD         #16,R5
    000017EC 7601                   ADD         #1,R6
    000017EE              L1050:                            
    000017EE 53F5                   MOV.L       @(20,R15),R3
    000017F0 3633                   CMP/GE      R3,R6
    000017F2 8BBD                   BF          L1051
    000017F4              L1047:                            
      Monochrome   848            }
      Monochrome   849    }
    000017F4 7F18                   ADD         #24,R15
    000017F6 4F16                   LDS.L       @R15+,MACL
    000017F8 4F26                   LDS.L       @R15+,PR
    000017FA 68F6                   MOV.L       @R15+,R8
    000017FC 69F6                   MOV.L       @R15+,R9
    000017FE 6AF6                   MOV.L       @R15+,R10
    00001800 6BF6                   MOV.L       @R15+,R11
    00001802 6CF6                   MOV.L       @R15+,R12
    00001804 6DF6                   MOV.L       @R15+,R13
    00001806 000B                   RTS
    00001808 6EF6                   MOV.L       @R15+,R14
    0000180A              L1308:                            




SH SERIES C/C++ Compiler (Ver. 6.0C)                                                                 15-May-2021 18:55:24  PAGE   74


SCT OFFSET   CODE       C LABEL     INSTRUCTION OPERAND    COMMENT

    0000180A 0081                   .DATA.W     H'0081
      Monochrome   850    #endif
      Monochrome   851    
      Monochrome   852    #ifdef ML_BMP_XOR
      Monochrome   853    void ML_bmp_xor(const unsigned char *bmp, int x, int y, int width, int height)
    0000180C              _ML_bmp_xor:                     ; function: ML_bmp_xor
                                                           ; frame size=60
    0000180C 2FE6                   MOV.L       R14,@-R15
    0000180E 6E63                   MOV         R6,R14
    00001810 2FD6                   MOV.L       R13,@-R15
    00001812 2FC6                   MOV.L       R12,@-R15
    00001814 2FB6                   MOV.L       R11,@-R15
    00001816 6B43                   MOV         R4,R11
    00001818 2FA6                   MOV.L       R10,@-R15
    0000181A 6A53                   MOV         R5,R10
    0000181C 2F96                   MOV.L       R9,@-R15
    0000181E 6973                   MOV         R7,R9
    00001820 2F86                   MOV.L       R8,@-R15
      Monochrome   854    {
      Monochrome   855            unsigned short line;
      Monochrome   856            char shift, *screen, *p=(char*)&line;
      Monochrome   857            int i, j, begin=0, end=height, real_width=(width-1>>3<<3)+8;
    00001822 6C93                   MOV         R9,R12
    00001824 4F22                   STS.L       PR,@-R15
    00001826 E800                   MOV         #0,R8
    00001828 4F12                   STS.L       MACL,@-R15
    0000182A 7CFF                   ADD         #-1,R12
    0000182C 7FE8                   ADD         #-24,R15
    0000182E 6DF3                   MOV         R15,R13
    00001830 54FF                   MOV.L       @(60,R15),R4
    00001832 4C21                   SHAR        R12
    00001834 2F82                   MOV.L       R8,@R15
    00001836 7D04                   ADD         #4,R13
    00001838 1F45                   MOV.L       R4,@(20,R15)
    0000183A 4C21                   SHAR        R12
    0000183C 4C21                   SHAR        R12
    0000183E 62C3                   MOV         R12,R2
    00001840 4208                   SHLL2       R2
    00001842 4200                   SHLL        R2
    00001844 7208                   ADD         #8,R2
      Monochrome   858            if(!bmp || x<0 || x>128-width || y<1-height || y>63 || width<1 || height<1) return;
    00001846 2BB8                   TST         R11,R11
    00001848 8F02                   BF/S        L1309
    0000184A 1F23                   MOV.L       R2,@(12,R15)
    0000184C A085                   BRA         L1058
    0000184E 0009                   NOP
    00001850              L1309:                            
    00001850 4A11                   CMP/PZ      R10
    00001852 8901                   BT          L1310
    00001854 A081                   BRA         L1058
    00001856 0009                   NOP
    00001858              L1310:                            
    00001858 933D                   MOV.W       L1311,R3   ; H'0080
    0000185A 3398                   SUB         R9,R3
    0000185C 3A37                   CMP/GT      R3,R10
    0000185E 8B01                   BF          L1312
    00001860 A07B                   BRA         L1058




SH SERIES C/C++ Compiler (Ver. 6.0C)                                                                 15-May-2021 18:55:24  PAGE   75


SCT OFFSET   CODE       C LABEL     INSTRUCTION OPERAND    COMMENT

    00001862 0009                   NOP
    00001864              L1312:                            
    00001864 E301                   MOV         #1,R3
    00001866 3348                   SUB         R4,R3
    00001868 3E33                   CMP/GE      R3,R14
    0000186A 8B76                   BF          L1058
    0000186C E33F                   MOV         #63,R3
    0000186E 3E37                   CMP/GT      R3,R14
    00001870 8973                   BT          L1058
    00001872 E001                   MOV         #1,R0
    00001874 3903                   CMP/GE      R0,R9
    00001876 8B70                   BF          L1058
    00001878 3403                   CMP/GE      R0,R4
    0000187A 8B6E                   BF          L1058
      Monochrome   859            if(y < 0) begin = -y;
    0000187C 4E11                   CMP/PZ      R14
    0000187E 8D02                   BT/S        L1059
      Monochrome   860            if(y+height > 64) end = 64-y;
    00001880 E540                   MOV         #64,R5
    00001882 62EB                   NEG         R14,R2
    00001884 2F22                   MOV.L       R2,@R15
    00001886              L1059:                            
    00001886 34EC                   ADD         R14,R4
    00001888 3457                   CMP/GT      R5,R4
    0000188A 8B01                   BF          L1060
    0000188C 35E8                   SUB         R14,R5
    0000188E 1F55                   MOV.L       R5,@(20,R15)
    00001890              L1060:                            
      Monochrome   861            shift = 8-(x&7);
    00001890 E307                   MOV         #7,R3
    00001892 23A9                   AND         R10,R3
    00001894 E208                   MOV         #8,R2
    00001896 3238                   SUB         R3,R2
      Monochrome   862            screen = ML_vram_adress()+(y+begin<<4)+(x>>3);
    00001898 D30F                   MOV.L       L1311+2,R3 ; _sc0135
    0000189A E010                   MOV         #16,R0
    0000189C 430B                   JSR         @R3
    0000189E 0F24                   MOV.B       R2,@(R0,R15)
    000018A0 62F2                   MOV.L       @R15,R2
    000018A2 63A3                   MOV         R10,R3
    000018A4 3E2C                   ADD         R2,R14
    000018A6 4E08                   SHLL2       R14
    000018A8 4E08                   SHLL2       R14
    000018AA 30EC                   ADD         R14,R0
    000018AC 4321                   SHAR        R3
    000018AE 4321                   SHAR        R3
    000018B0 4321                   SHAR        R3
    000018B2 6503                   MOV         R0,R5
    000018B4 353C                   ADD         R3,R5
      Monochrome   863            for(i=begin ; i<end ; i++)
    000018B6 6623                   MOV         R2,R6
    000018B8 63D3                   MOV         R13,R3
    000018BA 7301                   ADD         #1,R3
    000018BC 2F32                   MOV.L       R3,@R15
    000018BE 54F3                   MOV.L       @(12,R15),R4
    000018C0 6143                   MOV         R4,R1
    000018C2 4121                   SHAR        R1




SH SERIES C/C++ Compiler (Ver. 6.0C)                                                                 15-May-2021 18:55:24  PAGE   76


SCT OFFSET   CODE       C LABEL     INSTRUCTION OPERAND    COMMENT

    000018C4 4121                   SHAR        R1
    000018C6 4121                   SHAR        R1
    000018C8 1F12                   MOV.L       R1,@(8,R15)
    000018CA 6243                   MOV         R4,R2
    000018CC 3298                   SUB         R9,R2
    000018CE E9FF                   MOV         #-1,R9
    000018D0 492C                   SHAD        R2,R9
    000018D2 A03F                   BRA         L1061
    000018D4 3A4C                   ADD         R4,R10
    000018D6              L1311:                            
    000018D6 0080                   .DATA.W     H'0080
    000018D8 <00000000>             .DATA.L     _sc0135
    000018DC              L1062:                            
    000018DC 57F2                   MOV.L       @(8,R15),R7
    000018DE E010                   MOV         #16,R0
    000018E0 0767                   MUL.L       R6,R7
    000018E2 4C15                   CMP/PL      R12
      Monochrome   864            {
      Monochrome   865                    for(j=0 ; j<width-1>>3 ; j++)
    000018E4 6483                   MOV         R8,R4
    000018E6 071A                   STS         MACL,R7
    000018E8 8F18                   BF/S        L1063
    000018EA 0EFC                   MOV.B       @(R0,R15),R14
    000018EC              L1064:                            
      Monochrome   866                    {
      Monochrome   867                            line = bmp[i*(real_width>>3)+j]<<shift;
    000018EC 6073                   MOV         R7,R0
    000018EE 304C                   ADD         R4,R0
    000018F0 00BC                   MOV.B       @(R0,R11),R0
    000018F2 600C                   EXTU.B      R0,R0
    000018F4 40ED                   SHLD        R14,R0
    000018F6 81F2                   MOV.W       R0,@(4,R15)
      Monochrome   868                            screen[j] ^= *p;
    000018F8 63D0                   MOV.B       @R13,R3
    000018FA 6043                   MOV         R4,R0
    000018FC 025C                   MOV.B       @(R0,R5),R2
    000018FE 223A                   XOR         R3,R2
    00001900 0524                   MOV.B       R2,@(R0,R5)
      Monochrome   869                            if(shift!=8) screen[j+1] ^= *(p+1);
    00001902 60E3                   MOV         R14,R0
    00001904 8808                   CMP/EQ      #8,R0
    00001906 8906                   BT          L1065
    00001908 62F2                   MOV.L       @R15,R2
    0000190A 6343                   MOV         R4,R3
    0000190C 6220                   MOV.B       @R2,R2
    0000190E 335C                   ADD         R5,R3
    00001910 8431                   MOV.B       @(1,R3),R0
    00001912 202A                   XOR         R2,R0
    00001914 8031                   MOV.B       R0,@(1,R3)
    00001916              L1065:                            
    00001916 7401                   ADD         #1,R4
    00001918 34C3                   CMP/GE      R12,R4
    0000191A 8BE7                   BF          L1064
    0000191C              L1063:                            
      Monochrome   870                    }
      Monochrome   871                    line = (bmp[i*(real_width>>3)+j] & -1<<(real_width-width))<<shift;
    0000191C 50F2                   MOV.L       @(8,R15),R0




SH SERIES C/C++ Compiler (Ver. 6.0C)                                                                 15-May-2021 18:55:24  PAGE   77


SCT OFFSET   CODE       C LABEL     INSTRUCTION OPERAND    COMMENT

      Monochrome   872                    screen[j] ^= *p;
    0000191E 6743                   MOV         R4,R7
    00001920 0067                   MUL.L       R6,R0
    00001922 375C                   ADD         R5,R7
    00001924 001A                   STS         MACL,R0
    00001926 304C                   ADD         R4,R0
    00001928 00BC                   MOV.B       @(R0,R11),R0
    0000192A 600C                   EXTU.B      R0,R0
    0000192C 2099                   AND         R9,R0
    0000192E 40EC                   SHAD        R14,R0
    00001930 81F2                   MOV.W       R0,@(4,R15)
      Monochrome   873                    if(shift!=8 && x+real_width<129) screen[j+1] ^= *(p+1);
    00001932 60E3                   MOV         R14,R0
    00001934 63D0                   MOV.B       @R13,R3
    00001936 8808                   CMP/EQ      #8,R0
    00001938 6270                   MOV.B       @R7,R2
    0000193A 223A                   XOR         R3,R2
    0000193C 8D08                   BT/S        L1066
    0000193E 2720                   MOV.B       R2,@R7
    00001940 9268                   MOV.W       L1313,R2   ; H'0081
    00001942 3A23                   CMP/GE      R2,R10
    00001944 8904                   BT          L1066
    00001946 61F2                   MOV.L       @R15,R1
    00001948 8471                   MOV.B       @(1,R7),R0
    0000194A 6310                   MOV.B       @R1,R3
    0000194C 203A                   XOR         R3,R0
    0000194E 8071                   MOV.B       R0,@(1,R7)
    00001950              L1066:                            
      Monochrome   874                    screen += 16;
    00001950 7510                   ADD         #16,R5
    00001952 7601                   ADD         #1,R6
    00001954              L1061:                            
    00001954 53F5                   MOV.L       @(20,R15),R3
    00001956 3633                   CMP/GE      R3,R6
    00001958 8BC0                   BF          L1062
    0000195A              L1058:                            
      Monochrome   875            }
      Monochrome   876    }
    0000195A 7F18                   ADD         #24,R15
    0000195C 4F16                   LDS.L       @R15+,MACL
    0000195E 4F26                   LDS.L       @R15+,PR
    00001960 68F6                   MOV.L       @R15+,R8
    00001962 69F6                   MOV.L       @R15+,R9
    00001964 6AF6                   MOV.L       @R15+,R10
    00001966 6BF6                   MOV.L       @R15+,R11
    00001968 6CF6                   MOV.L       @R15+,R12
    0000196A 6DF6                   MOV.L       @R15+,R13
    0000196C 000B                   RTS
    0000196E 6EF6                   MOV.L       @R15+,R14
      Monochrome   877    #endif
      Monochrome   878    
      Monochrome   879    #ifdef ML_BMP_OR_CL
      Monochrome   880    void ML_bmp_or_cl(const unsigned char *bmp, int x, int y, int width, int height)
    00001970              _ML_bmp_or_cl:                   ; function: ML_bmp_or_cl
                                                           ; frame size=92
    00001970 2FE6                   MOV.L       R14,@-R15
    00001972 E05C                   MOV         #92,R0




SH SERIES C/C++ Compiler (Ver. 6.0C)                                                                 15-May-2021 18:55:24  PAGE   78


SCT OFFSET   CODE       C LABEL     INSTRUCTION OPERAND    COMMENT

    00001974 2FD6                   MOV.L       R13,@-R15
    00001976 2FC6                   MOV.L       R12,@-R15
    00001978 2FB6                   MOV.L       R11,@-R15
    0000197A 2FA6                   MOV.L       R10,@-R15
    0000197C 2F96                   MOV.L       R9,@-R15
    0000197E 6963                   MOV         R6,R9
    00001980 2F86                   MOV.L       R8,@-R15
      Monochrome   881    {
      Monochrome   882            unsigned short line;
      Monochrome   883            char shift, *screen, *p;
      Monochrome   884            int i, j, real_width, begin_x, end_x, begin_y, end_y;
      Monochrome   885            char bool1=1, bool2=1, bool3;
    00001982 E601                   MOV         #1,R6
    00001984 4F22                   STS.L       PR,@-R15
    00001986 4F12                   STS.L       MACL,@-R15
    00001988 7FC8                   ADD         #-56,R15
    0000198A 1F45                   MOV.L       R4,@(20,R15)
    0000198C 1F72                   MOV.L       R7,@(8,R15)
    0000198E 04FE                   MOV.L       @(R0,R15),R4
    00001990 E01C                   MOV         #28,R0
    00001992 0F64                   MOV.B       R6,@(R0,R15)
    00001994 E034                   MOV         #52,R0
    00001996 0F64                   MOV.B       R6,@(R0,R15)
      Monochrome   886            if(!bmp || x<1-width || x>127 || y<1-height || y>63 || height<1 || width<1) return;
    00001998 53F5                   MOV.L       @(20,R15),R3
    0000199A 2338                   TST         R3,R3
    0000199C 8B01                   BF          L1314
    0000199E A103                   BRA         L1069
    000019A0 0009                   NOP
    000019A2              L1314:                            
    000019A2 E201                   MOV         #1,R2
    000019A4 53F2                   MOV.L       @(8,R15),R3
    000019A6 3238                   SUB         R3,R2
    000019A8 3523                   CMP/GE      R2,R5
    000019AA 8901                   BT          L1315
    000019AC A0FC                   BRA         L1069
    000019AE 0009                   NOP
    000019B0              L1315:                            
    000019B0 E17F                   MOV         #127,R1
    000019B2 3517                   CMP/GT      R1,R5
    000019B4 8B01                   BF          L1316
    000019B6 A0F7                   BRA         L1069
    000019B8 0009                   NOP
    000019BA              L1316:                            
    000019BA E001                   MOV         #1,R0
    000019BC 3048                   SUB         R4,R0
    000019BE 3903                   CMP/GE      R0,R9
    000019C0 8901                   BT          L1317
    000019C2 A0F1                   BRA         L1069
    000019C4 0009                   NOP
    000019C6              L1317:                            
    000019C6 E23F                   MOV         #63,R2
    000019C8 3927                   CMP/GT      R2,R9
    000019CA 8B01                   BF          L1318
    000019CC A0EC                   BRA         L1069
    000019CE 0009                   NOP
    000019D0              L1318:                            




SH SERIES C/C++ Compiler (Ver. 6.0C)                                                                 15-May-2021 18:55:24  PAGE   79


SCT OFFSET   CODE       C LABEL     INSTRUCTION OPERAND    COMMENT

    000019D0 E001                   MOV         #1,R0
    000019D2 3403                   CMP/GE      R0,R4
    000019D4 8901                   BT          L1319
    000019D6 A0E7                   BRA         L1069
    000019D8 0009                   NOP
    000019DA              L1319:                            
    000019DA 52F2                   MOV.L       @(8,R15),R2
    000019DC 3203                   CMP/GE      R0,R2
    000019DE 8901                   BT          L1320
    000019E0 A0E2                   BRA         L1069
    000019E2 0009                   NOP
    000019E4              L1320:                            
      Monochrome   887            p = (char*)&line;
      Monochrome   888            real_width = (width-1>>3<<3)+8;
    000019E4 52F2                   MOV.L       @(8,R15),R2
    000019E6 6BF3                   MOV         R15,R11
    000019E8 72FF                   ADD         #-1,R2
    000019EA 4221                   SHAR        R2
    000019EC 4221                   SHAR        R2
    000019EE 4221                   SHAR        R2
    000019F0 4208                   SHLL2       R2
    000019F2 4200                   SHLL        R2
    000019F4 7208                   ADD         #8,R2
      Monochrome   889            if(y < 0) begin_y = -y;
    000019F6 4911                   CMP/PZ      R9
    000019F8 1F23                   MOV.L       R2,@(12,R15)
    000019FA 8D02                   BT/S        L1070
    000019FC E600                   MOV         #0,R6
    000019FE A001                   BRA         L1071
    00001A00 689B                   NEG         R9,R8
    00001A02              L1070:                            
      Monochrome   890            else begin_y = 0;
    00001A02 6863                   MOV         R6,R8
    00001A04              L1071:                            
      Monochrome   891            if(y+height > 64) end_y = 64-y;
    00001A04 E740                   MOV         #64,R7
    00001A06 6393                   MOV         R9,R3
    00001A08 334C                   ADD         R4,R3
    00001A0A 3377                   CMP/GT      R7,R3
    00001A0C 8B03                   BF          L1072
    00001A0E 3798                   SUB         R9,R7
    00001A10 A002                   BRA         L1073
    00001A12 1F7C                   MOV.L       R7,@(48,R15)
    00001A14              L1313:                            
    00001A14 0081                   .DATA.W     H'0081
    00001A16              L1072:                            
      Monochrome   892            else end_y = height;
    00001A16 1F4C                   MOV.L       R4,@(48,R15)
    00001A18              L1073:                            
      Monochrome   893            shift = 8-(x&7);
    00001A18 E307                   MOV         #7,R3
    00001A1A 2359                   AND         R5,R3
    00001A1C E408                   MOV         #8,R4
    00001A1E 3438                   SUB         R3,R4
    00001A20 4511                   CMP/PZ      R5
    00001A22 8D0A                   BT/S        L1074
    00001A24 6E4E                   EXTS.B      R4,R14




SH SERIES C/C++ Compiler (Ver. 6.0C)                                                                 15-May-2021 18:55:24  PAGE   80


SCT OFFSET   CODE       C LABEL     INSTRUCTION OPERAND    COMMENT

      Monochrome   894            if(x<0)
      Monochrome   895            {
      Monochrome   896                    begin_x = -x>>3;
    00001A26 6C5B                   NEG         R5,R12
    00001A28 4C21                   SHAR        R12
    00001A2A 4C21                   SHAR        R12
    00001A2C 4C21                   SHAR        R12
      Monochrome   897                    if(shift != 8) bool1 = 0;
    00001A2E 60E3                   MOV         R14,R0
    00001A30 8808                   CMP/EQ      #8,R0
    00001A32 8903                   BT          L1076
    00001A34 E01C                   MOV         #28,R0
    00001A36 A001                   BRA         L1076
    00001A38 0F64                   MOV.B       R6,@(R0,R15)
    00001A3A              L1074:                            
      Monochrome   898            } else begin_x = 0;
    00001A3A 6C63                   MOV         R6,R12
    00001A3C              L1076:                            
    00001A3C 9343                   MOV.W       L1321,R3   ; H'0080
    00001A3E 6253                   MOV         R5,R2
    00001A40 4221                   SHAR        R2
    00001A42 4221                   SHAR        R2
    00001A44 4221                   SHAR        R2
    00001A46 1F21                   MOV.L       R2,@(4,R15)
    00001A48 54F3                   MOV.L       @(12,R15),R4
    00001A4A 74FF                   ADD         #-1,R4
    00001A4C 51F3                   MOV.L       @(12,R15),R1
    00001A4E 4421                   SHAR        R4
    00001A50 4421                   SHAR        R4
    00001A52 4421                   SHAR        R4
    00001A54 315C                   ADD         R5,R1
    00001A56 3137                   CMP/GT      R3,R1
    00001A58 8B04                   BF          L1077
      Monochrome   899            if(x+real_width > 128) end_x = 15-(x>>3), bool2 = 0;
    00001A5A ED0F                   MOV         #15,R13
    00001A5C 3D28                   SUB         R2,R13
    00001A5E E034                   MOV         #52,R0
    00001A60 A001                   BRA         L1078
    00001A62 0F64                   MOV.B       R6,@(R0,R15)
    00001A64              L1077:                            
      Monochrome   900            else end_x = real_width-1>>3;
    00001A64 6D43                   MOV         R4,R13
    00001A66              L1078:                            
      Monochrome   901            bool3 = (end_x == real_width-1>>3);
    00001A66 3D40                   CMP/EQ      R4,R13
      Monochrome   902            screen = ML_vram_adress()+(y+begin_y<<4)+(x>>3);
    00001A68 DA17                   MOV.L       L1321+2,R10; _sc0135
    00001A6A 61F3                   MOV         R15,R1
    00001A6C 0029                   MOVT        R0
    00001A6E 712C                   ADD         #44,R1
    00001A70 4A0B                   JSR         @R10
    00001A72 2100                   MOV.B       R0,@R1
    00001A74 53F1                   MOV.L       @(4,R15),R3
    00001A76 61B3                   MOV         R11,R1
      Monochrome   903    
      Monochrome   904            for(i=begin_y ; i<end_y ; i++)
    00001A78 1F86                   MOV.L       R8,@(24,R15)




SH SERIES C/C++ Compiler (Ver. 6.0C)                                                                 15-May-2021 18:55:24  PAGE   81


SCT OFFSET   CODE       C LABEL     INSTRUCTION OPERAND    COMMENT

    00001A7A 6A93                   MOV         R9,R10
    00001A7C 54F3                   MOV.L       @(12,R15),R4
    00001A7E 7101                   ADD         #1,R1
    00001A80 3A8C                   ADD         R8,R10
    00001A82 4A08                   SHLL2       R10
    00001A84 4A08                   SHLL2       R10
    00001A86 3A0C                   ADD         R0,R10
    00001A88 3A3C                   ADD         R3,R10
    00001A8A 4421                   SHAR        R4
    00001A8C 4421                   SHAR        R4
    00001A8E 4421                   SHAR        R4
    00001A90 1F44                   MOV.L       R4,@(16,R15)
    00001A92 53F6                   MOV.L       @(24,R15),R3
    00001A94 52F5                   MOV.L       @(20,R15),R2
    00001A96 0437                   MUL.L       R3,R4
    00001A98 041A                   STS         MACL,R4
    00001A9A 6843                   MOV         R4,R8
    00001A9C 38DC                   ADD         R13,R8
    00001A9E 382C                   ADD         R2,R8
    00001AA0 6943                   MOV         R4,R9
    00001AA2 34CC                   ADD         R12,R4
    00001AA4 342C                   ADD         R2,R4
    00001AA6 63C3                   MOV         R12,R3
    00001AA8 1F48                   MOV.L       R4,@(32,R15)
    00001AAA 7301                   ADD         #1,R3
    00001AAC 1F11                   MOV.L       R1,@(4,R15)
    00001AAE 1F3A                   MOV.L       R3,@(40,R15)
    00001AB0 52F2                   MOV.L       @(8,R15),R2
    00001AB2 50F3                   MOV.L       @(12,R15),R0
    00001AB4 3028                   SUB         R2,R0
    00001AB6 E1FF                   MOV         #-1,R1
    00001AB8 410C                   SHAD        R0,R1
    00001ABA 1F13                   MOV.L       R1,@(12,R15)
    00001ABC 55F4                   MOV.L       @(16,R15),R5
    00001ABE 1F59                   MOV.L       R5,@(36,R15)
    00001AC0 1F54                   MOV.L       R5,@(16,R15)
    00001AC2 A06D                   BRA         L1079
    00001AC4 1F52                   MOV.L       R5,@(8,R15)
    00001AC6              L1321:                            
    00001AC6 0080                   .DATA.W     H'0080
    00001AC8 <00000000>             .DATA.L     _sc0135
    00001ACC              L1080:                            
      Monochrome   905            {
      Monochrome   906                    if(begin_x < end_x)
    00001ACC 3CD3                   CMP/GE      R13,R12
    00001ACE 8938                   BT          L1081
      Monochrome   907                    {
      Monochrome   908                            line = bmp[i*(real_width>>3)+begin_x] << shift;
    00001AD0 53F8                   MOV.L       @(32,R15),R3
    00001AD2 64C3                   MOV         R12,R4
    00001AD4 6230                   MOV.B       @R3,R2
    00001AD6 E01C                   MOV         #28,R0
    00001AD8 622C                   EXTU.B      R2,R2
    00001ADA 42ED                   SHLD        R14,R2
    00001ADC 2F21                   MOV.W       R2,@R15
    00001ADE 03FC                   MOV.B       @(R0,R15),R3
    00001AE0 2338                   TST         R3,R3




SH SERIES C/C++ Compiler (Ver. 6.0C)                                                                 15-May-2021 18:55:24  PAGE   82


SCT OFFSET   CODE       C LABEL     INSTRUCTION OPERAND    COMMENT

    00001AE2 8D04                   BT/S        L1082
    00001AE4 34AC                   ADD         R10,R4
      Monochrome   909                            if(bool1) screen[begin_x] |= *p;
    00001AE6 63B0                   MOV.B       @R11,R3
    00001AE8 6140                   MOV.B       @R4,R1
    00001AEA 213B                   OR          R3,R1
    00001AEC 2410                   MOV.B       R1,@R4
    00001AEE              L1082:                            
      Monochrome   910                            if(shift!=8) screen[begin_x+1] |= *(p+1);
    00001AEE 60E3                   MOV         R14,R0
    00001AF0 8808                   CMP/EQ      #8,R0
    00001AF2 8904                   BT          L1083
    00001AF4 52F1                   MOV.L       @(4,R15),R2
    00001AF6 6320                   MOV.B       @R2,R3
    00001AF8 8441                   MOV.B       @(1,R4),R0
    00001AFA 203B                   OR          R3,R0
    00001AFC 8041                   MOV.B       R0,@(1,R4)
    00001AFE              L1083:                            
      Monochrome   911                            for(j=begin_x+1 ; j<end_x ; j++)
    00001AFE 54FA                   MOV.L       @(40,R15),R4
    00001B00 53F5                   MOV.L       @(20,R15),R3
    00001B02 34D3                   CMP/GE      R13,R4
    00001B04 6643                   MOV         R4,R6
    00001B06 36AC                   ADD         R10,R6
    00001B08 6563                   MOV         R6,R5
    00001B0A 7501                   ADD         #1,R5
    00001B0C 6763                   MOV         R6,R7
    00001B0E 6693                   MOV         R9,R6
    00001B10 364C                   ADD         R4,R6
    00001B12 8D16                   BT/S        L1081
    00001B14 363C                   ADD         R3,R6
    00001B16              L1085:                            
      Monochrome   912                            {
      Monochrome   913                                    line = bmp[i*(real_width>>3)+j] << shift;
      Monochrome   914                                    screen[j] |= *p;
      Monochrome   915                                    if(shift!=8) screen[j+1] |= *(p+1);
    00001B16 60E3                   MOV         R14,R0
    00001B18 6360                   MOV.B       @R6,R3
    00001B1A 8808                   CMP/EQ      #8,R0
    00001B1C 633C                   EXTU.B      R3,R3
    00001B1E 43ED                   SHLD        R14,R3
    00001B20 2F31                   MOV.W       R3,@R15
    00001B22 62B0                   MOV.B       @R11,R2
    00001B24 6170                   MOV.B       @R7,R1
    00001B26 212B                   OR          R2,R1
    00001B28 8D05                   BT/S        L1086
    00001B2A 2710                   MOV.B       R1,@R7
    00001B2C 52F1                   MOV.L       @(4,R15),R2
    00001B2E 6320                   MOV.B       @R2,R3
    00001B30 6150                   MOV.B       @R5,R1
    00001B32 213B                   OR          R3,R1
    00001B34 2510                   MOV.B       R1,@R5
    00001B36              L1086:                            
    00001B36 7401                   ADD         #1,R4
    00001B38 7501                   ADD         #1,R5
    00001B3A 7701                   ADD         #1,R7
    00001B3C 34D3                   CMP/GE      R13,R4




SH SERIES C/C++ Compiler (Ver. 6.0C)                                                                 15-May-2021 18:55:24  PAGE   83


SCT OFFSET   CODE       C LABEL     INSTRUCTION OPERAND    COMMENT

    00001B3E 8FEA                   BF/S        L1085
    00001B40 7601                   ADD         #1,R6
    00001B42              L1081:                            
      Monochrome   916                            }
      Monochrome   917                    }
      Monochrome   918                    line = bmp[i*(real_width>>3)+end_x];
      Monochrome   919                    if(bool3) line &= -1<<real_width-width;
    00001B42 E02C                   MOV         #44,R0
    00001B44 6280                   MOV.B       @R8,R2
    00001B46 622C                   EXTU.B      R2,R2
    00001B48 2F21                   MOV.W       R2,@R15
    00001B4A 03FC                   MOV.B       @(R0,R15),R3
    00001B4C 2338                   TST         R3,R3
    00001B4E 8903                   BT          L1087
    00001B50 53F3                   MOV.L       @(12,R15),R3
    00001B52 61F1                   MOV.W       @R15,R1
    00001B54 2139                   AND         R3,R1
    00001B56 2F11                   MOV.W       R1,@R15
    00001B58              L1087:                            
      Monochrome   920                    line <<= shift;
    00001B58 62F1                   MOV.W       @R15,R2
    00001B5A 64D3                   MOV         R13,R4
    00001B5C 42ED                   SHLD        R14,R2
    00001B5E 3CD3                   CMP/GE      R13,R12
    00001B60 2F21                   MOV.W       R2,@R15
    00001B62 8F04                   BF/S        L1089
    00001B64 34AC                   ADD         R10,R4
    00001B66 E01C                   MOV         #28,R0
    00001B68 01FC                   MOV.B       @(R0,R15),R1
    00001B6A 2118                   TST         R1,R1
    00001B6C 8903                   BT          L1088
    00001B6E              L1089:                            
      Monochrome   921                    if(begin_x < end_x || bool1) screen[end_x] |= *p;
    00001B6E 63B0                   MOV.B       @R11,R3
    00001B70 6240                   MOV.B       @R4,R2
    00001B72 223B                   OR          R3,R2
    00001B74 2420                   MOV.B       R2,@R4
    00001B76              L1088:                            
      Monochrome   922                    if(bool2) screen[end_x+1] |= *(p+1);
    00001B76 E034                   MOV         #52,R0
    00001B78 01FC                   MOV.B       @(R0,R15),R1
    00001B7A 2118                   TST         R1,R1
    00001B7C 8D05                   BT/S        L1090
      Monochrome   923                    screen += 16;
    00001B7E 7A10                   ADD         #16,R10
    00001B80 51F1                   MOV.L       @(4,R15),R1
    00001B82 6310                   MOV.B       @R1,R3
    00001B84 8441                   MOV.B       @(1,R4),R0
    00001B86 203B                   OR          R3,R0
    00001B88 8041                   MOV.B       R0,@(1,R4)
    00001B8A              L1090:                            
    00001B8A 53F6                   MOV.L       @(24,R15),R3
    00001B8C 7301                   ADD         #1,R3
    00001B8E 1F36                   MOV.L       R3,@(24,R15)
    00001B90 52F9                   MOV.L       @(36,R15),R2
    00001B92 382C                   ADD         R2,R8
    00001B94 51F4                   MOV.L       @(16,R15),R1




SH SERIES C/C++ Compiler (Ver. 6.0C)                                                                 15-May-2021 18:55:24  PAGE   84


SCT OFFSET   CODE       C LABEL     INSTRUCTION OPERAND    COMMENT

    00001B96 391C                   ADD         R1,R9
    00001B98 53F8                   MOV.L       @(32,R15),R3
    00001B9A 50F2                   MOV.L       @(8,R15),R0
    00001B9C 303C                   ADD         R3,R0
    00001B9E 1F08                   MOV.L       R0,@(32,R15)
    00001BA0              L1079:                            
    00001BA0 53FC                   MOV.L       @(48,R15),R3
    00001BA2 51F6                   MOV.L       @(24,R15),R1
    00001BA4 3133                   CMP/GE      R3,R1
    00001BA6 8B91                   BF          L1080
    00001BA8              L1069:                            
      Monochrome   924            }
      Monochrome   925    }
    00001BA8 7F38                   ADD         #56,R15
    00001BAA 4F16                   LDS.L       @R15+,MACL
    00001BAC 4F26                   LDS.L       @R15+,PR
    00001BAE 68F6                   MOV.L       @R15+,R8
    00001BB0 69F6                   MOV.L       @R15+,R9
    00001BB2 6AF6                   MOV.L       @R15+,R10
    00001BB4 6BF6                   MOV.L       @R15+,R11
    00001BB6 6CF6                   MOV.L       @R15+,R12
    00001BB8 6DF6                   MOV.L       @R15+,R13
    00001BBA 000B                   RTS
    00001BBC 6EF6                   MOV.L       @R15+,R14
      Monochrome   926    #endif
      Monochrome   927    
      Monochrome   928    #ifdef ML_BMP_AND_CL
      Monochrome   929    void ML_bmp_and_cl(const unsigned char *bmp, int x, int y, int width, int height)
    00001BBE              _ML_bmp_and_cl:                  ; function: ML_bmp_and_cl
                                                           ; frame size=92
    00001BBE E05C                   MOV         #92,R0
    00001BC0 2FE6                   MOV.L       R14,@-R15
    00001BC2 2FD6                   MOV.L       R13,@-R15
    00001BC4 2FC6                   MOV.L       R12,@-R15
    00001BC6 2FB6                   MOV.L       R11,@-R15
    00001BC8 2FA6                   MOV.L       R10,@-R15
    00001BCA 2F96                   MOV.L       R9,@-R15
    00001BCC 2F86                   MOV.L       R8,@-R15
    00001BCE 6963                   MOV         R6,R9
    00001BD0 4F22                   STS.L       PR,@-R15
      Monochrome   930    {
      Monochrome   931            unsigned short line;
      Monochrome   932            char shift, *screen, *p;
      Monochrome   933            int i, j, real_width, begin_x, end_x, begin_y, end_y;
      Monochrome   934            char bool1=1, bool2=1, bool3;
    00001BD2 E601                   MOV         #1,R6
    00001BD4 4F12                   STS.L       MACL,@-R15
    00001BD6 7FC8                   ADD         #-56,R15
    00001BD8 1F45                   MOV.L       R4,@(20,R15)
    00001BDA 1F72                   MOV.L       R7,@(8,R15)
    00001BDC 04FE                   MOV.L       @(R0,R15),R4
    00001BDE E01C                   MOV         #28,R0
    00001BE0 0F64                   MOV.B       R6,@(R0,R15)
    00001BE2 E034                   MOV         #52,R0
    00001BE4 0F64                   MOV.B       R6,@(R0,R15)
      Monochrome   935            if(!bmp || x<1-width || x>127 || y<1-height || y>63 || height<1 || width<1) return;
    00001BE6 53F5                   MOV.L       @(20,R15),R3




SH SERIES C/C++ Compiler (Ver. 6.0C)                                                                 15-May-2021 18:55:24  PAGE   85


SCT OFFSET   CODE       C LABEL     INSTRUCTION OPERAND    COMMENT

    00001BE8 2338                   TST         R3,R3
    00001BEA 8B01                   BF          L1322
    00001BEC A109                   BRA         L1093
    00001BEE 0009                   NOP
    00001BF0              L1322:                            
    00001BF0 53F2                   MOV.L       @(8,R15),R3
    00001BF2 E201                   MOV         #1,R2
    00001BF4 3238                   SUB         R3,R2
    00001BF6 3523                   CMP/GE      R2,R5
    00001BF8 8901                   BT          L1323
    00001BFA A102                   BRA         L1093
    00001BFC 0009                   NOP
    00001BFE              L1323:                            
    00001BFE E17F                   MOV         #127,R1
    00001C00 3517                   CMP/GT      R1,R5
    00001C02 8B01                   BF          L1324
    00001C04 A0FD                   BRA         L1093
    00001C06 0009                   NOP
    00001C08              L1324:                            
    00001C08 E001                   MOV         #1,R0
    00001C0A 3048                   SUB         R4,R0
    00001C0C 3903                   CMP/GE      R0,R9
    00001C0E 8901                   BT          L1325
    00001C10 A0F7                   BRA         L1093
    00001C12 0009                   NOP
    00001C14              L1325:                            
    00001C14 E23F                   MOV         #63,R2
    00001C16 3927                   CMP/GT      R2,R9
    00001C18 8B01                   BF          L1326
    00001C1A A0F2                   BRA         L1093
    00001C1C 0009                   NOP
    00001C1E              L1326:                            
    00001C1E E001                   MOV         #1,R0
    00001C20 3403                   CMP/GE      R0,R4
    00001C22 8901                   BT          L1327
    00001C24 A0ED                   BRA         L1093
    00001C26 0009                   NOP
    00001C28              L1327:                            
    00001C28 52F2                   MOV.L       @(8,R15),R2
    00001C2A 3203                   CMP/GE      R0,R2
    00001C2C 8901                   BT          L1328
    00001C2E A0E8                   BRA         L1093
    00001C30 0009                   NOP
    00001C32              L1328:                            
      Monochrome   936            p = (char*)&line;
    00001C32 6BF3                   MOV         R15,R11
      Monochrome   937            real_width = (width-1>>3<<3)+8;
    00001C34 52F2                   MOV.L       @(8,R15),R2
    00001C36 72FF                   ADD         #-1,R2
    00001C38 4221                   SHAR        R2
    00001C3A 4221                   SHAR        R2
    00001C3C 4221                   SHAR        R2
    00001C3E 4208                   SHLL2       R2
    00001C40 4200                   SHLL        R2
    00001C42 7208                   ADD         #8,R2
    00001C44 1F23                   MOV.L       R2,@(12,R15)
      Monochrome   938            if(y < 0) begin_y = -y;




SH SERIES C/C++ Compiler (Ver. 6.0C)                                                                 15-May-2021 18:55:24  PAGE   86


SCT OFFSET   CODE       C LABEL     INSTRUCTION OPERAND    COMMENT

    00001C46 4911                   CMP/PZ      R9
    00001C48 8D02                   BT/S        L1094
    00001C4A E600                   MOV         #0,R6
    00001C4C A001                   BRA         L1095
    00001C4E 689B                   NEG         R9,R8
    00001C50              L1094:                            
      Monochrome   939            else begin_y = 0;
    00001C50 6863                   MOV         R6,R8
    00001C52              L1095:                            
      Monochrome   940            if(y+height > 64) end_y = 64-y;
    00001C52 E740                   MOV         #64,R7
    00001C54 6393                   MOV         R9,R3
    00001C56 334C                   ADD         R4,R3
    00001C58 3377                   CMP/GT      R7,R3
    00001C5A 8B02                   BF          L1096
    00001C5C 3798                   SUB         R9,R7
    00001C5E A001                   BRA         L1097
    00001C60 1F7C                   MOV.L       R7,@(48,R15)
    00001C62              L1096:                            
      Monochrome   941            else end_y = height;
    00001C62 1F4C                   MOV.L       R4,@(48,R15)
    00001C64              L1097:                            
      Monochrome   942            shift = 8-(x&7);
    00001C64 E307                   MOV         #7,R3
    00001C66 2359                   AND         R5,R3
    00001C68 E408                   MOV         #8,R4
    00001C6A 3438                   SUB         R3,R4
    00001C6C 4511                   CMP/PZ      R5
    00001C6E 8D0A                   BT/S        L1098
    00001C70 6E4E                   EXTS.B      R4,R14
      Monochrome   943            if(x<0)
      Monochrome   944            {
      Monochrome   945                    begin_x = -x>>3;
    00001C72 6C5B                   NEG         R5,R12
    00001C74 4C21                   SHAR        R12
    00001C76 4C21                   SHAR        R12
    00001C78 4C21                   SHAR        R12
      Monochrome   946                    if(shift != 8) bool1 = 0;
    00001C7A 60E3                   MOV         R14,R0
    00001C7C 8808                   CMP/EQ      #8,R0
    00001C7E 8903                   BT          L1100
    00001C80 E01C                   MOV         #28,R0
    00001C82 A001                   BRA         L1100
    00001C84 0F64                   MOV.B       R6,@(R0,R15)
    00001C86              L1098:                            
      Monochrome   947            } else begin_x = 0;
    00001C86 6C63                   MOV         R6,R12
    00001C88              L1100:                            
    00001C88 9343                   MOV.W       L1329,R3   ; H'0080
    00001C8A 6253                   MOV         R5,R2
    00001C8C 4221                   SHAR        R2
    00001C8E 4221                   SHAR        R2
    00001C90 4221                   SHAR        R2
    00001C92 1F21                   MOV.L       R2,@(4,R15)
    00001C94 54F3                   MOV.L       @(12,R15),R4
    00001C96 74FF                   ADD         #-1,R4
    00001C98 51F3                   MOV.L       @(12,R15),R1




SH SERIES C/C++ Compiler (Ver. 6.0C)                                                                 15-May-2021 18:55:24  PAGE   87


SCT OFFSET   CODE       C LABEL     INSTRUCTION OPERAND    COMMENT

    00001C9A 4421                   SHAR        R4
    00001C9C 4421                   SHAR        R4
    00001C9E 4421                   SHAR        R4
    00001CA0 315C                   ADD         R5,R1
    00001CA2 3137                   CMP/GT      R3,R1
    00001CA4 8B04                   BF          L1101
      Monochrome   948            if(x+real_width > 128) end_x = 15-(x>>3), bool2 = 0;
    00001CA6 ED0F                   MOV         #15,R13
    00001CA8 3D28                   SUB         R2,R13
    00001CAA E034                   MOV         #52,R0
    00001CAC A001                   BRA         L1102
    00001CAE 0F64                   MOV.B       R6,@(R0,R15)
    00001CB0              L1101:                            
      Monochrome   949            else end_x = real_width-1>>3;
    00001CB0 6D43                   MOV         R4,R13
    00001CB2              L1102:                            
      Monochrome   950            bool3 = (end_x == real_width-1>>3);
    00001CB2 3D40                   CMP/EQ      R4,R13
      Monochrome   951            screen = ML_vram_adress()+(y+begin_y<<4)+(x>>3);
    00001CB4 DA17                   MOV.L       L1329+2,R10; _sc0135
    00001CB6 61F3                   MOV         R15,R1
    00001CB8 0029                   MOVT        R0
    00001CBA 712C                   ADD         #44,R1
    00001CBC 4A0B                   JSR         @R10
    00001CBE 2100                   MOV.B       R0,@R1
    00001CC0 53F1                   MOV.L       @(4,R15),R3
    00001CC2 61B3                   MOV         R11,R1
      Monochrome   952    
      Monochrome   953            for(i=begin_y ; i<end_y ; i++)
    00001CC4 1F86                   MOV.L       R8,@(24,R15)
    00001CC6 6A93                   MOV         R9,R10
    00001CC8 54F3                   MOV.L       @(12,R15),R4
    00001CCA 7101                   ADD         #1,R1
    00001CCC 3A8C                   ADD         R8,R10
    00001CCE 4A08                   SHLL2       R10
    00001CD0 4A08                   SHLL2       R10
    00001CD2 3A0C                   ADD         R0,R10
    00001CD4 3A3C                   ADD         R3,R10
    00001CD6 4421                   SHAR        R4
    00001CD8 4421                   SHAR        R4
    00001CDA 4421                   SHAR        R4
    00001CDC 1F44                   MOV.L       R4,@(16,R15)
    00001CDE 53F6                   MOV.L       @(24,R15),R3
    00001CE0 52F5                   MOV.L       @(20,R15),R2
    00001CE2 0437                   MUL.L       R3,R4
    00001CE4 041A                   STS         MACL,R4
    00001CE6 6843                   MOV         R4,R8
    00001CE8 38DC                   ADD         R13,R8
    00001CEA 382C                   ADD         R2,R8
    00001CEC 6943                   MOV         R4,R9
    00001CEE 34CC                   ADD         R12,R4
    00001CF0 342C                   ADD         R2,R4
    00001CF2 63C3                   MOV         R12,R3
    00001CF4 1F48                   MOV.L       R4,@(32,R15)
    00001CF6 7301                   ADD         #1,R3
    00001CF8 1F11                   MOV.L       R1,@(4,R15)
    00001CFA 1F3A                   MOV.L       R3,@(40,R15)




SH SERIES C/C++ Compiler (Ver. 6.0C)                                                                 15-May-2021 18:55:24  PAGE   88


SCT OFFSET   CODE       C LABEL     INSTRUCTION OPERAND    COMMENT

    00001CFC 52F2                   MOV.L       @(8,R15),R2
    00001CFE 50F3                   MOV.L       @(12,R15),R0
    00001D00 3028                   SUB         R2,R0
    00001D02 E1FF                   MOV         #-1,R1
    00001D04 410C                   SHAD        R0,R1
    00001D06 1F13                   MOV.L       R1,@(12,R15)
    00001D08 55F4                   MOV.L       @(16,R15),R5
    00001D0A 1F59                   MOV.L       R5,@(36,R15)
    00001D0C 1F54                   MOV.L       R5,@(16,R15)
    00001D0E A074                   BRA         L1103
    00001D10 1F52                   MOV.L       R5,@(8,R15)
    00001D12              L1329:                            
    00001D12 0080                   .DATA.W     H'0080
    00001D14 <00000000>             .DATA.L     _sc0135
    00001D18              L1104:                            
      Monochrome   954            {
      Monochrome   955                    if(begin_x < end_x)
    00001D18 3CD3                   CMP/GE      R13,R12
    00001D1A 893C                   BT          L1105
      Monochrome   956    
      Monochrome   957                    {
      Monochrome   958                            line = ~((unsigned char)~bmp[i*(real_width>>3)+begin_x]<<shift);
    00001D1C 53F8                   MOV.L       @(32,R15),R3
    00001D1E 64C3                   MOV         R12,R4
    00001D20 6230                   MOV.B       @R3,R2
    00001D22 E01C                   MOV         #28,R0
    00001D24 6227                   NOT         R2,R2
    00001D26 622C                   EXTU.B      R2,R2
    00001D28 42ED                   SHLD        R14,R2
    00001D2A 6227                   NOT         R2,R2
    00001D2C 2F21                   MOV.W       R2,@R15
    00001D2E 03FC                   MOV.B       @(R0,R15),R3
    00001D30 2338                   TST         R3,R3
    00001D32 8D04                   BT/S        L1106
    00001D34 34AC                   ADD         R10,R4
      Monochrome   959                            if(bool1) screen[begin_x] &= *p;
    00001D36 63B0                   MOV.B       @R11,R3
    00001D38 6140                   MOV.B       @R4,R1
    00001D3A 2139                   AND         R3,R1
    00001D3C 2410                   MOV.B       R1,@R4
    00001D3E              L1106:                            
      Monochrome   960                            if(shift!=8) screen[begin_x+1] &= *(p+1);
    00001D3E 60E3                   MOV         R14,R0
    00001D40 8808                   CMP/EQ      #8,R0
    00001D42 8904                   BT          L1107
    00001D44 52F1                   MOV.L       @(4,R15),R2
    00001D46 6320                   MOV.B       @R2,R3
    00001D48 8441                   MOV.B       @(1,R4),R0
    00001D4A 2039                   AND         R3,R0
    00001D4C 8041                   MOV.B       R0,@(1,R4)
    00001D4E              L1107:                            
      Monochrome   961                            for(j=begin_x+1 ; j<end_x ; j++)
    00001D4E 54FA                   MOV.L       @(40,R15),R4
    00001D50 53F5                   MOV.L       @(20,R15),R3
    00001D52 34D3                   CMP/GE      R13,R4
    00001D54 6643                   MOV         R4,R6
    00001D56 36AC                   ADD         R10,R6




SH SERIES C/C++ Compiler (Ver. 6.0C)                                                                 15-May-2021 18:55:24  PAGE   89


SCT OFFSET   CODE       C LABEL     INSTRUCTION OPERAND    COMMENT

    00001D58 6563                   MOV         R6,R5
    00001D5A 7501                   ADD         #1,R5
    00001D5C 6763                   MOV         R6,R7
    00001D5E 6693                   MOV         R9,R6
    00001D60 364C                   ADD         R4,R6
    00001D62 8D18                   BT/S        L1105
    00001D64 363C                   ADD         R3,R6
    00001D66              L1109:                            
      Monochrome   962                            {
      Monochrome   963                                    line = ~((unsigned char)~bmp[i*(real_width>>3)+j]<<shift);
      Monochrome   964                                    screen[j] &= *p;
      Monochrome   965                                    if(shift!=8) screen[j+1] &= *(p+1);
    00001D66 60E3                   MOV         R14,R0
    00001D68 6360                   MOV.B       @R6,R3
    00001D6A 8808                   CMP/EQ      #8,R0
    00001D6C 6337                   NOT         R3,R3
    00001D6E 633C                   EXTU.B      R3,R3
    00001D70 43ED                   SHLD        R14,R3
    00001D72 6337                   NOT         R3,R3
    00001D74 2F31                   MOV.W       R3,@R15
    00001D76 62B0                   MOV.B       @R11,R2
    00001D78 6170                   MOV.B       @R7,R1
    00001D7A 2129                   AND         R2,R1
    00001D7C 8D05                   BT/S        L1110
    00001D7E 2710                   MOV.B       R1,@R7
    00001D80 52F1                   MOV.L       @(4,R15),R2
    00001D82 6320                   MOV.B       @R2,R3
    00001D84 6150                   MOV.B       @R5,R1
    00001D86 2139                   AND         R3,R1
    00001D88 2510                   MOV.B       R1,@R5
    00001D8A              L1110:                            
    00001D8A 7401                   ADD         #1,R4
    00001D8C 7501                   ADD         #1,R5
    00001D8E 7701                   ADD         #1,R7
    00001D90 34D3                   CMP/GE      R13,R4
    00001D92 8FE8                   BF/S        L1109
    00001D94 7601                   ADD         #1,R6
    00001D96              L1105:                            
      Monochrome   966                            }
      Monochrome   967                    }
      Monochrome   968                    line = (unsigned char)~bmp[i*(real_width>>3)+end_x];
      Monochrome   969                    if(bool3) line &= -1<<real_width-width;
    00001D96 E02C                   MOV         #44,R0
    00001D98 6280                   MOV.B       @R8,R2
    00001D9A 6227                   NOT         R2,R2
    00001D9C 622C                   EXTU.B      R2,R2
    00001D9E 2F21                   MOV.W       R2,@R15
    00001DA0 03FC                   MOV.B       @(R0,R15),R3
    00001DA2 2338                   TST         R3,R3
    00001DA4 8903                   BT          L1111
    00001DA6 53F3                   MOV.L       @(12,R15),R3
    00001DA8 61F1                   MOV.W       @R15,R1
    00001DAA 2139                   AND         R3,R1
    00001DAC 2F11                   MOV.W       R1,@R15
    00001DAE              L1111:                            
    00001DAE 64D3                   MOV         R13,R4
      Monochrome   970                    line = ~(line << shift);




SH SERIES C/C++ Compiler (Ver. 6.0C)                                                                 15-May-2021 18:55:24  PAGE   90


SCT OFFSET   CODE       C LABEL     INSTRUCTION OPERAND    COMMENT

    00001DB0 62F1                   MOV.W       @R15,R2
    00001DB2 3CD3                   CMP/GE      R13,R12
    00001DB4 622D                   EXTU.W      R2,R2
    00001DB6 42ED                   SHLD        R14,R2
    00001DB8 6227                   NOT         R2,R2
    00001DBA 2F21                   MOV.W       R2,@R15
    00001DBC 8F04                   BF/S        L1113
    00001DBE 34AC                   ADD         R10,R4
    00001DC0 E01C                   MOV         #28,R0
    00001DC2 01FC                   MOV.B       @(R0,R15),R1
    00001DC4 2118                   TST         R1,R1
    00001DC6 8903                   BT          L1112
    00001DC8              L1113:                            
      Monochrome   971                    if(begin_x < end_x || bool1) screen[end_x] &= *p;
    00001DC8 63B0                   MOV.B       @R11,R3
    00001DCA 6240                   MOV.B       @R4,R2
    00001DCC 2239                   AND         R3,R2
    00001DCE 2420                   MOV.B       R2,@R4
    00001DD0              L1112:                            
      Monochrome   972                    if(bool2) screen[end_x+1] &= *(p+1);
    00001DD0 E034                   MOV         #52,R0
    00001DD2 01FC                   MOV.B       @(R0,R15),R1
    00001DD4 2118                   TST         R1,R1
    00001DD6 8D05                   BT/S        L1114
      Monochrome   973                    screen += 16;
    00001DD8 7A10                   ADD         #16,R10
    00001DDA 51F1                   MOV.L       @(4,R15),R1
    00001DDC 8441                   MOV.B       @(1,R4),R0
    00001DDE 6310                   MOV.B       @R1,R3
    00001DE0 2039                   AND         R3,R0
    00001DE2 8041                   MOV.B       R0,@(1,R4)
    00001DE4              L1114:                            
    00001DE4 53F6                   MOV.L       @(24,R15),R3
    00001DE6 7301                   ADD         #1,R3
    00001DE8 1F36                   MOV.L       R3,@(24,R15)
    00001DEA 52F9                   MOV.L       @(36,R15),R2
    00001DEC 51F4                   MOV.L       @(16,R15),R1
    00001DEE 382C                   ADD         R2,R8
    00001DF0 53F8                   MOV.L       @(32,R15),R3
    00001DF2 391C                   ADD         R1,R9
    00001DF4 50F2                   MOV.L       @(8,R15),R0
    00001DF6 303C                   ADD         R3,R0
    00001DF8 1F08                   MOV.L       R0,@(32,R15)
    00001DFA              L1103:                            
    00001DFA 53FC                   MOV.L       @(48,R15),R3
    00001DFC 51F6                   MOV.L       @(24,R15),R1
    00001DFE 3133                   CMP/GE      R3,R1
    00001E00 8B8A                   BF          L1104
    00001E02              L1093:                            
      Monochrome   974            }
      Monochrome   975    }
    00001E02 7F38                   ADD         #56,R15
    00001E04 4F16                   LDS.L       @R15+,MACL
    00001E06 4F26                   LDS.L       @R15+,PR
    00001E08 68F6                   MOV.L       @R15+,R8
    00001E0A 69F6                   MOV.L       @R15+,R9
    00001E0C 6AF6                   MOV.L       @R15+,R10




SH SERIES C/C++ Compiler (Ver. 6.0C)                                                                 15-May-2021 18:55:24  PAGE   91


SCT OFFSET   CODE       C LABEL     INSTRUCTION OPERAND    COMMENT

    00001E0E 6BF6                   MOV.L       @R15+,R11
    00001E10 6CF6                   MOV.L       @R15+,R12
    00001E12 6DF6                   MOV.L       @R15+,R13
    00001E14 000B                   RTS
    00001E16 6EF6                   MOV.L       @R15+,R14
      Monochrome   976    #endif
      Monochrome   977    
      Monochrome   978    #ifdef ML_BMP_XOR_CL
      Monochrome   979    void ML_bmp_xor_cl(const unsigned char *bmp, int x, int y, int width, int height)
    00001E18              _ML_bmp_xor_cl:                  ; function: ML_bmp_xor_cl
                                                           ; frame size=92
    00001E18 2FE6                   MOV.L       R14,@-R15
    00001E1A E05C                   MOV         #92,R0
    00001E1C 2FD6                   MOV.L       R13,@-R15
    00001E1E 2FC6                   MOV.L       R12,@-R15
    00001E20 2FB6                   MOV.L       R11,@-R15
    00001E22 2FA6                   MOV.L       R10,@-R15
    00001E24 2F96                   MOV.L       R9,@-R15
    00001E26 6963                   MOV         R6,R9
    00001E28 2F86                   MOV.L       R8,@-R15
      Monochrome   980    {
      Monochrome   981            unsigned short line;
      Monochrome   982            char shift, *screen, *p;
      Monochrome   983            int i, j, real_width, begin_x, end_x, begin_y, end_y;
      Monochrome   984            char bool1=1, bool2=1, bool3;
    00001E2A E601                   MOV         #1,R6
    00001E2C 4F22                   STS.L       PR,@-R15
    00001E2E 4F12                   STS.L       MACL,@-R15
    00001E30 7FC8                   ADD         #-56,R15
    00001E32 1F45                   MOV.L       R4,@(20,R15)
    00001E34 1F72                   MOV.L       R7,@(8,R15)
    00001E36 04FE                   MOV.L       @(R0,R15),R4
    00001E38 E01C                   MOV         #28,R0
    00001E3A 0F64                   MOV.B       R6,@(R0,R15)
    00001E3C E034                   MOV         #52,R0
    00001E3E 0F64                   MOV.B       R6,@(R0,R15)
      Monochrome   985            if(!bmp || x<1-width || x>127 || y<1-height || y>63 || height<1 || width<1) return;
    00001E40 53F5                   MOV.L       @(20,R15),R3
    00001E42 2338                   TST         R3,R3
    00001E44 8B01                   BF          L1330
    00001E46 A103                   BRA         L1117
    00001E48 0009                   NOP
    00001E4A              L1330:                            
    00001E4A E201                   MOV         #1,R2
    00001E4C 53F2                   MOV.L       @(8,R15),R3
    00001E4E 3238                   SUB         R3,R2
    00001E50 3523                   CMP/GE      R2,R5
    00001E52 8901                   BT          L1331
    00001E54 A0FC                   BRA         L1117
    00001E56 0009                   NOP
    00001E58              L1331:                            
    00001E58 E17F                   MOV         #127,R1
    00001E5A 3517                   CMP/GT      R1,R5
    00001E5C 8B01                   BF          L1332
    00001E5E A0F7                   BRA         L1117
    00001E60 0009                   NOP
    00001E62              L1332:                            




SH SERIES C/C++ Compiler (Ver. 6.0C)                                                                 15-May-2021 18:55:24  PAGE   92


SCT OFFSET   CODE       C LABEL     INSTRUCTION OPERAND    COMMENT

    00001E62 E001                   MOV         #1,R0
    00001E64 3048                   SUB         R4,R0
    00001E66 3903                   CMP/GE      R0,R9
    00001E68 8901                   BT          L1333
    00001E6A A0F1                   BRA         L1117
    00001E6C 0009                   NOP
    00001E6E              L1333:                            
    00001E6E E23F                   MOV         #63,R2
    00001E70 3927                   CMP/GT      R2,R9
    00001E72 8B01                   BF          L1334
    00001E74 A0EC                   BRA         L1117
    00001E76 0009                   NOP
    00001E78              L1334:                            
    00001E78 E001                   MOV         #1,R0
    00001E7A 3403                   CMP/GE      R0,R4
    00001E7C 8901                   BT          L1335
    00001E7E A0E7                   BRA         L1117
    00001E80 0009                   NOP
    00001E82              L1335:                            
    00001E82 52F2                   MOV.L       @(8,R15),R2
    00001E84 3203                   CMP/GE      R0,R2
    00001E86 8901                   BT          L1336
    00001E88 A0E2                   BRA         L1117
    00001E8A 0009                   NOP
    00001E8C              L1336:                            
      Monochrome   986            p = (char*)&line;
      Monochrome   987            real_width = (width-1>>3<<3)+8;
    00001E8C 52F2                   MOV.L       @(8,R15),R2
    00001E8E 6BF3                   MOV         R15,R11
    00001E90 72FF                   ADD         #-1,R2
    00001E92 4221                   SHAR        R2
    00001E94 4221                   SHAR        R2
    00001E96 4221                   SHAR        R2
    00001E98 4208                   SHLL2       R2
    00001E9A 4200                   SHLL        R2
    00001E9C 7208                   ADD         #8,R2
      Monochrome   988            if(y < 0) begin_y = -y;
    00001E9E 4911                   CMP/PZ      R9
    00001EA0 1F23                   MOV.L       R2,@(12,R15)
    00001EA2 8D02                   BT/S        L1118
    00001EA4 E600                   MOV         #0,R6
    00001EA6 A001                   BRA         L1119
    00001EA8 689B                   NEG         R9,R8
    00001EAA              L1118:                            
      Monochrome   989            else begin_y = 0;
    00001EAA 6863                   MOV         R6,R8
    00001EAC              L1119:                            
      Monochrome   990            if(y+height > 64) end_y = 64-y;
    00001EAC E740                   MOV         #64,R7
    00001EAE 6393                   MOV         R9,R3
    00001EB0 334C                   ADD         R4,R3
    00001EB2 3377                   CMP/GT      R7,R3
    00001EB4 8B02                   BF          L1120
    00001EB6 3798                   SUB         R9,R7
    00001EB8 A001                   BRA         L1121
    00001EBA 1F7C                   MOV.L       R7,@(48,R15)
    00001EBC              L1120:                            




SH SERIES C/C++ Compiler (Ver. 6.0C)                                                                 15-May-2021 18:55:24  PAGE   93


SCT OFFSET   CODE       C LABEL     INSTRUCTION OPERAND    COMMENT

      Monochrome   991            else end_y = height;
    00001EBC 1F4C                   MOV.L       R4,@(48,R15)
    00001EBE              L1121:                            
      Monochrome   992            shift = 8-(x&7);
    00001EBE E307                   MOV         #7,R3
    00001EC0 2359                   AND         R5,R3
    00001EC2 E408                   MOV         #8,R4
    00001EC4 3438                   SUB         R3,R4
    00001EC6 4511                   CMP/PZ      R5
    00001EC8 8D0A                   BT/S        L1122
    00001ECA 6E4E                   EXTS.B      R4,R14
      Monochrome   993            if(x<0)
      Monochrome   994            {
      Monochrome   995                    begin_x = -x>>3;
    00001ECC 6C5B                   NEG         R5,R12
    00001ECE 4C21                   SHAR        R12
    00001ED0 4C21                   SHAR        R12
    00001ED2 4C21                   SHAR        R12
      Monochrome   996                    if(shift != 8) bool1 = 0;
    00001ED4 60E3                   MOV         R14,R0
    00001ED6 8808                   CMP/EQ      #8,R0
    00001ED8 8903                   BT          L1124
    00001EDA E01C                   MOV         #28,R0
    00001EDC A001                   BRA         L1124
    00001EDE 0F64                   MOV.B       R6,@(R0,R15)
    00001EE0              L1122:                            
      Monochrome   997            } else begin_x = 0;
    00001EE0 6C63                   MOV         R6,R12
    00001EE2              L1124:                            
    00001EE2 6253                   MOV         R5,R2
    00001EE4 9342                   MOV.W       L1337,R3   ; H'0080
    00001EE6 4221                   SHAR        R2
    00001EE8 4221                   SHAR        R2
    00001EEA 4221                   SHAR        R2
    00001EEC 1F21                   MOV.L       R2,@(4,R15)
    00001EEE 54F3                   MOV.L       @(12,R15),R4
    00001EF0 51F3                   MOV.L       @(12,R15),R1
    00001EF2 74FF                   ADD         #-1,R4
    00001EF4 4421                   SHAR        R4
    00001EF6 4421                   SHAR        R4
    00001EF8 4421                   SHAR        R4
    00001EFA 315C                   ADD         R5,R1
    00001EFC 3137                   CMP/GT      R3,R1
    00001EFE 8B04                   BF          L1125
      Monochrome   998            if(x+real_width > 128) end_x = 15-(x>>3), bool2 = 0;
    00001F00 ED0F                   MOV         #15,R13
    00001F02 3D28                   SUB         R2,R13
    00001F04 E034                   MOV         #52,R0
    00001F06 A001                   BRA         L1126
    00001F08 0F64                   MOV.B       R6,@(R0,R15)
    00001F0A              L1125:                            
      Monochrome   999            else end_x = real_width-1>>3;
    00001F0A 6D43                   MOV         R4,R13
    00001F0C              L1126:                            
      Monochrome  1000            bool3 = (end_x == real_width-1>>3);
      Monochrome  1001            screen = ML_vram_adress()+(y+begin_y<<4)+(x>>3);
    00001F0C DA18                   MOV.L       L1337+4,R10; _sc0135




SH SERIES C/C++ Compiler (Ver. 6.0C)                                                                 15-May-2021 18:55:24  PAGE   94


SCT OFFSET   CODE       C LABEL     INSTRUCTION OPERAND    COMMENT

    00001F0E 3D40                   CMP/EQ      R4,R13
    00001F10 0029                   MOVT        R0
    00001F12 61F3                   MOV         R15,R1
    00001F14 712C                   ADD         #44,R1
    00001F16 4A0B                   JSR         @R10
    00001F18 2100                   MOV.B       R0,@R1
    00001F1A 6A93                   MOV         R9,R10
    00001F1C 53F1                   MOV.L       @(4,R15),R3
    00001F1E 61B3                   MOV         R11,R1
      Monochrome  1002    
      Monochrome  1003            for(i=begin_y ; i<end_y ; i++)
    00001F20 1F86                   MOV.L       R8,@(24,R15)
    00001F22 3A8C                   ADD         R8,R10
    00001F24 54F3                   MOV.L       @(12,R15),R4
    00001F26 7101                   ADD         #1,R1
    00001F28 4A08                   SHLL2       R10
    00001F2A 4A08                   SHLL2       R10
    00001F2C 3A0C                   ADD         R0,R10
    00001F2E 3A3C                   ADD         R3,R10
    00001F30 4421                   SHAR        R4
    00001F32 4421                   SHAR        R4
    00001F34 4421                   SHAR        R4
    00001F36 1F44                   MOV.L       R4,@(16,R15)
    00001F38 53F6                   MOV.L       @(24,R15),R3
    00001F3A 0437                   MUL.L       R3,R4
    00001F3C 52F5                   MOV.L       @(20,R15),R2
    00001F3E 63C3                   MOV         R12,R3
    00001F40 041A                   STS         MACL,R4
    00001F42 6843                   MOV         R4,R8
    00001F44 38DC                   ADD         R13,R8
    00001F46 382C                   ADD         R2,R8
    00001F48 6943                   MOV         R4,R9
    00001F4A 34CC                   ADD         R12,R4
    00001F4C 342C                   ADD         R2,R4
    00001F4E 7301                   ADD         #1,R3
    00001F50 1F48                   MOV.L       R4,@(32,R15)
    00001F52 1F11                   MOV.L       R1,@(4,R15)
    00001F54 1F3A                   MOV.L       R3,@(40,R15)
    00001F56 52F2                   MOV.L       @(8,R15),R2
    00001F58 50F3                   MOV.L       @(12,R15),R0
    00001F5A 3028                   SUB         R2,R0
    00001F5C E1FF                   MOV         #-1,R1
    00001F5E 410C                   SHAD        R0,R1
    00001F60 1F13                   MOV.L       R1,@(12,R15)
    00001F62 55F4                   MOV.L       @(16,R15),R5
    00001F64 1F59                   MOV.L       R5,@(36,R15)
    00001F66 1F54                   MOV.L       R5,@(16,R15)
    00001F68 A06E                   BRA         L1127
    00001F6A 1F52                   MOV.L       R5,@(8,R15)
    00001F6C              L1337:                            
    00001F6C 0080                   .DATA.W     H'0080
    00001F6E 0000                   .DATA.W     0
    00001F70 <00000000>             .DATA.L     _sc0135
    00001F74              L1128:                            
      Monochrome  1004            {
      Monochrome  1005                    if(begin_x < end_x)
    00001F74 3CD3                   CMP/GE      R13,R12




SH SERIES C/C++ Compiler (Ver. 6.0C)                                                                 15-May-2021 18:55:24  PAGE   95


SCT OFFSET   CODE       C LABEL     INSTRUCTION OPERAND    COMMENT

    00001F76 8938                   BT          L1129
      Monochrome  1006                    {
      Monochrome  1007                            line = bmp[i*(real_width>>3)+begin_x] << shift;
    00001F78 53F8                   MOV.L       @(32,R15),R3
    00001F7A 64C3                   MOV         R12,R4
    00001F7C 6230                   MOV.B       @R3,R2
    00001F7E E01C                   MOV         #28,R0
    00001F80 622C                   EXTU.B      R2,R2
    00001F82 42ED                   SHLD        R14,R2
    00001F84 2F21                   MOV.W       R2,@R15
    00001F86 03FC                   MOV.B       @(R0,R15),R3
    00001F88 2338                   TST         R3,R3
    00001F8A 8D04                   BT/S        L1130
    00001F8C 34AC                   ADD         R10,R4
      Monochrome  1008                            if(bool1) screen[begin_x] ^= *p;
    00001F8E 63B0                   MOV.B       @R11,R3
    00001F90 6140                   MOV.B       @R4,R1
    00001F92 213A                   XOR         R3,R1
    00001F94 2410                   MOV.B       R1,@R4
    00001F96              L1130:                            
      Monochrome  1009                            if(shift!=8) screen[begin_x+1] ^= *(p+1);
    00001F96 60E3                   MOV         R14,R0
    00001F98 8808                   CMP/EQ      #8,R0
    00001F9A 8904                   BT          L1131
    00001F9C 52F1                   MOV.L       @(4,R15),R2
    00001F9E 6320                   MOV.B       @R2,R3
    00001FA0 8441                   MOV.B       @(1,R4),R0
    00001FA2 203A                   XOR         R3,R0
    00001FA4 8041                   MOV.B       R0,@(1,R4)
    00001FA6              L1131:                            
      Monochrome  1010                            for(j=begin_x+1 ; j<end_x ; j++)
    00001FA6 54FA                   MOV.L       @(40,R15),R4
    00001FA8 53F5                   MOV.L       @(20,R15),R3
    00001FAA 34D3                   CMP/GE      R13,R4
    00001FAC 6643                   MOV         R4,R6
    00001FAE 36AC                   ADD         R10,R6
    00001FB0 6563                   MOV         R6,R5
    00001FB2 7501                   ADD         #1,R5
    00001FB4 6763                   MOV         R6,R7
    00001FB6 6693                   MOV         R9,R6
    00001FB8 364C                   ADD         R4,R6
    00001FBA 8D16                   BT/S        L1129
    00001FBC 363C                   ADD         R3,R6
    00001FBE              L1133:                            
      Monochrome  1011                            {
      Monochrome  1012                                    line = bmp[i*(real_width>>3)+j] << shift;
      Monochrome  1013                                    screen[j] ^= *p;
      Monochrome  1014                                    if(shift!=8) screen[j+1] ^= *(p+1);
    00001FBE 60E3                   MOV         R14,R0
    00001FC0 6360                   MOV.B       @R6,R3
    00001FC2 8808                   CMP/EQ      #8,R0
    00001FC4 633C                   EXTU.B      R3,R3
    00001FC6 43ED                   SHLD        R14,R3
    00001FC8 2F31                   MOV.W       R3,@R15
    00001FCA 62B0                   MOV.B       @R11,R2
    00001FCC 6170                   MOV.B       @R7,R1
    00001FCE 212A                   XOR         R2,R1




SH SERIES C/C++ Compiler (Ver. 6.0C)                                                                 15-May-2021 18:55:24  PAGE   96


SCT OFFSET   CODE       C LABEL     INSTRUCTION OPERAND    COMMENT

    00001FD0 8D05                   BT/S        L1134
    00001FD2 2710                   MOV.B       R1,@R7
    00001FD4 52F1                   MOV.L       @(4,R15),R2
    00001FD6 6320                   MOV.B       @R2,R3
    00001FD8 6150                   MOV.B       @R5,R1
    00001FDA 213A                   XOR         R3,R1
    00001FDC 2510                   MOV.B       R1,@R5
    00001FDE              L1134:                            
    00001FDE 7401                   ADD         #1,R4
    00001FE0 7501                   ADD         #1,R5
    00001FE2 7701                   ADD         #1,R7
    00001FE4 34D3                   CMP/GE      R13,R4
    00001FE6 8FEA                   BF/S        L1133
    00001FE8 7601                   ADD         #1,R6
    00001FEA              L1129:                            
      Monochrome  1015                            }
      Monochrome  1016                    }
      Monochrome  1017                    line = bmp[i*(real_width>>3)+end_x];
      Monochrome  1018                    if(bool3) line &= -1<<real_width-width;
    00001FEA E02C                   MOV         #44,R0
    00001FEC 6280                   MOV.B       @R8,R2
    00001FEE 622C                   EXTU.B      R2,R2
    00001FF0 2F21                   MOV.W       R2,@R15
    00001FF2 03FC                   MOV.B       @(R0,R15),R3
    00001FF4 2338                   TST         R3,R3
    00001FF6 8903                   BT          L1135
    00001FF8 53F3                   MOV.L       @(12,R15),R3
    00001FFA 61F1                   MOV.W       @R15,R1
    00001FFC 2139                   AND         R3,R1
    00001FFE 2F11                   MOV.W       R1,@R15
    00002000              L1135:                            
      Monochrome  1019                    line <<= shift;
    00002000 62F1                   MOV.W       @R15,R2
    00002002 64D3                   MOV         R13,R4
    00002004 42ED                   SHLD        R14,R2
    00002006 3CD3                   CMP/GE      R13,R12
    00002008 2F21                   MOV.W       R2,@R15
    0000200A 8F04                   BF/S        L1137
    0000200C 34AC                   ADD         R10,R4
    0000200E E01C                   MOV         #28,R0
    00002010 01FC                   MOV.B       @(R0,R15),R1
    00002012 2118                   TST         R1,R1
    00002014 8903                   BT          L1136
    00002016              L1137:                            
      Monochrome  1020                    if(begin_x < end_x || bool1) screen[end_x] ^= *p;
    00002016 63B0                   MOV.B       @R11,R3
    00002018 6240                   MOV.B       @R4,R2
    0000201A 223A                   XOR         R3,R2
    0000201C 2420                   MOV.B       R2,@R4
    0000201E              L1136:                            
      Monochrome  1021                    if(bool2) screen[end_x+1] ^= *(p+1);
    0000201E E034                   MOV         #52,R0
    00002020 01FC                   MOV.B       @(R0,R15),R1
    00002022 2118                   TST         R1,R1
    00002024 8D05                   BT/S        L1138
      Monochrome  1022                    screen += 16;
    00002026 7A10                   ADD         #16,R10




SH SERIES C/C++ Compiler (Ver. 6.0C)                                                                 15-May-2021 18:55:24  PAGE   97


SCT OFFSET   CODE       C LABEL     INSTRUCTION OPERAND    COMMENT

    00002028 51F1                   MOV.L       @(4,R15),R1
    0000202A 6310                   MOV.B       @R1,R3
    0000202C 8441                   MOV.B       @(1,R4),R0
    0000202E 203A                   XOR         R3,R0
    00002030 8041                   MOV.B       R0,@(1,R4)
    00002032              L1138:                            
    00002032 53F6                   MOV.L       @(24,R15),R3
    00002034 7301                   ADD         #1,R3
    00002036 1F36                   MOV.L       R3,@(24,R15)
    00002038 52F9                   MOV.L       @(36,R15),R2
    0000203A 382C                   ADD         R2,R8
    0000203C 51F4                   MOV.L       @(16,R15),R1
    0000203E 391C                   ADD         R1,R9
    00002040 53F8                   MOV.L       @(32,R15),R3
    00002042 50F2                   MOV.L       @(8,R15),R0
    00002044 303C                   ADD         R3,R0
    00002046 1F08                   MOV.L       R0,@(32,R15)
    00002048              L1127:                            
    00002048 53FC                   MOV.L       @(48,R15),R3
    0000204A 51F6                   MOV.L       @(24,R15),R1
    0000204C 3133                   CMP/GE      R3,R1
    0000204E 8B91                   BF          L1128
    00002050              L1117:                            
      Monochrome  1023            }
      Monochrome  1024    }
    00002050 7F38                   ADD         #56,R15
    00002052 4F16                   LDS.L       @R15+,MACL
    00002054 4F26                   LDS.L       @R15+,PR
    00002056 68F6                   MOV.L       @R15+,R8
    00002058 69F6                   MOV.L       @R15+,R9
    0000205A 6AF6                   MOV.L       @R15+,R10
    0000205C 6BF6                   MOV.L       @R15+,R11
    0000205E 6CF6                   MOV.L       @R15+,R12
    00002060 6DF6                   MOV.L       @R15+,R13
    00002062 000B                   RTS
    00002064 6EF6                   MOV.L       @R15+,R14
      Monochrome  1025    
      Monochrome  1026    #endif
      Monochrome  1027    
      Monochrome  1028    #ifdef ML_BMP_8_OR
      Monochrome  1029    void ML_bmp_8_or(const unsigned char *bmp, int x, int y)
    00002066              _ML_bmp_8_or:                    ; function: ML_bmp_8_or
                                                           ; frame size=36
    00002066 2FE6                   MOV.L       R14,@-R15
    00002068 2FD6                   MOV.L       R13,@-R15
    0000206A 6E63                   MOV         R6,R14
    0000206C 2FC6                   MOV.L       R12,@-R15
    0000206E 6D53                   MOV         R5,R13
    00002070 2FB6                   MOV.L       R11,@-R15
      Monochrome  1030    {
      Monochrome  1031            unsigned short line;
      Monochrome  1032            char i, shift, begin=0, end=8, *screen, *p=(char*)&line;
    00002072 EB00                   MOV         #0,R11
    00002074 2FA6                   MOV.L       R10,@-R15
    00002076 2F96                   MOV.L       R9,@-R15
    00002078 4F22                   STS.L       PR,@-R15
    0000207A 7FF8                   ADD         #-8,R15




SH SERIES C/C++ Compiler (Ver. 6.0C)                                                                 15-May-2021 18:55:24  PAGE   98


SCT OFFSET   CODE       C LABEL     INSTRUCTION OPERAND    COMMENT

    0000207C 1F41                   MOV.L       R4,@(4,R15)
    0000207E E408                   MOV         #8,R4
      Monochrome  1033            if(!bmp || x<0 || x>120 || y<-7 || y>63) return;
    00002080 53F1                   MOV.L       @(4,R15),R3
    00002082 6943                   MOV         R4,R9
    00002084 2338                   TST         R3,R3
    00002086 8D43                   BT/S        L1141
    00002088 6CF3                   MOV         R15,R12
    0000208A 4D11                   CMP/PZ      R13
    0000208C 8B40                   BF          L1141
    0000208E E278                   MOV         #120,R2
    00002090 3D27                   CMP/GT      R2,R13
    00002092 893D                   BT          L1141
    00002094 E1F9                   MOV         #-7,R1
    00002096 3E13                   CMP/GE      R1,R14
    00002098 8B3A                   BF          L1141
    0000209A E03F                   MOV         #63,R0
    0000209C 3E07                   CMP/GT      R0,R14
    0000209E 8937                   BT          L1141
      Monochrome  1034            if(y < 0) begin = -y;
    000020A0 4E11                   CMP/PZ      R14
    000020A2 8D01                   BT/S        L1142
      Monochrome  1035            if(y > 56) end = 64-y;
    000020A4 E338                   MOV         #56,R3
    000020A6 6BEB                   NEG         R14,R11
    000020A8              L1142:                            
    000020A8 3E37                   CMP/GT      R3,R14
    000020AA 8F02                   BF/S        L1143
      Monochrome  1036            shift = 8-(x&7);
    000020AC E307                   MOV         #7,R3
    000020AE E940                   MOV         #64,R9
    000020B0 39E8                   SUB         R14,R9
    000020B2              L1143:                            
    000020B2 23D9                   AND         R13,R3
      Monochrome  1037            screen = ML_vram_adress()+(y+begin<<4)+(x>>3);
    000020B4 D24B                   MOV.L       L1338+2,R2 ; _sc0135
    000020B6 6A43                   MOV         R4,R10
    000020B8 420B                   JSR         @R2
    000020BA 3A38                   SUB         R3,R10
    000020BC 63BE                   EXTS.B      R11,R3
    000020BE 33EC                   ADD         R14,R3
    000020C0 4308                   SHLL2       R3
    000020C2 4308                   SHLL2       R3
    000020C4 303C                   ADD         R3,R0
    000020C6 4D21                   SHAR        R13
    000020C8 53F1                   MOV.L       @(4,R15),R3
    000020CA 6EC3                   MOV         R12,R14
    000020CC 4D21                   SHAR        R13
    000020CE 4D21                   SHAR        R13
    000020D0 6603                   MOV         R0,R6
    000020D2 36DC                   ADD         R13,R6
      Monochrome  1038            for(i=begin ; i<end ; i++)
    000020D4 65B3                   MOV         R11,R5
    000020D6 645E                   EXTS.B      R5,R4
    000020D8 343C                   ADD         R3,R4
    000020DA 679E                   EXTS.B      R9,R7
    000020DC 625E                   EXTS.B      R5,R2




SH SERIES C/C++ Compiler (Ver. 6.0C)                                                                 15-May-2021 18:55:24  PAGE   99


SCT OFFSET   CODE       C LABEL     INSTRUCTION OPERAND    COMMENT

    000020DE 3273                   CMP/GE      R7,R2
    000020E0 8D16                   BT/S        L1141
    000020E2 7E01                   ADD         #1,R14
    000020E4              L1145:                            
      Monochrome  1039            {
      Monochrome  1040                    line = bmp[i]<<shift;
    000020E4 6340                   MOV.B       @R4,R3
    000020E6 6DAE                   EXTS.B      R10,R13
    000020E8 633C                   EXTU.B      R3,R3
    000020EA 43DD                   SHLD        R13,R3
    000020EC 2F31                   MOV.W       R3,@R15
      Monochrome  1041                    screen[0] |= *p;
      Monochrome  1042                    if(shift!=8) screen[1] |= *(p+1);
    000020EE 60D3                   MOV         R13,R0
    000020F0 62C0                   MOV.B       @R12,R2
    000020F2 8808                   CMP/EQ      #8,R0
    000020F4 6160                   MOV.B       @R6,R1
    000020F6 212B                   OR          R2,R1
    000020F8 8D04                   BT/S        L1146
    000020FA 2610                   MOV.B       R1,@R6
    000020FC 63E0                   MOV.B       @R14,R3
    000020FE 8461                   MOV.B       @(1,R6),R0
    00002100 203B                   OR          R3,R0
    00002102 8061                   MOV.B       R0,@(1,R6)
    00002104              L1146:                            
      Monochrome  1043                    screen += 16;
    00002104 7610                   ADD         #16,R6
    00002106 7501                   ADD         #1,R5
    00002108 635E                   EXTS.B      R5,R3
    0000210A 3373                   CMP/GE      R7,R3
    0000210C 8FEA                   BF/S        L1145
    0000210E 7401                   ADD         #1,R4
    00002110              L1141:                            
      Monochrome  1044            }
      Monochrome  1045    }
    00002110 7F08                   ADD         #8,R15
    00002112 4F26                   LDS.L       @R15+,PR
    00002114 69F6                   MOV.L       @R15+,R9
    00002116 6AF6                   MOV.L       @R15+,R10
    00002118 6BF6                   MOV.L       @R15+,R11
    0000211A 6CF6                   MOV.L       @R15+,R12
    0000211C 6DF6                   MOV.L       @R15+,R13
    0000211E 000B                   RTS
    00002120 6EF6                   MOV.L       @R15+,R14
      Monochrome  1046    #endif
      Monochrome  1047    
      Monochrome  1048    #ifdef ML_BMP_8_AND
      Monochrome  1049    void ML_bmp_8_and(const unsigned char *bmp, int x, int y)
    00002122              _ML_bmp_8_and:                   ; function: ML_bmp_8_and
                                                           ; frame size=36
    00002122 2FE6                   MOV.L       R14,@-R15
    00002124 2FD6                   MOV.L       R13,@-R15
    00002126 6E63                   MOV         R6,R14
    00002128 2FC6                   MOV.L       R12,@-R15
    0000212A 6D53                   MOV         R5,R13
    0000212C 2FB6                   MOV.L       R11,@-R15
      Monochrome  1050    {




SH SERIES C/C++ Compiler (Ver. 6.0C)                                                                 15-May-2021 18:55:24  PAGE  100


SCT OFFSET   CODE       C LABEL     INSTRUCTION OPERAND    COMMENT

      Monochrome  1051            unsigned short line;
      Monochrome  1052            char i, shift, begin=0, end=8, *screen, *p=(char*)&line;
    0000212E EB00                   MOV         #0,R11
    00002130 2FA6                   MOV.L       R10,@-R15
    00002132 2F96                   MOV.L       R9,@-R15
    00002134 4F22                   STS.L       PR,@-R15
    00002136 7FF8                   ADD         #-8,R15
    00002138 1F41                   MOV.L       R4,@(4,R15)
    0000213A E408                   MOV         #8,R4
      Monochrome  1053            if(!bmp || x<0 || x>120 || y<-7 || y>63) return;
    0000213C 53F1                   MOV.L       @(4,R15),R3
    0000213E 6943                   MOV         R4,R9
    00002140 2338                   TST         R3,R3
    00002142 8D45                   BT/S        L1149
    00002144 6CF3                   MOV         R15,R12
    00002146 4D11                   CMP/PZ      R13
    00002148 8B42                   BF          L1149
    0000214A E278                   MOV         #120,R2
    0000214C 3D27                   CMP/GT      R2,R13
    0000214E 893F                   BT          L1149
    00002150 E1F9                   MOV         #-7,R1
    00002152 3E13                   CMP/GE      R1,R14
    00002154 8B3C                   BF          L1149
    00002156 E03F                   MOV         #63,R0
    00002158 3E07                   CMP/GT      R0,R14
    0000215A 8939                   BT          L1149
      Monochrome  1054            if(y < 0) begin = -y;
    0000215C 4E11                   CMP/PZ      R14
    0000215E 8D01                   BT/S        L1150
      Monochrome  1055            if(y > 56) end = 64-y;
    00002160 E338                   MOV         #56,R3
    00002162 6BEB                   NEG         R14,R11
    00002164              L1150:                            
    00002164 3E37                   CMP/GT      R3,R14
    00002166 8F02                   BF/S        L1151
      Monochrome  1056            shift = 8-(x&7);
    00002168 E307                   MOV         #7,R3
    0000216A E940                   MOV         #64,R9
    0000216C 39E8                   SUB         R14,R9
    0000216E              L1151:                            
    0000216E 23D9                   AND         R13,R3
      Monochrome  1057            screen = ML_vram_adress()+(y+begin<<4)+(x>>3);
    00002170 D21C                   MOV.L       L1338+2,R2 ; _sc0135
    00002172 6A43                   MOV         R4,R10
    00002174 420B                   JSR         @R2
    00002176 3A38                   SUB         R3,R10
    00002178 63BE                   EXTS.B      R11,R3
    0000217A 33EC                   ADD         R14,R3
    0000217C 4308                   SHLL2       R3
    0000217E 4308                   SHLL2       R3
    00002180 303C                   ADD         R3,R0
    00002182 4D21                   SHAR        R13
    00002184 53F1                   MOV.L       @(4,R15),R3
    00002186 6EC3                   MOV         R12,R14
    00002188 4D21                   SHAR        R13
    0000218A 4D21                   SHAR        R13
    0000218C 6603                   MOV         R0,R6




SH SERIES C/C++ Compiler (Ver. 6.0C)                                                                 15-May-2021 18:55:24  PAGE  101


SCT OFFSET   CODE       C LABEL     INSTRUCTION OPERAND    COMMENT

    0000218E 36DC                   ADD         R13,R6
      Monochrome  1058            for(i=begin ; i<end ; i++)
    00002190 65B3                   MOV         R11,R5
    00002192 645E                   EXTS.B      R5,R4
    00002194 343C                   ADD         R3,R4
    00002196 679E                   EXTS.B      R9,R7
    00002198 625E                   EXTS.B      R5,R2
    0000219A 3273                   CMP/GE      R7,R2
    0000219C 8D18                   BT/S        L1149
    0000219E 7E01                   ADD         #1,R14
    000021A0              L1153:                            
      Monochrome  1059            {
      Monochrome  1060                    line = ~((unsigned char)~bmp[i]<<shift);
    000021A0 6340                   MOV.B       @R4,R3
    000021A2 6DAE                   EXTS.B      R10,R13
    000021A4 6337                   NOT         R3,R3
    000021A6 633C                   EXTU.B      R3,R3
    000021A8 43DD                   SHLD        R13,R3
    000021AA 6337                   NOT         R3,R3
    000021AC 2F31                   MOV.W       R3,@R15
      Monochrome  1061                    screen[0] &= *p;
      Monochrome  1062                    if(shift!=8) screen[1] &= *(p+1);
    000021AE 60D3                   MOV         R13,R0
    000021B0 62C0                   MOV.B       @R12,R2
    000021B2 8808                   CMP/EQ      #8,R0
    000021B4 6160                   MOV.B       @R6,R1
    000021B6 2129                   AND         R2,R1
    000021B8 8D04                   BT/S        L1154
    000021BA 2610                   MOV.B       R1,@R6
    000021BC 63E0                   MOV.B       @R14,R3
    000021BE 8461                   MOV.B       @(1,R6),R0
    000021C0 2039                   AND         R3,R0
    000021C2 8061                   MOV.B       R0,@(1,R6)
    000021C4              L1154:                            
      Monochrome  1063                    screen += 16;
    000021C4 7610                   ADD         #16,R6
    000021C6 7501                   ADD         #1,R5
    000021C8 635E                   EXTS.B      R5,R3
    000021CA 3373                   CMP/GE      R7,R3
    000021CC 8FE8                   BF/S        L1153
    000021CE 7401                   ADD         #1,R4
    000021D0              L1149:                            
      Monochrome  1064            }
      Monochrome  1065    }
    000021D0 7F08                   ADD         #8,R15
    000021D2 4F26                   LDS.L       @R15+,PR
    000021D4 69F6                   MOV.L       @R15+,R9
    000021D6 6AF6                   MOV.L       @R15+,R10
    000021D8 6BF6                   MOV.L       @R15+,R11
    000021DA 6CF6                   MOV.L       @R15+,R12
    000021DC 6DF6                   MOV.L       @R15+,R13
    000021DE 000B                   RTS
    000021E0 6EF6                   MOV.L       @R15+,R14
    000021E2              L1338:                            
    000021E2 0000                   .DATA.W     0
    000021E4 <00000000>             .DATA.L     _sc0135
      Monochrome  1066    #endif




SH SERIES C/C++ Compiler (Ver. 6.0C)                                                                 15-May-2021 18:55:24  PAGE  102


SCT OFFSET   CODE       C LABEL     INSTRUCTION OPERAND    COMMENT

      Monochrome  1067    
      Monochrome  1068    #ifdef ML_BMP_8_XOR
      Monochrome  1069    void ML_bmp_8_xor(const unsigned char *bmp, int x, int y)
    000021E8              _ML_bmp_8_xor:                   ; function: ML_bmp_8_xor
                                                           ; frame size=40
    000021E8 2FE6                   MOV.L       R14,@-R15
      Monochrome  1070    {
      Monochrome  1071            unsigned short line;
      Monochrome  1072            char i, shift, begin=0, end=8, *screen, *p=(char*)&line;
      Monochrome  1073            if(!bmp || x<0 || x>120 || y<-7 || y>63) return;
    000021EA 6343                   MOV         R4,R3
    000021EC 2FD6                   MOV.L       R13,@-R15
    000021EE 6E63                   MOV         R6,R14
    000021F0 2FC6                   MOV.L       R12,@-R15
    000021F2 ED08                   MOV         #8,R13
    000021F4 2FB6                   MOV.L       R11,@-R15
    000021F6 2338                   TST         R3,R3
    000021F8 2FA6                   MOV.L       R10,@-R15
    000021FA 6B53                   MOV         R5,R11
    000021FC 2F96                   MOV.L       R9,@-R15
    000021FE EA00                   MOV         #0,R10
    00002200 2F86                   MOV.L       R8,@-R15
    00002202 69D3                   MOV         R13,R9
    00002204 4F22                   STS.L       PR,@-R15
    00002206 7FF8                   ADD         #-8,R15
    00002208 1F41                   MOV.L       R4,@(4,R15)
    0000220A 8D42                   BT/S        L1157
    0000220C 6CF3                   MOV         R15,R12
    0000220E 4B11                   CMP/PZ      R11
    00002210 8B3F                   BF          L1157
    00002212 E278                   MOV         #120,R2
    00002214 3B27                   CMP/GT      R2,R11
    00002216 893C                   BT          L1157
    00002218 E1F9                   MOV         #-7,R1
    0000221A 3E13                   CMP/GE      R1,R14
    0000221C 8B39                   BF          L1157
    0000221E E03F                   MOV         #63,R0
    00002220 3E07                   CMP/GT      R0,R14
    00002222 8936                   BT          L1157
      Monochrome  1074            if(y < 0) begin = -y;
    00002224 4E11                   CMP/PZ      R14
    00002226 8D01                   BT/S        L1158
      Monochrome  1075            if(y > 56) end = 64-y;
    00002228 E338                   MOV         #56,R3
    0000222A 6AEB                   NEG         R14,R10
    0000222C              L1158:                            
    0000222C 3E37                   CMP/GT      R3,R14
    0000222E 8F02                   BF/S        L1159
      Monochrome  1076            shift = 8-(x&7);
    00002230 E307                   MOV         #7,R3
    00002232 E940                   MOV         #64,R9
    00002234 39E8                   SUB         R14,R9
    00002236              L1159:                            
    00002236 23B9                   AND         R11,R3
      Monochrome  1077            screen = ML_vram_adress()+(y+begin<<4)+(x>>3);
    00002238 D255                   MOV.L       L1339,R2   ; _sc0135
    0000223A 68D3                   MOV         R13,R8




SH SERIES C/C++ Compiler (Ver. 6.0C)                                                                 15-May-2021 18:55:24  PAGE  103


SCT OFFSET   CODE       C LABEL     INSTRUCTION OPERAND    COMMENT

    0000223C 420B                   JSR         @R2
    0000223E 3838                   SUB         R3,R8
    00002240 63AE                   EXTS.B      R10,R3
    00002242 33EC                   ADD         R14,R3
    00002244 4308                   SHLL2       R3
    00002246 4308                   SHLL2       R3
    00002248 303C                   ADD         R3,R0
    0000224A 4B21                   SHAR        R11
    0000224C 53F1                   MOV.L       @(4,R15),R3
    0000224E 679E                   EXTS.B      R9,R7
    00002250 4B21                   SHAR        R11
    00002252 4B21                   SHAR        R11
    00002254 6503                   MOV         R0,R5
    00002256 35BC                   ADD         R11,R5
      Monochrome  1078            for(i=begin ; i<end ; i++)
    00002258 64A3                   MOV         R10,R4
    0000225A 664E                   EXTS.B      R4,R6
    0000225C 363C                   ADD         R3,R6
    0000225E 6BC3                   MOV         R12,R11
    00002260 624E                   EXTS.B      R4,R2
    00002262 3273                   CMP/GE      R7,R2
    00002264 8D15                   BT/S        L1157
    00002266 7B01                   ADD         #1,R11
    00002268              L1161:                            
      Monochrome  1079            {
      Monochrome  1080                    line = bmp[i]<<shift;
    00002268 6360                   MOV.B       @R6,R3
    0000226A 6E8E                   EXTS.B      R8,R14
    0000226C 633C                   EXTU.B      R3,R3
    0000226E 43ED                   SHLD        R14,R3
    00002270 2F31                   MOV.W       R3,@R15
      Monochrome  1081                    screen[0] ^= *p;
      Monochrome  1082                    if(shift<8) screen[1] ^= *(p+1);
    00002272 3ED3                   CMP/GE      R13,R14
    00002274 62C0                   MOV.B       @R12,R2
    00002276 6150                   MOV.B       @R5,R1
    00002278 212A                   XOR         R2,R1
    0000227A 8D04                   BT/S        L1162
    0000227C 2510                   MOV.B       R1,@R5
    0000227E 63B0                   MOV.B       @R11,R3
    00002280 8451                   MOV.B       @(1,R5),R0
    00002282 203A                   XOR         R3,R0
    00002284 8051                   MOV.B       R0,@(1,R5)
    00002286              L1162:                            
      Monochrome  1083                    screen += 16;
    00002286 7510                   ADD         #16,R5
    00002288 7401                   ADD         #1,R4
    0000228A 634E                   EXTS.B      R4,R3
    0000228C 3373                   CMP/GE      R7,R3
    0000228E 8FEB                   BF/S        L1161
    00002290 7601                   ADD         #1,R6
    00002292              L1157:                            
      Monochrome  1084            }
      Monochrome  1085    }
    00002292 7F08                   ADD         #8,R15
    00002294 4F26                   LDS.L       @R15+,PR
    00002296 68F6                   MOV.L       @R15+,R8




SH SERIES C/C++ Compiler (Ver. 6.0C)                                                                 15-May-2021 18:55:24  PAGE  104


SCT OFFSET   CODE       C LABEL     INSTRUCTION OPERAND    COMMENT

    00002298 69F6                   MOV.L       @R15+,R9
    0000229A 6AF6                   MOV.L       @R15+,R10
    0000229C 6BF6                   MOV.L       @R15+,R11
    0000229E 6CF6                   MOV.L       @R15+,R12
    000022A0 6DF6                   MOV.L       @R15+,R13
    000022A2 000B                   RTS
    000022A4 6EF6                   MOV.L       @R15+,R14
      Monochrome  1086    #endif
      Monochrome  1087    
      Monochrome  1088    #ifdef ML_BMP_8_OR_CL
      Monochrome  1089    void ML_bmp_8_or_cl(const unsigned char *bmp, int x, int y)
    000022A6              _ML_bmp_8_or_cl:                 ; function: ML_bmp_8_or_cl
                                                           ; frame size=44
    000022A6 2FE6                   MOV.L       R14,@-R15
    000022A8 2FD6                   MOV.L       R13,@-R15
    000022AA 6E63                   MOV         R6,R14
    000022AC 2FC6                   MOV.L       R12,@-R15
    000022AE 6D53                   MOV         R5,R13
    000022B0 2FB6                   MOV.L       R11,@-R15
      Monochrome  1090    {
      Monochrome  1091            unsigned short line;
      Monochrome  1092            char i, shift, begin=0, end=8, bool1=1, bool2=1, *screen, *p=(char*)&line;
    000022B2 E601                   MOV         #1,R6
    000022B4 2FA6                   MOV.L       R10,@-R15
    000022B6 E508                   MOV         #8,R5
    000022B8 2F96                   MOV.L       R9,@-R15
    000022BA 6C63                   MOV         R6,R12
    000022BC 2F86                   MOV.L       R8,@-R15
    000022BE 6053                   MOV         R5,R0
    000022C0 4F22                   STS.L       PR,@-R15
    000022C2 6963                   MOV         R6,R9
    000022C4 7FF4                   ADD         #-12,R15
    000022C6 1F41                   MOV.L       R4,@(4,R15)
    000022C8 80F8                   MOV.B       R0,@(8,R15)
    000022CA E400                   MOV         #0,R4
      Monochrome  1093            if(!bmp || x<-7 || x>127 || y<-7 || y>63) return;
    000022CC 53F1                   MOV.L       @(4,R15),R3
    000022CE 6A43                   MOV         R4,R10
    000022D0 2338                   TST         R3,R3
    000022D2 8D53                   BT/S        L1165
    000022D4 6BF3                   MOV         R15,R11
    000022D6 E3F9                   MOV         #-7,R3
    000022D8 3D33                   CMP/GE      R3,R13
    000022DA 8B4F                   BF          L1165
    000022DC E17F                   MOV         #127,R1
    000022DE 3D17                   CMP/GT      R1,R13
    000022E0 894C                   BT          L1165
    000022E2 3E33                   CMP/GE      R3,R14
    000022E4 8B4A                   BF          L1165
    000022E6 E23F                   MOV         #63,R2
    000022E8 3E27                   CMP/GT      R2,R14
    000022EA 8947                   BT          L1165
      Monochrome  1094            if(y < 0) begin = -y;
    000022EC 4E11                   CMP/PZ      R14
    000022EE 8D01                   BT/S        L1166
      Monochrome  1095            if(y > 56) end = 64-y;
    000022F0 E238                   MOV         #56,R2




SH SERIES C/C++ Compiler (Ver. 6.0C)                                                                 15-May-2021 18:55:24  PAGE  105


SCT OFFSET   CODE       C LABEL     INSTRUCTION OPERAND    COMMENT

    000022F2 6AEB                   NEG         R14,R10
    000022F4              L1166:                            
    000022F4 3E27                   CMP/GT      R2,R14
    000022F6 8B02                   BF          L1167
    000022F8 E040                   MOV         #64,R0
    000022FA 30E8                   SUB         R14,R0
    000022FC 80F8                   MOV.B       R0,@(8,R15)
    000022FE              L1167:                            
      Monochrome  1096            shift = 8-(x&7);
    000022FE E307                   MOV         #7,R3
    00002300 23D9                   AND         R13,R3
    00002302 6853                   MOV         R5,R8
      Monochrome  1097            if(x < 0) bool1 = 0;
    00002304 4D11                   CMP/PZ      R13
    00002306 8D01                   BT/S        L1168
    00002308 3838                   SUB         R3,R8
    0000230A 6943                   MOV         R4,R9
    0000230C              L1168:                            
      Monochrome  1098            if(x>120 || shift==8) bool2 = 0;
    0000230C E378                   MOV         #120,R3
    0000230E 3D37                   CMP/GT      R3,R13
    00002310 8902                   BT          L1170
    00002312 608E                   EXTS.B      R8,R0
    00002314 8808                   CMP/EQ      #8,R0
    00002316 8B00                   BF          L1169
    00002318              L1170:                            
    00002318 6C43                   MOV         R4,R12
    0000231A              L1169:                            
      Monochrome  1099            screen = ML_vram_adress()+(y+begin<<4)+(x>>3);
    0000231A D31D                   MOV.L       L1339,R3   ; _sc0135
    0000231C 430B                   JSR         @R3
    0000231E 0009                   NOP
    00002320 53F1                   MOV.L       @(4,R15),R3
    00002322 62AE                   EXTS.B      R10,R2
    00002324 32EC                   ADD         R14,R2
    00002326 4208                   SHLL2       R2
    00002328 4208                   SHLL2       R2
    0000232A 302C                   ADD         R2,R0
    0000232C 4D21                   SHAR        R13
    0000232E 4D21                   SHAR        R13
    00002330 4D21                   SHAR        R13
    00002332 6503                   MOV         R0,R5
    00002334 84F8                   MOV.B       @(8,R15),R0
    00002336 35DC                   ADD         R13,R5
      Monochrome  1100            for(i=begin ; i<end ; i++)
    00002338 64A3                   MOV         R10,R4
    0000233A 664E                   EXTS.B      R4,R6
    0000233C 363C                   ADD         R3,R6
    0000233E 6EB3                   MOV         R11,R14
    00002340 6703                   MOV         R0,R7
    00002342 624E                   EXTS.B      R4,R2
    00002344 3273                   CMP/GE      R7,R2
    00002346 8D19                   BT/S        L1165
    00002348 7E01                   ADD         #1,R14
    0000234A              L1172:                            
      Monochrome  1101            {
      Monochrome  1102                    line = bmp[i]<<shift;




SH SERIES C/C++ Compiler (Ver. 6.0C)                                                                 15-May-2021 18:55:24  PAGE  106


SCT OFFSET   CODE       C LABEL     INSTRUCTION OPERAND    COMMENT

    0000234A 628E                   EXTS.B      R8,R2
    0000234C 6360                   MOV.B       @R6,R3
    0000234E 633C                   EXTU.B      R3,R3
    00002350 432D                   SHLD        R2,R3
      Monochrome  1103                    if(bool1) screen[0] |= *p;
    00002352 629E                   EXTS.B      R9,R2
    00002354 2228                   TST         R2,R2
    00002356 8D04                   BT/S        L1173
    00002358 2F31                   MOV.W       R3,@R15
    0000235A 62B0                   MOV.B       @R11,R2
    0000235C 6150                   MOV.B       @R5,R1
    0000235E 212B                   OR          R2,R1
    00002360 2510                   MOV.B       R1,@R5
    00002362              L1173:                            
      Monochrome  1104                    if(bool2) screen[1] |= *(p+1);
    00002362 63CE                   EXTS.B      R12,R3
    00002364 2338                   TST         R3,R3
    00002366 8903                   BT          L1174
    00002368 63E0                   MOV.B       @R14,R3
    0000236A 8451                   MOV.B       @(1,R5),R0
    0000236C 203B                   OR          R3,R0
    0000236E 8051                   MOV.B       R0,@(1,R5)
    00002370              L1174:                            
      Monochrome  1105                    screen += 16;
    00002370 7510                   ADD         #16,R5
    00002372 7401                   ADD         #1,R4
    00002374 634E                   EXTS.B      R4,R3
    00002376 3373                   CMP/GE      R7,R3
    00002378 8FE7                   BF/S        L1172
    0000237A 7601                   ADD         #1,R6
    0000237C              L1165:                            
      Monochrome  1106            }
      Monochrome  1107    }
    0000237C 7F0C                   ADD         #12,R15
    0000237E 4F26                   LDS.L       @R15+,PR
    00002380 68F6                   MOV.L       @R15+,R8
    00002382 69F6                   MOV.L       @R15+,R9
    00002384 6AF6                   MOV.L       @R15+,R10
    00002386 6BF6                   MOV.L       @R15+,R11
    00002388 6CF6                   MOV.L       @R15+,R12
    0000238A 6DF6                   MOV.L       @R15+,R13
    0000238C 000B                   RTS
    0000238E 6EF6                   MOV.L       @R15+,R14
    00002390              L1339:                            
    00002390 <00000000>             .DATA.L     _sc0135
      Monochrome  1108    #endif
      Monochrome  1109    
      Monochrome  1110    #ifdef ML_BMP_8_AND_CL
      Monochrome  1111    void ML_bmp_8_and_cl(const unsigned char *bmp, int x, int y)
    00002394              _ML_bmp_8_and_cl:                ; function: ML_bmp_8_and_cl
                                                           ; frame size=44
    00002394 2FE6                   MOV.L       R14,@-R15
    00002396 6E63                   MOV         R6,R14
    00002398 2FD6                   MOV.L       R13,@-R15
      Monochrome  1112    {
      Monochrome  1113            unsigned short line;
      Monochrome  1114            char i, shift, begin=0, end=8, bool1=1, bool2=1, *screen, *p=(char*)&line;




SH SERIES C/C++ Compiler (Ver. 6.0C)                                                                 15-May-2021 18:55:24  PAGE  107


SCT OFFSET   CODE       C LABEL     INSTRUCTION OPERAND    COMMENT

    0000239A E601                   MOV         #1,R6
    0000239C 2FC6                   MOV.L       R12,@-R15
    0000239E 6D53                   MOV         R5,R13
    000023A0 2FB6                   MOV.L       R11,@-R15
    000023A2 6C63                   MOV         R6,R12
    000023A4 2FA6                   MOV.L       R10,@-R15
    000023A6 E508                   MOV         #8,R5
    000023A8 2F96                   MOV.L       R9,@-R15
    000023AA 6053                   MOV         R5,R0
    000023AC 2F86                   MOV.L       R8,@-R15
    000023AE 6963                   MOV         R6,R9
    000023B0 4F22                   STS.L       PR,@-R15
    000023B2 7FF4                   ADD         #-12,R15
    000023B4 1F41                   MOV.L       R4,@(4,R15)
    000023B6 E400                   MOV         #0,R4
    000023B8 80F8                   MOV.B       R0,@(8,R15)
    000023BA 6A43                   MOV         R4,R10
      Monochrome  1115            if(!bmp || x<-7 || x>127 || y<-7 || y>63) return;
    000023BC 53F1                   MOV.L       @(4,R15),R3
    000023BE 2338                   TST         R3,R3
    000023C0 8D55                   BT/S        L1177
    000023C2 6BF3                   MOV         R15,R11
    000023C4 E3F9                   MOV         #-7,R3
    000023C6 3D33                   CMP/GE      R3,R13
    000023C8 8B51                   BF          L1177
    000023CA E17F                   MOV         #127,R1
    000023CC 3D17                   CMP/GT      R1,R13
    000023CE 894E                   BT          L1177
    000023D0 3E33                   CMP/GE      R3,R14
    000023D2 8B4C                   BF          L1177
    000023D4 E23F                   MOV         #63,R2
    000023D6 3E27                   CMP/GT      R2,R14
    000023D8 8949                   BT          L1177
      Monochrome  1116            if(y < 0) begin = -y;
    000023DA 4E11                   CMP/PZ      R14
    000023DC 8D01                   BT/S        L1178
      Monochrome  1117            if(y > 56) end = 64-y;
    000023DE E238                   MOV         #56,R2
    000023E0 6AEB                   NEG         R14,R10
    000023E2              L1178:                            
    000023E2 3E27                   CMP/GT      R2,R14
    000023E4 8B02                   BF          L1179
    000023E6 E040                   MOV         #64,R0
    000023E8 30E8                   SUB         R14,R0
    000023EA 80F8                   MOV.B       R0,@(8,R15)
    000023EC              L1179:                            
      Monochrome  1118            shift = 8-(x&7);
    000023EC E307                   MOV         #7,R3
    000023EE 23D9                   AND         R13,R3
    000023F0 6853                   MOV         R5,R8
      Monochrome  1119            if(x < 0) bool1 = 0;
    000023F2 4D11                   CMP/PZ      R13
    000023F4 8D01                   BT/S        L1180
    000023F6 3838                   SUB         R3,R8
    000023F8 6943                   MOV         R4,R9
    000023FA              L1180:                            
      Monochrome  1120            if(x>120 || shift==8) bool2 = 0;




SH SERIES C/C++ Compiler (Ver. 6.0C)                                                                 15-May-2021 18:55:24  PAGE  108


SCT OFFSET   CODE       C LABEL     INSTRUCTION OPERAND    COMMENT

    000023FA E378                   MOV         #120,R3
    000023FC 3D37                   CMP/GT      R3,R13
    000023FE 8902                   BT          L1182
    00002400 608E                   EXTS.B      R8,R0
    00002402 8808                   CMP/EQ      #8,R0
    00002404 8B00                   BF          L1181
    00002406              L1182:                            
    00002406 6C43                   MOV         R4,R12
    00002408              L1181:                            
      Monochrome  1121            screen = ML_vram_adress()+(y+begin<<4)+(x>>3);
    00002408 D358                   MOV.L       L1340,R3   ; _sc0135
    0000240A 430B                   JSR         @R3
    0000240C 0009                   NOP
    0000240E 62AE                   EXTS.B      R10,R2
    00002410 53F1                   MOV.L       @(4,R15),R3
    00002412 4D21                   SHAR        R13
    00002414 32EC                   ADD         R14,R2
    00002416 4208                   SHLL2       R2
    00002418 4208                   SHLL2       R2
    0000241A 302C                   ADD         R2,R0
    0000241C 4D21                   SHAR        R13
    0000241E 4D21                   SHAR        R13
    00002420 6503                   MOV         R0,R5
    00002422 35DC                   ADD         R13,R5
    00002424 84F8                   MOV.B       @(8,R15),R0
      Monochrome  1122            for(i=begin ; i<end ; i++)
    00002426 64A3                   MOV         R10,R4
    00002428 664E                   EXTS.B      R4,R6
    0000242A 363C                   ADD         R3,R6
    0000242C 6EB3                   MOV         R11,R14
    0000242E 6703                   MOV         R0,R7
    00002430 624E                   EXTS.B      R4,R2
    00002432 3273                   CMP/GE      R7,R2
    00002434 8D1B                   BT/S        L1177
    00002436 7E01                   ADD         #1,R14
    00002438              L1184:                            
      Monochrome  1123            {
      Monochrome  1124                    line = ~((unsigned char)~bmp[i]<<shift);
    00002438 6360                   MOV.B       @R6,R3
    0000243A 628E                   EXTS.B      R8,R2
    0000243C 6337                   NOT         R3,R3
    0000243E 633C                   EXTU.B      R3,R3
    00002440 432D                   SHLD        R2,R3
    00002442 6337                   NOT         R3,R3
      Monochrome  1125                    if(bool1) screen[0] &= *p;
    00002444 629E                   EXTS.B      R9,R2
    00002446 2228                   TST         R2,R2
    00002448 8D04                   BT/S        L1185
    0000244A 2F31                   MOV.W       R3,@R15
    0000244C 62B0                   MOV.B       @R11,R2
    0000244E 6150                   MOV.B       @R5,R1
    00002450 2129                   AND         R2,R1
    00002452 2510                   MOV.B       R1,@R5
    00002454              L1185:                            
      Monochrome  1126                    if(bool2) screen[1] &= *(p+1);
    00002454 63CE                   EXTS.B      R12,R3
    00002456 2338                   TST         R3,R3




SH SERIES C/C++ Compiler (Ver. 6.0C)                                                                 15-May-2021 18:55:24  PAGE  109


SCT OFFSET   CODE       C LABEL     INSTRUCTION OPERAND    COMMENT

    00002458 8903                   BT          L1186
    0000245A 63E0                   MOV.B       @R14,R3
    0000245C 8451                   MOV.B       @(1,R5),R0
    0000245E 2039                   AND         R3,R0
    00002460 8051                   MOV.B       R0,@(1,R5)
    00002462              L1186:                            
      Monochrome  1127                    screen += 16;
    00002462 7510                   ADD         #16,R5
    00002464 7401                   ADD         #1,R4
    00002466 634E                   EXTS.B      R4,R3
    00002468 3373                   CMP/GE      R7,R3
    0000246A 8FE5                   BF/S        L1184
    0000246C 7601                   ADD         #1,R6
    0000246E              L1177:                            
      Monochrome  1128            }
      Monochrome  1129    }
    0000246E 7F0C                   ADD         #12,R15
    00002470 4F26                   LDS.L       @R15+,PR
    00002472 68F6                   MOV.L       @R15+,R8
    00002474 69F6                   MOV.L       @R15+,R9
    00002476 6AF6                   MOV.L       @R15+,R10
    00002478 6BF6                   MOV.L       @R15+,R11
    0000247A 6CF6                   MOV.L       @R15+,R12
    0000247C 6DF6                   MOV.L       @R15+,R13
    0000247E 000B                   RTS
    00002480 6EF6                   MOV.L       @R15+,R14
      Monochrome  1130    #endif
      Monochrome  1131    
      Monochrome  1132    #ifdef ML_BMP_8_XOR_CL
      Monochrome  1133    void ML_bmp_8_xor_cl(const unsigned char *bmp, int x, int y)
    00002482              _ML_bmp_8_xor_cl:                ; function: ML_bmp_8_xor_cl
                                                           ; frame size=44
    00002482 2FE6                   MOV.L       R14,@-R15
    00002484 2FD6                   MOV.L       R13,@-R15
    00002486 6E63                   MOV         R6,R14
    00002488 2FC6                   MOV.L       R12,@-R15
    0000248A 6D53                   MOV         R5,R13
    0000248C 2FB6                   MOV.L       R11,@-R15
      Monochrome  1134    {
      Monochrome  1135            unsigned short line;
      Monochrome  1136            char i, shift, begin=0, end=8, bool1=1, bool2=1, *screen, *p=(char*)&line;
    0000248E E601                   MOV         #1,R6
    00002490 2FA6                   MOV.L       R10,@-R15
    00002492 E508                   MOV         #8,R5
    00002494 2F96                   MOV.L       R9,@-R15
    00002496 6C63                   MOV         R6,R12
    00002498 2F86                   MOV.L       R8,@-R15
    0000249A 6053                   MOV         R5,R0
    0000249C 4F22                   STS.L       PR,@-R15
    0000249E 6963                   MOV         R6,R9
    000024A0 7FF4                   ADD         #-12,R15
    000024A2 1F41                   MOV.L       R4,@(4,R15)
    000024A4 80F8                   MOV.B       R0,@(8,R15)
    000024A6 E400                   MOV         #0,R4
      Monochrome  1137            if(!bmp || x<-7 || x>127 || y<-7 || y>63) return;
    000024A8 53F1                   MOV.L       @(4,R15),R3
    000024AA 6A43                   MOV         R4,R10




SH SERIES C/C++ Compiler (Ver. 6.0C)                                                                 15-May-2021 18:55:24  PAGE  110


SCT OFFSET   CODE       C LABEL     INSTRUCTION OPERAND    COMMENT

    000024AC 2338                   TST         R3,R3
    000024AE 8D53                   BT/S        L1189
    000024B0 6BF3                   MOV         R15,R11
    000024B2 E3F9                   MOV         #-7,R3
    000024B4 3D33                   CMP/GE      R3,R13
    000024B6 8B4F                   BF          L1189
    000024B8 E17F                   MOV         #127,R1
    000024BA 3D17                   CMP/GT      R1,R13
    000024BC 894C                   BT          L1189
    000024BE 3E33                   CMP/GE      R3,R14
    000024C0 8B4A                   BF          L1189
    000024C2 E23F                   MOV         #63,R2
    000024C4 3E27                   CMP/GT      R2,R14
    000024C6 8947                   BT          L1189
      Monochrome  1138            if(y < 0) begin = -y;
    000024C8 4E11                   CMP/PZ      R14
    000024CA 8D01                   BT/S        L1190
      Monochrome  1139            if(y > 56) end = 64-y;
    000024CC E238                   MOV         #56,R2
    000024CE 6AEB                   NEG         R14,R10
    000024D0              L1190:                            
    000024D0 3E27                   CMP/GT      R2,R14
    000024D2 8B02                   BF          L1191
    000024D4 E040                   MOV         #64,R0
    000024D6 30E8                   SUB         R14,R0
    000024D8 80F8                   MOV.B       R0,@(8,R15)
    000024DA              L1191:                            
      Monochrome  1140            shift = 8-(x&7);
    000024DA E307                   MOV         #7,R3
    000024DC 23D9                   AND         R13,R3
    000024DE 6853                   MOV         R5,R8
      Monochrome  1141            if(x < 0) bool1 = 0;
    000024E0 4D11                   CMP/PZ      R13
    000024E2 8D01                   BT/S        L1192
    000024E4 3838                   SUB         R3,R8
    000024E6 6943                   MOV         R4,R9
    000024E8              L1192:                            
      Monochrome  1142            if(x>120 || shift==8) bool2 = 0;
    000024E8 E378                   MOV         #120,R3
    000024EA 3D37                   CMP/GT      R3,R13
    000024EC 8902                   BT          L1194
    000024EE 608E                   EXTS.B      R8,R0
    000024F0 8808                   CMP/EQ      #8,R0
    000024F2 8B00                   BF          L1193
    000024F4              L1194:                            
    000024F4 6C43                   MOV         R4,R12
    000024F6              L1193:                            
      Monochrome  1143            screen = ML_vram_adress()+(y+begin<<4)+(x>>3);
    000024F6 D31D                   MOV.L       L1340,R3   ; _sc0135
    000024F8 430B                   JSR         @R3
    000024FA 0009                   NOP
    000024FC 53F1                   MOV.L       @(4,R15),R3
    000024FE 62AE                   EXTS.B      R10,R2
    00002500 32EC                   ADD         R14,R2
    00002502 4208                   SHLL2       R2
    00002504 4208                   SHLL2       R2
    00002506 302C                   ADD         R2,R0




SH SERIES C/C++ Compiler (Ver. 6.0C)                                                                 15-May-2021 18:55:24  PAGE  111


SCT OFFSET   CODE       C LABEL     INSTRUCTION OPERAND    COMMENT

    00002508 4D21                   SHAR        R13
    0000250A 4D21                   SHAR        R13
    0000250C 4D21                   SHAR        R13
    0000250E 6503                   MOV         R0,R5
    00002510 84F8                   MOV.B       @(8,R15),R0
    00002512 35DC                   ADD         R13,R5
      Monochrome  1144            for(i=begin ; i<end ; i++)
    00002514 64A3                   MOV         R10,R4
    00002516 664E                   EXTS.B      R4,R6
    00002518 363C                   ADD         R3,R6
    0000251A 6EB3                   MOV         R11,R14
    0000251C 6703                   MOV         R0,R7
    0000251E 624E                   EXTS.B      R4,R2
    00002520 3273                   CMP/GE      R7,R2
    00002522 8D19                   BT/S        L1189
    00002524 7E01                   ADD         #1,R14
    00002526              L1196:                            
      Monochrome  1145            {
      Monochrome  1146                    line = bmp[i]<<shift;
    00002526 628E                   EXTS.B      R8,R2
    00002528 6360                   MOV.B       @R6,R3
    0000252A 633C                   EXTU.B      R3,R3
    0000252C 432D                   SHLD        R2,R3
      Monochrome  1147                    if(bool1) screen[0] ^= *p;
    0000252E 629E                   EXTS.B      R9,R2
    00002530 2228                   TST         R2,R2
    00002532 8D04                   BT/S        L1197
    00002534 2F31                   MOV.W       R3,@R15
    00002536 62B0                   MOV.B       @R11,R2
    00002538 6150                   MOV.B       @R5,R1
    0000253A 212A                   XOR         R2,R1
    0000253C 2510                   MOV.B       R1,@R5
    0000253E              L1197:                            
      Monochrome  1148                    if(bool2) screen[1] ^= *(p+1);
    0000253E 63CE                   EXTS.B      R12,R3
    00002540 2338                   TST         R3,R3
    00002542 8903                   BT          L1198
    00002544 63E0                   MOV.B       @R14,R3
    00002546 8451                   MOV.B       @(1,R5),R0
    00002548 203A                   XOR         R3,R0
    0000254A 8051                   MOV.B       R0,@(1,R5)
    0000254C              L1198:                            
      Monochrome  1149                    screen += 16;
    0000254C 7510                   ADD         #16,R5
    0000254E 7401                   ADD         #1,R4
    00002550 634E                   EXTS.B      R4,R3
    00002552 3373                   CMP/GE      R7,R3
    00002554 8FE7                   BF/S        L1196
    00002556 7601                   ADD         #1,R6
    00002558              L1189:                            
      Monochrome  1150            }
      Monochrome  1151    }
    00002558 7F0C                   ADD         #12,R15
    0000255A 4F26                   LDS.L       @R15+,PR
    0000255C 68F6                   MOV.L       @R15+,R8
    0000255E 69F6                   MOV.L       @R15+,R9
    00002560 6AF6                   MOV.L       @R15+,R10




SH SERIES C/C++ Compiler (Ver. 6.0C)                                                                 15-May-2021 18:55:24  PAGE  112


SCT OFFSET   CODE       C LABEL     INSTRUCTION OPERAND    COMMENT

    00002562 6BF6                   MOV.L       @R15+,R11
    00002564 6CF6                   MOV.L       @R15+,R12
    00002566 6DF6                   MOV.L       @R15+,R13
    00002568 000B                   RTS
    0000256A 6EF6                   MOV.L       @R15+,R14
    0000256C              L1340:                            
    0000256C <00000000>             .DATA.L     _sc0135
      Monochrome  1152    #endif
      Monochrome  1153    
      Monochrome  1154    #ifdef ML_BMP_16_OR
      Monochrome  1155    void ML_bmp_16_or(const unsigned short *bmp, int x, int y)
    00002570              _ML_bmp_16_or:                   ; function: ML_bmp_16_or
                                                           ; frame size=36
    00002570 2FE6                   MOV.L       R14,@-R15
      Monochrome  1156    {
      Monochrome  1157            unsigned long line;
      Monochrome  1158            char i, shift, begin=0, end=16, *screen, *p=(char*)&line+1;
      Monochrome  1159            if(!bmp || x<0 || x>112 || y<-15 || y>63) return;
    00002572 6343                   MOV         R4,R3
    00002574 2FD6                   MOV.L       R13,@-R15
    00002576 6E63                   MOV         R6,R14
    00002578 2FC6                   MOV.L       R12,@-R15
    0000257A 2338                   TST         R3,R3
    0000257C 2FB6                   MOV.L       R11,@-R15
    0000257E EC00                   MOV         #0,R12
    00002580 2FA6                   MOV.L       R10,@-R15
    00002582 6B53                   MOV         R5,R11
    00002584 2F96                   MOV.L       R9,@-R15
    00002586 E910                   MOV         #16,R9
    00002588 4F22                   STS.L       PR,@-R15
    0000258A 7FF8                   ADD         #-8,R15
    0000258C 1F41                   MOV.L       R4,@(4,R15)
    0000258E 6DF3                   MOV         R15,R13
    00002590 8D4A                   BT/S        L1201
    00002592 7D01                   ADD         #1,R13
    00002594 4B11                   CMP/PZ      R11
    00002596 8B47                   BF          L1201
    00002598 E270                   MOV         #112,R2
    0000259A 3B27                   CMP/GT      R2,R11
    0000259C 8944                   BT          L1201
    0000259E E1F1                   MOV         #-15,R1
    000025A0 3E13                   CMP/GE      R1,R14
    000025A2 8B41                   BF          L1201
    000025A4 E03F                   MOV         #63,R0
    000025A6 3E07                   CMP/GT      R0,R14
    000025A8 893E                   BT          L1201
      Monochrome  1160            if(y < 0) begin = -y;
    000025AA 4E11                   CMP/PZ      R14
    000025AC 8D01                   BT/S        L1202
      Monochrome  1161            if(y > 48) end = 64-y;
    000025AE E330                   MOV         #48,R3
    000025B0 6CEB                   NEG         R14,R12
    000025B2              L1202:                            
    000025B2 3E37                   CMP/GT      R3,R14
    000025B4 8F02                   BF/S        L1203
      Monochrome  1162            shift = 8-(x&7);
    000025B6 E307                   MOV         #7,R3




SH SERIES C/C++ Compiler (Ver. 6.0C)                                                                 15-May-2021 18:55:24  PAGE  113


SCT OFFSET   CODE       C LABEL     INSTRUCTION OPERAND    COMMENT

    000025B8 E940                   MOV         #64,R9
    000025BA 39E8                   SUB         R14,R9
    000025BC              L1203:                            
      Monochrome  1163            screen = ML_vram_adress()+(y+begin<<4)+(x>>3);
    000025BC D285                   MOV.L       L1341+2,R2 ; _sc0135
    000025BE 23B9                   AND         R11,R3
    000025C0 EA08                   MOV         #8,R10
    000025C2 420B                   JSR         @R2
    000025C4 3A38                   SUB         R3,R10
    000025C6 63CE                   EXTS.B      R12,R3
    000025C8 33EC                   ADD         R14,R3
    000025CA 4308                   SHLL2       R3
    000025CC 4308                   SHLL2       R3
    000025CE 303C                   ADD         R3,R0
    000025D0 53F1                   MOV.L       @(4,R15),R3
    000025D2 679E                   EXTS.B      R9,R7
    000025D4 4B21                   SHAR        R11
    000025D6 4B21                   SHAR        R11
    000025D8 4B21                   SHAR        R11
    000025DA 6403                   MOV         R0,R4
    000025DC 34BC                   ADD         R11,R4
      Monochrome  1164            for(i=begin ; i<end ; i++)
    000025DE 66C3                   MOV         R12,R6
    000025E0 656E                   EXTS.B      R6,R5
    000025E2 4500                   SHLL        R5
    000025E4 353C                   ADD         R3,R5
    000025E6 6BD3                   MOV         R13,R11
    000025E8 7B01                   ADD         #1,R11
    000025EA 6CD3                   MOV         R13,R12
    000025EC 626E                   EXTS.B      R6,R2
    000025EE 3273                   CMP/GE      R7,R2
    000025F0 8D1A                   BT/S        L1201
    000025F2 7C02                   ADD         #2,R12
    000025F4              L1205:                            
      Monochrome  1165            {
      Monochrome  1166                    line = bmp[i]<<shift;
    000025F4 6351                   MOV.W       @R5,R3
    000025F6 6EAE                   EXTS.B      R10,R14
    000025F8 633D                   EXTU.W      R3,R3
    000025FA 43ED                   SHLD        R14,R3
    000025FC 2F32                   MOV.L       R3,@R15
      Monochrome  1167                    screen[0] |= *p;
    000025FE 62D0                   MOV.B       @R13,R2
    00002600 6140                   MOV.B       @R4,R1
    00002602 212B                   OR          R2,R1
    00002604 2410                   MOV.B       R1,@R4
      Monochrome  1168                    screen[1] |= *(p+1);
    00002606 63B0                   MOV.B       @R11,R3
    00002608 8441                   MOV.B       @(1,R4),R0
    0000260A 203B                   OR          R3,R0
    0000260C 8041                   MOV.B       R0,@(1,R4)
      Monochrome  1169                    if(shift!=8) screen[2] |= *(p+2);
    0000260E 60E3                   MOV         R14,R0
    00002610 8808                   CMP/EQ      #8,R0
    00002612 8903                   BT          L1206
    00002614 63C0                   MOV.B       @R12,R3
    00002616 8442                   MOV.B       @(2,R4),R0




SH SERIES C/C++ Compiler (Ver. 6.0C)                                                                 15-May-2021 18:55:24  PAGE  114


SCT OFFSET   CODE       C LABEL     INSTRUCTION OPERAND    COMMENT

    00002618 203B                   OR          R3,R0
    0000261A 8042                   MOV.B       R0,@(2,R4)
    0000261C              L1206:                            
      Monochrome  1170                    screen += 16;
    0000261C 7410                   ADD         #16,R4
    0000261E 7601                   ADD         #1,R6
    00002620 636E                   EXTS.B      R6,R3
    00002622 3373                   CMP/GE      R7,R3
    00002624 8FE6                   BF/S        L1205
    00002626 7502                   ADD         #2,R5
    00002628              L1201:                            
      Monochrome  1171            }
      Monochrome  1172    }
    00002628 7F08                   ADD         #8,R15
    0000262A 4F26                   LDS.L       @R15+,PR
    0000262C 69F6                   MOV.L       @R15+,R9
    0000262E 6AF6                   MOV.L       @R15+,R10
    00002630 6BF6                   MOV.L       @R15+,R11
    00002632 6CF6                   MOV.L       @R15+,R12
    00002634 6DF6                   MOV.L       @R15+,R13
    00002636 000B                   RTS
    00002638 6EF6                   MOV.L       @R15+,R14
      Monochrome  1173    #endif
      Monochrome  1174    
      Monochrome  1175    #ifdef ML_BMP_16_AND
      Monochrome  1176    void ML_bmp_16_and(const unsigned short *bmp, int x, int y)
    0000263A              _ML_bmp_16_and:                  ; function: ML_bmp_16_and
                                                           ; frame size=36
      Monochrome  1177    {
      Monochrome  1178            unsigned long line;
      Monochrome  1179            char i, shift, begin=0, end=16, *screen, *p=(char*)&line+1;
      Monochrome  1180            if(!bmp || x<0 || x>112 || y<-15 || y>63) return;
    0000263A 6343                   MOV         R4,R3
    0000263C 2FE6                   MOV.L       R14,@-R15
    0000263E 2338                   TST         R3,R3
    00002640 2FD6                   MOV.L       R13,@-R15
    00002642 6E63                   MOV         R6,R14
    00002644 2FC6                   MOV.L       R12,@-R15
    00002646 EC00                   MOV         #0,R12
    00002648 2FB6                   MOV.L       R11,@-R15
    0000264A 6B53                   MOV         R5,R11
    0000264C 2FA6                   MOV.L       R10,@-R15
    0000264E 2F96                   MOV.L       R9,@-R15
    00002650 4F22                   STS.L       PR,@-R15
    00002652 E910                   MOV         #16,R9
    00002654 7FF8                   ADD         #-8,R15
    00002656 6DF3                   MOV         R15,R13
    00002658 1F41                   MOV.L       R4,@(4,R15)
    0000265A 8D4C                   BT/S        L1209
    0000265C 7D01                   ADD         #1,R13
    0000265E 4B11                   CMP/PZ      R11
    00002660 8B49                   BF          L1209
    00002662 E270                   MOV         #112,R2
    00002664 3B27                   CMP/GT      R2,R11
    00002666 8946                   BT          L1209
    00002668 E1F1                   MOV         #-15,R1
    0000266A 3E13                   CMP/GE      R1,R14




SH SERIES C/C++ Compiler (Ver. 6.0C)                                                                 15-May-2021 18:55:24  PAGE  115


SCT OFFSET   CODE       C LABEL     INSTRUCTION OPERAND    COMMENT

    0000266C 8B43                   BF          L1209
    0000266E E03F                   MOV         #63,R0
    00002670 3E07                   CMP/GT      R0,R14
    00002672 8940                   BT          L1209
      Monochrome  1181            if(y < 0) begin = -y;
    00002674 4E11                   CMP/PZ      R14
    00002676 8D01                   BT/S        L1210
      Monochrome  1182            if(y > 48) end = 64-y;
    00002678 E330                   MOV         #48,R3
    0000267A 6CEB                   NEG         R14,R12
    0000267C              L1210:                            
    0000267C 3E37                   CMP/GT      R3,R14
    0000267E 8F02                   BF/S        L1211
      Monochrome  1183            shift = 8-(x&7);
    00002680 E307                   MOV         #7,R3
    00002682 E940                   MOV         #64,R9
    00002684 39E8                   SUB         R14,R9
    00002686              L1211:                            
    00002686 23B9                   AND         R11,R3
      Monochrome  1184            screen = ML_vram_adress()+(y+begin<<4)+(x>>3);
    00002688 D252                   MOV.L       L1341+2,R2 ; _sc0135
    0000268A EA08                   MOV         #8,R10
    0000268C 420B                   JSR         @R2
    0000268E 3A38                   SUB         R3,R10
    00002690 63CE                   EXTS.B      R12,R3
    00002692 33EC                   ADD         R14,R3
    00002694 4308                   SHLL2       R3
    00002696 4308                   SHLL2       R3
    00002698 303C                   ADD         R3,R0
    0000269A 4B21                   SHAR        R11
    0000269C 53F1                   MOV.L       @(4,R15),R3
    0000269E 679E                   EXTS.B      R9,R7
    000026A0 4B21                   SHAR        R11
    000026A2 4B21                   SHAR        R11
    000026A4 6403                   MOV         R0,R4
    000026A6 34BC                   ADD         R11,R4
      Monochrome  1185            for(i=begin ; i<end ; i++)
    000026A8 66C3                   MOV         R12,R6
    000026AA 656E                   EXTS.B      R6,R5
    000026AC 4500                   SHLL        R5
    000026AE 353C                   ADD         R3,R5
    000026B0 6BD3                   MOV         R13,R11
    000026B2 7B01                   ADD         #1,R11
    000026B4 6CD3                   MOV         R13,R12
    000026B6 626E                   EXTS.B      R6,R2
    000026B8 3273                   CMP/GE      R7,R2
    000026BA 8D1C                   BT/S        L1209
    000026BC 7C02                   ADD         #2,R12
    000026BE              L1213:                            
      Monochrome  1186            {
      Monochrome  1187                    line = ~((unsigned short)~bmp[i]<<shift);
    000026BE 6EAE                   EXTS.B      R10,R14
    000026C0 6351                   MOV.W       @R5,R3
    000026C2 6337                   NOT         R3,R3
    000026C4 633D                   EXTU.W      R3,R3
    000026C6 43ED                   SHLD        R14,R3
    000026C8 6337                   NOT         R3,R3




SH SERIES C/C++ Compiler (Ver. 6.0C)                                                                 15-May-2021 18:55:24  PAGE  116


SCT OFFSET   CODE       C LABEL     INSTRUCTION OPERAND    COMMENT

    000026CA 2F32                   MOV.L       R3,@R15
      Monochrome  1188                    screen[0] &= *p;
    000026CC 62D0                   MOV.B       @R13,R2
    000026CE 6140                   MOV.B       @R4,R1
    000026D0 2129                   AND         R2,R1
    000026D2 2410                   MOV.B       R1,@R4
      Monochrome  1189                    screen[1] &= *(p+1);
    000026D4 63B0                   MOV.B       @R11,R3
    000026D6 8441                   MOV.B       @(1,R4),R0
    000026D8 2039                   AND         R3,R0
    000026DA 8041                   MOV.B       R0,@(1,R4)
      Monochrome  1190                    if(shift!=8) screen[2] &= *(p+2);
    000026DC 60E3                   MOV         R14,R0
    000026DE 8808                   CMP/EQ      #8,R0
    000026E0 8903                   BT          L1214
    000026E2 63C0                   MOV.B       @R12,R3
    000026E4 8442                   MOV.B       @(2,R4),R0
    000026E6 2039                   AND         R3,R0
    000026E8 8042                   MOV.B       R0,@(2,R4)
    000026EA              L1214:                            
      Monochrome  1191                    screen += 16;
    000026EA 7410                   ADD         #16,R4
    000026EC 7601                   ADD         #1,R6
    000026EE 636E                   EXTS.B      R6,R3
    000026F0 3373                   CMP/GE      R7,R3
    000026F2 8FE4                   BF/S        L1213
    000026F4 7502                   ADD         #2,R5
    000026F6              L1209:                            
      Monochrome  1192            }
      Monochrome  1193    }
    000026F6 7F08                   ADD         #8,R15
    000026F8 4F26                   LDS.L       @R15+,PR
    000026FA 69F6                   MOV.L       @R15+,R9
    000026FC 6AF6                   MOV.L       @R15+,R10
    000026FE 6BF6                   MOV.L       @R15+,R11
    00002700 6CF6                   MOV.L       @R15+,R12
    00002702 6DF6                   MOV.L       @R15+,R13
    00002704 000B                   RTS
    00002706 6EF6                   MOV.L       @R15+,R14
      Monochrome  1194    #endif
      Monochrome  1195    
      Monochrome  1196    #ifdef ML_BMP_16_XOR
      Monochrome  1197    void ML_bmp_16_xor(const unsigned short *bmp, int x, int y)
    00002708              _ML_bmp_16_xor:                  ; function: ML_bmp_16_xor
                                                           ; frame size=36
    00002708 2FE6                   MOV.L       R14,@-R15
      Monochrome  1198    {
      Monochrome  1199            unsigned long line;
      Monochrome  1200            char i, shift, begin=0, end=16, *screen, *p=(char*)&line+1;
      Monochrome  1201            if(!bmp || x<0 || x>112 || y<-15 || y>63) return;
    0000270A 6343                   MOV         R4,R3
    0000270C 2FD6                   MOV.L       R13,@-R15
    0000270E 6E63                   MOV         R6,R14
    00002710 2FC6                   MOV.L       R12,@-R15
    00002712 2338                   TST         R3,R3
    00002714 2FB6                   MOV.L       R11,@-R15
    00002716 EC00                   MOV         #0,R12




SH SERIES C/C++ Compiler (Ver. 6.0C)                                                                 15-May-2021 18:55:24  PAGE  117


SCT OFFSET   CODE       C LABEL     INSTRUCTION OPERAND    COMMENT

    00002718 2FA6                   MOV.L       R10,@-R15
    0000271A 6B53                   MOV         R5,R11
    0000271C 2F96                   MOV.L       R9,@-R15
    0000271E E910                   MOV         #16,R9
    00002720 4F22                   STS.L       PR,@-R15
    00002722 7FF8                   ADD         #-8,R15
    00002724 1F41                   MOV.L       R4,@(4,R15)
    00002726 6DF3                   MOV         R15,R13
    00002728 8D4A                   BT/S        L1217
    0000272A 7D01                   ADD         #1,R13
    0000272C 4B11                   CMP/PZ      R11
    0000272E 8B47                   BF          L1217
    00002730 E270                   MOV         #112,R2
    00002732 3B27                   CMP/GT      R2,R11
    00002734 8944                   BT          L1217
    00002736 E1F1                   MOV         #-15,R1
    00002738 3E13                   CMP/GE      R1,R14
    0000273A 8B41                   BF          L1217
    0000273C E03F                   MOV         #63,R0
    0000273E 3E07                   CMP/GT      R0,R14
    00002740 893E                   BT          L1217
      Monochrome  1202            if(y < 0) begin = -y;
    00002742 4E11                   CMP/PZ      R14
    00002744 8D01                   BT/S        L1218
      Monochrome  1203            if(y > 48) end = 64-y;
    00002746 E330                   MOV         #48,R3
    00002748 6CEB                   NEG         R14,R12
    0000274A              L1218:                            
    0000274A 3E37                   CMP/GT      R3,R14
    0000274C 8F02                   BF/S        L1219
      Monochrome  1204            shift = 8-(x&7);
    0000274E E307                   MOV         #7,R3
    00002750 E940                   MOV         #64,R9
    00002752 39E8                   SUB         R14,R9
    00002754              L1219:                            
      Monochrome  1205            screen = ML_vram_adress()+(y+begin<<4)+(x>>3);
    00002754 D21F                   MOV.L       L1341+2,R2 ; _sc0135
    00002756 23B9                   AND         R11,R3
    00002758 EA08                   MOV         #8,R10
    0000275A 420B                   JSR         @R2
    0000275C 3A38                   SUB         R3,R10
    0000275E 63CE                   EXTS.B      R12,R3
    00002760 33EC                   ADD         R14,R3
    00002762 4308                   SHLL2       R3
    00002764 4308                   SHLL2       R3
    00002766 303C                   ADD         R3,R0
    00002768 53F1                   MOV.L       @(4,R15),R3
    0000276A 679E                   EXTS.B      R9,R7
    0000276C 4B21                   SHAR        R11
    0000276E 4B21                   SHAR        R11
    00002770 4B21                   SHAR        R11
    00002772 6403                   MOV         R0,R4
    00002774 34BC                   ADD         R11,R4
      Monochrome  1206            for(i=begin ; i<end ; i++)
    00002776 66C3                   MOV         R12,R6
    00002778 656E                   EXTS.B      R6,R5
    0000277A 4500                   SHLL        R5




SH SERIES C/C++ Compiler (Ver. 6.0C)                                                                 15-May-2021 18:55:24  PAGE  118


SCT OFFSET   CODE       C LABEL     INSTRUCTION OPERAND    COMMENT

    0000277C 353C                   ADD         R3,R5
    0000277E 6BD3                   MOV         R13,R11
    00002780 7B01                   ADD         #1,R11
    00002782 6CD3                   MOV         R13,R12
    00002784 626E                   EXTS.B      R6,R2
    00002786 3273                   CMP/GE      R7,R2
    00002788 8D1A                   BT/S        L1217
    0000278A 7C02                   ADD         #2,R12
    0000278C              L1221:                            
      Monochrome  1207            {
      Monochrome  1208                    line = bmp[i]<<shift;
    0000278C 6351                   MOV.W       @R5,R3
    0000278E 6EAE                   EXTS.B      R10,R14
    00002790 633D                   EXTU.W      R3,R3
    00002792 43ED                   SHLD        R14,R3
    00002794 2F32                   MOV.L       R3,@R15
      Monochrome  1209                    screen[0] ^= *p;
    00002796 62D0                   MOV.B       @R13,R2
    00002798 6140                   MOV.B       @R4,R1
    0000279A 212A                   XOR         R2,R1
    0000279C 2410                   MOV.B       R1,@R4
      Monochrome  1210                    screen[1] ^= *(p+1);
    0000279E 63B0                   MOV.B       @R11,R3
    000027A0 8441                   MOV.B       @(1,R4),R0
    000027A2 203A                   XOR         R3,R0
    000027A4 8041                   MOV.B       R0,@(1,R4)
      Monochrome  1211                    if(shift!=8) screen[2] ^= *(p+2);
    000027A6 60E3                   MOV         R14,R0
    000027A8 8808                   CMP/EQ      #8,R0
    000027AA 8903                   BT          L1222
    000027AC 63C0                   MOV.B       @R12,R3
    000027AE 8442                   MOV.B       @(2,R4),R0
    000027B0 203A                   XOR         R3,R0
    000027B2 8042                   MOV.B       R0,@(2,R4)
    000027B4              L1222:                            
      Monochrome  1212                    screen += 16;
    000027B4 7410                   ADD         #16,R4
    000027B6 7601                   ADD         #1,R6
    000027B8 636E                   EXTS.B      R6,R3
    000027BA 3373                   CMP/GE      R7,R3
    000027BC 8FE6                   BF/S        L1221
    000027BE 7502                   ADD         #2,R5
    000027C0              L1217:                            
      Monochrome  1213            }
      Monochrome  1214    }
    000027C0 7F08                   ADD         #8,R15
    000027C2 4F26                   LDS.L       @R15+,PR
    000027C4 69F6                   MOV.L       @R15+,R9
    000027C6 6AF6                   MOV.L       @R15+,R10
    000027C8 6BF6                   MOV.L       @R15+,R11
    000027CA 6CF6                   MOV.L       @R15+,R12
    000027CC 6DF6                   MOV.L       @R15+,R13
    000027CE 000B                   RTS
    000027D0 6EF6                   MOV.L       @R15+,R14
    000027D2              L1341:                            
    000027D2 0000                   .DATA.W     0
    000027D4 <00000000>             .DATA.L     _sc0135




SH SERIES C/C++ Compiler (Ver. 6.0C)                                                                 15-May-2021 18:55:24  PAGE  119


SCT OFFSET   CODE       C LABEL     INSTRUCTION OPERAND    COMMENT

      Monochrome  1215    #endif
      Monochrome  1216    
      Monochrome  1217    #ifdef ML_BMP_16_OR_CL
      Monochrome  1218    void ML_bmp_16_or_cl(const unsigned short *bmp, int x, int y)
    000027D8              _ML_bmp_16_or_cl:                ; function: ML_bmp_16_or_cl
                                                           ; frame size=48
    000027D8 2FE6                   MOV.L       R14,@-R15
      Monochrome  1219    {
      Monochrome  1220            unsigned long line;
      Monochrome  1221            char i, shift, begin=0, end=16, bool1=1, bool2=1, bool3=1, *screen, *p=(char*)&line+1;
    000027DA E010                   MOV         #16,R0
    000027DC 2FD6                   MOV.L       R13,@-R15
    000027DE 6E53                   MOV         R5,R14
    000027E0 2FC6                   MOV.L       R12,@-R15
    000027E2 6D63                   MOV         R6,R13
    000027E4 2FB6                   MOV.L       R11,@-R15
    000027E6 E501                   MOV         #1,R5
    000027E8 2FA6                   MOV.L       R10,@-R15
    000027EA 2F96                   MOV.L       R9,@-R15
    000027EC 2F86                   MOV.L       R8,@-R15
    000027EE 6953                   MOV         R5,R9
    000027F0 4F22                   STS.L       PR,@-R15
    000027F2 6B93                   MOV         R9,R11
    000027F4 7FF0                   ADD         #-16,R15
    000027F6 6CF3                   MOV         R15,R12
    000027F8 1F41                   MOV.L       R4,@(4,R15)
    000027FA E400                   MOV         #0,R4
    000027FC 80FC                   MOV.B       R0,@(12,R15)
    000027FE 6A43                   MOV         R4,R10
    00002800 6053                   MOV         R5,R0
    00002802 80F8                   MOV.B       R0,@(8,R15)
      Monochrome  1222            if(!bmp || x<-15 || x>127 || y<-15 || y>63) return;
    00002804 53F1                   MOV.L       @(4,R15),R3
    00002806 2338                   TST         R3,R3
    00002808 8D65                   BT/S        L1225
    0000280A 7C01                   ADD         #1,R12
    0000280C E3F1                   MOV         #-15,R3
    0000280E 3E33                   CMP/GE      R3,R14
    00002810 8B61                   BF          L1225
    00002812 E17F                   MOV         #127,R1
    00002814 3E17                   CMP/GT      R1,R14
    00002816 895E                   BT          L1225
    00002818 3D33                   CMP/GE      R3,R13
    0000281A 8B5C                   BF          L1225
    0000281C E23F                   MOV         #63,R2
    0000281E 3D27                   CMP/GT      R2,R13
    00002820 8959                   BT          L1225
      Monochrome  1223            if(y < 0) begin = -y;
    00002822 4D11                   CMP/PZ      R13
    00002824 8D01                   BT/S        L1226
      Monochrome  1224            if(y > 48) end = 64-y;
    00002826 E230                   MOV         #48,R2
    00002828 6ADB                   NEG         R13,R10
    0000282A              L1226:                            
    0000282A 3D27                   CMP/GT      R2,R13
    0000282C 8B02                   BF          L1227
    0000282E E040                   MOV         #64,R0




SH SERIES C/C++ Compiler (Ver. 6.0C)                                                                 15-May-2021 18:55:24  PAGE  120


SCT OFFSET   CODE       C LABEL     INSTRUCTION OPERAND    COMMENT

    00002830 30D8                   SUB         R13,R0
    00002832 80FC                   MOV.B       R0,@(12,R15)
    00002834              L1227:                            
      Monochrome  1225            shift = 8-(x&7);
    00002834 E307                   MOV         #7,R3
    00002836 23E9                   AND         R14,R3
    00002838 E808                   MOV         #8,R8
      Monochrome  1226            if(x < 0) bool1 = 0;
    0000283A 4E11                   CMP/PZ      R14
    0000283C 8D01                   BT/S        L1228
    0000283E 3838                   SUB         R3,R8
    00002840 6943                   MOV         R4,R9
    00002842              L1228:                            
      Monochrome  1227            if(x<-8 || x>119) bool2 = 0;
    00002842 E3F8                   MOV         #-8,R3
    00002844 3E33                   CMP/GE      R3,R14
    00002846 8B02                   BF          L1230
    00002848 E177                   MOV         #119,R1
    0000284A 3E17                   CMP/GT      R1,R14
    0000284C 8B01                   BF          L1229
    0000284E              L1230:                            
    0000284E 6043                   MOV         R4,R0
    00002850 80F8                   MOV.B       R0,@(8,R15)
    00002852              L1229:                            
      Monochrome  1228            if(x>111 || shift==8) bool3 = 0;
    00002852 E36F                   MOV         #111,R3
    00002854 3E37                   CMP/GT      R3,R14
    00002856 8902                   BT          L1232
    00002858 608E                   EXTS.B      R8,R0
    0000285A 8808                   CMP/EQ      #8,R0
    0000285C 8B00                   BF          L1231
    0000285E              L1232:                            
    0000285E 6B43                   MOV         R4,R11
    00002860              L1231:                            
      Monochrome  1229            screen = ML_vram_adress()+(y+begin<<4)+(x>>3);
    00002860 D367                   MOV.L       L1342,R3   ; _sc0135
    00002862 430B                   JSR         @R3
    00002864 0009                   NOP
    00002866 62AE                   EXTS.B      R10,R2
    00002868 53F1                   MOV.L       @(4,R15),R3
    0000286A 4E21                   SHAR        R14
    0000286C 32DC                   ADD         R13,R2
    0000286E 4208                   SHLL2       R2
    00002870 4208                   SHLL2       R2
    00002872 302C                   ADD         R2,R0
    00002874 4E21                   SHAR        R14
    00002876 4E21                   SHAR        R14
    00002878 6403                   MOV         R0,R4
    0000287A 34EC                   ADD         R14,R4
    0000287C 84FC                   MOV.B       @(12,R15),R0
      Monochrome  1230            for(i=begin ; i<end ; i++)
    0000287E 65A3                   MOV         R10,R5
    00002880 665E                   EXTS.B      R5,R6
    00002882 4600                   SHLL        R6
    00002884 363C                   ADD         R3,R6
    00002886 6EC3                   MOV         R12,R14
    00002888 7E01                   ADD         #1,R14




SH SERIES C/C++ Compiler (Ver. 6.0C)                                                                 15-May-2021 18:55:24  PAGE  121


SCT OFFSET   CODE       C LABEL     INSTRUCTION OPERAND    COMMENT

    0000288A 6DC3                   MOV         R12,R13
    0000288C 6703                   MOV         R0,R7
    0000288E 625E                   EXTS.B      R5,R2
    00002890 3273                   CMP/GE      R7,R2
    00002892 8D20                   BT/S        L1225
    00002894 7D02                   ADD         #2,R13
    00002896              L1234:                            
      Monochrome  1231            {
      Monochrome  1232                    line = bmp[i]<<shift;
    00002896 628E                   EXTS.B      R8,R2
    00002898 6361                   MOV.W       @R6,R3
    0000289A 633D                   EXTU.W      R3,R3
    0000289C 432D                   SHLD        R2,R3
      Monochrome  1233                    if(bool1) screen[0] |= *p;
    0000289E 629E                   EXTS.B      R9,R2
    000028A0 2228                   TST         R2,R2
    000028A2 8D04                   BT/S        L1235
    000028A4 2F32                   MOV.L       R3,@R15
    000028A6 62C0                   MOV.B       @R12,R2
    000028A8 6140                   MOV.B       @R4,R1
    000028AA 212B                   OR          R2,R1
    000028AC 2410                   MOV.B       R1,@R4
    000028AE              L1235:                            
      Monochrome  1234                    if(bool2) screen[1] |= *(p+1);
    000028AE 84F8                   MOV.B       @(8,R15),R0
    000028B0 2008                   TST         R0,R0
    000028B2 8D04                   BT/S        L1236
      Monochrome  1235                    if(bool3) screen[2] |= *(p+2);
    000028B4 62BE                   EXTS.B      R11,R2
    000028B6 63E0                   MOV.B       @R14,R3
    000028B8 8441                   MOV.B       @(1,R4),R0
    000028BA 203B                   OR          R3,R0
    000028BC 8041                   MOV.B       R0,@(1,R4)
    000028BE              L1236:                            
    000028BE 2228                   TST         R2,R2
    000028C0 8903                   BT          L1237
    000028C2 63D0                   MOV.B       @R13,R3
    000028C4 8442                   MOV.B       @(2,R4),R0
    000028C6 203B                   OR          R3,R0
    000028C8 8042                   MOV.B       R0,@(2,R4)
    000028CA              L1237:                            
      Monochrome  1236                    screen += 16;
    000028CA 7410                   ADD         #16,R4
    000028CC 7501                   ADD         #1,R5
    000028CE 635E                   EXTS.B      R5,R3
    000028D0 3373                   CMP/GE      R7,R3
    000028D2 8FE0                   BF/S        L1234
    000028D4 7602                   ADD         #2,R6
    000028D6              L1225:                            
      Monochrome  1237            }
      Monochrome  1238    }
    000028D6 7F10                   ADD         #16,R15
    000028D8 4F26                   LDS.L       @R15+,PR
    000028DA 68F6                   MOV.L       @R15+,R8
    000028DC 69F6                   MOV.L       @R15+,R9
    000028DE 6AF6                   MOV.L       @R15+,R10
    000028E0 6BF6                   MOV.L       @R15+,R11




SH SERIES C/C++ Compiler (Ver. 6.0C)                                                                 15-May-2021 18:55:24  PAGE  122


SCT OFFSET   CODE       C LABEL     INSTRUCTION OPERAND    COMMENT

    000028E2 6CF6                   MOV.L       @R15+,R12
    000028E4 6DF6                   MOV.L       @R15+,R13
    000028E6 000B                   RTS
    000028E8 6EF6                   MOV.L       @R15+,R14
      Monochrome  1239    #endif
      Monochrome  1240    
      Monochrome  1241    #ifdef ML_BMP_16_AND_CL
      Monochrome  1242    void ML_bmp_16_and_cl(const unsigned short *bmp, int x, int y)
    000028EA              _ML_bmp_16_and_cl:               ; function: ML_bmp_16_and_cl
                                                           ; frame size=48
      Monochrome  1243    {
      Monochrome  1244            unsigned long line;
      Monochrome  1245            char i, shift, begin=0, end=16, bool1=1, bool2=1, bool3=1, *screen, *p=(char*)&line+1;
    000028EA E010                   MOV         #16,R0
    000028EC 2FE6                   MOV.L       R14,@-R15
    000028EE 6E53                   MOV         R5,R14
    000028F0 2FD6                   MOV.L       R13,@-R15
    000028F2 E501                   MOV         #1,R5
    000028F4 2FC6                   MOV.L       R12,@-R15
    000028F6 6D63                   MOV         R6,R13
    000028F8 2FB6                   MOV.L       R11,@-R15
    000028FA 2FA6                   MOV.L       R10,@-R15
    000028FC 2F96                   MOV.L       R9,@-R15
    000028FE 6953                   MOV         R5,R9
    00002900 2F86                   MOV.L       R8,@-R15
    00002902 6B93                   MOV         R9,R11
    00002904 4F22                   STS.L       PR,@-R15
    00002906 7FF0                   ADD         #-16,R15
    00002908 1F41                   MOV.L       R4,@(4,R15)
    0000290A 6CF3                   MOV         R15,R12
    0000290C 80FC                   MOV.B       R0,@(12,R15)
    0000290E E400                   MOV         #0,R4
    00002910 6A43                   MOV         R4,R10
    00002912 6053                   MOV         R5,R0
    00002914 80F8                   MOV.B       R0,@(8,R15)
      Monochrome  1246            if(!bmp || x<-15 || x>127 || y<-15 || y>63) return;
    00002916 53F1                   MOV.L       @(4,R15),R3
    00002918 2338                   TST         R3,R3
    0000291A 8D67                   BT/S        L1240
    0000291C 7C01                   ADD         #1,R12
    0000291E E3F1                   MOV         #-15,R3
    00002920 3E33                   CMP/GE      R3,R14
    00002922 8B63                   BF          L1240
    00002924 E17F                   MOV         #127,R1
    00002926 3E17                   CMP/GT      R1,R14
    00002928 8960                   BT          L1240
    0000292A 3D33                   CMP/GE      R3,R13
    0000292C 8B5E                   BF          L1240
    0000292E E23F                   MOV         #63,R2
    00002930 3D27                   CMP/GT      R2,R13
    00002932 895B                   BT          L1240
      Monochrome  1247            if(y < 0) begin = -y;
    00002934 4D11                   CMP/PZ      R13
    00002936 8D01                   BT/S        L1241
      Monochrome  1248            if(y > 48) end = 64-y;
    00002938 E230                   MOV         #48,R2
    0000293A 6ADB                   NEG         R13,R10




SH SERIES C/C++ Compiler (Ver. 6.0C)                                                                 15-May-2021 18:55:24  PAGE  123


SCT OFFSET   CODE       C LABEL     INSTRUCTION OPERAND    COMMENT

    0000293C              L1241:                            
    0000293C 3D27                   CMP/GT      R2,R13
    0000293E 8B02                   BF          L1242
    00002940 E040                   MOV         #64,R0
    00002942 30D8                   SUB         R13,R0
    00002944 80FC                   MOV.B       R0,@(12,R15)
    00002946              L1242:                            
      Monochrome  1249            shift = 8-(x&7);
    00002946 E307                   MOV         #7,R3
    00002948 23E9                   AND         R14,R3
    0000294A E808                   MOV         #8,R8
      Monochrome  1250            if(x < 0) bool1 = 0;
    0000294C 4E11                   CMP/PZ      R14
    0000294E 8D01                   BT/S        L1243
    00002950 3838                   SUB         R3,R8
    00002952 6943                   MOV         R4,R9
    00002954              L1243:                            
      Monochrome  1251            if(x<-8 || x>119) bool2 = 0;
    00002954 E3F8                   MOV         #-8,R3
    00002956 3E33                   CMP/GE      R3,R14
    00002958 8B02                   BF          L1245
    0000295A E177                   MOV         #119,R1
    0000295C 3E17                   CMP/GT      R1,R14
    0000295E 8B01                   BF          L1244
    00002960              L1245:                            
    00002960 6043                   MOV         R4,R0
    00002962 80F8                   MOV.B       R0,@(8,R15)
    00002964              L1244:                            
      Monochrome  1252            if(x>111 || shift==8) bool3 = 0;
    00002964 E36F                   MOV         #111,R3
    00002966 3E37                   CMP/GT      R3,R14
    00002968 8902                   BT          L1247
    0000296A 608E                   EXTS.B      R8,R0
    0000296C 8808                   CMP/EQ      #8,R0
    0000296E 8B00                   BF          L1246
    00002970              L1247:                            
    00002970 6B43                   MOV         R4,R11
    00002972              L1246:                            
      Monochrome  1253            screen = ML_vram_adress()+(y+begin<<4)+(x>>3);
    00002972 D323                   MOV.L       L1342,R3   ; _sc0135
    00002974 430B                   JSR         @R3
    00002976 0009                   NOP
    00002978 53F1                   MOV.L       @(4,R15),R3
    0000297A 62AE                   EXTS.B      R10,R2
    0000297C 32DC                   ADD         R13,R2
    0000297E 4208                   SHLL2       R2
    00002980 4208                   SHLL2       R2
    00002982 302C                   ADD         R2,R0
    00002984 4E21                   SHAR        R14
    00002986 4E21                   SHAR        R14
    00002988 4E21                   SHAR        R14
    0000298A 6403                   MOV         R0,R4
    0000298C 84FC                   MOV.B       @(12,R15),R0
    0000298E 34EC                   ADD         R14,R4
      Monochrome  1254            for(i=begin ; i<end ; i++)
    00002990 65A3                   MOV         R10,R5
    00002992 665E                   EXTS.B      R5,R6




SH SERIES C/C++ Compiler (Ver. 6.0C)                                                                 15-May-2021 18:55:24  PAGE  124


SCT OFFSET   CODE       C LABEL     INSTRUCTION OPERAND    COMMENT

    00002994 4600                   SHLL        R6
    00002996 363C                   ADD         R3,R6
    00002998 6EC3                   MOV         R12,R14
    0000299A 7E01                   ADD         #1,R14
    0000299C 6DC3                   MOV         R12,R13
    0000299E 6703                   MOV         R0,R7
    000029A0 625E                   EXTS.B      R5,R2
    000029A2 3273                   CMP/GE      R7,R2
    000029A4 8D22                   BT/S        L1240
    000029A6 7D02                   ADD         #2,R13
    000029A8              L1249:                            
      Monochrome  1255            {
      Monochrome  1256                    line = ~((unsigned short)~bmp[i]<<shift);
    000029A8 6361                   MOV.W       @R6,R3
    000029AA 628E                   EXTS.B      R8,R2
    000029AC 6337                   NOT         R3,R3
    000029AE 633D                   EXTU.W      R3,R3
    000029B0 432D                   SHLD        R2,R3
    000029B2 6337                   NOT         R3,R3
      Monochrome  1257                    if(bool1) screen[0] &= *p;
    000029B4 629E                   EXTS.B      R9,R2
    000029B6 2228                   TST         R2,R2
    000029B8 8D04                   BT/S        L1250
    000029BA 2F32                   MOV.L       R3,@R15
    000029BC 62C0                   MOV.B       @R12,R2
    000029BE 6140                   MOV.B       @R4,R1
    000029C0 2129                   AND         R2,R1
    000029C2 2410                   MOV.B       R1,@R4
    000029C4              L1250:                            
      Monochrome  1258                    if(bool2) screen[1] &= *(p+1);
    000029C4 84F8                   MOV.B       @(8,R15),R0
    000029C6 2008                   TST         R0,R0
    000029C8 8D04                   BT/S        L1251
      Monochrome  1259                    if(bool3) screen[2] &= *(p+2);
    000029CA 62BE                   EXTS.B      R11,R2
    000029CC 63E0                   MOV.B       @R14,R3
    000029CE 8441                   MOV.B       @(1,R4),R0
    000029D0 2039                   AND         R3,R0
    000029D2 8041                   MOV.B       R0,@(1,R4)
    000029D4              L1251:                            
    000029D4 2228                   TST         R2,R2
    000029D6 8903                   BT          L1252
    000029D8 63D0                   MOV.B       @R13,R3
    000029DA 8442                   MOV.B       @(2,R4),R0
    000029DC 2039                   AND         R3,R0
    000029DE 8042                   MOV.B       R0,@(2,R4)
    000029E0              L1252:                            
      Monochrome  1260                    screen += 16;
    000029E0 7410                   ADD         #16,R4
    000029E2 7501                   ADD         #1,R5
    000029E4 635E                   EXTS.B      R5,R3
    000029E6 3373                   CMP/GE      R7,R3
    000029E8 8FDE                   BF/S        L1249
    000029EA 7602                   ADD         #2,R6
    000029EC              L1240:                            
      Monochrome  1261            }
      Monochrome  1262    }




SH SERIES C/C++ Compiler (Ver. 6.0C)                                                                 15-May-2021 18:55:24  PAGE  125


SCT OFFSET   CODE       C LABEL     INSTRUCTION OPERAND    COMMENT

    000029EC 7F10                   ADD         #16,R15
    000029EE 4F26                   LDS.L       @R15+,PR
    000029F0 68F6                   MOV.L       @R15+,R8
    000029F2 69F6                   MOV.L       @R15+,R9
    000029F4 6AF6                   MOV.L       @R15+,R10
    000029F6 6BF6                   MOV.L       @R15+,R11
    000029F8 6CF6                   MOV.L       @R15+,R12
    000029FA 6DF6                   MOV.L       @R15+,R13
    000029FC 000B                   RTS
    000029FE 6EF6                   MOV.L       @R15+,R14
    00002A00              L1342:                            
    00002A00 <00000000>             .DATA.L     _sc0135
      Monochrome  1263    #endif
      Monochrome  1264    
      Monochrome  1265    #ifdef ML_BMP_16_XOR_CL
      Monochrome  1266    void ML_bmp_16_xor_cl(const unsigned short *bmp, int x, int y)
    00002A04              _ML_bmp_16_xor_cl:               ; function: ML_bmp_16_xor_cl
                                                           ; frame size=48
    00002A04 2FE6                   MOV.L       R14,@-R15
      Monochrome  1267    {
      Monochrome  1268            unsigned long line;
      Monochrome  1269            char i, shift, begin=0, end=16, bool1=1, bool2=1, bool3=1, *screen, *p=(char*)&line+1;
    00002A06 E010                   MOV         #16,R0
    00002A08 2FD6                   MOV.L       R13,@-R15
    00002A0A 6E53                   MOV         R5,R14
    00002A0C 2FC6                   MOV.L       R12,@-R15
    00002A0E 6D63                   MOV         R6,R13
    00002A10 2FB6                   MOV.L       R11,@-R15
    00002A12 E501                   MOV         #1,R5
    00002A14 2FA6                   MOV.L       R10,@-R15
    00002A16 2F96                   MOV.L       R9,@-R15
    00002A18 2F86                   MOV.L       R8,@-R15
    00002A1A 6953                   MOV         R5,R9
    00002A1C 4F22                   STS.L       PR,@-R15
    00002A1E 6B93                   MOV         R9,R11
    00002A20 7FF0                   ADD         #-16,R15
    00002A22 6CF3                   MOV         R15,R12
    00002A24 1F41                   MOV.L       R4,@(4,R15)
    00002A26 E400                   MOV         #0,R4
    00002A28 80FC                   MOV.B       R0,@(12,R15)
    00002A2A 6A43                   MOV         R4,R10
    00002A2C 6053                   MOV         R5,R0
    00002A2E 80F8                   MOV.B       R0,@(8,R15)
      Monochrome  1270            if(!bmp || x<-15 || x>127 || y<-15 || y>63) return;
    00002A30 53F1                   MOV.L       @(4,R15),R3
    00002A32 2338                   TST         R3,R3
    00002A34 8D65                   BT/S        L1255
    00002A36 7C01                   ADD         #1,R12
    00002A38 E3F1                   MOV         #-15,R3
    00002A3A 3E33                   CMP/GE      R3,R14
    00002A3C 8B61                   BF          L1255
    00002A3E E17F                   MOV         #127,R1
    00002A40 3E17                   CMP/GT      R1,R14
    00002A42 895E                   BT          L1255
    00002A44 3D33                   CMP/GE      R3,R13
    00002A46 8B5C                   BF          L1255
    00002A48 E23F                   MOV         #63,R2




SH SERIES C/C++ Compiler (Ver. 6.0C)                                                                 15-May-2021 18:55:24  PAGE  126


SCT OFFSET   CODE       C LABEL     INSTRUCTION OPERAND    COMMENT

    00002A4A 3D27                   CMP/GT      R2,R13
    00002A4C 8959                   BT          L1255
      Monochrome  1271            if(y < 0) begin = -y;
    00002A4E 4D11                   CMP/PZ      R13
    00002A50 8D01                   BT/S        L1256
      Monochrome  1272            if(y > 48) end = 64-y;
    00002A52 E230                   MOV         #48,R2
    00002A54 6ADB                   NEG         R13,R10
    00002A56              L1256:                            
    00002A56 3D27                   CMP/GT      R2,R13
    00002A58 8B02                   BF          L1257
    00002A5A E040                   MOV         #64,R0
    00002A5C 30D8                   SUB         R13,R0
    00002A5E 80FC                   MOV.B       R0,@(12,R15)
    00002A60              L1257:                            
      Monochrome  1273            shift = 8-(x&7);
    00002A60 E307                   MOV         #7,R3
    00002A62 23E9                   AND         R14,R3
    00002A64 E808                   MOV         #8,R8
      Monochrome  1274            if(x < 0) bool1 = 0;
    00002A66 4E11                   CMP/PZ      R14
    00002A68 8D01                   BT/S        L1258
    00002A6A 3838                   SUB         R3,R8
    00002A6C 6943                   MOV         R4,R9
    00002A6E              L1258:                            
      Monochrome  1275            if(x<-8 || x>119) bool2 = 0;
    00002A6E E3F8                   MOV         #-8,R3
    00002A70 3E33                   CMP/GE      R3,R14
    00002A72 8B02                   BF          L1260
    00002A74 E177                   MOV         #119,R1
    00002A76 3E17                   CMP/GT      R1,R14
    00002A78 8B01                   BF          L1259
    00002A7A              L1260:                            
    00002A7A 6043                   MOV         R4,R0
    00002A7C 80F8                   MOV.B       R0,@(8,R15)
    00002A7E              L1259:                            
      Monochrome  1276            if(x>111 || shift==8) bool3 = 0;
    00002A7E E36F                   MOV         #111,R3
    00002A80 3E37                   CMP/GT      R3,R14
    00002A82 8902                   BT          L1262
    00002A84 608E                   EXTS.B      R8,R0
    00002A86 8808                   CMP/EQ      #8,R0
    00002A88 8B00                   BF          L1261
    00002A8A              L1262:                            
    00002A8A 6B43                   MOV         R4,R11
    00002A8C              L1261:                            
      Monochrome  1277            screen = ML_vram_adress()+(y+begin<<4)+(x>>3);
    00002A8C D322                   MOV.L       L1343+2,R3 ; _sc0135
    00002A8E 430B                   JSR         @R3
    00002A90 0009                   NOP
    00002A92 62AE                   EXTS.B      R10,R2
    00002A94 53F1                   MOV.L       @(4,R15),R3
    00002A96 4E21                   SHAR        R14
    00002A98 32DC                   ADD         R13,R2
    00002A9A 4208                   SHLL2       R2
    00002A9C 4208                   SHLL2       R2
    00002A9E 302C                   ADD         R2,R0




SH SERIES C/C++ Compiler (Ver. 6.0C)                                                                 15-May-2021 18:55:24  PAGE  127


SCT OFFSET   CODE       C LABEL     INSTRUCTION OPERAND    COMMENT

    00002AA0 4E21                   SHAR        R14
    00002AA2 4E21                   SHAR        R14
    00002AA4 6403                   MOV         R0,R4
    00002AA6 34EC                   ADD         R14,R4
    00002AA8 84FC                   MOV.B       @(12,R15),R0
      Monochrome  1278            for(i=begin ; i<end ; i++)
    00002AAA 65A3                   MOV         R10,R5
    00002AAC 665E                   EXTS.B      R5,R6
    00002AAE 4600                   SHLL        R6
    00002AB0 363C                   ADD         R3,R6
    00002AB2 6EC3                   MOV         R12,R14
    00002AB4 7E01                   ADD         #1,R14
    00002AB6 6DC3                   MOV         R12,R13
    00002AB8 6703                   MOV         R0,R7
    00002ABA 625E                   EXTS.B      R5,R2
    00002ABC 3273                   CMP/GE      R7,R2
    00002ABE 8D20                   BT/S        L1255
    00002AC0 7D02                   ADD         #2,R13
    00002AC2              L1264:                            
      Monochrome  1279            {
      Monochrome  1280                    line = bmp[i]<<shift;
    00002AC2 628E                   EXTS.B      R8,R2
    00002AC4 6361                   MOV.W       @R6,R3
    00002AC6 633D                   EXTU.W      R3,R3
    00002AC8 432D                   SHLD        R2,R3
      Monochrome  1281                    if(bool1) screen[0] ^= *p;
    00002ACA 629E                   EXTS.B      R9,R2
    00002ACC 2228                   TST         R2,R2
    00002ACE 8D04                   BT/S        L1265
    00002AD0 2F32                   MOV.L       R3,@R15
    00002AD2 62C0                   MOV.B       @R12,R2
    00002AD4 6140                   MOV.B       @R4,R1
    00002AD6 212A                   XOR         R2,R1
    00002AD8 2410                   MOV.B       R1,@R4
    00002ADA              L1265:                            
      Monochrome  1282                    if(bool2) screen[1] ^= *(p+1);
    00002ADA 84F8                   MOV.B       @(8,R15),R0
    00002ADC 2008                   TST         R0,R0
    00002ADE 8D04                   BT/S        L1266
      Monochrome  1283                    if(bool3) screen[2] ^= *(p+2);
    00002AE0 62BE                   EXTS.B      R11,R2
    00002AE2 63E0                   MOV.B       @R14,R3
    00002AE4 8441                   MOV.B       @(1,R4),R0
    00002AE6 203A                   XOR         R3,R0
    00002AE8 8041                   MOV.B       R0,@(1,R4)
    00002AEA              L1266:                            
    00002AEA 2228                   TST         R2,R2
    00002AEC 8903                   BT          L1267
    00002AEE 63D0                   MOV.B       @R13,R3
    00002AF0 8442                   MOV.B       @(2,R4),R0
    00002AF2 203A                   XOR         R3,R0
    00002AF4 8042                   MOV.B       R0,@(2,R4)
    00002AF6              L1267:                            
      Monochrome  1284                    screen += 16;
    00002AF6 7410                   ADD         #16,R4
    00002AF8 7501                   ADD         #1,R5
    00002AFA 635E                   EXTS.B      R5,R3




SH SERIES C/C++ Compiler (Ver. 6.0C)                                                                 15-May-2021 18:55:24  PAGE  128


SCT OFFSET   CODE       C LABEL     INSTRUCTION OPERAND    COMMENT

    00002AFC 3373                   CMP/GE      R7,R3
    00002AFE 8FE0                   BF/S        L1264
    00002B00 7602                   ADD         #2,R6
    00002B02              L1255:                            
      Monochrome  1285            }
      Monochrome  1286    }
    00002B02 7F10                   ADD         #16,R15
    00002B04 4F26                   LDS.L       @R15+,PR
    00002B06 68F6                   MOV.L       @R15+,R8
    00002B08 69F6                   MOV.L       @R15+,R9
    00002B0A 6AF6                   MOV.L       @R15+,R10
    00002B0C 6BF6                   MOV.L       @R15+,R11
    00002B0E 6CF6                   MOV.L       @R15+,R12
    00002B10 6DF6                   MOV.L       @R15+,R13
    00002B12 000B                   RTS
    00002B14 6EF6                   MOV.L       @R15+,R14
    00002B16              L1343:                            
    00002B16 0000                   .DATA.W     0
    00002B18 <00000000>             .DATA.L     _sc0135
      Monochrome  1287    #endif
      Monochrome  1288    
C   00000000              _sc0135:                         ; static: sc0135
    00000000 D201D00242             .DATA.L     H'D201D002,H'422B0009,H'80010070,H'00000135
             2B00098001   
             0070000001   
             35           



































SH SERIES C/C++ Compiler (Ver. 6.0C)                                                                 15-May-2021 18:55:24  PAGE    1


******** STATISTICS INFORMATION ********


********** ERROR INFORMATION ***********

NUMBER OF ERRORS:           0
NUMBER OF WARNINGS:         0




******* SOURCE LINE INFORMATION ********

COMPILED SOURCE LINE:     1288



******* SECTION SIZE INFORMATION *******

PROGRAM  SECTION (P):                               00002B1C Byte(s)
CONSTANT SECTION (C):                               00000010 Byte(s)
DATA     SECTION (D):                               00000000 Byte(s)
BSS      SECTION (B):                               00000000 Byte(s)

 TOTAL PROGRAM SIZE: 00002B2C Byte(s)



********** LABEL INFORMATION ***********

NUMBER OF EXTERNAL REFERENCE SYMBOLS:           15
NUMBER OF EXTERNAL DEFINITION SYMBOLS:          41
NUMBER OF INTERNAL/EXTERNAL SYMBOLS:           467






























*** COMMAND PARAMETER ***


  -subcommand=C:\Users\leofa\AppData\Local\Temp\hmkF549.tmp 

