SH SERIES C/C++ Compiler (Ver. 6.0C)                                                                 09-Nov-2021 18:28:35  PAGE    1

************ OBJECT LISTING ************

FILE NAME: C:\Users\leofa\OneDrive\Documents\PycharmProjects\Particule-Casio\Particule\lib\Moteur\SDK Graph 75 85 95\ParticuleEngine
           .cpp

SCT OFFSET   CODE       C LABEL     INSTRUCTION OPERAND    COMMENT

      ParticuleE     1    extern "C"
      ParticuleE     2    {
      ParticuleE     3    #include "keybios.h"
      ParticuleE     4    #include "fxlib.h"
      ParticuleE     5    #include <stdio.h>
      ParticuleE     6    #include "stdio.h"
      ParticuleE     7    #include "stdlib.h"
      ParticuleE     8    
      ParticuleE     9    #include "string.h"
      ParticuleE    10    #include "time.h"
      ParticuleE    11    }
      ParticuleE    12    #include "Announcement.h"
      ParticuleE    13    #include "MonochromeLib.h"
      ParticuleE    14    #include "List.h"
      ParticuleE    15    #include <iostream>
      ParticuleE    16    #include <math.h>
      ParticuleE    17    #include "usefull.h"
      ParticuleE    18    #include "Ressources.h"
      ParticuleE    19    #include "ParticuleEngine.hpp"
      ParticuleE    20    
      ParticuleE    21    int LenChar(char* txt) {
P   00000000              _LenChar__FPc:                   ; function: LenChar(char *)
                                                           ; frame size=4
    00000000 4F22                   STS.L       PR,@-R15
      ParticuleE    22        return strlen(txt);
    00000002 D3A5                   MOV.L       L1642,R3   ; _strlen
    00000004 430B                   JSR         @R3
    00000006 0009                   NOP
      ParticuleE    23    }
    00000008 4F26                   LDS.L       @R15+,PR
    0000000A 000B                   RTS
    0000000C 0009                   NOP
      ParticuleE    24    
      ParticuleE    25    int mod(int x, int m) {
    0000000E              _mod__FiT1:                      ; function: mod(int, int)
                                                           ; frame size=4
                                                           ; used runtime library name:
                                                           ; __modls
      ParticuleE    26        return (x % m + m) % m;
    0000000E 6143                   MOV         R4,R1
    00000010 D3A2                   MOV.L       L1642+4,R3 ; __modls
    00000012 4F22                   STS.L       PR,@-R15
    00000014 430B                   JSR         @R3
    00000016 6053                   MOV         R5,R0
    00000018 D3A0                   MOV.L       L1642+4,R3 ; __modls
    0000001A 6103                   MOV         R0,R1
    0000001C 315C                   ADD         R5,R1
    0000001E 430B                   JSR         @R3
    00000020 6053                   MOV         R5,R0
      ParticuleE    27    }
    00000022 4F26                   LDS.L       @R15+,PR
    00000024 000B                   RTS
    00000026 0009                   NOP




SH SERIES C/C++ Compiler (Ver. 6.0C)                                                                 09-Nov-2021 18:28:35  PAGE    2


SCT OFFSET   CODE       C LABEL     INSTRUCTION OPERAND    COMMENT

      ParticuleE    28    
      ParticuleE    29    enum Tag
      ParticuleE    30    {
      ParticuleE    31        Untagged = 0,
      ParticuleE    32        Respawn = 1,
      ParticuleE    33        Finish = 2,
      ParticuleE    34        EditorOnly = 3,
      ParticuleE    35        MainCamera = 4,
      ParticuleE    36        Player = 5,
      ParticuleE    37        GameController = 6
      ParticuleE    38    };
      ParticuleE    39    
      ParticuleE    40    enum Layer
      ParticuleE    41    {
      ParticuleE    42        Default = 0,
      ParticuleE    43        TransparentFX = 1,
      ParticuleE    44        IgnoreRaycast = 2,
      ParticuleE    45        Water = 3,
      ParticuleE    46        UI = 4
      ParticuleE    47    };
      ParticuleE    48    
      ParticuleE    49    Vector2::Vector2() {
      ParticuleE    50        this->x = 0;
      ParticuleE    51        this->y = 0;
      ParticuleE    52    }
      ParticuleE    53    Vector2::Vector2(float x, float y) {
      ParticuleE    54        this->x = x;
      ParticuleE    55        this->y = y;
      ParticuleE    56    };
      ParticuleE    57    void Vector2::Set(float x, float y) {
      ParticuleE    58        this->x = x;
      ParticuleE    59        this->y = y;
      ParticuleE    60    };
      ParticuleE    61    void Vector2::Set(Vector2 vect) {
      ParticuleE    62        this->x = vect.x;
      ParticuleE    63        this->y = vect.y;
      ParticuleE    64    };
      ParticuleE    65    
      ParticuleE    66    bool Vector2::operator==(const Vector2& other) {
      ParticuleE    67        return this->x == other.x && this->y == other.y;
      ParticuleE    68    }
      ParticuleE    69    
      ParticuleE    70    bool Vector2::operator!=(const Vector2& other) {
      ParticuleE    71        return !(this->x == other.x && this->y == other.y);
      ParticuleE    72    }
      ParticuleE    73    
      ParticuleE    74    Vector2 Vector2::operator+(const Vector2& other) {
      ParticuleE    75        return Vector2(this->x + other.x, this->y + other.y);
      ParticuleE    76    }
      ParticuleE    77    
      ParticuleE    78    Vector2 Vector2::operator-(const Vector2& other) {
      ParticuleE    79        return Vector2(this->x - other.x, this->y - other.y);
      ParticuleE    80    }
      ParticuleE    81    
      ParticuleE    82    Vector2 Vector2::operator*(const Vector2& other) {
      ParticuleE    83        return Vector2(this->x * other.x, this->y * other.y);
      ParticuleE    84    }




SH SERIES C/C++ Compiler (Ver. 6.0C)                                                                 09-Nov-2021 18:28:35  PAGE    3


SCT OFFSET   CODE       C LABEL     INSTRUCTION OPERAND    COMMENT

      ParticuleE    85    
      ParticuleE    86    Vector2 Vector2::operator/(const Vector2& other) {
      ParticuleE    87        return Vector2(this->x / other.x, this->y / other.y);
      ParticuleE    88    }
      ParticuleE    89    
      ParticuleE    90    
      ParticuleE    91    
      ParticuleE    92    Object::Object(const char* name, const char* UUID) {
      ParticuleE    93        this->name = (unsigned char*)name;
      ParticuleE    94        this->ID = (unsigned char*)UUID;
      ParticuleE    95    };
      ParticuleE    96    
      ParticuleE    97    
      ParticuleE    98    unsigned char* Object::GetInstanceID() {
      ParticuleE    99        return ID;
      ParticuleE   100    };
      ParticuleE   101    unsigned char* Object::ToString() {
      ParticuleE   102        return name;
      ParticuleE   103    };
      ParticuleE   104    
      ParticuleE   105    
      ParticuleE   106    // Overload operator
      ParticuleE   107    bool Object::operator==(const Object& obj) {
      ParticuleE   108        return this->ID == obj.ID;
      ParticuleE   109    }
      ParticuleE   110    
      ParticuleE   111    bool Object::operator!=(const Object& obj) {
      ParticuleE   112        return this->ID != obj.ID;
      ParticuleE   113    }
      ParticuleE   114    
      ParticuleE   115    Component::Component(const char* name, GameObject* gameObject, const char* UUID) : Object(name, UUID)
      ParticuleE   116    {
      ParticuleE   117        this->gameObject = gameObject;
      ParticuleE   118    };
      ParticuleE   119    
      ParticuleE   120    Component::~Component() {
      ParticuleE   121        delete tag;
      ParticuleE   122    }
      ParticuleE   123    
      ParticuleE   124    
      ParticuleE   125    Transform::Transform(GameObject* gameObject, const char* UUID, const char* name) : Component(name, gameObj
                         +ect, UUID) {
      ParticuleE   126        childCount = 0;
      ParticuleE   127        //eulerAngles = new Vector2();
      ParticuleE   128        //forward = None
      ParticuleE   129        hasChanged = NULL;
      ParticuleE   130        hierarchyCapacity = NULL;
      ParticuleE   131        hierarchyCount = NULL;
      ParticuleE   132        //localEulerAngles = new Vector2();
      ParticuleE   133        localPosition = new Vector2();
      ParticuleE   134        //localRotation = NULL;
      ParticuleE   135        localScale = new Vector2(1, 1);
      ParticuleE   136        //localToWorldMatrix = NULL;
      ParticuleE   137        lossyScale = new Vector2(1, 1);
      ParticuleE   138        parent = NULL;
      ParticuleE   139        //children = []
      ParticuleE   140        position = new Vector2();




SH SERIES C/C++ Compiler (Ver. 6.0C)                                                                 09-Nov-2021 18:28:35  PAGE    4


SCT OFFSET   CODE       C LABEL     INSTRUCTION OPERAND    COMMENT

      ParticuleE   141        //self.right = None
      ParticuleE   142        root = NULL;
      ParticuleE   143        //rotation = NULL;
      ParticuleE   144        //self.up = None
      ParticuleE   145        //worldToLocalMatrix = NULL;
      ParticuleE   146        lastPosition = new Vector2();
      ParticuleE   147    };
      ParticuleE   148    
      ParticuleE   149    Transform::~Transform() {
      ParticuleE   150        //delete localRotation;
      ParticuleE   151        //delete localToWorldMatrix;
      ParticuleE   152        delete parent;
      ParticuleE   153        delete root;
      ParticuleE   154        //delete rotation;
      ParticuleE   155        //delete worldToLocalMatrix;
      ParticuleE   156    }
      ParticuleE   157    
      ParticuleE   158    void Transform::SetParent(Transform* transform) {
      ParticuleE   159        if (parent != NULL) {
      ParticuleE   160            parent->children.Remove(this);
      ParticuleE   161        }
      ParticuleE   162        transform->children.Add(this);
      ParticuleE   163        parent = transform;
      ParticuleE   164    }
      ParticuleE   165    
      ParticuleE   166    void Transform::Start() {
      ParticuleE   167        lastPosition->x = position->x;
      ParticuleE   168        lastPosition->y = position->y;
      ParticuleE   169    }
      ParticuleE   170    
      ParticuleE   171    void Transform::Update() {
      ParticuleE   172        childCount = children.Count;
      ParticuleE   173    
      ParticuleE   174        if (parent == NULL) {
      ParticuleE   175    
      ParticuleE   176            if (*position != *localPosition) {
      ParticuleE   177                if (*localPosition != *lastPosition) {
      ParticuleE   178                    position->x = localPosition->x;
      ParticuleE   179                    position->y = localPosition->y;
      ParticuleE   180                }
      ParticuleE   181            }
      ParticuleE   182            localPosition->x = position->x;
      ParticuleE   183            localPosition->y = position->y;
      ParticuleE   184        }
      ParticuleE   185        else
      ParticuleE   186        {
      ParticuleE   187            //return;
      ParticuleE   188            if ((*position != *lastPosition) && (*position == (*localPosition + *parent->position))) {
      ParticuleE   189                localPosition->Set(*localPosition + (*lastPosition - *position));
      ParticuleE   190            }
      ParticuleE   191            position->Set(*localPosition + *parent->position);
      ParticuleE   192    
      ParticuleE   193        }
      ParticuleE   194        lastPosition->x = position->x;
      ParticuleE   195        lastPosition->y = position->y;
      ParticuleE   196    }
      ParticuleE   197    




SH SERIES C/C++ Compiler (Ver. 6.0C)                                                                 09-Nov-2021 18:28:35  PAGE    5


SCT OFFSET   CODE       C LABEL     INSTRUCTION OPERAND    COMMENT

      ParticuleE   198    
      ParticuleE   199    Behaviour::Behaviour(const char* name, GameObject* gameObject, const char* UUID) : Component(name, gameObj
                         +ect, UUID) {
      ParticuleE   200        enabled = true;
      ParticuleE   201        isActiveAndEnabled = true;
      ParticuleE   202    };
      ParticuleE   203    
      ParticuleE   204    /*
      ParticuleE   205    enum ScaleMode
      ParticuleE   206    {
      ParticuleE   207        //https://docs.unity3d.com/ScriptReference/ScaleMode.html
      ParticuleE   208        StretchToFill,
      ParticuleE   209        ScaleAndCrop,
      ParticuleE   210        ScaleToFit,
      ParticuleE   211    };
      ParticuleE   212    class CallbackEventHandler{
      ParticuleE   213        //https://docs.unity3d.com/ScriptReference/UIElements.CallbackEventHandler.html
      ParticuleE   214    
      ParticuleE   215    };
      ParticuleE   216    
      ParticuleE   217    class Focusable : public CallbackEventHandler {
      ParticuleE   218        //https://docs.unity3d.com/ScriptReference/UIElements.Focusable.html
      ParticuleE   219    
      ParticuleE   220    };
      ParticuleE   221    
      ParticuleE   222    class VisualElement : public Focusable {
      ParticuleE   223        //https://docs.unity3d.com/ScriptReference/UIElements.VisualElement.html
      ParticuleE   224    
      ParticuleE   225    };
      ParticuleE   226    */
      ParticuleE   227    
      ParticuleE   228    
      ParticuleE   229    enum TextureDimension
      ParticuleE   230    {
      ParticuleE   231        Unknown,
      ParticuleE   232        None,
      ParticuleE   233        Any,
      ParticuleE   234        Tex2D,
      ParticuleE   235        Tex3D,
      ParticuleE   236        Cube,
      ParticuleE   237        Tex2DArray,
      ParticuleE   238        CubeArray
      ParticuleE   239    };
      ParticuleE   240    
      ParticuleE   241    enum FilterMode
      ParticuleE   242    {
      ParticuleE   243        Point,
      ParticuleE   244        Bilinear,
      ParticuleE   245        Trilinear
      ParticuleE   246    };
      ParticuleE   247    
      ParticuleE   248    Texture::Texture() : Object("None", NULL) {
      ParticuleE   249        textureData = "";
      ParticuleE   250        this->width = 0;
      ParticuleE   251        this->height = 0;
      ParticuleE   252    };
      ParticuleE   253    Texture::Texture(const char* name, int width, int height, const unsigned char* Data, const char* UUID) : O




SH SERIES C/C++ Compiler (Ver. 6.0C)                                                                 09-Nov-2021 18:28:35  PAGE    6


SCT OFFSET   CODE       C LABEL     INSTRUCTION OPERAND    COMMENT

                         +bject(name, UUID) {
      ParticuleE   254        textureData = (unsigned char*)Data;
      ParticuleE   255        this->width = width;
      ParticuleE   256        this->height = height;
      ParticuleE   257    };
      ParticuleE   258    
      ParticuleE   259    MonoBehaviour::MonoBehaviour(const char* name, GameObject* gameObject, const char* UUID) : Behaviour(name,
                         + gameObject, UUID) {
      ParticuleE   260        useGUILayout = true;
      ParticuleE   261    };
      ParticuleE   262    
      ParticuleE   263    
      ParticuleE   264    GameObject::GameObject(Scene* scene, const char* name, const char* UUID) : Object(name, UUID)
      ParticuleE   265    {
      ParticuleE   266        this->scene = scene;
      ParticuleE   267        this->transform = new Transform(this);
      ParticuleE   268        activeInHierarchy = true;
      ParticuleE   269        activeSelf = true;
      ParticuleE   270        isStatic = false;
      ParticuleE   271        layer = Default;
      ParticuleE   272        sceneCullingMask = NULL;
      ParticuleE   273        tag = Untagged;
      ParticuleE   274        //ListOfComponent.Add(transform);
      ParticuleE   275    };
      ParticuleE   276    
      ParticuleE   277    GameObject::~GameObject() {
      ParticuleE   278        delete transform;
      ParticuleE   279    }
      ParticuleE   280    
      ParticuleE   281    bool GameObject::IsActive() {
      ParticuleE   282        if (!activeSelf) {
      ParticuleE   283            activeInHierarchy = false;
      ParticuleE   284            return false;
      ParticuleE   285        }
      ParticuleE   286        if (transform->parent != NULL) {
      ParticuleE   287            if (!transform->parent->gameObject->activeInHierarchy || !transform->parent->gameObject->activeSel
                         +f) {
      ParticuleE   288                activeInHierarchy = false;
      ParticuleE   289                return false;
      ParticuleE   290            }
      ParticuleE   291        }
      ParticuleE   292        activeInHierarchy = true;
      ParticuleE   293        return true;
      ParticuleE   294    }
      ParticuleE   295    
      ParticuleE   296    void GameObject::Update() {
      ParticuleE   297        this->transform->Update();
      ParticuleE   298        if (!IsActive()) {
      ParticuleE   299            return;
      ParticuleE   300        }
      ParticuleE   301        for (int i = 0; i < ListOfComponent.Count; i++)
      ParticuleE   302        {
      ParticuleE   303            ListOfComponent[i]->Update();
      ParticuleE   304        }
      ParticuleE   305    };
      ParticuleE   306    
      ParticuleE   307    void GameObject::Start() {




SH SERIES C/C++ Compiler (Ver. 6.0C)                                                                 09-Nov-2021 18:28:35  PAGE    7


SCT OFFSET   CODE       C LABEL     INSTRUCTION OPERAND    COMMENT

      ParticuleE   308        this->transform->Start();
      ParticuleE   309        if (!IsActive()) {
      ParticuleE   310            return;
      ParticuleE   311        }
      ParticuleE   312        for (int i = 0; i < ListOfComponent.Count; i++)
      ParticuleE   313        {
      ParticuleE   314            ListOfComponent[i]->Start();
      ParticuleE   315        }
      ParticuleE   316    };
      ParticuleE   317    
      ParticuleE   318    void GameObject::AddComponent(Component* component) {
      ParticuleE   319        ListOfComponent.Add(component);
      ParticuleE   320    };
      ParticuleE   321    Component* GameObject::GetComponent(const char* name) {
      ParticuleE   322        for (int i = 0; i < ListOfComponent.Count; i++)
      ParticuleE   323        {
      ParticuleE   324            if (ListOfComponent[i]->name == (unsigned char*)name)
      ParticuleE   325                return ListOfComponent[i];
      ParticuleE   326        }
      ParticuleE   327        return NULL;
      ParticuleE   328    };
      ParticuleE   329    
      ParticuleE   330    
      ParticuleE   331    GameObject* GameObject::Find(unsigned char* name) {
      ParticuleE   332        return FindWithName(name, this);
      ParticuleE   333    };
      ParticuleE   334    
      ParticuleE   335    
      ParticuleE   336    void Scene::AddGameObject(GameObject* gObj) {
      ParticuleE   337        AllGameObject.Add(gObj);
      ParticuleE   338    };
      ParticuleE   339    
      ParticuleE   340    void Scene::Update() {
      ParticuleE   341        for (int i = 0; i < AllGameObject.Count; i++)
      ParticuleE   342        {
      ParticuleE   343            AllGameObject[i]->Update();
      ParticuleE   344        }
      ParticuleE   345    };
      ParticuleE   346    
      ParticuleE   347    void Scene::Start() {
      ParticuleE   348        for (int i = 0; i < AllGameObject.Count; i++)
      ParticuleE   349        {
      ParticuleE   350            AllGameObject[i]->Start();
      ParticuleE   351        }
      ParticuleE   352    };
      ParticuleE   353    
      ParticuleE   354    Camera::Camera(GameObject* gameObject, const char* UUID) : Behaviour("Camera", gameObject, UUID) {
      ParticuleE   355        gameObject->scene->AllCameras.Add(this);
      ParticuleE   356    }
      ParticuleE   357    
      ParticuleE   358    Image::Image(GameObject* gameObject, Texture* image, const char* UUID) : MonoBehaviour("Image", gameObject
                         +, UUID) {
      ParticuleE   359        this->image = image;
      ParticuleE   360    };
      ParticuleE   361    
      ParticuleE   362    void Image::Update() {
      ParticuleE   363        float posX = gameObject->transform->position->x;




SH SERIES C/C++ Compiler (Ver. 6.0C)                                                                 09-Nov-2021 18:28:35  PAGE    8


SCT OFFSET   CODE       C LABEL     INSTRUCTION OPERAND    COMMENT

      ParticuleE   364        float posY = gameObject->transform->position->y;
      ParticuleE   365        float camX = gameObject->scene->AllCameras[0]->gameObject->transform->position->x;
      ParticuleE   366        float camY = gameObject->scene->AllCameras[0]->gameObject->transform->position->y;
      ParticuleE   367        if (posX - camX + image->height > 0 && posX - camX < 128 && posY - camY + image->height>0 && posY - ca
                         +mY < 64)
      ParticuleE   368            ML_bmp_or_cl((const unsigned char*)image->textureData, (int)(posX - camX), (int)(posY - camY), ima
                         +ge->width, image->height);
      ParticuleE   369    };
      ParticuleE   370    
      ParticuleE   371    Sprite::Sprite(GameObject* gameObject, Texture* image, const char* UUID) : MonoBehaviour("Sprite", gameObj
                         +ect, UUID) {
      ParticuleE   372        this->image = image;
      ParticuleE   373    };
      ParticuleE   374    
      ParticuleE   375    void Sprite::Update() {
      ParticuleE   376        float posX = gameObject->transform->position->x;
      ParticuleE   377        float posY = gameObject->transform->position->y;
      ParticuleE   378        float camX = gameObject->scene->AllCameras[0]->gameObject->transform->position->x;
      ParticuleE   379        float camY = gameObject->scene->AllCameras[0]->gameObject->transform->position->y;
      ParticuleE   380        if (posX - camX + image->height > 0 && posX - camX < 128 && posY - camY + image->height>0 && posY - ca
                         +mY < 64)
      ParticuleE   381            ML_bmp_or_cl((const unsigned char*)image->textureData, (int)(posX - camX), (int)(posY - camY), ima
                         +ge->width, image->height);
      ParticuleE   382    };
      ParticuleE   383    
      ParticuleE   384    
      ParticuleE   385    Rigidbody::Rigidbody(GameObject* gameObject, float Mass, bool UseGravity, bool IsKinematic, const char* UU
                         +ID) : MonoBehaviour("Rigidbody", gameObject, UUID) {
      ParticuleE   386        this->Mass = Mass;
      ParticuleE   387        this->UseGravity = UseGravity;
      ParticuleE   388        this->IsKinematic = IsKinematic;
      ParticuleE   389        this->velocity = new Vector2();
      ParticuleE   390    
      ParticuleE   391    };
      ParticuleE   392    
      ParticuleE   393    Rigidbody::~Rigidbody() {
      ParticuleE   394        delete velocity;
      ParticuleE   395    }
      ParticuleE   396    
      ParticuleE   397    void Rigidbody::Start() {
      ParticuleE   398        this->velocity->Set(0, 0);
      ParticuleE   399    }
      ParticuleE   400    
      ParticuleE   401    
      ParticuleE   402    Text::Text(GameObject* gameObject, unsigned char* text, const char* UUID) : MonoBehaviour("Text", gameObje
                         +ct, UUID) {
      ParticuleE   403        this->text = text;
      ParticuleE   404    
      ParticuleE   405    };
      ParticuleE   406    
      ParticuleE   407    void Text::Update() {
      ParticuleE   408        float posX = gameObject->transform->position->x;
      ParticuleE   409        float posY = gameObject->transform->position->y;
      ParticuleE   410        float camX = gameObject->scene->AllCameras[0]->gameObject->transform->position->x;
      ParticuleE   411        float camY = gameObject->scene->AllCameras[0]->gameObject->transform->position->y;
      ParticuleE   412        PrintMini((int)(posX - camX), (int)(posY - camY), (unsigned char*)this->text, MINI_OVER);
      ParticuleE   413    }




SH SERIES C/C++ Compiler (Ver. 6.0C)                                                                 09-Nov-2021 18:28:35  PAGE    9


SCT OFFSET   CODE       C LABEL     INSTRUCTION OPERAND    COMMENT

      ParticuleE   414    
      ParticuleE   415    Tilemap::Tilemap(GameObject* gameObject, Vector2* sizeTilemap, Vector2* sizeCase, const char* UUID) : Mono
                         +Behaviour("Tilemap", gameObject, UUID) {
      ParticuleE   416        this->sizeTilemap = sizeTilemap;
      ParticuleE   417        this->sizeCase = sizeCase;
      ParticuleE   418    };
      ParticuleE   419    
      ParticuleE   420    Tilemap::~Tilemap() {
      ParticuleE   421        delete[] images;
      ParticuleE   422        delete[] Datas;
      ParticuleE   423    }
      ParticuleE   424    
      ParticuleE   425    void Tilemap::Update() {
      ParticuleE   426        float posX = gameObject->transform->position->x;
      ParticuleE   427        float posY = gameObject->transform->position->y;
      ParticuleE   428        float camX = gameObject->scene->AllCameras[0]->gameObject->transform->position->x;
      ParticuleE   429        float camY = gameObject->scene->AllCameras[0]->gameObject->transform->position->y;
      ParticuleE   430        for (int h = 0; h < sizeTilemap->y; h++) {
      ParticuleE   431            int x = 0;
      ParticuleE   432            for (int w = h * sizeTilemap->x; w < (h + 1) * sizeTilemap->x; w++) {
      ParticuleE   433                int tempx = (int)((posX - camX) + x * sizeCase->x);
      ParticuleE   434                int tempy = (int)((posY - camY) + h * sizeCase->y);
      ParticuleE   435                if (tempx + sizeCase->x > 0 && tempx < 128 && tempy + sizeCase->y>0 && tempy < 64)
      ParticuleE   436                    ML_bmp_or_cl((const unsigned char*)(images[Datas[w]])->textureData, tempx, tempy, (images[
                         +Datas[w]])->width, (images[Datas[w]])->height);
      ParticuleE   437                x++;
      ParticuleE   438            }
      ParticuleE   439        }
      ParticuleE   440    
      ParticuleE   441    };
      ParticuleE   442    
      ParticuleE   443    
      ParticuleE   444    
      ParticuleE   445    
      ParticuleE   446    void SceneManager::LoadScene(int index) {
      ParticuleE   447        AllSceneLoaded.Clear();
      ParticuleE   448        AllSceneLoaded.Add(GetSceneInBuild(index));
      ParticuleE   449    };
      ParticuleE   450    void SceneManager::LoadScene(unsigned char* name) {
      ParticuleE   451        AllSceneLoaded.Clear();
      ParticuleE   452        AllSceneLoaded.Add(GetSceneInBuild(name));
      ParticuleE   453    };
      ParticuleE   454    
      ParticuleE   455    GameObject* SceneManager::FindWithName(unsigned char* name) {
      ParticuleE   456        for (int i = 0; i < AllSceneLoaded.Count; i++)
      ParticuleE   457        {
      ParticuleE   458            for (int o = 0; o < AllSceneLoaded[i]->AllGameObject.Count; o++) {
      ParticuleE   459                if (AllSceneLoaded[i]->AllGameObject[o]->name == name) {
      ParticuleE   460                    return AllSceneLoaded[i]->AllGameObject[o];
      ParticuleE   461                }
      ParticuleE   462            }
      ParticuleE   463        }
      ParticuleE   464        return NULL;
      ParticuleE   465    }
      ParticuleE   466    
      ParticuleE   467    
      ParticuleE   468    void SceneManager::UpdateScene() {




SH SERIES C/C++ Compiler (Ver. 6.0C)                                                                 09-Nov-2021 18:28:35  PAGE   10


SCT OFFSET   CODE       C LABEL     INSTRUCTION OPERAND    COMMENT

      ParticuleE   469        for (int i = 0; i < AllSceneLoaded.Count; i++)
      ParticuleE   470        {
      ParticuleE   471            AllSceneLoaded[i]->Update();
      ParticuleE   472        }
      ParticuleE   473    };
      ParticuleE   474    
      ParticuleE   475    void SceneManager::StartScene() {
      ParticuleE   476        for (int i = 0; i < AllSceneLoaded.Count; i++)
      ParticuleE   477        {
      ParticuleE   478            AllSceneLoaded[i]->Start();
      ParticuleE   479        }
      ParticuleE   480    }
      ParticuleE   481    
      ParticuleE   482    Scene* SceneManager::GetSceneInBuild(unsigned char* name) {
      ParticuleE   483        unsigned char* AllName[] = { "Main" };
      ParticuleE   484        int count = 0;
      ParticuleE   485        for (int i = 0; i < count; i++)
      ParticuleE   486        {
      ParticuleE   487            if (name == AllName[i]) {
      ParticuleE   488                return GetSceneInBuild(i);
      ParticuleE   489            }
      ParticuleE   490        }
      ParticuleE   491        return NULL;
      ParticuleE   492    }
      ParticuleE   493    
      ParticuleE   494    
      ParticuleE   495    void LoadScene(Scene* scene, int nb) {
    00000028              _LoadScene__FP5Scenei:           ; function: LoadScene(Scene *, int)
                                                           ; frame size=8
    00000028 4F22                   STS.L       PR,@-R15
    0000002A 7FFC                   ADD         #-4,R15
      ParticuleE   496        scene->sceneManager->LoadScene(nb);
    0000002C D39C                   MOV.L       L1642+8,R3 ; _LoadScene__12SceneManagerFi
    0000002E 2F42                   MOV.L       R4,@R15
    00000030 430B                   JSR         @R3
    00000032 5443                   MOV.L       @(12,R4),R4
      ParticuleE   497        scene->sceneManager->StartScene();
    00000034 64F2                   MOV.L       @R15,R4
    00000036 5443                   MOV.L       @(12,R4),R4
    00000038 D39A                   MOV.L       L1642+12,R3; _StartScene__12SceneManagerFv
    0000003A 7F04                   ADD         #4,R15
    0000003C 432B                   JMP         @R3
    0000003E 4F26                   LDS.L       @R15+,PR
      ParticuleE   498    };
      ParticuleE   499    
      ParticuleE   500    GameObject* FindWithName(unsigned char* name, GameObject* gameObject) {
    00000040              _FindWithName__FPUcP10GameObject:
                                                           ; function: FindWithName(unsigned char *, GameObject *)
                                                           ; frame size=8
      ParticuleE   501        return gameObject->scene->sceneManager->FindWithName(name);
    00000040 D399                   MOV.L       L1642+16,R3; _FindWithName__12SceneManagerFPUc
    00000042 7FF8                   ADD         #-8,R15
    00000044 1F41                   MOV.L       R4,@(4,R15)
    00000046 2F52                   MOV.L       R5,@R15
    00000048 55F1                   MOV.L       @(4,R15),R5
    0000004A 64F2                   MOV.L       @R15,R4
    0000004C 544A                   MOV.L       @(40,R4),R4




SH SERIES C/C++ Compiler (Ver. 6.0C)                                                                 09-Nov-2021 18:28:35  PAGE   11


SCT OFFSET   CODE       C LABEL     INSTRUCTION OPERAND    COMMENT

    0000004E 5443                   MOV.L       @(12,R4),R4
    00000050 432B                   JMP         @R3
    00000052 7F08                   ADD         #8,R15
    00000054              ___ct__7Vector2Fv:               ; function: Vector2::Vector2()
                                                           ; frame size=8
    00000054 4F22                   STS.L       PR,@-R15
    00000056 6343                   MOV         R4,R3
    00000058 7FFC                   ADD         #-4,R15
    0000005A 2338                   TST         R3,R3
    0000005C 8F06                   BF/S        L1311
    0000005E 2F42                   MOV.L       R4,@R15
    00000060 D392                   MOV.L       L1642+20,R3; ___nw__FUl
    00000062 430B                   JSR         @R3
    00000064 E408                   MOV         #8,R4
    00000066 2008                   TST         R0,R0
    00000068 8D05                   BT/S        L1310
    0000006A 2F02                   MOV.L       R0,@R15
    0000006C              L1311:                            
    0000006C 62F2                   MOV.L       @R15,R2
    0000006E E300                   MOV         #0,R3
    00000070 2232                   MOV.L       R3,@R2
    00000072 62F2                   MOV.L       @R15,R2
    00000074 1231                   MOV.L       R3,@(4,R2)
    00000076              L1310:                            
    00000076 60F2                   MOV.L       @R15,R0
    00000078 7F04                   ADD         #4,R15
    0000007A 4F26                   LDS.L       @R15+,PR
    0000007C 000B                   RTS
    0000007E 0009                   NOP
    00000080              ___ct__7Vector2FfT1:             ; function: Vector2::Vector2(float, float)
                                                           ; frame size=16
    00000080 4F22                   STS.L       PR,@-R15
    00000082 7FF4                   ADD         #-12,R15
    00000084 2F42                   MOV.L       R4,@R15
    00000086 1F52                   MOV.L       R5,@(8,R15)
    00000088 1F61                   MOV.L       R6,@(4,R15)
    0000008A 63F2                   MOV.L       @R15,R3
    0000008C 2338                   TST         R3,R3
    0000008E 8B05                   BF          L1314
    00000090 D386                   MOV.L       L1642+20,R3; ___nw__FUl
    00000092 430B                   JSR         @R3
    00000094 E408                   MOV         #8,R4
    00000096 2008                   TST         R0,R0
    00000098 8D06                   BT/S        L1313
    0000009A 2F02                   MOV.L       R0,@R15
    0000009C              L1314:                            
    0000009C 62F2                   MOV.L       @R15,R2
    0000009E 53F2                   MOV.L       @(8,R15),R3
    000000A0 2232                   MOV.L       R3,@R2
    000000A2 62F2                   MOV.L       @R15,R2
    000000A4 53F1                   MOV.L       @(4,R15),R3
    000000A6 1231                   MOV.L       R3,@(4,R2)
    000000A8              L1313:                            
    000000A8 60F2                   MOV.L       @R15,R0
    000000AA 7F0C                   ADD         #12,R15
    000000AC 4F26                   LDS.L       @R15+,PR
    000000AE 000B                   RTS




SH SERIES C/C++ Compiler (Ver. 6.0C)                                                                 09-Nov-2021 18:28:35  PAGE   12


SCT OFFSET   CODE       C LABEL     INSTRUCTION OPERAND    COMMENT

    000000B0 0009                   NOP
    000000B2              _Set__7Vector2FfT1:              ; function: Vector2::Set(float, float)
                                                           ; frame size=0
    000000B2 2452                   MOV.L       R5,@R4
    000000B4 000B                   RTS
    000000B6 1461                   MOV.L       R6,@(4,R4)
    000000B8              _Set__7Vector2F7Vector2:         ; function: Vector2::Set(Vector2)
                                                           ; frame size=0
    000000B8 65F3                   MOV         R15,R5
    000000BA 6352                   MOV.L       @R5,R3
    000000BC 2432                   MOV.L       R3,@R4
    000000BE 5251                   MOV.L       @(4,R5),R2
    000000C0 000B                   RTS
    000000C2 1421                   MOV.L       R2,@(4,R4)
    000000C4              ___eq__7Vector2FRC7Vector2:      ; function: Vector2::operator ==(const Vector2 &)
                                                           ; frame size=4
                                                           ; used runtime library name:
                                                           ; __nes
    000000C4 4F22                   STS.L       PR,@-R15
    000000C6 6142                   MOV.L       @R4,R1
    000000C8 D379                   MOV.L       L1642+24,R3; __nes
    000000CA 430B                   JSR         @R3
    000000CC 6052                   MOV.L       @R5,R0
    000000CE 8800                   CMP/EQ      #0,R0
    000000D0 8B08                   BF          L1318
    000000D2 5141                   MOV.L       @(4,R4),R1
    000000D4 D276                   MOV.L       L1642+24,R2; __nes
    000000D6 420B                   JSR         @R2
    000000D8 5051                   MOV.L       @(4,R5),R0
    000000DA 8800                   CMP/EQ      #0,R0
    000000DC 8B02                   BF          L1318
    000000DE 4F26                   LDS.L       @R15+,PR
    000000E0 000B                   RTS
    000000E2 E001                   MOV         #1,R0
    000000E4              L1318:                            
    000000E4 E000                   MOV         #0,R0
    000000E6              L1320:                            
    000000E6 4F26                   LDS.L       @R15+,PR
    000000E8 000B                   RTS
    000000EA 0009                   NOP
    000000EC              ___ne__7Vector2FRC7Vector2:      ; function: Vector2::operator !=(const Vector2 &)
                                                           ; frame size=4
                                                           ; used runtime library name:
                                                           ; __nes
    000000EC 4F22                   STS.L       PR,@-R15
    000000EE 6142                   MOV.L       @R4,R1
    000000F0 D36F                   MOV.L       L1642+24,R3; __nes
    000000F2 430B                   JSR         @R3
    000000F4 6052                   MOV.L       @R5,R0
    000000F6 8800                   CMP/EQ      #0,R0
    000000F8 8B08                   BF          L1321
    000000FA 5141                   MOV.L       @(4,R4),R1
    000000FC D26C                   MOV.L       L1642+24,R2; __nes
    000000FE 420B                   JSR         @R2
    00000100 5051                   MOV.L       @(4,R5),R0
    00000102 8800                   CMP/EQ      #0,R0
    00000104 8B02                   BF          L1321




SH SERIES C/C++ Compiler (Ver. 6.0C)                                                                 09-Nov-2021 18:28:35  PAGE   13


SCT OFFSET   CODE       C LABEL     INSTRUCTION OPERAND    COMMENT

    00000106 4F26                   LDS.L       @R15+,PR
    00000108 000B                   RTS
    0000010A E000                   MOV         #0,R0
    0000010C              L1321:                            
    0000010C E001                   MOV         #1,R0
    0000010E              L1323:                            
    0000010E 4F26                   LDS.L       @R15+,PR
    00000110 000B                   RTS
    00000112 0009                   NOP
    00000114              ___pl__7Vector2FRC7Vector2:      ; function: Vector2::operator +(const Vector2 &)
                                                           ; frame size=20
                                                           ; used runtime library name:
                                                           ; __adds, __quick_evn_mvn
    00000114 4F22                   STS.L       PR,@-R15
    00000116 6053                   MOV         R5,R0
    00000118 D366                   MOV.L       L1642+28,R3; __adds
    0000011A 7FF0                   ADD         #-16,R15
    0000011C 1F41                   MOV.L       R4,@(4,R15)
    0000011E 2F52                   MOV.L       R5,@R15
    00000120 51F1                   MOV.L       @(4,R15),R1
    00000122 5111                   MOV.L       @(4,R1),R1
    00000124 430B                   JSR         @R3
    00000126 5001                   MOV.L       @(4,R0),R0
    00000128 51F1                   MOV.L       @(4,R15),R1
    0000012A 6603                   MOV         R0,R6
    0000012C D361                   MOV.L       L1642+28,R3; __adds
    0000012E 60F2                   MOV.L       @R15,R0
    00000130 6112                   MOV.L       @R1,R1
    00000132 430B                   JSR         @R3
    00000134 6002                   MOV.L       @R0,R0
    00000136 6503                   MOV         R0,R5
    00000138 64F3                   MOV         R15,R4
    0000013A BFA1                   BSR         ___ct__7Vector2FfT1
    0000013C 7408                   ADD         #8,R4
    0000013E 62F3                   MOV         R15,R2
    00000140 D35D                   MOV.L       L1642+32,R3; __quick_evn_mvn
    00000142 7208                   ADD         #8,R2
    00000144 51F5                   MOV.L       @(20,R15),R1
    00000146 430B                   JSR         @R3
    00000148 E008                   MOV         #8,R0
    0000014A 7F10                   ADD         #16,R15
    0000014C 4F26                   LDS.L       @R15+,PR
    0000014E 000B                   RTS
    00000150 0009                   NOP
    00000152              ___mi__7Vector2FRC7Vector2:      ; function: Vector2::operator -(const Vector2 &)
                                                           ; frame size=20
                                                           ; used runtime library name:
                                                           ; __subs, __quick_evn_mvn
    00000152 6053                   MOV         R5,R0
    00000154 D359                   MOV.L       L1642+36,R3; __subs
    00000156 4F22                   STS.L       PR,@-R15
    00000158 7FF0                   ADD         #-16,R15
    0000015A 1F41                   MOV.L       R4,@(4,R15)
    0000015C 2F52                   MOV.L       R5,@R15
    0000015E 51F1                   MOV.L       @(4,R15),R1
    00000160 5111                   MOV.L       @(4,R1),R1
    00000162 430B                   JSR         @R3




SH SERIES C/C++ Compiler (Ver. 6.0C)                                                                 09-Nov-2021 18:28:35  PAGE   14


SCT OFFSET   CODE       C LABEL     INSTRUCTION OPERAND    COMMENT

    00000164 5001                   MOV.L       @(4,R0),R0
    00000166 6603                   MOV         R0,R6
    00000168 51F1                   MOV.L       @(4,R15),R1
    0000016A 60F2                   MOV.L       @R15,R0
    0000016C 6112                   MOV.L       @R1,R1
    0000016E D353                   MOV.L       L1642+36,R3; __subs
    00000170 430B                   JSR         @R3
    00000172 6002                   MOV.L       @R0,R0
    00000174 6503                   MOV         R0,R5
    00000176 64F3                   MOV         R15,R4
    00000178 BF82                   BSR         ___ct__7Vector2FfT1
    0000017A 7408                   ADD         #8,R4
    0000017C 51F5                   MOV.L       @(20,R15),R1
    0000017E 62F3                   MOV         R15,R2
    00000180 D34D                   MOV.L       L1642+32,R3; __quick_evn_mvn
    00000182 7208                   ADD         #8,R2
    00000184 430B                   JSR         @R3
    00000186 E008                   MOV         #8,R0
    00000188 7F10                   ADD         #16,R15
    0000018A 4F26                   LDS.L       @R15+,PR
    0000018C 000B                   RTS
    0000018E 0009                   NOP
    00000190              ___ml__7Vector2FRC7Vector2:      ; function: Vector2::operator *(const Vector2 &)
                                                           ; frame size=20
                                                           ; used runtime library name:
                                                           ; __muls, __quick_evn_mvn
    00000190 4F22                   STS.L       PR,@-R15
    00000192 6053                   MOV         R5,R0
    00000194 D34A                   MOV.L       L1642+40,R3; __muls
    00000196 7FF0                   ADD         #-16,R15
    00000198 1F41                   MOV.L       R4,@(4,R15)
    0000019A 2F52                   MOV.L       R5,@R15
    0000019C 51F1                   MOV.L       @(4,R15),R1
    0000019E 5111                   MOV.L       @(4,R1),R1
    000001A0 430B                   JSR         @R3
    000001A2 5001                   MOV.L       @(4,R0),R0
    000001A4 51F1                   MOV.L       @(4,R15),R1
    000001A6 6603                   MOV         R0,R6
    000001A8 D345                   MOV.L       L1642+40,R3; __muls
    000001AA 60F2                   MOV.L       @R15,R0
    000001AC 6112                   MOV.L       @R1,R1
    000001AE 430B                   JSR         @R3
    000001B0 6002                   MOV.L       @R0,R0
    000001B2 6503                   MOV         R0,R5
    000001B4 64F3                   MOV         R15,R4
    000001B6 BF63                   BSR         ___ct__7Vector2FfT1
    000001B8 7408                   ADD         #8,R4
    000001BA 62F3                   MOV         R15,R2
    000001BC D33E                   MOV.L       L1642+32,R3; __quick_evn_mvn
    000001BE 7208                   ADD         #8,R2
    000001C0 51F5                   MOV.L       @(20,R15),R1
    000001C2 430B                   JSR         @R3
    000001C4 E008                   MOV         #8,R0
    000001C6 7F10                   ADD         #16,R15
    000001C8 4F26                   LDS.L       @R15+,PR
    000001CA 000B                   RTS
    000001CC 0009                   NOP




SH SERIES C/C++ Compiler (Ver. 6.0C)                                                                 09-Nov-2021 18:28:35  PAGE   15


SCT OFFSET   CODE       C LABEL     INSTRUCTION OPERAND    COMMENT

    000001CE              ___dv__7Vector2FRC7Vector2:      ; function: Vector2::operator /(const Vector2 &)
                                                           ; frame size=20
                                                           ; used runtime library name:
                                                           ; __divs, __quick_evn_mvn
    000001CE 6053                   MOV         R5,R0
    000001D0 D33C                   MOV.L       L1642+44,R3; __divs
    000001D2 4F22                   STS.L       PR,@-R15
    000001D4 7FF0                   ADD         #-16,R15
    000001D6 1F41                   MOV.L       R4,@(4,R15)
    000001D8 2F52                   MOV.L       R5,@R15
    000001DA 51F1                   MOV.L       @(4,R15),R1
    000001DC 5111                   MOV.L       @(4,R1),R1
    000001DE 430B                   JSR         @R3
    000001E0 5001                   MOV.L       @(4,R0),R0
    000001E2 6603                   MOV         R0,R6
    000001E4 51F1                   MOV.L       @(4,R15),R1
    000001E6 60F2                   MOV.L       @R15,R0
    000001E8 6112                   MOV.L       @R1,R1
    000001EA D336                   MOV.L       L1642+44,R3; __divs
    000001EC 430B                   JSR         @R3
    000001EE 6002                   MOV.L       @R0,R0
    000001F0 6503                   MOV         R0,R5
    000001F2 64F3                   MOV         R15,R4
    000001F4 BF44                   BSR         ___ct__7Vector2FfT1
    000001F6 7408                   ADD         #8,R4
    000001F8 51F5                   MOV.L       @(20,R15),R1
    000001FA 62F3                   MOV         R15,R2
    000001FC D32E                   MOV.L       L1642+32,R3; __quick_evn_mvn
    000001FE 7208                   ADD         #8,R2
    00000200 430B                   JSR         @R3
    00000202 E008                   MOV         #8,R0
    00000204 7F10                   ADD         #16,R15
    00000206 4F26                   LDS.L       @R15+,PR
    00000208 000B                   RTS
    0000020A 0009                   NOP
    0000020C              ___ct__6ObjectFPCcT1:            ; function: Object::Object(const char *, const char *)
                                                           ; frame size=16
    0000020C 4F22                   STS.L       PR,@-R15
    0000020E 7FF4                   ADD         #-12,R15
    00000210 2F42                   MOV.L       R4,@R15
    00000212 1F52                   MOV.L       R5,@(8,R15)
    00000214 1F61                   MOV.L       R6,@(4,R15)
    00000216 63F2                   MOV.L       @R15,R3
    00000218 2338                   TST         R3,R3
    0000021A 8B05                   BF          L1329
    0000021C D323                   MOV.L       L1642+20,R3; ___nw__FUl
    0000021E 430B                   JSR         @R3
    00000220 E40C                   MOV         #12,R4
    00000222 2008                   TST         R0,R0
    00000224 8D09                   BT/S        L1328
    00000226 2F02                   MOV.L       R0,@R15
    00000228              L1329:                            
    00000228 62F2                   MOV.L       @R15,R2
    0000022A D327                   MOV.L       L1642+48,R3; __$__vtbl__6Object
    0000022C 1232                   MOV.L       R3,@(8,R2)
    0000022E 62F2                   MOV.L       @R15,R2
    00000230 53F2                   MOV.L       @(8,R15),R3




SH SERIES C/C++ Compiler (Ver. 6.0C)                                                                 09-Nov-2021 18:28:35  PAGE   16


SCT OFFSET   CODE       C LABEL     INSTRUCTION OPERAND    COMMENT

    00000232 2232                   MOV.L       R3,@R2
    00000234 62F2                   MOV.L       @R15,R2
    00000236 53F1                   MOV.L       @(4,R15),R3
    00000238 1231                   MOV.L       R3,@(4,R2)
    0000023A              L1328:                            
    0000023A 60F2                   MOV.L       @R15,R0
    0000023C 7F0C                   ADD         #12,R15
    0000023E 4F26                   LDS.L       @R15+,PR
    00000240 000B                   RTS
    00000242 0009                   NOP
      ParticuleE   502    };
    00000244              __$__dt__6ObjectFv:              ; function: Object::~Object()
                                                           ; frame size=4
    00000244 2FE6                   MOV.L       R14,@-R15
    00000246 6E43                   MOV         R4,R14
    00000248 2EE8                   TST         R14,R14
    0000024A 8908                   BT          L1333
    0000024C D21E                   MOV.L       L1642+48,R2; __$__vtbl__6Object
    0000024E E301                   MOV         #1,R3
    00000250 1E22                   MOV.L       R2,@(8,R14)
    00000252 2538                   TST         R3,R5
    00000254 8903                   BT          L1333
    00000256 64E3                   MOV         R14,R4
    00000258 D11C                   MOV.L       L1642+52,R1; ___dl__FPv
    0000025A 412B                   JMP         @R1
    0000025C 6EF6                   MOV.L       @R15+,R14
    0000025E              L1333:                            
    0000025E 000B                   RTS
    00000260 6EF6                   MOV.L       @R15+,R14
    00000262              _GetInstanceID__6ObjectFv:       ; function: Object::GetInstanceID()
                                                           ; frame size=0
    00000262 000B                   RTS
    00000264 5041                   MOV.L       @(4,R4),R0
    00000266              _ToString__6ObjectFv:            ; function: Object::ToString()
                                                           ; frame size=0
    00000266 000B                   RTS
    00000268 6042                   MOV.L       @R4,R0
    0000026A              __$Destroy__6ObjectFv:           ; function: Object::Destroy()
                                                           ; frame size=0
    0000026A 000B                   RTS
    0000026C 0009                   NOP
    0000026E              __$DestroyImmediate__6ObjectFv:  ; function: Object::DestroyImmediate()
                                                           ; frame size=0
    0000026E 000B                   RTS
    00000270 0009                   NOP
    00000272              __$DontDestroyOnLoad__6ObjectFv: ; function: Object::DontDestroyOnLoad()
                                                           ; frame size=0
    00000272 000B                   RTS
    00000274 0009                   NOP
    00000276              __$FindObjectOfType__6ObjectFv:  ; function: Object::FindObjectOfType()
                                                           ; frame size=0
    00000276 000B                   RTS
    00000278 0009                   NOP
    0000027A              __$FindObjectsOfType__6ObjectFv: ; function: Object::FindObjectsOfType()
                                                           ; frame size=0
    0000027A 000B                   RTS
    0000027C 0009                   NOP




SH SERIES C/C++ Compiler (Ver. 6.0C)                                                                 09-Nov-2021 18:28:35  PAGE   17


SCT OFFSET   CODE       C LABEL     INSTRUCTION OPERAND    COMMENT

    0000027E              __$Instantiate__6ObjectFv:       ; function: Object::Instantiate()
                                                           ; frame size=0
    0000027E 000B                   RTS
    00000280 0009                   NOP
    00000282              ___eq__6ObjectFRC6Object:        ; function: Object::operator ==(const Object &)
                                                           ; frame size=0
    00000282 5351                   MOV.L       @(4,R5),R3
    00000284 5241                   MOV.L       @(4,R4),R2
    00000286 3230                   CMP/EQ      R3,R2
    00000288 000B                   RTS
    0000028A 0029                   MOVT        R0
    0000028C              ___ne__6ObjectFRC6Object:        ; function: Object::operator !=(const Object &)
                                                           ; frame size=0
    0000028C 5151                   MOV.L       @(4,R5),R1
    0000028E 5041                   MOV.L       @(4,R4),R0
    00000290 3010                   CMP/EQ      R1,R0
    00000292 0029                   MOVT        R0
    00000294 000B                   RTS
    00000296 CA01                   XOR         #1,R0
    00000298              L1642:                            
    00000298 <00000000>             .DATA.L     _strlen
    0000029C <00000000>             .DATA.L     __modls
    000002A0 <00000000>             .DATA.L     _LoadScene__12SceneManagerFi
    000002A4 <00000000>             .DATA.L     _StartScene__12SceneManagerFv
    000002A8 <00000000>             .DATA.L     _FindWithName__12SceneManagerFPUc
    000002AC <00000000>             .DATA.L     ___nw__FUl
    000002B0 <00000000>             .DATA.L     __nes
    000002B4 <00000000>             .DATA.L     __adds
    000002B8 <00000000>             .DATA.L     __quick_evn_mvn
    000002BC <00000000>             .DATA.L     __subs
    000002C0 <00000000>             .DATA.L     __muls
    000002C4 <00000000>             .DATA.L     __divs
    000002C8 <00000000>             .DATA.L     __$__vtbl__6Object
    000002CC <00000000>             .DATA.L     ___dl__FPv
    000002D0              ___ct__9ComponentFPCcP10GameObjectT1:
                                                           ; function: Component::Component(const char *, GameObject *, const char *
                        +                                  )
                                                           ; frame size=20
    000002D0 4F22                   STS.L       PR,@-R15
    000002D2 7FF0                   ADD         #-16,R15
    000002D4 2F42                   MOV.L       R4,@R15
    000002D6 1F52                   MOV.L       R5,@(8,R15)
    000002D8 1F61                   MOV.L       R6,@(4,R15)
    000002DA 1F73                   MOV.L       R7,@(12,R15)
    000002DC 63F2                   MOV.L       @R15,R3
    000002DE 2338                   TST         R3,R3
    000002E0 8B05                   BF          L1345
    000002E2 D3AE                   MOV.L       L1643,R3   ; ___nw__FUl
    000002E4 430B                   JSR         @R3
    000002E6 E418                   MOV         #24,R4
    000002E8 2008                   TST         R0,R0
    000002EA 8D0A                   BT/S        L1344
    000002EC 2F02                   MOV.L       R0,@R15
    000002EE              L1345:                            
    000002EE 56F3                   MOV.L       @(12,R15),R6
    000002F0 55F2                   MOV.L       @(8,R15),R5
    000002F2 BF8B                   BSR         ___ct__6ObjectFPCcT1




SH SERIES C/C++ Compiler (Ver. 6.0C)                                                                 09-Nov-2021 18:28:35  PAGE   18


SCT OFFSET   CODE       C LABEL     INSTRUCTION OPERAND    COMMENT

    000002F4 64F2                   MOV.L       @R15,R4
    000002F6 62F2                   MOV.L       @R15,R2
    000002F8 D3A9                   MOV.L       L1643+4,R3 ; ___vtbl__9Component
    000002FA 1232                   MOV.L       R3,@(8,R2)
    000002FC 62F2                   MOV.L       @R15,R2
    000002FE 53F1                   MOV.L       @(4,R15),R3
    00000300 1234                   MOV.L       R3,@(16,R2)
    00000302              L1344:                            
    00000302 60F2                   MOV.L       @R15,R0
    00000304 7F10                   ADD         #16,R15
    00000306 4F26                   LDS.L       @R15+,PR
    00000308 000B                   RTS
    0000030A 0009                   NOP
    0000030C              ___dt__9ComponentFv:             ; function: Component::~Component()
                                                           ; frame size=12
    0000030C 2FE6                   MOV.L       R14,@-R15
    0000030E 6E43                   MOV         R4,R14
    00000310 4F22                   STS.L       PR,@-R15
    00000312 2EE8                   TST         R14,R14
    00000314 7FFC                   ADD         #-4,R15
    00000316 8D10                   BT/S        L1349
    00000318 2F52                   MOV.L       R5,@R15
    0000031A D2A1                   MOV.L       L1643+4,R2 ; ___vtbl__9Component
    0000031C D3A1                   MOV.L       L1643+8,R3 ; ___dl__FPv
    0000031E 1E22                   MOV.L       R2,@(8,R14)
    00000320 430B                   JSR         @R3
    00000322 54E3                   MOV.L       @(12,R14),R4
    00000324 D2A0                   MOV.L       L1643+12,R2; __$__vtbl__6Object
    00000326 1E22                   MOV.L       R2,@(8,R14)
    00000328 60F2                   MOV.L       @R15,R0
    0000032A C801                   TST         #1,R0
    0000032C 8905                   BT          L1349
    0000032E 64E3                   MOV         R14,R4
    00000330 D29C                   MOV.L       L1643+8,R2 ; ___dl__FPv
    00000332 7F04                   ADD         #4,R15
    00000334 4F26                   LDS.L       @R15+,PR
    00000336 422B                   JMP         @R2
    00000338 6EF6                   MOV.L       @R15+,R14
    0000033A              L1349:                            
    0000033A 7F04                   ADD         #4,R15
    0000033C 4F26                   LDS.L       @R15+,PR
    0000033E 000B                   RTS
    00000340 6EF6                   MOV.L       @R15+,R14
    00000342              __$Awake__9ComponentFv:          ; function: Component::Awake()
                                                           ; frame size=0
    00000342 000B                   RTS
    00000344 0009                   NOP
    00000346              __$FixedUpdate__9ComponentFv:    ; function: Component::FixedUpdate()
                                                           ; frame size=0
    00000346 000B                   RTS
    00000348 0009                   NOP
    0000034A              __$LateUpdate__9ComponentFv:     ; function: Component::LateUpdate()
                                                           ; frame size=0
    0000034A 000B                   RTS
    0000034C 0009                   NOP
    0000034E              __$OnAnimatorIK__9ComponentFv:   ; function: Component::OnAnimatorIK()
                                                           ; frame size=0




SH SERIES C/C++ Compiler (Ver. 6.0C)                                                                 09-Nov-2021 18:28:35  PAGE   19


SCT OFFSET   CODE       C LABEL     INSTRUCTION OPERAND    COMMENT

    0000034E 000B                   RTS
    00000350 0009                   NOP
    00000352              __$OnAnimatorMove__9ComponentFv: ; function: Component::OnAnimatorMove()
                                                           ; frame size=0
    00000352 000B                   RTS
    00000354 0009                   NOP
    00000356              __$OnApplicationFocus__9ComponentFv:
                                                           ; function: Component::OnApplicationFocus()
                                                           ; frame size=0
    00000356 000B                   RTS
    00000358 0009                   NOP
    0000035A              __$OnApplicationPause__9ComponentFv:
                                                           ; function: Component::OnApplicationPause()
                                                           ; frame size=0
    0000035A 000B                   RTS
    0000035C 0009                   NOP
    0000035E              __$OnApplicationQuit__9ComponentFv:
                                                           ; function: Component::OnApplicationQuit()
                                                           ; frame size=0
    0000035E 000B                   RTS
    00000360 0009                   NOP
    00000362              __$OnAudioFilterRead__9ComponentFv:
                                                           ; function: Component::OnAudioFilterRead()
                                                           ; frame size=0
    00000362 000B                   RTS
    00000364 0009                   NOP
    00000366              __$OnBecameInvisible__9ComponentFv:
                                                           ; function: Component::OnBecameInvisible()
                                                           ; frame size=0
    00000366 000B                   RTS
    00000368 0009                   NOP
    0000036A              __$OnBecameVisible__9ComponentFv:
                                                           ; function: Component::OnBecameVisible()
                                                           ; frame size=0
    0000036A 000B                   RTS
    0000036C 0009                   NOP
    0000036E              __$OnCollisionEnter__9ComponentFv:
                                                           ; function: Component::OnCollisionEnter()
                                                           ; frame size=0
    0000036E 000B                   RTS
    00000370 0009                   NOP
    00000372              __$OnCollisionEnter2D__9ComponentFv:
                                                           ; function: Component::OnCollisionEnter2D()
                                                           ; frame size=0
    00000372 000B                   RTS
    00000374 0009                   NOP
    00000376              __$OnCollisionExit__9ComponentFv:
                                                           ; function: Component::OnCollisionExit()
                                                           ; frame size=0
    00000376 000B                   RTS
    00000378 0009                   NOP
    0000037A              __$OnCollisionExit2D__9ComponentFv:
                                                           ; function: Component::OnCollisionExit2D()
                                                           ; frame size=0
    0000037A 000B                   RTS
    0000037C 0009                   NOP
    0000037E              __$OnCollisionStay__9ComponentFv:




SH SERIES C/C++ Compiler (Ver. 6.0C)                                                                 09-Nov-2021 18:28:35  PAGE   20


SCT OFFSET   CODE       C LABEL     INSTRUCTION OPERAND    COMMENT

                                                           ; function: Component::OnCollisionStay()
                                                           ; frame size=0
    0000037E 000B                   RTS
    00000380 0009                   NOP
    00000382              __$OnCollisionStay2D__9ComponentFv:
                                                           ; function: Component::OnCollisionStay2D()
                                                           ; frame size=0
    00000382 000B                   RTS
    00000384 0009                   NOP
    00000386              __$OnConnectedToServer__9ComponentFv:
                                                           ; function: Component::OnConnectedToServer()
                                                           ; frame size=0
    00000386 000B                   RTS
    00000388 0009                   NOP
    0000038A              __$OnControllerColliderHit__9ComponentFv:
                                                           ; function: Component::OnControllerColliderHit()
                                                           ; frame size=0
    0000038A 000B                   RTS
    0000038C 0009                   NOP
    0000038E              __$OnDestroy__9ComponentFv:      ; function: Component::OnDestroy()
                                                           ; frame size=0
    0000038E 000B                   RTS
    00000390 0009                   NOP
    00000392              __$OnDisable__9ComponentFv:      ; function: Component::OnDisable()
                                                           ; frame size=0
    00000392 000B                   RTS
    00000394 0009                   NOP
    00000396              __$OnDisconnectedFromServer__9ComponentFv:
                                                           ; function: Component::OnDisconnectedFromServer()
                                                           ; frame size=0
    00000396 000B                   RTS
    00000398 0009                   NOP
    0000039A              __$OnDrawGizmos__9ComponentFv:   ; function: Component::OnDrawGizmos()
                                                           ; frame size=0
    0000039A 000B                   RTS
    0000039C 0009                   NOP
    0000039E              __$OnDrawGizmosSelected__9ComponentFv:
                                                           ; function: Component::OnDrawGizmosSelected()
                                                           ; frame size=0
    0000039E 000B                   RTS
    000003A0 0009                   NOP
    000003A2              __$OnEnable__9ComponentFv:       ; function: Component::OnEnable()
                                                           ; frame size=0
    000003A2 000B                   RTS
    000003A4 0009                   NOP
    000003A6              __$OnFailedToConnect__9ComponentFv:
                                                           ; function: Component::OnFailedToConnect()
                                                           ; frame size=0
    000003A6 000B                   RTS
    000003A8 0009                   NOP
    000003AA              __$OnFailedToConnectToMasterServer__9ComponentFv:
                                                           ; function: Component::OnFailedToConnectToMasterServer()
                                                           ; frame size=0
    000003AA 000B                   RTS
    000003AC 0009                   NOP
    000003AE              __$OnGUI__9ComponentFv:          ; function: Component::OnGUI()
                                                           ; frame size=0




SH SERIES C/C++ Compiler (Ver. 6.0C)                                                                 09-Nov-2021 18:28:35  PAGE   21


SCT OFFSET   CODE       C LABEL     INSTRUCTION OPERAND    COMMENT

    000003AE 000B                   RTS
    000003B0 0009                   NOP
    000003B2              __$OnJointBreak__9ComponentFv:   ; function: Component::OnJointBreak()
                                                           ; frame size=0
    000003B2 000B                   RTS
    000003B4 0009                   NOP
    000003B6              __$OnJointBreak2D__9ComponentFv: ; function: Component::OnJointBreak2D()
                                                           ; frame size=0
    000003B6 000B                   RTS
    000003B8 0009                   NOP
    000003BA              __$OnMasterServerEvent__9ComponentFv:
                                                           ; function: Component::OnMasterServerEvent()
                                                           ; frame size=0
    000003BA 000B                   RTS
    000003BC 0009                   NOP
    000003BE              __$OnMouseDown__9ComponentFv:    ; function: Component::OnMouseDown()
                                                           ; frame size=0
    000003BE 000B                   RTS
    000003C0 0009                   NOP
    000003C2              __$OnMouseDrag__9ComponentFv:    ; function: Component::OnMouseDrag()
                                                           ; frame size=0
    000003C2 000B                   RTS
    000003C4 0009                   NOP
    000003C6              __$OnMouseEnter__9ComponentFv:   ; function: Component::OnMouseEnter()
                                                           ; frame size=0
    000003C6 000B                   RTS
    000003C8 0009                   NOP
    000003CA              __$OnMouseExit__9ComponentFv:    ; function: Component::OnMouseExit()
                                                           ; frame size=0
    000003CA 000B                   RTS
    000003CC 0009                   NOP
    000003CE              __$OnMouseOver__9ComponentFv:    ; function: Component::OnMouseOver()
                                                           ; frame size=0
    000003CE 000B                   RTS
    000003D0 0009                   NOP
    000003D2              __$OnMouseUp__9ComponentFv:      ; function: Component::OnMouseUp()
                                                           ; frame size=0
    000003D2 000B                   RTS
    000003D4 0009                   NOP
    000003D6              __$OnMouseUpAsButton__9ComponentFv:
                                                           ; function: Component::OnMouseUpAsButton()
                                                           ; frame size=0
    000003D6 000B                   RTS
    000003D8 0009                   NOP
    000003DA              __$OnNetworkInstantiate__9ComponentFv:
                                                           ; function: Component::OnNetworkInstantiate()
                                                           ; frame size=0
    000003DA 000B                   RTS
    000003DC 0009                   NOP
    000003DE              __$OnParticleCollision__9ComponentFv:
                                                           ; function: Component::OnParticleCollision()
                                                           ; frame size=0
    000003DE 000B                   RTS
    000003E0 0009                   NOP
    000003E2              __$OnParticleSystemStopped__9ComponentFv:
                                                           ; function: Component::OnParticleSystemStopped()
                                                           ; frame size=0




SH SERIES C/C++ Compiler (Ver. 6.0C)                                                                 09-Nov-2021 18:28:35  PAGE   22


SCT OFFSET   CODE       C LABEL     INSTRUCTION OPERAND    COMMENT

    000003E2 000B                   RTS
    000003E4 0009                   NOP
    000003E6              __$OnParticleTrigger__9ComponentFv:
                                                           ; function: Component::OnParticleTrigger()
                                                           ; frame size=0
    000003E6 000B                   RTS
    000003E8 0009                   NOP
    000003EA              __$OnParticleUpdateJobScheduled__9ComponentFv:
                                                           ; function: Component::OnParticleUpdateJobScheduled()
                                                           ; frame size=0
    000003EA 000B                   RTS
    000003EC 0009                   NOP
    000003EE              __$OnPlayerConnected__9ComponentFv:
                                                           ; function: Component::OnPlayerConnected()
                                                           ; frame size=0
    000003EE 000B                   RTS
    000003F0 0009                   NOP
    000003F2              __$OnPlayerDisconnected__9ComponentFv:
                                                           ; function: Component::OnPlayerDisconnected()
                                                           ; frame size=0
    000003F2 000B                   RTS
    000003F4 0009                   NOP
    000003F6              __$OnPostRender__9ComponentFv:   ; function: Component::OnPostRender()
                                                           ; frame size=0
    000003F6 000B                   RTS
    000003F8 0009                   NOP
    000003FA              __$OnPreCull__9ComponentFv:      ; function: Component::OnPreCull()
                                                           ; frame size=0
    000003FA 000B                   RTS
    000003FC 0009                   NOP
    000003FE              __$OnPreRender__9ComponentFv:    ; function: Component::OnPreRender()
                                                           ; frame size=0
    000003FE 000B                   RTS
    00000400 0009                   NOP
    00000402              __$OnRenderImage__9ComponentFv:  ; function: Component::OnRenderImage()
                                                           ; frame size=0
    00000402 000B                   RTS
    00000404 0009                   NOP
    00000406              __$OnRenderObject__9ComponentFv: ; function: Component::OnRenderObject()
                                                           ; frame size=0
    00000406 000B                   RTS
    00000408 0009                   NOP
    0000040A              __$OnSerializeNetworkView__9ComponentFv:
                                                           ; function: Component::OnSerializeNetworkView()
                                                           ; frame size=0
    0000040A 000B                   RTS
    0000040C 0009                   NOP
    0000040E              __$OnServerInitialized__9ComponentFv:
                                                           ; function: Component::OnServerInitialized()
                                                           ; frame size=0
    0000040E 000B                   RTS
    00000410 0009                   NOP
    00000412              __$OnTransformChildrenChanged__9ComponentFv:
                                                           ; function: Component::OnTransformChildrenChanged()
                                                           ; frame size=0
    00000412 000B                   RTS
    00000414 0009                   NOP




SH SERIES C/C++ Compiler (Ver. 6.0C)                                                                 09-Nov-2021 18:28:35  PAGE   23


SCT OFFSET   CODE       C LABEL     INSTRUCTION OPERAND    COMMENT

    00000416              __$OnTransformParentChanged__9ComponentFv:
                                                           ; function: Component::OnTransformParentChanged()
                                                           ; frame size=0
    00000416 000B                   RTS
    00000418 0009                   NOP
    0000041A              __$OnTriggerEnter__9ComponentFv: ; function: Component::OnTriggerEnter()
                                                           ; frame size=0
    0000041A 000B                   RTS
    0000041C 0009                   NOP
    0000041E              __$OnTriggerEnter2D__9ComponentFv:
                                                           ; function: Component::OnTriggerEnter2D()
                                                           ; frame size=0
    0000041E 000B                   RTS
    00000420 0009                   NOP
    00000422              __$OnTriggerExit__9ComponentFv:  ; function: Component::OnTriggerExit()
                                                           ; frame size=0
    00000422 000B                   RTS
    00000424 0009                   NOP
    00000426              __$OnTriggerExit2D__9ComponentFv:
                                                           ; function: Component::OnTriggerExit2D()
                                                           ; frame size=0
    00000426 000B                   RTS
    00000428 0009                   NOP
    0000042A              __$OnTriggerStay__9ComponentFv:  ; function: Component::OnTriggerStay()
                                                           ; frame size=0
    0000042A 000B                   RTS
    0000042C 0009                   NOP
    0000042E              __$OnTriggerStay2D__9ComponentFv:
                                                           ; function: Component::OnTriggerStay2D()
                                                           ; frame size=0
    0000042E 000B                   RTS
    00000430 0009                   NOP
    00000432              __$OnValidate__9ComponentFv:     ; function: Component::OnValidate()
                                                           ; frame size=0
    00000432 000B                   RTS
    00000434 0009                   NOP
    00000436              __$OnWillRenderObject__9ComponentFv:
                                                           ; function: Component::OnWillRenderObject()
                                                           ; frame size=0
    00000436 000B                   RTS
    00000438 0009                   NOP
    0000043A              __$Reset__9ComponentFv:          ; function: Component::Reset()
                                                           ; frame size=0
    0000043A 000B                   RTS
    0000043C 0009                   NOP
    0000043E              __$Start__9ComponentFv:          ; function: Component::Start()
                                                           ; frame size=0
    0000043E 000B                   RTS
    00000440 0009                   NOP
    00000442              __$Update__9ComponentFv:         ; function: Component::Update()
                                                           ; frame size=0
    00000442 000B                   RTS
    00000444 0009                   NOP
    00000446              ___ct__9TransformFP10GameObjectPCcT2:
                                                           ; function: Transform::Transform(GameObject *, const char *, const char *
                        +                                  )
                                                           ; frame size=28




SH SERIES C/C++ Compiler (Ver. 6.0C)                                                                 09-Nov-2021 18:28:35  PAGE   24


SCT OFFSET   CODE       C LABEL     INSTRUCTION OPERAND    COMMENT

    00000446 2FE6                   MOV.L       R14,@-R15
    00000448 2F86                   MOV.L       R8,@-R15
    0000044A 4F22                   STS.L       PR,@-R15
    0000044C 7FF0                   ADD         #-16,R15
    0000044E 2F42                   MOV.L       R4,@R15
    00000450 1F51                   MOV.L       R5,@(4,R15)
    00000452 1F63                   MOV.L       R6,@(12,R15)
    00000454 1F72                   MOV.L       R7,@(8,R15)
    00000456 63F2                   MOV.L       @R15,R3
    00000458 2338                   TST         R3,R3
    0000045A 8B05                   BF          L1416
    0000045C D34F                   MOV.L       L1643,R3   ; ___nw__FUl
    0000045E 430B                   JSR         @R3
    00000460 E450                   MOV         #80,R4
    00000462 2008                   TST         R0,R0
    00000464 8D3A                   BT/S        L1415
    00000466 2F02                   MOV.L       R0,@R15
    00000468              L1416:                            
    00000468 57F3                   MOV.L       @(12,R15),R7
    0000046A 56F1                   MOV.L       @(4,R15),R6
    0000046C 55F2                   MOV.L       @(8,R15),R5
    0000046E BF2F                   BSR         ___ct__9ComponentFPCcP10GameObjectT1
    00000470 64F2                   MOV.L       @R15,R4
    00000472 EE00                   MOV         #0,R14
    00000474 62F2                   MOV.L       @R15,R2
    00000476 D34D                   MOV.L       L1643+16,R3; ___vtbl__9Transform
    00000478 1232                   MOV.L       R3,@(8,R2)
    0000047A 62F2                   MOV.L       @R15,R2
    0000047C 12E9                   MOV.L       R14,@(36,R2)
    0000047E 63F2                   MOV.L       @R15,R3
    00000480 13E7                   MOV.L       R14,@(28,R3)
    00000482 63F2                   MOV.L       @R15,R3
    00000484 13E8                   MOV.L       R14,@(32,R3)
    00000486 63F2                   MOV.L       @R15,R3
    00000488 13EA                   MOV.L       R14,@(40,R3)
    0000048A 63F2                   MOV.L       @R15,R3
    0000048C 13EB                   MOV.L       R14,@(44,R3)
    0000048E 63F2                   MOV.L       @R15,R3
    00000490 13EC                   MOV.L       R14,@(48,R3)
    00000492 63F2                   MOV.L       @R15,R3
    00000494 13ED                   MOV.L       R14,@(52,R3)
    00000496 68F2                   MOV.L       @R15,R8
    00000498 7838                   ADD         #56,R8
    0000049A BDDB                   BSR         ___ct__7Vector2Fv
    0000049C 64E3                   MOV         R14,R4
    0000049E 2802                   MOV.L       R0,@R8
    000004A0 68F2                   MOV.L       @R15,R8
    000004A2 783C                   ADD         #60,R8
    000004A4 D642                   MOV.L       L1643+20,R6; H'3F800000
    000004A6 6563                   MOV         R6,R5
    000004A8 BDEA                   BSR         ___ct__7Vector2FfT1
    000004AA 64E3                   MOV         R14,R4
    000004AC 2802                   MOV.L       R0,@R8
    000004AE 68F2                   MOV.L       @R15,R8
    000004B0 D63F                   MOV.L       L1643+20,R6; H'3F800000
    000004B2 7840                   ADD         #64,R8
    000004B4 6563                   MOV         R6,R5




SH SERIES C/C++ Compiler (Ver. 6.0C)                                                                 09-Nov-2021 18:28:35  PAGE   25


SCT OFFSET   CODE       C LABEL     INSTRUCTION OPERAND    COMMENT

    000004B6 BDE3                   BSR         ___ct__7Vector2FfT1
    000004B8 64E3                   MOV         R14,R4
    000004BA 2802                   MOV.L       R0,@R8
    000004BC 63F2                   MOV.L       @R15,R3
    000004BE E044                   MOV         #68,R0
    000004C0 03E6                   MOV.L       R14,@(R0,R3)
    000004C2 68F2                   MOV.L       @R15,R8
    000004C4 7848                   ADD         #72,R8
    000004C6 BDC5                   BSR         ___ct__7Vector2Fv
    000004C8 64E3                   MOV         R14,R4
    000004CA 2802                   MOV.L       R0,@R8
    000004CC 63F2                   MOV.L       @R15,R3
    000004CE E04C                   MOV         #76,R0
    000004D0 03E6                   MOV.L       R14,@(R0,R3)
    000004D2 68F2                   MOV.L       @R15,R8
    000004D4 7818                   ADD         #24,R8
    000004D6 BDBD                   BSR         ___ct__7Vector2Fv
    000004D8 64E3                   MOV         R14,R4
    000004DA 2802                   MOV.L       R0,@R8
    000004DC              L1415:                            
    000004DC 60F2                   MOV.L       @R15,R0
    000004DE 7F10                   ADD         #16,R15
    000004E0 4F26                   LDS.L       @R15+,PR
    000004E2 68F6                   MOV.L       @R15+,R8
    000004E4 000B                   RTS
    000004E6 6EF6                   MOV.L       @R15+,R14
    000004E8              ___dt__9TransformFv:             ; function: Transform::~Transform()
                                                           ; frame size=20
    000004E8 2FE6                   MOV.L       R14,@-R15
    000004EA 6E43                   MOV         R4,R14
    000004EC 2FD6                   MOV.L       R13,@-R15
    000004EE 2EE8                   TST         R14,R14
    000004F0 4F22                   STS.L       PR,@-R15
    000004F2 7FF8                   ADD         #-8,R15
    000004F4 8D29                   BT/S        L1424
    000004F6 1F51                   MOV.L       R5,@(4,R15)
    000004F8 D22C                   MOV.L       L1643+16,R2; ___vtbl__9Transform
    000004FA E044                   MOV         #68,R0
    000004FC 1E22                   MOV.L       R2,@(8,R14)
    000004FE 0DEE                   MOV.L       @(R0,R14),R13
    00000500 2DD8                   TST         R13,R13
    00000502 8908                   BT          L1420
    00000504 52D2                   MOV.L       @(8,R13),R2
    00000506 E503                   MOV         #3,R5
    00000508 720C                   ADD         #12,R2
    0000050A 6423                   MOV         R2,R4
    0000050C 2F22                   MOV.L       R2,@R15
    0000050E 5322                   MOV.L       @(8,R2),R3
    00000510 6442                   MOV.L       @R4,R4
    00000512 430B                   JSR         @R3
    00000514 34DC                   ADD         R13,R4
    00000516              L1420:                            
    00000516 E04C                   MOV         #76,R0
    00000518 0DEE                   MOV.L       @(R0,R14),R13
    0000051A 2DD8                   TST         R13,R13
    0000051C 8908                   BT          L1422
    0000051E E503                   MOV         #3,R5




SH SERIES C/C++ Compiler (Ver. 6.0C)                                                                 09-Nov-2021 18:28:35  PAGE   26


SCT OFFSET   CODE       C LABEL     INSTRUCTION OPERAND    COMMENT

    00000520 52D2                   MOV.L       @(8,R13),R2
    00000522 720C                   ADD         #12,R2
    00000524 2F22                   MOV.L       R2,@R15
    00000526 6423                   MOV         R2,R4
    00000528 5322                   MOV.L       @(8,R2),R3
    0000052A 6442                   MOV.L       @R4,R4
    0000052C 430B                   JSR         @R3
    0000052E 34DC                   ADD         R13,R4
    00000530              L1422:                            
    00000530 E500                   MOV         #0,R5
    00000532 BEEB                   BSR         ___dt__9ComponentFv
    00000534 64E3                   MOV         R14,R4
    00000536 50F1                   MOV.L       @(4,R15),R0
    00000538 C801                   TST         #1,R0
    0000053A 8906                   BT          L1424
    0000053C D219                   MOV.L       L1643+8,R2 ; ___dl__FPv
    0000053E 64E3                   MOV         R14,R4
    00000540 7F08                   ADD         #8,R15
    00000542 4F26                   LDS.L       @R15+,PR
    00000544 6DF6                   MOV.L       @R15+,R13
    00000546 422B                   JMP         @R2
    00000548 6EF6                   MOV.L       @R15+,R14
    0000054A              L1424:                            
    0000054A 7F08                   ADD         #8,R15
    0000054C 4F26                   LDS.L       @R15+,PR
    0000054E 6DF6                   MOV.L       @R15+,R13
    00000550 000B                   RTS
    00000552 6EF6                   MOV.L       @R15+,R14
    00000554              _SetParent__9TransformFP9Transform:
                                                           ; function: Transform::SetParent(Transform *)
                                                           ; frame size=16
    00000554 2FE6                   MOV.L       R14,@-R15
    00000556 E044                   MOV         #68,R0
    00000558 2FD6                   MOV.L       R13,@-R15
    0000055A 6D43                   MOV         R4,R13
    0000055C 2FC6                   MOV.L       R12,@-R15
    0000055E 4F22                   STS.L       PR,@-R15
    00000560 03DE                   MOV.L       @(R0,R13),R3
    00000562 2338                   TST         R3,R3
    00000564 8D04                   BT/S        L1425
    00000566 6E53                   MOV         R5,R14
    00000568 04DE                   MOV.L       @(R0,R13),R4
    0000056A 65D3                   MOV         R13,R5
    0000056C B0CA                   BSR         __$Remove__24List__tm__12_P9TransformFZ1Z_Z1Z
    0000056E 741C                   ADD         #28,R4
    00000570              L1425:                            
    00000570 D20A                   MOV.L       L1643,R2   ; ___nw__FUl
    00000572 420B                   JSR         @R2
    00000574 E40C                   MOV         #12,R4
    00000576 2008                   TST         R0,R0
    00000578 8D06                   BT/S        L1426
    0000057A 6C03                   MOV         R0,R12
    0000057C D20D                   MOV.L       L1643+24,R2; ___memzero
    0000057E E50C                   MOV         #12,R5
    00000580 420B                   JSR         @R2
    00000582 64C3                   MOV         R12,R4
    00000584 A001                   BRA         L1427




SH SERIES C/C++ Compiler (Ver. 6.0C)                                                                 09-Nov-2021 18:28:35  PAGE   27


SCT OFFSET   CODE       C LABEL     INSTRUCTION OPERAND    COMMENT

    00000586 64C3                   MOV         R12,R4
    00000588              L1426:                            
    00000588 E400                   MOV         #0,R4
    0000058A              L1427:                            
    0000058A 24D2                   MOV.L       R13,@R4
    0000058C 52E9                   MOV.L       @(36,R14),R2
    0000058E 7201                   ADD         #1,R2
    00000590 1E29                   MOV.L       R2,@(36,R14)
    00000592 53E7                   MOV.L       @(28,R14),R3
    00000594 2338                   TST         R3,R3
    00000596 8B0F                   BF          L1428
    00000598 A012                   BRA         L1139
    0000059A 1E47                   MOV.L       R4,@(28,R14)
    0000059C              L1643:                            
    0000059C <00000000>             .DATA.L     ___nw__FUl
    000005A0 <00000000>             .DATA.L     ___vtbl__9Component
    000005A4 <00000000>             .DATA.L     ___dl__FPv
    000005A8 <00000000>             .DATA.L     __$__vtbl__6Object
    000005AC <00000000>             .DATA.L     ___vtbl__9Transform
    000005B0 3F800000               .DATA.L     H'3F800000
    000005B4 <00000000>             .DATA.L     ___memzero
    000005B8              L1428:                            
    000005B8 53E8                   MOV.L       @(32,R14),R3
    000005BA 1432                   MOV.L       R3,@(8,R4)
    000005BC 52E8                   MOV.L       @(32,R14),R2
    000005BE 1241                   MOV.L       R4,@(4,R2)
    000005C0              L1139:
    000005C0 1E48                   MOV.L       R4,@(32,R14)
    000005C2 E044                   MOV         #68,R0
    000005C4 0DE6                   MOV.L       R14,@(R0,R13)
    000005C6 4F26                   LDS.L       @R15+,PR
    000005C8 6CF6                   MOV.L       @R15+,R12
    000005CA 6DF6                   MOV.L       @R15+,R13
    000005CC 000B                   RTS
    000005CE 6EF6                   MOV.L       @R15+,R14
    000005D0              _Start__9TransformFv:            ; function: Transform::Start()
                                                           ; frame size=0
    000005D0 5346                   MOV.L       @(24,R4),R3
    000005D2 E048                   MOV         #72,R0
    000005D4 024E                   MOV.L       @(R0,R4),R2
    000005D6 6122                   MOV.L       @R2,R1
    000005D8 2312                   MOV.L       R1,@R3
    000005DA 5346                   MOV.L       @(24,R4),R3
    000005DC 024E                   MOV.L       @(R0,R4),R2
    000005DE 5121                   MOV.L       @(4,R2),R1
    000005E0 000B                   RTS
    000005E2 1311                   MOV.L       R1,@(4,R3)
    000005E4              _Update__9TransformFv:           ; function: Transform::Update()
                                                           ; frame size=36
    000005E4 2FE6                   MOV.L       R14,@-R15
    000005E6 E044                   MOV         #68,R0
    000005E8 4F22                   STS.L       PR,@-R15
    000005EA 6E43                   MOV         R4,R14
    000005EC 7FF0                   ADD         #-16,R15
    000005EE 53E9                   MOV.L       @(36,R14),R3
    000005F0 1E3A                   MOV.L       R3,@(40,R14)
    000005F2 02EE                   MOV.L       @(R0,R14),R2




SH SERIES C/C++ Compiler (Ver. 6.0C)                                                                 09-Nov-2021 18:28:35  PAGE   28


SCT OFFSET   CODE       C LABEL     INSTRUCTION OPERAND    COMMENT

    000005F4 2228                   TST         R2,R2
    000005F6 8B1E                   BF          L1432
    000005F8 55EE                   MOV.L       @(56,R14),R5
    000005FA E048                   MOV         #72,R0
    000005FC BD76                   BSR         ___ne__7Vector2FRC7Vector2
    000005FE 04EE                   MOV.L       @(R0,R14),R4
    00000600 2008                   TST         R0,R0
    00000602 890D                   BT          L1433
    00000604 55E6                   MOV.L       @(24,R14),R5
    00000606 BD71                   BSR         ___ne__7Vector2FRC7Vector2
    00000608 54EE                   MOV.L       @(56,R14),R4
    0000060A 2008                   TST         R0,R0
    0000060C 8908                   BT          L1433
    0000060E E048                   MOV         #72,R0
    00000610 52EE                   MOV.L       @(56,R14),R2
    00000612 03EE                   MOV.L       @(R0,R14),R3
    00000614 6122                   MOV.L       @R2,R1
    00000616 2312                   MOV.L       R1,@R3
    00000618 03EE                   MOV.L       @(R0,R14),R3
    0000061A 52EE                   MOV.L       @(56,R14),R2
    0000061C 5121                   MOV.L       @(4,R2),R1
    0000061E 1311                   MOV.L       R1,@(4,R3)
    00000620              L1433:                            
    00000620 53EE                   MOV.L       @(56,R14),R3
    00000622 E048                   MOV         #72,R0
    00000624 02EE                   MOV.L       @(R0,R14),R2
    00000626 6122                   MOV.L       @R2,R1
    00000628 2312                   MOV.L       R1,@R3
    0000062A 53EE                   MOV.L       @(56,R14),R3
    0000062C 02EE                   MOV.L       @(R0,R14),R2
    0000062E 5121                   MOV.L       @(4,R2),R1
    00000630 1311                   MOV.L       R1,@(4,R3)
    00000632 A036                   BRA         L1435
    00000634 0009                   NOP
    00000636              L1432:                            
    00000636 E048                   MOV         #72,R0
    00000638 55E6                   MOV.L       @(24,R14),R5
    0000063A BD57                   BSR         ___ne__7Vector2FRC7Vector2
    0000063C 04EE                   MOV.L       @(R0,R14),R4
    0000063E 2008                   TST         R0,R0
    00000640 8922                   BT          L1436
    00000642 E044                   MOV         #68,R0
    00000644 54EE                   MOV.L       @(56,R14),R4
    00000646 63F3                   MOV         R15,R3
    00000648 05EE                   MOV.L       @(R0,R14),R5
    0000064A 7308                   ADD         #8,R3
    0000064C E048                   MOV         #72,R0
    0000064E 055E                   MOV.L       @(R0,R5),R5
    00000650 BD60                   BSR         ___pl__7Vector2FRC7Vector2
    00000652 2F36                   MOV.L       R3,@-R15
    00000654 7F04                   ADD         #4,R15
    00000656 65F3                   MOV         R15,R5
    00000658 7508                   ADD         #8,R5
    0000065A E048                   MOV         #72,R0
    0000065C BD32                   BSR         ___eq__7Vector2FRC7Vector2
    0000065E 04EE                   MOV.L       @(R0,R14),R4
    00000660 2008                   TST         R0,R0




SH SERIES C/C++ Compiler (Ver. 6.0C)                                                                 09-Nov-2021 18:28:35  PAGE   29


SCT OFFSET   CODE       C LABEL     INSTRUCTION OPERAND    COMMENT

    00000662 8911                   BT          L1436
    00000664 7FF8                   ADD         #-8,R15
    00000666 E048                   MOV         #72,R0
    00000668 54E6                   MOV.L       @(24,R14),R4
    0000066A 63F3                   MOV         R15,R3
    0000066C 05EE                   MOV.L       @(R0,R14),R5
    0000066E 7308                   ADD         #8,R3
    00000670 BD6F                   BSR         ___mi__7Vector2FRC7Vector2
    00000672 2F36                   MOV.L       R3,@-R15
    00000674 7F04                   ADD         #4,R15
    00000676 65F3                   MOV         R15,R5
    00000678 54EE                   MOV.L       @(56,R14),R4
    0000067A 7508                   ADD         #8,R5
    0000067C BD4A                   BSR         ___pl__7Vector2FRC7Vector2
    0000067E 2FF6                   MOV.L       R15,@-R15
    00000680 7F04                   ADD         #4,R15
    00000682 BD19                   BSR         _Set__7Vector2F7Vector2
    00000684 54EE                   MOV.L       @(56,R14),R4
    00000686 7F08                   ADD         #8,R15
    00000688              L1436:                            
    00000688 7FF8                   ADD         #-8,R15
    0000068A E044                   MOV         #68,R0
    0000068C 54EE                   MOV.L       @(56,R14),R4
    0000068E 05EE                   MOV.L       @(R0,R14),R5
    00000690 E048                   MOV         #72,R0
    00000692 055E                   MOV.L       @(R0,R5),R5
    00000694 BD3E                   BSR         ___pl__7Vector2FRC7Vector2
    00000696 2FF6                   MOV.L       R15,@-R15
    00000698 7F04                   ADD         #4,R15
    0000069A E048                   MOV         #72,R0
    0000069C BD0C                   BSR         _Set__7Vector2F7Vector2
    0000069E 04EE                   MOV.L       @(R0,R14),R4
    000006A0 7F08                   ADD         #8,R15
    000006A2              L1435:                            
    000006A2 E048                   MOV         #72,R0
    000006A4 52E6                   MOV.L       @(24,R14),R2
    000006A6 03EE                   MOV.L       @(R0,R14),R3
    000006A8 6132                   MOV.L       @R3,R1
    000006AA 2212                   MOV.L       R1,@R2
    000006AC 53E6                   MOV.L       @(24,R14),R3
    000006AE 02EE                   MOV.L       @(R0,R14),R2
    000006B0 5121                   MOV.L       @(4,R2),R1
    000006B2 1311                   MOV.L       R1,@(4,R3)
    000006B4 7F10                   ADD         #16,R15
    000006B6 4F26                   LDS.L       @R15+,PR
    000006B8 000B                   RTS
    000006BA 6EF6                   MOV.L       @R15+,R14
    000006BC              __$get_node__24List__tm__12_P9TransformFi_P15Node__tm__4_Z1Z:
                                                           ; function: Node<T1> *List<T1>::get_node(int) [with T1=Transform *]
                                                           ; frame size=0
    000006BC E700                   MOV         #0,R7
    000006BE A002                   BRA         L1438
    000006C0 6642                   MOV.L       @R4,R6
    000006C2              L1439:                            
    000006C2 7701                   ADD         #1,R7
    000006C4 5661                   MOV.L       @(4,R6),R6
    000006C6              L1438:                            




SH SERIES C/C++ Compiler (Ver. 6.0C)                                                                 09-Nov-2021 18:28:35  PAGE   30


SCT OFFSET   CODE       C LABEL     INSTRUCTION OPERAND    COMMENT

    000006C6 2668                   TST         R6,R6
    000006C8 8901                   BT          L1440
    000006CA 3750                   CMP/EQ      R5,R7
    000006CC 8BF9                   BF          L1439
    000006CE              L1440:                            
    000006CE 000B                   RTS
    000006D0 6063                   MOV         R6,R0
    000006D2              __$prepop__24List__tm__12_P9TransformFv_Z1Z:
                                                           ; function: T1 List<T1>::prepop() [with T1=Transform *]
                                                           ; frame size=0
    000006D2 6342                   MOV.L       @R4,R3
    000006D4 2338                   TST         R3,R3
    000006D6 8B01                   BF          L1442
    000006D8 000B                   RTS
    000006DA E000                   MOV         #0,R0
    000006DC              L1442:                            
    000006DC 6642                   MOV.L       @R4,R6
    000006DE 6762                   MOV.L       @R6,R7
    000006E0 5341                   MOV.L       @(4,R4),R3
    000006E2 3630                   CMP/EQ      R3,R6
    000006E4 8F03                   BF/S        L1444
    000006E6 E500                   MOV         #0,R5
    000006E8 2452                   MOV.L       R5,@R4
    000006EA A005                   BRA         L1445
    000006EC 1451                   MOV.L       R5,@(4,R4)
    000006EE              L1444:                            
    000006EE 6242                   MOV.L       @R4,R2
    000006F0 5321                   MOV.L       @(4,R2),R3
    000006F2 2432                   MOV.L       R3,@R4
    000006F4 6233                   MOV         R3,R2
    000006F6 1252                   MOV.L       R5,@(8,R2)
    000006F8              L1445:                            
    000006F8 5342                   MOV.L       @(8,R4),R3
    000006FA 6073                   MOV         R7,R0
    000006FC 73FF                   ADD         #-1,R3
    000006FE 1432                   MOV.L       R3,@(8,R4)
    00000700              L1443:                            
    00000700 000B                   RTS
    00000702 0009                   NOP
    00000704              __$Remove__24List__tm__12_P9TransformFZ1Z_Z1Z:
                                                           ; function: T1 List<T1>::Remove(T1) [with T1=Transform *]
                                                           ; frame size=12
    00000704 2FE6                   MOV.L       R14,@-R15
    00000706 4F22                   STS.L       PR,@-R15
    00000708 7FFC                   ADD         #-4,R15
    0000070A B040                   BSR         __$IndexOf__24List__tm__12_P9TransformFZ1Z_i
    0000070C 6E43                   MOV         R4,R14
    0000070E 6503                   MOV         R0,R5
    00000710 4511                   CMP/PZ      R5
    00000712 8B0B                   BF          L1140
    00000714 2558                   TST         R5,R5
    00000716 8B04                   BF          L1448
    00000718 64E3                   MOV         R14,R4
    0000071A 7F04                   ADD         #4,R15
    0000071C 4F26                   LDS.L       @R15+,PR
    0000071E AFD8                   BRA         __$prepop__24List__tm__12_P9TransformFv_Z1Z
    00000720 6EF6                   MOV.L       @R15+,R14




SH SERIES C/C++ Compiler (Ver. 6.0C)                                                                 09-Nov-2021 18:28:35  PAGE   31


SCT OFFSET   CODE       C LABEL     INSTRUCTION OPERAND    COMMENT

    00000722              L1448:                            
    00000722 BFCB                   BSR         __$get_node__24List__tm__12_P9TransformFi_P15Node__tm__4_Z1Z
    00000724 64E3                   MOV         R14,R4
    00000726 6403                   MOV         R0,R4
    00000728 2448                   TST         R4,R4
    0000072A 8B04                   BF          L1449
    0000072C              L1140:
    0000072C E000                   MOV         #0,R0
    0000072E 7F04                   ADD         #4,R15
    00000730 4F26                   LDS.L       @R15+,PR
    00000732 000B                   RTS
    00000734 6EF6                   MOV.L       @R15+,R14
    00000736              L1449:                            
    00000736 5241                   MOV.L       @(4,R4),R2
    00000738 2228                   TST         R2,R2
    0000073A 8B15                   BF          L1450
    0000073C 54E1                   MOV.L       @(4,R14),R4
    0000073E 63E2                   MOV.L       @R14,R3
    00000740 3340                   CMP/EQ      R4,R3
    00000742 8F04                   BF/S        L1451
    00000744 6542                   MOV.L       @R4,R5
    00000746 E000                   MOV         #0,R0
    00000748 2E02                   MOV.L       R0,@R14
    0000074A A005                   BRA         L1452
    0000074C 1E01                   MOV.L       R0,@(4,R14)
    0000074E              L1451:                            
    0000074E E300                   MOV         #0,R3
    00000750 50E1                   MOV.L       @(4,R14),R0
    00000752 5002                   MOV.L       @(8,R0),R0
    00000754 1E01                   MOV.L       R0,@(4,R14)
    00000756 1031                   MOV.L       R3,@(4,R0)
    00000758              L1452:                            
    00000758 50E2                   MOV.L       @(8,R14),R0
    0000075A 70FF                   ADD         #-1,R0
    0000075C 1E02                   MOV.L       R0,@(8,R14)
    0000075E 6053                   MOV         R5,R0
    00000760 7F04                   ADD         #4,R15
    00000762 4F26                   LDS.L       @R15+,PR
    00000764 000B                   RTS
    00000766 6EF6                   MOV.L       @R15+,R14
    00000768              L1450:                            
    00000768 6342                   MOV.L       @R4,R3
    0000076A 2F32                   MOV.L       R3,@R15
    0000076C 5241                   MOV.L       @(4,R4),R2
    0000076E 5342                   MOV.L       @(8,R4),R3
    00000770 1232                   MOV.L       R3,@(8,R2)
    00000772 5242                   MOV.L       @(8,R4),R2
    00000774 5341                   MOV.L       @(4,R4),R3
    00000776 1231                   MOV.L       R3,@(4,R2)
    00000778 D221                   MOV.L       L1644,R2   ; ___dl__FPv
    0000077A 420B                   JSR         @R2
    0000077C 0009                   NOP
    0000077E 53E2                   MOV.L       @(8,R14),R3
    00000780 73FF                   ADD         #-1,R3
    00000782 1E32                   MOV.L       R3,@(8,R14)
    00000784 60F2                   MOV.L       @R15,R0
    00000786              L1447:                            




SH SERIES C/C++ Compiler (Ver. 6.0C)                                                                 09-Nov-2021 18:28:35  PAGE   32


SCT OFFSET   CODE       C LABEL     INSTRUCTION OPERAND    COMMENT

    00000786 7F04                   ADD         #4,R15
    00000788 4F26                   LDS.L       @R15+,PR
    0000078A 000B                   RTS
    0000078C 6EF6                   MOV.L       @R15+,R14
    0000078E              __$IndexOf__24List__tm__12_P9TransformFZ1Z_i:
                                                           ; function: int List<T1>::IndexOf(T1) [with T1=Transform *]
                                                           ; frame size=8
    0000078E E600                   MOV         #0,R6
    00000790 2FE6                   MOV.L       R14,@-R15
    00000792 4F22                   STS.L       PR,@-R15
    00000794 A009                   BRA         L1453
    00000796 6E42                   MOV.L       @R4,R14
    00000798              L1454:                            
    00000798 62E2                   MOV.L       @R14,R2
    0000079A 3250                   CMP/EQ      R5,R2
    0000079C 8B03                   BF          L1455
    0000079E 6063                   MOV         R6,R0
    000007A0 4F26                   LDS.L       @R15+,PR
    000007A2 000B                   RTS
    000007A4 6EF6                   MOV.L       @R15+,R14
    000007A6              L1455:                            
    000007A6 7601                   ADD         #1,R6
    000007A8 5EE1                   MOV.L       @(4,R14),R14
    000007AA              L1453:                            
    000007AA 53E1                   MOV.L       @(4,R14),R3
    000007AC 2338                   TST         R3,R3
    000007AE 8BF3                   BF          L1454
    000007B0 D313                   MOV.L       L1644,R3   ; ___dl__FPv
    000007B2 430B                   JSR         @R3
    000007B4 64E3                   MOV         R14,R4
    000007B6 E0FF                   MOV         #-1,R0
    000007B8              L1456:                            
    000007B8 4F26                   LDS.L       @R15+,PR
    000007BA 000B                   RTS
    000007BC 6EF6                   MOV.L       @R15+,R14
    000007BE              ___ct__9BehaviourFPCcP10GameObjectT1:
                                                           ; function: Behaviour::Behaviour(const char *, GameObject *, const char *
                        +                                  )
                                                           ; frame size=20
    000007BE 4F22                   STS.L       PR,@-R15
    000007C0 7FF0                   ADD         #-16,R15
    000007C2 2F42                   MOV.L       R4,@R15
    000007C4 1F52                   MOV.L       R5,@(8,R15)
    000007C6 1F61                   MOV.L       R6,@(4,R15)
    000007C8 1F73                   MOV.L       R7,@(12,R15)
    000007CA 63F2                   MOV.L       @R15,R3
    000007CC 2338                   TST         R3,R3
    000007CE 8B05                   BF          L1459
    000007D0 D30C                   MOV.L       L1644+4,R3 ; ___nw__FUl
    000007D2 430B                   JSR         @R3
    000007D4 E420                   MOV         #32,R4
    000007D6 2008                   TST         R0,R0
    000007D8 8D0D                   BT/S        L1458
    000007DA 2F02                   MOV.L       R0,@R15
    000007DC              L1459:                            
    000007DC 57F3                   MOV.L       @(12,R15),R7
    000007DE 56F1                   MOV.L       @(4,R15),R6




SH SERIES C/C++ Compiler (Ver. 6.0C)                                                                 09-Nov-2021 18:28:35  PAGE   33


SCT OFFSET   CODE       C LABEL     INSTRUCTION OPERAND    COMMENT

    000007E0 55F2                   MOV.L       @(8,R15),R5
    000007E2 BD75                   BSR         ___ct__9ComponentFPCcP10GameObjectT1
    000007E4 64F2                   MOV.L       @R15,R4
    000007E6 E401                   MOV         #1,R4
    000007E8 62F2                   MOV.L       @R15,R2
    000007EA D307                   MOV.L       L1644+8,R3 ; __$__vtbl__9Behaviour
    000007EC 1232                   MOV.L       R3,@(8,R2)
    000007EE 62F2                   MOV.L       @R15,R2
    000007F0 1246                   MOV.L       R4,@(24,R2)
    000007F2 63F2                   MOV.L       @R15,R3
    000007F4 1347                   MOV.L       R4,@(28,R3)
    000007F6              L1458:                            
    000007F6 60F2                   MOV.L       @R15,R0
    000007F8 7F10                   ADD         #16,R15
    000007FA 4F26                   LDS.L       @R15+,PR
    000007FC 000B                   RTS
    000007FE 0009                   NOP
    00000800              L1644:                            
    00000800 <00000000>             .DATA.L     ___dl__FPv
    00000804 <00000000>             .DATA.L     ___nw__FUl
    00000808 <00000000>             .DATA.L     __$__vtbl__9Behaviour
    0000080C              __$__dt__9BehaviourFv:           ; function: Behaviour::~Behaviour()
                                                           ; frame size=12
    0000080C 2FE6                   MOV.L       R14,@-R15
    0000080E 6E43                   MOV         R4,R14
    00000810 4F22                   STS.L       PR,@-R15
    00000812 2EE8                   TST         R14,R14
    00000814 7FFC                   ADD         #-4,R15
    00000816 8D0E                   BT/S        L1463
    00000818 2F52                   MOV.L       R5,@R15
    0000081A E500                   MOV         #0,R5
    0000081C D28E                   MOV.L       L1645,R2   ; __$__vtbl__9Behaviour
    0000081E 1E22                   MOV.L       R2,@(8,R14)
    00000820 BD74                   BSR         ___dt__9ComponentFv
    00000822 64E3                   MOV         R14,R4
    00000824 60F2                   MOV.L       @R15,R0
    00000826 C801                   TST         #1,R0
    00000828 8905                   BT          L1463
    0000082A 64E3                   MOV         R14,R4
    0000082C D28B                   MOV.L       L1645+4,R2 ; ___dl__FPv
    0000082E 7F04                   ADD         #4,R15
    00000830 4F26                   LDS.L       @R15+,PR
    00000832 422B                   JMP         @R2
    00000834 6EF6                   MOV.L       @R15+,R14
    00000836              L1463:                            
    00000836 7F04                   ADD         #4,R15
    00000838 4F26                   LDS.L       @R15+,PR
    0000083A 000B                   RTS
    0000083C 6EF6                   MOV.L       @R15+,R14
    0000083E              ___ct__7TextureFv:               ; function: Texture::Texture()
                                                           ; frame size=8
    0000083E 6343                   MOV         R4,R3
    00000840 4F22                   STS.L       PR,@-R15
    00000842 2338                   TST         R3,R3
    00000844 7FFC                   ADD         #-4,R15
    00000846 8F06                   BF/S        L1465
    00000848 2F42                   MOV.L       R4,@R15




SH SERIES C/C++ Compiler (Ver. 6.0C)                                                                 09-Nov-2021 18:28:35  PAGE   34


SCT OFFSET   CODE       C LABEL     INSTRUCTION OPERAND    COMMENT

    0000084A D385                   MOV.L       L1645+8,R3 ; ___nw__FUl
    0000084C 430B                   JSR         @R3
    0000084E E424                   MOV         #36,R4
    00000850 2008                   TST         R0,R0
    00000852 8D0F                   BT/S        L1464
    00000854 2F02                   MOV.L       R0,@R15
    00000856              L1465:                            
    00000856 E600                   MOV         #0,R6
    00000858 D582                   MOV.L       L1645+12,R5; L758
    0000085A BCD7                   BSR         ___ct__6ObjectFPCcT1
    0000085C 64F2                   MOV.L       @R15,R4
    0000085E E400                   MOV         #0,R4
    00000860 62F2                   MOV.L       @R15,R2
    00000862 D381                   MOV.L       L1645+16,R3; __$__vtbl__7Texture
    00000864 1232                   MOV.L       R3,@(8,R2)
    00000866 62F2                   MOV.L       @R15,R2
    00000868 D380                   MOV.L       L1645+20,R3; L759
    0000086A 1233                   MOV.L       R3,@(12,R2)
    0000086C 62F2                   MOV.L       @R15,R2
    0000086E 1248                   MOV.L       R4,@(32,R2)
    00000870 63F2                   MOV.L       @R15,R3
    00000872 1346                   MOV.L       R4,@(24,R3)
    00000874              L1464:                            
    00000874 60F2                   MOV.L       @R15,R0
    00000876 7F04                   ADD         #4,R15
    00000878 4F26                   LDS.L       @R15+,PR
    0000087A 000B                   RTS
    0000087C 0009                   NOP
    0000087E              ___ct__7TextureFPCciT2PCUcT1:    ; function: Texture::Texture(const char *, int, int, const unsigned char 
                        +                                  *, const char *)
                                                           ; frame size=20
    0000087E 4F22                   STS.L       PR,@-R15
    00000880 7FF0                   ADD         #-16,R15
    00000882 2F42                   MOV.L       R4,@R15
    00000884 1F53                   MOV.L       R5,@(12,R15)
    00000886 1F62                   MOV.L       R6,@(8,R15)
    00000888 1F71                   MOV.L       R7,@(4,R15)
    0000088A 63F2                   MOV.L       @R15,R3
    0000088C 2338                   TST         R3,R3
    0000088E 8B05                   BF          L1468
    00000890 D373                   MOV.L       L1645+8,R3 ; ___nw__FUl
    00000892 430B                   JSR         @R3
    00000894 E424                   MOV         #36,R4
    00000896 2008                   TST         R0,R0
    00000898 8D10                   BT/S        L1467
    0000089A 2F02                   MOV.L       R0,@R15
    0000089C              L1468:                            
    0000089C 56F6                   MOV.L       @(24,R15),R6
    0000089E 55F3                   MOV.L       @(12,R15),R5
    000008A0 BCB4                   BSR         ___ct__6ObjectFPCcT1
    000008A2 64F2                   MOV.L       @R15,R4
    000008A4 62F2                   MOV.L       @R15,R2
    000008A6 D370                   MOV.L       L1645+16,R3; __$__vtbl__7Texture
    000008A8 1232                   MOV.L       R3,@(8,R2)
    000008AA 62F2                   MOV.L       @R15,R2
    000008AC 53F5                   MOV.L       @(20,R15),R3
    000008AE 1233                   MOV.L       R3,@(12,R2)




SH SERIES C/C++ Compiler (Ver. 6.0C)                                                                 09-Nov-2021 18:28:35  PAGE   35


SCT OFFSET   CODE       C LABEL     INSTRUCTION OPERAND    COMMENT

    000008B0 62F2                   MOV.L       @R15,R2
    000008B2 53F2                   MOV.L       @(8,R15),R3
    000008B4 1238                   MOV.L       R3,@(32,R2)
    000008B6 62F2                   MOV.L       @R15,R2
    000008B8 53F1                   MOV.L       @(4,R15),R3
    000008BA 1236                   MOV.L       R3,@(24,R2)
    000008BC              L1467:                            
    000008BC 60F2                   MOV.L       @R15,R0
    000008BE 7F10                   ADD         #16,R15
    000008C0 4F26                   LDS.L       @R15+,PR
    000008C2 000B                   RTS
    000008C4 0009                   NOP
    000008C6              __$__dt__7TextureFv:             ; function: Texture::~Texture()
                                                           ; frame size=4
    000008C6 2FE6                   MOV.L       R14,@-R15
    000008C8 6E43                   MOV         R4,R14
    000008CA 2EE8                   TST         R14,R14
    000008CC 8909                   BT          L1472
    000008CE D266                   MOV.L       L1645+16,R2; __$__vtbl__7Texture
    000008D0 D367                   MOV.L       L1645+24,R3; __$__vtbl__6Object
    000008D2 E201                   MOV         #1,R2
    000008D4 1E32                   MOV.L       R3,@(8,R14)
    000008D6 2528                   TST         R2,R5
    000008D8 8903                   BT          L1472
    000008DA 64E3                   MOV         R14,R4
    000008DC D15F                   MOV.L       L1645+4,R1 ; ___dl__FPv
    000008DE 412B                   JMP         @R1
    000008E0 6EF6                   MOV.L       @R15+,R14
    000008E2              L1472:                            
    000008E2 000B                   RTS
    000008E4 6EF6                   MOV.L       @R15+,R14
    000008E6              ___ct__13MonoBehaviourFPCcP10GameObjectT1:
                                                           ; function: MonoBehaviour::MonoBehaviour(const char *, GameObject *, cons
                        +                                  t char *)
                                                           ; frame size=20
    000008E6 4F22                   STS.L       PR,@-R15
    000008E8 7FF0                   ADD         #-16,R15
    000008EA 2F42                   MOV.L       R4,@R15
    000008EC 1F51                   MOV.L       R5,@(4,R15)
    000008EE 1F62                   MOV.L       R6,@(8,R15)
    000008F0 1F73                   MOV.L       R7,@(12,R15)
    000008F2 63F2                   MOV.L       @R15,R3
    000008F4 2338                   TST         R3,R3
    000008F6 8B05                   BF          L1474
    000008F8 D359                   MOV.L       L1645+8,R3 ; ___nw__FUl
    000008FA 430B                   JSR         @R3
    000008FC E424                   MOV         #36,R4
    000008FE 2008                   TST         R0,R0
    00000900 8D0B                   BT/S        L1473
    00000902 2F02                   MOV.L       R0,@R15
    00000904              L1474:                            
    00000904 57F3                   MOV.L       @(12,R15),R7
    00000906 56F2                   MOV.L       @(8,R15),R6
    00000908 55F1                   MOV.L       @(4,R15),R5
    0000090A BF58                   BSR         ___ct__9BehaviourFPCcP10GameObjectT1
    0000090C 64F2                   MOV.L       @R15,R4
    0000090E 62F2                   MOV.L       @R15,R2




SH SERIES C/C++ Compiler (Ver. 6.0C)                                                                 09-Nov-2021 18:28:35  PAGE   36


SCT OFFSET   CODE       C LABEL     INSTRUCTION OPERAND    COMMENT

    00000910 D358                   MOV.L       L1645+28,R3; __$__vtbl__13MonoBehaviour
    00000912 1232                   MOV.L       R3,@(8,R2)
    00000914 62F2                   MOV.L       @R15,R2
    00000916 E301                   MOV         #1,R3
    00000918 1238                   MOV.L       R3,@(32,R2)
    0000091A              L1473:                            
    0000091A 60F2                   MOV.L       @R15,R0
    0000091C 7F10                   ADD         #16,R15
    0000091E 4F26                   LDS.L       @R15+,PR
    00000920 000B                   RTS
    00000922 0009                   NOP
    00000924              __$__dt__13MonoBehaviourFv:      ; function: MonoBehaviour::~MonoBehaviour()
                                                           ; frame size=12
    00000924 2FE6                   MOV.L       R14,@-R15
    00000926 6E43                   MOV         R4,R14
    00000928 4F22                   STS.L       PR,@-R15
    0000092A 2EE8                   TST         R14,R14
    0000092C 7FFC                   ADD         #-4,R15
    0000092E 8D0F                   BT/S        L1478
    00000930 2F52                   MOV.L       R5,@R15
    00000932 E500                   MOV         #0,R5
    00000934 D24F                   MOV.L       L1645+28,R2; __$__vtbl__13MonoBehaviour
    00000936 D348                   MOV.L       L1645,R3   ; __$__vtbl__9Behaviour
    00000938 1E32                   MOV.L       R3,@(8,R14)
    0000093A BCE7                   BSR         ___dt__9ComponentFv
    0000093C 64E3                   MOV         R14,R4
    0000093E 60F2                   MOV.L       @R15,R0
    00000940 C801                   TST         #1,R0
    00000942 8905                   BT          L1478
    00000944 D245                   MOV.L       L1645+4,R2 ; ___dl__FPv
    00000946 64E3                   MOV         R14,R4
    00000948 7F04                   ADD         #4,R15
    0000094A 4F26                   LDS.L       @R15+,PR
    0000094C 422B                   JMP         @R2
    0000094E 6EF6                   MOV.L       @R15+,R14
    00000950              L1478:                            
    00000950 7F04                   ADD         #4,R15
    00000952 4F26                   LDS.L       @R15+,PR
    00000954 000B                   RTS
    00000956 6EF6                   MOV.L       @R15+,R14
    00000958              ___ct__10GameObjectFP5ScenePCcT2:
                                                           ; function: GameObject::GameObject(Scene *, const char *, const char *)
                                                           ; frame size=28
    00000958 2FE6                   MOV.L       R14,@-R15
    0000095A 2F86                   MOV.L       R8,@-R15
    0000095C 4F22                   STS.L       PR,@-R15
    0000095E 7FF0                   ADD         #-16,R15
    00000960 2F42                   MOV.L       R4,@R15
    00000962 1F51                   MOV.L       R5,@(4,R15)
    00000964 1F62                   MOV.L       R6,@(8,R15)
    00000966 1F73                   MOV.L       R7,@(12,R15)
    00000968 63F2                   MOV.L       @R15,R3
    0000096A 2338                   TST         R3,R3
    0000096C 8B05                   BF          L1480
    0000096E D33C                   MOV.L       L1645+8,R3 ; ___nw__FUl
    00000970 430B                   JSR         @R3
    00000972 E438                   MOV         #56,R4




SH SERIES C/C++ Compiler (Ver. 6.0C)                                                                 09-Nov-2021 18:28:35  PAGE   37


SCT OFFSET   CODE       C LABEL     INSTRUCTION OPERAND    COMMENT

    00000974 2008                   TST         R0,R0
    00000976 8D26                   BT/S        L1479
    00000978 2F02                   MOV.L       R0,@R15
    0000097A              L1480:                            
    0000097A 56F3                   MOV.L       @(12,R15),R6
    0000097C 55F2                   MOV.L       @(8,R15),R5
    0000097E BC45                   BSR         ___ct__6ObjectFPCcT1
    00000980 64F2                   MOV.L       @R15,R4
    00000982 EE00                   MOV         #0,R14
    00000984 D73D                   MOV.L       L1645+36,R7; L444
    00000986 66E3                   MOV         R14,R6
    00000988 62F2                   MOV.L       @R15,R2
    0000098A D33B                   MOV.L       L1645+32,R3; ___vtbl__10GameObject
    0000098C 1232                   MOV.L       R3,@(8,R2)
    0000098E 62F2                   MOV.L       @R15,R2
    00000990 12E5                   MOV.L       R14,@(20,R2)
    00000992 63F2                   MOV.L       @R15,R3
    00000994 13E3                   MOV.L       R14,@(12,R3)
    00000996 63F2                   MOV.L       @R15,R3
    00000998 13E4                   MOV.L       R14,@(16,R3)
    0000099A 63F2                   MOV.L       @R15,R3
    0000099C 52F1                   MOV.L       @(4,R15),R2
    0000099E 132A                   MOV.L       R2,@(40,R3)
    000009A0 68F2                   MOV.L       @R15,R8
    000009A2 7834                   ADD         #52,R8
    000009A4 65F2                   MOV.L       @R15,R5
    000009A6 BD4E                   BSR         ___ct__9TransformFP10GameObjectPCcT2
    000009A8 64E3                   MOV         R14,R4
    000009AA E401                   MOV         #1,R4
    000009AC 2802                   MOV.L       R0,@R8
    000009AE 63F2                   MOV.L       @R15,R3
    000009B0 1346                   MOV.L       R4,@(24,R3)
    000009B2 63F2                   MOV.L       @R15,R3
    000009B4 1347                   MOV.L       R4,@(28,R3)
    000009B6 63F2                   MOV.L       @R15,R3
    000009B8 13E8                   MOV.L       R14,@(32,R3)
    000009BA 63F2                   MOV.L       @R15,R3
    000009BC 13E9                   MOV.L       R14,@(36,R3)
    000009BE 63F2                   MOV.L       @R15,R3
    000009C0 13EB                   MOV.L       R14,@(44,R3)
    000009C2 63F2                   MOV.L       @R15,R3
    000009C4 13EC                   MOV.L       R14,@(48,R3)
    000009C6              L1479:                            
    000009C6 60F2                   MOV.L       @R15,R0
    000009C8 7F10                   ADD         #16,R15
    000009CA 4F26                   LDS.L       @R15+,PR
    000009CC 68F6                   MOV.L       @R15+,R8
    000009CE 000B                   RTS
    000009D0 6EF6                   MOV.L       @R15+,R14
    000009D2              ___dt__10GameObjectFv:           ; function: GameObject::~GameObject()
                                                           ; frame size=20
    000009D2 2FE6                   MOV.L       R14,@-R15
    000009D4 2FD6                   MOV.L       R13,@-R15
    000009D6 6E43                   MOV         R4,R14
    000009D8 4F22                   STS.L       PR,@-R15
    000009DA 2EE8                   TST         R14,R14
    000009DC 7FF8                   ADD         #-8,R15




SH SERIES C/C++ Compiler (Ver. 6.0C)                                                                 09-Nov-2021 18:28:35  PAGE   38


SCT OFFSET   CODE       C LABEL     INSTRUCTION OPERAND    COMMENT

    000009DE 8D1A                   BT/S        L1486
    000009E0 1F51                   MOV.L       R5,@(4,R15)
    000009E2 D225                   MOV.L       L1645+32,R2; ___vtbl__10GameObject
    000009E4 1E22                   MOV.L       R2,@(8,R14)
    000009E6 5DED                   MOV.L       @(52,R14),R13
    000009E8 2DD8                   TST         R13,R13
    000009EA 8908                   BT          L1484
    000009EC 52D2                   MOV.L       @(8,R13),R2
    000009EE E503                   MOV         #3,R5
    000009F0 720C                   ADD         #12,R2
    000009F2 6423                   MOV         R2,R4
    000009F4 2F22                   MOV.L       R2,@R15
    000009F6 5322                   MOV.L       @(8,R2),R3
    000009F8 6442                   MOV.L       @R4,R4
    000009FA 430B                   JSR         @R3
    000009FC 34DC                   ADD         R13,R4
    000009FE              L1484:                            
    000009FE D21C                   MOV.L       L1645+24,R2; __$__vtbl__6Object
    00000A00 1E22                   MOV.L       R2,@(8,R14)
    00000A02 50F1                   MOV.L       @(4,R15),R0
    00000A04 C801                   TST         #1,R0
    00000A06 8906                   BT          L1486
    00000A08 D214                   MOV.L       L1645+4,R2 ; ___dl__FPv
    00000A0A 64E3                   MOV         R14,R4
    00000A0C 7F08                   ADD         #8,R15
    00000A0E 4F26                   LDS.L       @R15+,PR
    00000A10 6DF6                   MOV.L       @R15+,R13
    00000A12 422B                   JMP         @R2
    00000A14 6EF6                   MOV.L       @R15+,R14
    00000A16              L1486:                            
    00000A16 7F08                   ADD         #8,R15
    00000A18 4F26                   LDS.L       @R15+,PR
    00000A1A 6DF6                   MOV.L       @R15+,R13
    00000A1C 000B                   RTS
    00000A1E 6EF6                   MOV.L       @R15+,R14
    00000A20              _IsActive__10GameObjectFv:       ; function: GameObject::IsActive()
                                                           ; frame size=8
    00000A20 7FF8                   ADD         #-8,R15
    00000A22 5347                   MOV.L       @(28,R4),R3
    00000A24 2338                   TST         R3,R3
    00000A26 8910                   BT          L1141
    00000A28 524D                   MOV.L       @(52,R4),R2
    00000A2A E044                   MOV         #68,R0
    00000A2C 032E                   MOV.L       @(R0,R2),R3
    00000A2E 2338                   TST         R3,R3
    00000A30 890D                   BT          L1489
    00000A32 E044                   MOV         #68,R0
    00000A34 554D                   MOV.L       @(52,R4),R5
    00000A36 2F52                   MOV.L       R5,@R15
    00000A38 055E                   MOV.L       @(R0,R5),R5
    00000A3A 1F51                   MOV.L       R5,@(4,R15)
    00000A3C 5554                   MOV.L       @(16,R5),R5
    00000A3E 5356                   MOV.L       @(24,R5),R3
    00000A40 2338                   TST         R3,R3
    00000A42 8902                   BT          L1141
    00000A44 5357                   MOV.L       @(28,R5),R3
    00000A46 2338                   TST         R3,R3




SH SERIES C/C++ Compiler (Ver. 6.0C)                                                                 09-Nov-2021 18:28:35  PAGE   39


SCT OFFSET   CODE       C LABEL     INSTRUCTION OPERAND    COMMENT

    00000A48 8B01                   BF          L1489
    00000A4A              L1141:
    00000A4A A001                   BRA         L1641
    00000A4C E500                   MOV         #0,R5
    00000A4E              L1489:                            
    00000A4E E501                   MOV         #1,R5
    00000A50              L1641:                            
    00000A50 1456                   MOV.L       R5,@(24,R4)
    00000A52 6053                   MOV         R5,R0
    00000A54 000B                   RTS
    00000A56 7F08                   ADD         #8,R15
    00000A58              L1645:                            
    00000A58 <00000000>             .DATA.L     __$__vtbl__9Behaviour
    00000A5C <00000000>             .DATA.L     ___dl__FPv
    00000A60 <00000000>             .DATA.L     ___nw__FUl
    00000A64 <00000000>             .DATA.L     L758
    00000A68 <00000000>             .DATA.L     __$__vtbl__7Texture
    00000A6C <00000000>             .DATA.L     L759
    00000A70 <00000000>             .DATA.L     __$__vtbl__6Object
    00000A74 <00000000>             .DATA.L     __$__vtbl__13MonoBehaviour
    00000A78 <00000000>             .DATA.L     ___vtbl__10GameObject
    00000A7C <00000000>             .DATA.L     L444
    00000A80              _Update__10GameObjectFv:         ; function: GameObject::Update()
                                                           ; frame size=28
    00000A80 2FE6                   MOV.L       R14,@-R15
    00000A82 6E43                   MOV         R4,R14
    00000A84 2FD6                   MOV.L       R13,@-R15
    00000A86 2FC6                   MOV.L       R12,@-R15
    00000A88 2FB6                   MOV.L       R11,@-R15
    00000A8A 2FA6                   MOV.L       R10,@-R15
    00000A8C 4F22                   STS.L       PR,@-R15
    00000A8E 7FFC                   ADD         #-4,R15
    00000A90 9B83                   MOV.W       L1646,R11  ; H'0360
    00000A92 5DED                   MOV.L       @(52,R14),R13
    00000A94 2FD2                   MOV.L       R13,@R15
    00000A96 5DD2                   MOV.L       @(8,R13),R13
    00000A98 64F2                   MOV.L       @R15,R4
    00000A9A 3DBC                   ADD         R11,R13
    00000A9C 53D2                   MOV.L       @(8,R13),R3
    00000A9E 62D2                   MOV.L       @R13,R2
    00000AA0 430B                   JSR         @R3
    00000AA2 342C                   ADD         R2,R4
    00000AA4 BFBC                   BSR         _IsActive__10GameObjectFv
    00000AA6 64E3                   MOV         R14,R4
    00000AA8 2008                   TST         R0,R0
    00000AAA 8910                   BT          L1493
    00000AAC A00C                   BRA         L1494
    00000AAE ED00                   MOV         #0,R13
    00000AB0              L1495:                            
    00000AB0 65D3                   MOV         R13,R5
    00000AB2 64E3                   MOV         R14,R4
    00000AB4 B0A5                   BSR         __$get__24List__tm__12_P9ComponentFi_Z1Z
    00000AB6 740C                   ADD         #12,R4
    00000AB8 5C02                   MOV.L       @(8,R0),R12
    00000ABA 6A03                   MOV         R0,R10
    00000ABC 3CBC                   ADD         R11,R12
    00000ABE 53C2                   MOV.L       @(8,R12),R3




SH SERIES C/C++ Compiler (Ver. 6.0C)                                                                 09-Nov-2021 18:28:35  PAGE   40


SCT OFFSET   CODE       C LABEL     INSTRUCTION OPERAND    COMMENT

    00000AC0 64C2                   MOV.L       @R12,R4
    00000AC2 430B                   JSR         @R3
    00000AC4 34AC                   ADD         R10,R4
    00000AC6 7D01                   ADD         #1,R13
    00000AC8              L1494:                            
    00000AC8 52E5                   MOV.L       @(20,R14),R2
    00000ACA 3D23                   CMP/GE      R2,R13
    00000ACC 8BF0                   BF          L1495
    00000ACE              L1493:                            
    00000ACE 7F04                   ADD         #4,R15
    00000AD0 4F26                   LDS.L       @R15+,PR
    00000AD2 6AF6                   MOV.L       @R15+,R10
    00000AD4 6BF6                   MOV.L       @R15+,R11
    00000AD6 6CF6                   MOV.L       @R15+,R12
    00000AD8 6DF6                   MOV.L       @R15+,R13
    00000ADA 000B                   RTS
    00000ADC 6EF6                   MOV.L       @R15+,R14
    00000ADE              _Start__10GameObjectFv:          ; function: GameObject::Start()
                                                           ; frame size=28
    00000ADE 2FE6                   MOV.L       R14,@-R15
    00000AE0 2FD6                   MOV.L       R13,@-R15
    00000AE2 6E43                   MOV         R4,R14
    00000AE4 2FC6                   MOV.L       R12,@-R15
    00000AE6 2FB6                   MOV.L       R11,@-R15
    00000AE8 2FA6                   MOV.L       R10,@-R15
    00000AEA 4F22                   STS.L       PR,@-R15
    00000AEC 9B56                   MOV.W       L1646+2,R11; H'0354
    00000AEE 7FFC                   ADD         #-4,R15
    00000AF0 5DED                   MOV.L       @(52,R14),R13
    00000AF2 2FD2                   MOV.L       R13,@R15
    00000AF4 5DD2                   MOV.L       @(8,R13),R13
    00000AF6 3DBC                   ADD         R11,R13
    00000AF8 53D2                   MOV.L       @(8,R13),R3
    00000AFA 62D2                   MOV.L       @R13,R2
    00000AFC 64F2                   MOV.L       @R15,R4
    00000AFE 430B                   JSR         @R3
    00000B00 342C                   ADD         R2,R4
    00000B02 BF8D                   BSR         _IsActive__10GameObjectFv
    00000B04 64E3                   MOV         R14,R4
    00000B06 2008                   TST         R0,R0
    00000B08 8910                   BT          L1497
    00000B0A A00C                   BRA         L1498
    00000B0C ED00                   MOV         #0,R13
    00000B0E              L1499:                            
    00000B0E 65D3                   MOV         R13,R5
    00000B10 64E3                   MOV         R14,R4
    00000B12 B076                   BSR         __$get__24List__tm__12_P9ComponentFi_Z1Z
    00000B14 740C                   ADD         #12,R4
    00000B16 6A03                   MOV         R0,R10
    00000B18 5C02                   MOV.L       @(8,R0),R12
    00000B1A 3CBC                   ADD         R11,R12
    00000B1C 53C2                   MOV.L       @(8,R12),R3
    00000B1E 64C2                   MOV.L       @R12,R4
    00000B20 430B                   JSR         @R3
    00000B22 34AC                   ADD         R10,R4
    00000B24 7D01                   ADD         #1,R13
    00000B26              L1498:                            




SH SERIES C/C++ Compiler (Ver. 6.0C)                                                                 09-Nov-2021 18:28:35  PAGE   41


SCT OFFSET   CODE       C LABEL     INSTRUCTION OPERAND    COMMENT

    00000B26 52E5                   MOV.L       @(20,R14),R2
    00000B28 3D23                   CMP/GE      R2,R13
    00000B2A 8BF0                   BF          L1499
    00000B2C              L1497:                            
    00000B2C 7F04                   ADD         #4,R15
    00000B2E 4F26                   LDS.L       @R15+,PR
    00000B30 6AF6                   MOV.L       @R15+,R10
    00000B32 6BF6                   MOV.L       @R15+,R11
    00000B34 6CF6                   MOV.L       @R15+,R12
    00000B36 6DF6                   MOV.L       @R15+,R13
    00000B38 000B                   RTS
    00000B3A 6EF6                   MOV.L       @R15+,R14
    00000B3C              _AddComponent__10GameObjectFP9Component:
                                                           ; function: GameObject::AddComponent(Component *)
                                                           ; frame size=16
    00000B3C 2FE6                   MOV.L       R14,@-R15
    00000B3E 6E43                   MOV         R4,R14
    00000B40 D317                   MOV.L       L1646+6,R3 ; ___nw__FUl
    00000B42 2FD6                   MOV.L       R13,@-R15
    00000B44 4F22                   STS.L       PR,@-R15
    00000B46 7FFC                   ADD         #-4,R15
    00000B48 2F52                   MOV.L       R5,@R15
    00000B4A 430B                   JSR         @R3
    00000B4C E40C                   MOV         #12,R4
    00000B4E 2008                   TST         R0,R0
    00000B50 8D06                   BT/S        L1500
    00000B52 6D03                   MOV         R0,R13
    00000B54 D313                   MOV.L       L1646+10,R3; ___memzero
    00000B56 E50C                   MOV         #12,R5
    00000B58 430B                   JSR         @R3
    00000B5A 64D3                   MOV         R13,R4
    00000B5C A001                   BRA         L1501
    00000B5E 64D3                   MOV         R13,R4
    00000B60              L1500:                            
    00000B60 E400                   MOV         #0,R4
    00000B62              L1501:                            
    00000B62 63F2                   MOV.L       @R15,R3
    00000B64 2432                   MOV.L       R3,@R4
    00000B66 52E5                   MOV.L       @(20,R14),R2
    00000B68 7201                   ADD         #1,R2
    00000B6A 1E25                   MOV.L       R2,@(20,R14)
    00000B6C 53E3                   MOV.L       @(12,R14),R3
    00000B6E 2338                   TST         R3,R3
    00000B70 8B01                   BF          L1502
    00000B72 A004                   BRA         L1142
    00000B74 1E43                   MOV.L       R4,@(12,R14)
    00000B76              L1502:                            
    00000B76 53E4                   MOV.L       @(16,R14),R3
    00000B78 1432                   MOV.L       R3,@(8,R4)
    00000B7A 52E4                   MOV.L       @(16,R14),R2
    00000B7C 1241                   MOV.L       R4,@(4,R2)
    00000B7E              L1142:
    00000B7E 1E44                   MOV.L       R4,@(16,R14)
    00000B80 7F04                   ADD         #4,R15
    00000B82 4F26                   LDS.L       @R15+,PR
    00000B84 6DF6                   MOV.L       @R15+,R13
    00000B86 000B                   RTS




SH SERIES C/C++ Compiler (Ver. 6.0C)                                                                 09-Nov-2021 18:28:35  PAGE   42


SCT OFFSET   CODE       C LABEL     INSTRUCTION OPERAND    COMMENT

    00000B88 6EF6                   MOV.L       @R15+,R14
    00000B8A              _GetComponent__10GameObjectFPCc: ; function: GameObject::GetComponent(const char *)
                                                           ; frame size=16
    00000B8A 2FE6                   MOV.L       R14,@-R15
    00000B8C 2FD6                   MOV.L       R13,@-R15
    00000B8E 6D43                   MOV         R4,R13
    00000B90 4F22                   STS.L       PR,@-R15
    00000B92 7FFC                   ADD         #-4,R15
    00000B94 2F52                   MOV.L       R5,@R15
    00000B96 A018                   BRA         L1505
    00000B98 EE00                   MOV         #0,R14
    00000B9A              L1646:                            
    00000B9A 0360                   .DATA.W     H'0360
    00000B9C 0354                   .DATA.W     H'0354
    00000B9E 0000                   .DATA.W     0
    00000BA0 <00000000>             .DATA.L     ___nw__FUl
    00000BA4 <00000000>             .DATA.L     ___memzero
    00000BA8              L1506:                            
    00000BA8 65E3                   MOV         R14,R5
    00000BAA 64D3                   MOV         R13,R4
    00000BAC B029                   BSR         __$get__24List__tm__12_P9ComponentFi_Z1Z
    00000BAE 740C                   ADD         #12,R4
    00000BB0 63F2                   MOV.L       @R15,R3
    00000BB2 6202                   MOV.L       @R0,R2
    00000BB4 3230                   CMP/EQ      R3,R2
    00000BB6 8B07                   BF          L1507
    00000BB8 65E3                   MOV         R14,R5
    00000BBA 64D3                   MOV         R13,R4
    00000BBC 740C                   ADD         #12,R4
    00000BBE 7F04                   ADD         #4,R15
    00000BC0 4F26                   LDS.L       @R15+,PR
    00000BC2 6DF6                   MOV.L       @R15+,R13
    00000BC4 A01D                   BRA         __$get__24List__tm__12_P9ComponentFi_Z1Z
    00000BC6 6EF6                   MOV.L       @R15+,R14
    00000BC8              L1507:                            
    00000BC8 7E01                   ADD         #1,R14
    00000BCA              L1505:                            
    00000BCA 52D5                   MOV.L       @(20,R13),R2
    00000BCC 3E23                   CMP/GE      R2,R14
    00000BCE 8BEB                   BF          L1506
    00000BD0 E000                   MOV         #0,R0
    00000BD2 7F04                   ADD         #4,R15
    00000BD4 4F26                   LDS.L       @R15+,PR
    00000BD6 6DF6                   MOV.L       @R15+,R13
    00000BD8 000B                   RTS
    00000BDA 6EF6                   MOV.L       @R15+,R14
    00000BDC              _Find__10GameObjectFPUc:         ; function: GameObject::Find(unsigned char *)
                                                           ; frame size=8
    00000BDC D071                   MOV.L       L1647+2,R0 ; _FindWithName__FPUcP10GameObject
    00000BDE 7FF8                   ADD         #-8,R15
    00000BE0 1F41                   MOV.L       R4,@(4,R15)
    00000BE2 2F52                   MOV.L       R5,@R15
    00000BE4 55F1                   MOV.L       @(4,R15),R5
    00000BE6 64F2                   MOV.L       @R15,R4
    00000BE8 402B                   JMP         @R0
    00000BEA 7F08                   ADD         #8,R15
    00000BEC              __$get_node__24List__tm__12_P9ComponentFi_P15Node__tm__4_Z1Z:




SH SERIES C/C++ Compiler (Ver. 6.0C)                                                                 09-Nov-2021 18:28:35  PAGE   43


SCT OFFSET   CODE       C LABEL     INSTRUCTION OPERAND    COMMENT

                                                           ; function: Node<T1> *List<T1>::get_node(int) [with T1=Component *]
                                                           ; frame size=0
    00000BEC E700                   MOV         #0,R7
    00000BEE A002                   BRA         L1510
    00000BF0 6642                   MOV.L       @R4,R6
    00000BF2              L1511:                            
    00000BF2 7701                   ADD         #1,R7
    00000BF4 5661                   MOV.L       @(4,R6),R6
    00000BF6              L1510:                            
    00000BF6 2668                   TST         R6,R6
    00000BF8 8901                   BT          L1512
    00000BFA 3750                   CMP/EQ      R5,R7
    00000BFC 8BF9                   BF          L1511
    00000BFE              L1512:                            
    00000BFE 000B                   RTS
    00000C00 6063                   MOV         R6,R0
    00000C02              __$get__24List__tm__12_P9ComponentFi_Z1Z:
                                                           ; function: T1 List<T1>::get(int) [with T1=Component *]
                                                           ; frame size=4
    00000C02 E3FF                   MOV         #-1,R3
    00000C04 4F22                   STS.L       PR,@-R15
    00000C06 3533                   CMP/GE      R3,R5
    00000C08 8B04                   BF          L1143
    00000C0A BFEF                   BSR         __$get_node__24List__tm__12_P9ComponentFi_P15Node__tm__4_Z1Z
    00000C0C 0009                   NOP
    00000C0E 6403                   MOV         R0,R4
    00000C10 2448                   TST         R4,R4
    00000C12 8B02                   BF          L1516
    00000C14              L1143:
    00000C14 4F26                   LDS.L       @R15+,PR
    00000C16 000B                   RTS
    00000C18 E000                   MOV         #0,R0
    00000C1A              L1516:                            
    00000C1A 6042                   MOV.L       @R4,R0
    00000C1C              L1515:                            
    00000C1C 4F26                   LDS.L       @R15+,PR
    00000C1E 000B                   RTS
    00000C20 0009                   NOP
    00000C22              _AddGameObject__5SceneFP10GameObject:
                                                           ; function: Scene::AddGameObject(GameObject *)
                                                           ; frame size=16
    00000C22 2FE6                   MOV.L       R14,@-R15
    00000C24 2FD6                   MOV.L       R13,@-R15
    00000C26 6E43                   MOV         R4,R14
    00000C28 D35F                   MOV.L       L1647+6,R3 ; ___nw__FUl
    00000C2A 4F22                   STS.L       PR,@-R15
    00000C2C 7FFC                   ADD         #-4,R15
    00000C2E 2F52                   MOV.L       R5,@R15
    00000C30 430B                   JSR         @R3
    00000C32 E40C                   MOV         #12,R4
    00000C34 2008                   TST         R0,R0
    00000C36 8D06                   BT/S        L1517
    00000C38 6D03                   MOV         R0,R13
    00000C3A E50C                   MOV         #12,R5
    00000C3C D35B                   MOV.L       L1647+10,R3; ___memzero
    00000C3E 430B                   JSR         @R3
    00000C40 64D3                   MOV         R13,R4




SH SERIES C/C++ Compiler (Ver. 6.0C)                                                                 09-Nov-2021 18:28:35  PAGE   44


SCT OFFSET   CODE       C LABEL     INSTRUCTION OPERAND    COMMENT

    00000C42 A001                   BRA         L1518
    00000C44 64D3                   MOV         R13,R4
    00000C46              L1517:                            
    00000C46 E400                   MOV         #0,R4
    00000C48              L1518:                            
    00000C48 63F2                   MOV.L       @R15,R3
    00000C4A 2432                   MOV.L       R3,@R4
    00000C4C 52E2                   MOV.L       @(8,R14),R2
    00000C4E 7201                   ADD         #1,R2
    00000C50 1E22                   MOV.L       R2,@(8,R14)
    00000C52 63E2                   MOV.L       @R14,R3
    00000C54 2338                   TST         R3,R3
    00000C56 8B01                   BF          L1519
    00000C58 A004                   BRA         L1144
    00000C5A 2E42                   MOV.L       R4,@R14
    00000C5C              L1519:                            
    00000C5C 53E1                   MOV.L       @(4,R14),R3
    00000C5E 1432                   MOV.L       R3,@(8,R4)
    00000C60 52E1                   MOV.L       @(4,R14),R2
    00000C62 1241                   MOV.L       R4,@(4,R2)
    00000C64              L1144:
    00000C64 1E41                   MOV.L       R4,@(4,R14)
    00000C66 7F04                   ADD         #4,R15
    00000C68 4F26                   LDS.L       @R15+,PR
    00000C6A 6DF6                   MOV.L       @R15+,R13
    00000C6C 000B                   RTS
    00000C6E 6EF6                   MOV.L       @R15+,R14
    00000C70              _Update__5SceneFv:               ; function: Scene::Update()
                                                           ; frame size=12
    00000C70 2FE6                   MOV.L       R14,@-R15
    00000C72 2FD6                   MOV.L       R13,@-R15
    00000C74 4F22                   STS.L       PR,@-R15
    00000C76 6D43                   MOV         R4,R13
    00000C78 A006                   BRA         L1522
    00000C7A EE00                   MOV         #0,R14
    00000C7C              L1523:                            
    00000C7C 65E3                   MOV         R14,R5
    00000C7E B028                   BSR         __$get__26List__tm__14_P10GameObjectFi_Z1Z
    00000C80 64D3                   MOV         R13,R4
    00000C82 BEFD                   BSR         _Update__10GameObjectFv
    00000C84 6403                   MOV         R0,R4
    00000C86 7E01                   ADD         #1,R14
    00000C88              L1522:                            
    00000C88 52D2                   MOV.L       @(8,R13),R2
    00000C8A 3E23                   CMP/GE      R2,R14
    00000C8C 8BF6                   BF          L1523
    00000C8E 4F26                   LDS.L       @R15+,PR
    00000C90 6DF6                   MOV.L       @R15+,R13
    00000C92 000B                   RTS
    00000C94 6EF6                   MOV.L       @R15+,R14
    00000C96              _Start__5SceneFv:                ; function: Scene::Start()
                                                           ; frame size=12
    00000C96 2FE6                   MOV.L       R14,@-R15
    00000C98 2FD6                   MOV.L       R13,@-R15
    00000C9A 6D43                   MOV         R4,R13
    00000C9C 4F22                   STS.L       PR,@-R15
    00000C9E A006                   BRA         L1525




SH SERIES C/C++ Compiler (Ver. 6.0C)                                                                 09-Nov-2021 18:28:35  PAGE   45


SCT OFFSET   CODE       C LABEL     INSTRUCTION OPERAND    COMMENT

    00000CA0 EE00                   MOV         #0,R14
    00000CA2              L1526:                            
    00000CA2 65E3                   MOV         R14,R5
    00000CA4 B015                   BSR         __$get__26List__tm__14_P10GameObjectFi_Z1Z
    00000CA6 64D3                   MOV         R13,R4
    00000CA8 BF19                   BSR         _Start__10GameObjectFv
    00000CAA 6403                   MOV         R0,R4
    00000CAC 7E01                   ADD         #1,R14
    00000CAE              L1525:                            
    00000CAE 52D2                   MOV.L       @(8,R13),R2
    00000CB0 3E23                   CMP/GE      R2,R14
    00000CB2 8BF6                   BF          L1526
    00000CB4 4F26                   LDS.L       @R15+,PR
    00000CB6 6DF6                   MOV.L       @R15+,R13
    00000CB8 000B                   RTS
    00000CBA 6EF6                   MOV.L       @R15+,R14
    00000CBC              __$get_node__26List__tm__14_P10GameObjectFi_P15Node__tm__4_Z1Z:
                                                           ; function: Node<T1> *List<T1>::get_node(int) [with T1=GameObject *]
                                                           ; frame size=0
    00000CBC E700                   MOV         #0,R7
    00000CBE A002                   BRA         L1528
    00000CC0 6642                   MOV.L       @R4,R6
    00000CC2              L1529:                            
    00000CC2 7701                   ADD         #1,R7
    00000CC4 5661                   MOV.L       @(4,R6),R6
    00000CC6              L1528:                            
    00000CC6 2668                   TST         R6,R6
    00000CC8 8901                   BT          L1530
    00000CCA 3750                   CMP/EQ      R5,R7
    00000CCC 8BF9                   BF          L1529
    00000CCE              L1530:                            
    00000CCE 000B                   RTS
    00000CD0 6063                   MOV         R6,R0
    00000CD2              __$get__26List__tm__14_P10GameObjectFi_Z1Z:
                                                           ; function: T1 List<T1>::get(int) [with T1=GameObject *]
                                                           ; frame size=4
    00000CD2 E3FF                   MOV         #-1,R3
    00000CD4 4F22                   STS.L       PR,@-R15
    00000CD6 3533                   CMP/GE      R3,R5
    00000CD8 8B04                   BF          L1145
    00000CDA BFEF                   BSR         __$get_node__26List__tm__14_P10GameObjectFi_P15Node__tm__4_Z1Z
    00000CDC 0009                   NOP
    00000CDE 6403                   MOV         R0,R4
    00000CE0 2448                   TST         R4,R4
    00000CE2 8B02                   BF          L1534
    00000CE4              L1145:
    00000CE4 4F26                   LDS.L       @R15+,PR
    00000CE6 000B                   RTS
    00000CE8 E000                   MOV         #0,R0
    00000CEA              L1534:                            
    00000CEA 6042                   MOV.L       @R4,R0
    00000CEC              L1533:                            
    00000CEC 4F26                   LDS.L       @R15+,PR
    00000CEE 000B                   RTS
    00000CF0 0009                   NOP
    00000CF2              __$get_node__20List__tm__9_P6CameraFi_P15Node__tm__4_Z1Z:
                                                           ; function: Node<T1> *List<T1>::get_node(int) [with T1=Camera *]




SH SERIES C/C++ Compiler (Ver. 6.0C)                                                                 09-Nov-2021 18:28:35  PAGE   46


SCT OFFSET   CODE       C LABEL     INSTRUCTION OPERAND    COMMENT

                                                           ; frame size=0
    00000CF2 E700                   MOV         #0,R7
    00000CF4 A002                   BRA         L1535
    00000CF6 6642                   MOV.L       @R4,R6
    00000CF8              L1536:                            
    00000CF8 5661                   MOV.L       @(4,R6),R6
    00000CFA 7701                   ADD         #1,R7
    00000CFC              L1535:                            
    00000CFC 2668                   TST         R6,R6
    00000CFE 8901                   BT          L1537
    00000D00 3750                   CMP/EQ      R5,R7
    00000D02 8BF9                   BF          L1536
    00000D04              L1537:                            
    00000D04 000B                   RTS
    00000D06 6063                   MOV         R6,R0
    00000D08              __$get__20List__tm__9_P6CameraFi_Z1Z:
                                                           ; function: T1 List<T1>::get(int) [with T1=Camera *]
                                                           ; frame size=4
    00000D08 4F22                   STS.L       PR,@-R15
    00000D0A E3FF                   MOV         #-1,R3
    00000D0C 3533                   CMP/GE      R3,R5
    00000D0E 8B04                   BF          L1146
    00000D10 BFEF                   BSR         __$get_node__20List__tm__9_P6CameraFi_P15Node__tm__4_Z1Z
    00000D12 0009                   NOP
    00000D14 6403                   MOV         R0,R4
    00000D16 2448                   TST         R4,R4
    00000D18 8B02                   BF          L1541
    00000D1A              L1146:
    00000D1A 4F26                   LDS.L       @R15+,PR
    00000D1C 000B                   RTS
    00000D1E E000                   MOV         #0,R0
    00000D20              L1541:                            
    00000D20 6042                   MOV.L       @R4,R0
    00000D22              L1540:                            
    00000D22 4F26                   LDS.L       @R15+,PR
    00000D24 000B                   RTS
    00000D26 0009                   NOP
    00000D28              ___ct__6CameraFP10GameObjectPCc: ; function: Camera::Camera(GameObject *, const char *)
                                                           ; frame size=24
    00000D28 2FE6                   MOV.L       R14,@-R15
    00000D2A 2FD6                   MOV.L       R13,@-R15
    00000D2C 4F22                   STS.L       PR,@-R15
    00000D2E 7FF4                   ADD         #-12,R15
    00000D30 2F42                   MOV.L       R4,@R15
    00000D32 1F51                   MOV.L       R5,@(4,R15)
    00000D34 1F62                   MOV.L       R6,@(8,R15)
    00000D36 63F2                   MOV.L       @R15,R3
    00000D38 2338                   TST         R3,R3
    00000D3A 8B05                   BF          L1543
    00000D3C D31A                   MOV.L       L1647+6,R3 ; ___nw__FUl
    00000D3E 430B                   JSR         @R3
    00000D40 E420                   MOV         #32,R4
    00000D42 2008                   TST         R0,R0
    00000D44 8D27                   BT/S        L1542
    00000D46 2F02                   MOV.L       R0,@R15
    00000D48              L1543:                            
    00000D48 57F2                   MOV.L       @(8,R15),R7




SH SERIES C/C++ Compiler (Ver. 6.0C)                                                                 09-Nov-2021 18:28:35  PAGE   47


SCT OFFSET   CODE       C LABEL     INSTRUCTION OPERAND    COMMENT

    00000D4A 56F1                   MOV.L       @(4,R15),R6
    00000D4C D518                   MOV.L       L1647+14,R5; L449
    00000D4E BD36                   BSR         ___ct__9BehaviourFPCcP10GameObjectT1
    00000D50 64F2                   MOV.L       @R15,R4
    00000D52 62F2                   MOV.L       @R15,R2
    00000D54 D317                   MOV.L       L1647+18,R3; __$__vtbl__6Camera
    00000D56 1232                   MOV.L       R3,@(8,R2)
    00000D58 5EF1                   MOV.L       @(4,R15),R14
    00000D5A 5EEA                   MOV.L       @(40,R14),R14
    00000D5C D312                   MOV.L       L1647+6,R3 ; ___nw__FUl
    00000D5E 7E24                   ADD         #36,R14
    00000D60 430B                   JSR         @R3
    00000D62 E40C                   MOV         #12,R4
    00000D64 2008                   TST         R0,R0
    00000D66 8D06                   BT/S        L1544
    00000D68 6D03                   MOV         R0,R13
    00000D6A E50C                   MOV         #12,R5
    00000D6C D30F                   MOV.L       L1647+10,R3; ___memzero
    00000D6E 430B                   JSR         @R3
    00000D70 64D3                   MOV         R13,R4
    00000D72 A001                   BRA         L1545
    00000D74 64D3                   MOV         R13,R4
    00000D76              L1544:                            
    00000D76 E400                   MOV         #0,R4
    00000D78              L1545:                            
    00000D78 63F2                   MOV.L       @R15,R3
    00000D7A 2432                   MOV.L       R3,@R4
    00000D7C 52E2                   MOV.L       @(8,R14),R2
    00000D7E 7201                   ADD         #1,R2
    00000D80 1E22                   MOV.L       R2,@(8,R14)
    00000D82 63E2                   MOV.L       @R14,R3
    00000D84 2338                   TST         R3,R3
    00000D86 8B01                   BF          L1546
    00000D88 A004                   BRA         L1147
    00000D8A 2E42                   MOV.L       R4,@R14
    00000D8C              L1546:                            
    00000D8C 53E1                   MOV.L       @(4,R14),R3
    00000D8E 1432                   MOV.L       R3,@(8,R4)
    00000D90 52E1                   MOV.L       @(4,R14),R2
    00000D92 1241                   MOV.L       R4,@(4,R2)
    00000D94              L1147:
    00000D94 1E41                   MOV.L       R4,@(4,R14)
    00000D96              L1542:                            
    00000D96 60F2                   MOV.L       @R15,R0
    00000D98 7F0C                   ADD         #12,R15
    00000D9A 4F26                   LDS.L       @R15+,PR
    00000D9C 6DF6                   MOV.L       @R15+,R13
    00000D9E 000B                   RTS
    00000DA0 6EF6                   MOV.L       @R15+,R14
    00000DA2              L1647:                            
    00000DA2 0000                   .DATA.W     0
    00000DA4 <00000000>             .DATA.L     _FindWithName__FPUcP10GameObject
    00000DA8 <00000000>             .DATA.L     ___nw__FUl
    00000DAC <00000000>             .DATA.L     ___memzero
    00000DB0 <00000000>             .DATA.L     L449
    00000DB4 <00000000>             .DATA.L     __$__vtbl__6Camera
    00000DB8              __$__dt__6CameraFv:              ; function: Camera::~Camera()




SH SERIES C/C++ Compiler (Ver. 6.0C)                                                                 09-Nov-2021 18:28:35  PAGE   48


SCT OFFSET   CODE       C LABEL     INSTRUCTION OPERAND    COMMENT

                                                           ; frame size=12
    00000DB8 2FE6                   MOV.L       R14,@-R15
    00000DBA 6E43                   MOV         R4,R14
    00000DBC 4F22                   STS.L       PR,@-R15
    00000DBE 2EE8                   TST         R14,R14
    00000DC0 7FFC                   ADD         #-4,R15
    00000DC2 8D0F                   BT/S        L1551
    00000DC4 2F52                   MOV.L       R5,@R15
    00000DC6 E500                   MOV         #0,R5
    00000DC8 D26F                   MOV.L       L1648,R2   ; __$__vtbl__6Camera
    00000DCA D370                   MOV.L       L1648+4,R3 ; __$__vtbl__9Behaviour
    00000DCC 1E32                   MOV.L       R3,@(8,R14)
    00000DCE BA9D                   BSR         ___dt__9ComponentFv
    00000DD0 64E3                   MOV         R14,R4
    00000DD2 60F2                   MOV.L       @R15,R0
    00000DD4 C801                   TST         #1,R0
    00000DD6 8905                   BT          L1551
    00000DD8 D26D                   MOV.L       L1648+8,R2 ; ___dl__FPv
    00000DDA 64E3                   MOV         R14,R4
    00000DDC 7F04                   ADD         #4,R15
    00000DDE 4F26                   LDS.L       @R15+,PR
    00000DE0 422B                   JMP         @R2
    00000DE2 6EF6                   MOV.L       @R15+,R14
    00000DE4              L1551:                            
    00000DE4 7F04                   ADD         #4,R15
    00000DE6 4F26                   LDS.L       @R15+,PR
    00000DE8 000B                   RTS
    00000DEA 6EF6                   MOV.L       @R15+,R14
    00000DEC              ___ct__5ImageFP10GameObjectP7TexturePCc:
                                                           ; function: Image::Image(GameObject *, Texture *, const char *)
                                                           ; frame size=20
    00000DEC 4F22                   STS.L       PR,@-R15
    00000DEE 7FF0                   ADD         #-16,R15
    00000DF0 2F42                   MOV.L       R4,@R15
    00000DF2 1F52                   MOV.L       R5,@(8,R15)
    00000DF4 1F61                   MOV.L       R6,@(4,R15)
    00000DF6 1F73                   MOV.L       R7,@(12,R15)
    00000DF8 63F2                   MOV.L       @R15,R3
    00000DFA 2338                   TST         R3,R3
    00000DFC 8B05                   BF          L1553
    00000DFE D365                   MOV.L       L1648+12,R3; ___nw__FUl
    00000E00 430B                   JSR         @R3
    00000E02 E428                   MOV         #40,R4
    00000E04 2008                   TST         R0,R0
    00000E06 8D0B                   BT/S        L1552
    00000E08 2F02                   MOV.L       R0,@R15
    00000E0A              L1553:                            
    00000E0A 57F3                   MOV.L       @(12,R15),R7
    00000E0C 56F2                   MOV.L       @(8,R15),R6
    00000E0E D562                   MOV.L       L1648+16,R5; L450
    00000E10 BD69                   BSR         ___ct__13MonoBehaviourFPCcP10GameObjectT1
    00000E12 64F2                   MOV.L       @R15,R4
    00000E14 62F2                   MOV.L       @R15,R2
    00000E16 D361                   MOV.L       L1648+20,R3; ___vtbl__5Image
    00000E18 1232                   MOV.L       R3,@(8,R2)
    00000E1A 62F2                   MOV.L       @R15,R2
    00000E1C 53F1                   MOV.L       @(4,R15),R3




SH SERIES C/C++ Compiler (Ver. 6.0C)                                                                 09-Nov-2021 18:28:35  PAGE   49


SCT OFFSET   CODE       C LABEL     INSTRUCTION OPERAND    COMMENT

    00000E1E 1239                   MOV.L       R3,@(36,R2)
    00000E20              L1552:                            
    00000E20 60F2                   MOV.L       @R15,R0
    00000E22 7F10                   ADD         #16,R15
    00000E24 4F26                   LDS.L       @R15+,PR
    00000E26 000B                   RTS
    00000E28 0009                   NOP
    00000E2A              _Update__5ImageFv:               ; function: Image::Update()
                                                           ; frame size=44
                                                           ; used runtime library name:
                                                           ; __adds, __subs, __stoi, __itos, __gts, __lts
    00000E2A E048                   MOV         #72,R0
    00000E2C 2FE6                   MOV.L       R14,@-R15
    00000E2E E500                   MOV         #0,R5
    00000E30 2FD6                   MOV.L       R13,@-R15
    00000E32 6E43                   MOV         R4,R14
    00000E34 2FC6                   MOV.L       R12,@-R15
    00000E36 2FB6                   MOV.L       R11,@-R15
    00000E38 2FA6                   MOV.L       R10,@-R15
    00000E3A 4F22                   STS.L       PR,@-R15
    00000E3C 7FF0                   ADD         #-16,R15
    00000E3E 54E4                   MOV.L       @(16,R14),R4
    00000E40 1F41                   MOV.L       R4,@(4,R15)
    00000E42 544D                   MOV.L       @(52,R4),R4
    00000E44 1F42                   MOV.L       R4,@(8,R15)
    00000E46 044E                   MOV.L       @(R0,R4),R4
    00000E48 6342                   MOV.L       @R4,R3
    00000E4A 1F33                   MOV.L       R3,@(12,R15)
    00000E4C 5C41                   MOV.L       @(4,R4),R12
    00000E4E 53F1                   MOV.L       @(4,R15),R3
    00000E50 513A                   MOV.L       @(40,R3),R1
    00000E52 7124                   ADD         #36,R1
    00000E54 2F12                   MOV.L       R1,@R15
    00000E56 BF57                   BSR         __$get__20List__tm__9_P6CameraFi_Z1Z
    00000E58 6413                   MOV         R1,R4
    00000E5A E500                   MOV         #0,R5
    00000E5C 5204                   MOV.L       @(16,R0),R2
    00000E5E E048                   MOV         #72,R0
    00000E60 532D                   MOV.L       @(52,R2),R3
    00000E62 013E                   MOV.L       @(R0,R3),R1
    00000E64 6212                   MOV.L       @R1,R2
    00000E66 1F21                   MOV.L       R2,@(4,R15)
    00000E68 5DE4                   MOV.L       @(16,R14),R13
    00000E6A 5DDA                   MOV.L       @(40,R13),R13
    00000E6C 7D24                   ADD         #36,R13
    00000E6E 2FD2                   MOV.L       R13,@R15
    00000E70 BF4A                   BSR         __$get__20List__tm__9_P6CameraFi_Z1Z
    00000E72 64D3                   MOV         R13,R4
    00000E74 5D04                   MOV.L       @(16,R0),R13
    00000E76 E048                   MOV         #72,R0
    00000E78 51F3                   MOV.L       @(12,R15),R1
    00000E7A 5DDD                   MOV.L       @(52,R13),R13
    00000E7C D348                   MOV.L       L1648+24,R3; __subs
    00000E7E 0DDE                   MOV.L       @(R0,R13),R13
    00000E80 5DD1                   MOV.L       @(4,R13),R13
    00000E82 430B                   JSR         @R3
    00000E84 50F1                   MOV.L       @(4,R15),R0




SH SERIES C/C++ Compiler (Ver. 6.0C)                                                                 09-Nov-2021 18:28:35  PAGE   50


SCT OFFSET   CODE       C LABEL     INSTRUCTION OPERAND    COMMENT

    00000E86 6B03                   MOV         R0,R11
    00000E88 D346                   MOV.L       L1648+28,R3; __itos
    00000E8A 50E9                   MOV.L       @(36,R14),R0
    00000E8C 430B                   JSR         @R3
    00000E8E 5006                   MOV.L       @(24,R0),R0
    00000E90 D245                   MOV.L       L1648+32,R2; __adds
    00000E92 6403                   MOV         R0,R4
    00000E94 420B                   JSR         @R2
    00000E96 61B3                   MOV         R11,R1
    00000E98 D344                   MOV.L       L1648+36,R3; __lts
    00000E9A 430B                   JSR         @R3
    00000E9C E100                   MOV         #0,R1
    00000E9E 8800                   CMP/EQ      #0,R0
    00000EA0 8930                   BT          L1556
    00000EA2 D043                   MOV.L       L1648+40,R0; H'43000000
    00000EA4 D241                   MOV.L       L1648+36,R2; __lts
    00000EA6 420B                   JSR         @R2
    00000EA8 61B3                   MOV         R11,R1
    00000EAA 8800                   CMP/EQ      #0,R0
    00000EAC 892A                   BT          L1556
    00000EAE 6143                   MOV         R4,R1
    00000EB0 D33D                   MOV.L       L1648+32,R3; __adds
    00000EB2 430B                   JSR         @R3
    00000EB4 60C3                   MOV         R12,R0
    00000EB6 6103                   MOV         R0,R1
    00000EB8 D239                   MOV.L       L1648+24,R2; __subs
    00000EBA 420B                   JSR         @R2
    00000EBC 60D3                   MOV         R13,R0
    00000EBE D33B                   MOV.L       L1648+36,R3; __lts
    00000EC0 430B                   JSR         @R3
    00000EC2 E100                   MOV         #0,R1
    00000EC4 8800                   CMP/EQ      #0,R0
    00000EC6 891D                   BT          L1556
    00000EC8 D235                   MOV.L       L1648+24,R2; __subs
    00000ECA 61C3                   MOV         R12,R1
    00000ECC 420B                   JSR         @R2
    00000ECE 60D3                   MOV         R13,R0
    00000ED0 D138                   MOV.L       L1648+44,R1; H'42800000
    00000ED2 D339                   MOV.L       L1648+48,R3; __gts
    00000ED4 430B                   JSR         @R3
    00000ED6 0009                   NOP
    00000ED8 8800                   CMP/EQ      #0,R0
    00000EDA 8913                   BT          L1556
    00000EDC 5AE9                   MOV.L       @(36,R14),R10
    00000EDE 61C3                   MOV         R12,R1
    00000EE0 D32F                   MOV.L       L1648+24,R3; __subs
    00000EE2 52A6                   MOV.L       @(24,R10),R2
    00000EE4 2F26                   MOV.L       R2,@-R15
    00000EE6 57A8                   MOV.L       @(32,R10),R7
    00000EE8 430B                   JSR         @R3
    00000EEA 60D3                   MOV         R13,R0
    00000EEC D233                   MOV.L       L1648+52,R2; __stoi
    00000EEE 420B                   JSR         @R2
    00000EF0 0009                   NOP
    00000EF2 6603                   MOV         R0,R6
    00000EF4 D331                   MOV.L       L1648+52,R3; __stoi
    00000EF6 430B                   JSR         @R3




SH SERIES C/C++ Compiler (Ver. 6.0C)                                                                 09-Nov-2021 18:28:35  PAGE   51


SCT OFFSET   CODE       C LABEL     INSTRUCTION OPERAND    COMMENT

    00000EF8 60B3                   MOV         R11,R0
    00000EFA 6503                   MOV         R0,R5
    00000EFC D230                   MOV.L       L1648+56,R2; _ML_bmp_or_cl
    00000EFE 420B                   JSR         @R2
    00000F00 54A3                   MOV.L       @(12,R10),R4
    00000F02 7F04                   ADD         #4,R15
    00000F04              L1556:                            
    00000F04 7F10                   ADD         #16,R15
    00000F06 4F26                   LDS.L       @R15+,PR
    00000F08 6AF6                   MOV.L       @R15+,R10
    00000F0A 6BF6                   MOV.L       @R15+,R11
    00000F0C 6CF6                   MOV.L       @R15+,R12
    00000F0E 6DF6                   MOV.L       @R15+,R13
    00000F10 000B                   RTS
    00000F12 6EF6                   MOV.L       @R15+,R14
    00000F14              __$__dt__5ImageFv:               ; function: Image::~Image()
                                                           ; frame size=12
    00000F14 2FE6                   MOV.L       R14,@-R15
    00000F16 6E43                   MOV         R4,R14
    00000F18 4F22                   STS.L       PR,@-R15
    00000F1A 2EE8                   TST         R14,R14
    00000F1C 7FFC                   ADD         #-4,R15
    00000F1E 8D10                   BT/S        L1559
    00000F20 2F52                   MOV.L       R5,@R15
    00000F22 E500                   MOV         #0,R5
    00000F24 D21D                   MOV.L       L1648+20,R2; ___vtbl__5Image
    00000F26 D327                   MOV.L       L1648+60,R3; __$__vtbl__13MonoBehaviour
    00000F28 D218                   MOV.L       L1648+4,R2 ; __$__vtbl__9Behaviour
    00000F2A 1E22                   MOV.L       R2,@(8,R14)
    00000F2C B9EE                   BSR         ___dt__9ComponentFv
    00000F2E 64E3                   MOV         R14,R4
    00000F30 60F2                   MOV.L       @R15,R0
    00000F32 C801                   TST         #1,R0
    00000F34 8905                   BT          L1559
    00000F36 64E3                   MOV         R14,R4
    00000F38 D215                   MOV.L       L1648+8,R2 ; ___dl__FPv
    00000F3A 7F04                   ADD         #4,R15
    00000F3C 4F26                   LDS.L       @R15+,PR
    00000F3E 422B                   JMP         @R2
    00000F40 6EF6                   MOV.L       @R15+,R14
    00000F42              L1559:                            
    00000F42 7F04                   ADD         #4,R15
    00000F44 4F26                   LDS.L       @R15+,PR
    00000F46 000B                   RTS
    00000F48 6EF6                   MOV.L       @R15+,R14
    00000F4A              ___ct__6SpriteFP10GameObjectP7TexturePCc:
                                                           ; function: Sprite::Sprite(GameObject *, Texture *, const char *)
                                                           ; frame size=20
    00000F4A 4F22                   STS.L       PR,@-R15
    00000F4C 7FF0                   ADD         #-16,R15
    00000F4E 2F42                   MOV.L       R4,@R15
    00000F50 1F52                   MOV.L       R5,@(8,R15)
    00000F52 1F61                   MOV.L       R6,@(4,R15)
    00000F54 1F73                   MOV.L       R7,@(12,R15)
    00000F56 63F2                   MOV.L       @R15,R3
    00000F58 2338                   TST         R3,R3
    00000F5A 8B05                   BF          L1561




SH SERIES C/C++ Compiler (Ver. 6.0C)                                                                 09-Nov-2021 18:28:35  PAGE   52


SCT OFFSET   CODE       C LABEL     INSTRUCTION OPERAND    COMMENT

    00000F5C D30D                   MOV.L       L1648+12,R3; ___nw__FUl
    00000F5E 430B                   JSR         @R3
    00000F60 E428                   MOV         #40,R4
    00000F62 2008                   TST         R0,R0
    00000F64 8D0B                   BT/S        L1560
    00000F66 2F02                   MOV.L       R0,@R15
    00000F68              L1561:                            
    00000F68 57F3                   MOV.L       @(12,R15),R7
    00000F6A 56F2                   MOV.L       @(8,R15),R6
    00000F6C D516                   MOV.L       L1648+64,R5; L451
    00000F6E BCBA                   BSR         ___ct__13MonoBehaviourFPCcP10GameObjectT1
    00000F70 64F2                   MOV.L       @R15,R4
    00000F72 62F2                   MOV.L       @R15,R2
    00000F74 D315                   MOV.L       L1648+68,R3; ___vtbl__6Sprite
    00000F76 1232                   MOV.L       R3,@(8,R2)
    00000F78 62F2                   MOV.L       @R15,R2
    00000F7A 53F1                   MOV.L       @(4,R15),R3
    00000F7C 1239                   MOV.L       R3,@(36,R2)
    00000F7E              L1560:                            
    00000F7E 60F2                   MOV.L       @R15,R0
    00000F80 7F10                   ADD         #16,R15
    00000F82 4F26                   LDS.L       @R15+,PR
    00000F84 000B                   RTS
    00000F86 0009                   NOP
    00000F88              L1648:                            
    00000F88 <00000000>             .DATA.L     __$__vtbl__6Camera
    00000F8C <00000000>             .DATA.L     __$__vtbl__9Behaviour
    00000F90 <00000000>             .DATA.L     ___dl__FPv
    00000F94 <00000000>             .DATA.L     ___nw__FUl
    00000F98 <00000000>             .DATA.L     L450
    00000F9C <00000000>             .DATA.L     ___vtbl__5Image
    00000FA0 <00000000>             .DATA.L     __subs
    00000FA4 <00000000>             .DATA.L     __itos
    00000FA8 <00000000>             .DATA.L     __adds
    00000FAC <00000000>             .DATA.L     __lts
    00000FB0 43000000               .DATA.L     H'43000000
    00000FB4 42800000               .DATA.L     H'42800000
    00000FB8 <00000000>             .DATA.L     __gts
    00000FBC <00000000>             .DATA.L     __stoi
    00000FC0 <00000000>             .DATA.L     _ML_bmp_or_cl
    00000FC4 <00000000>             .DATA.L     __$__vtbl__13MonoBehaviour
    00000FC8 <00000000>             .DATA.L     L451
    00000FCC <00000000>             .DATA.L     ___vtbl__6Sprite
    00000FD0              _Update__6SpriteFv:              ; function: Sprite::Update()
                                                           ; frame size=44
                                                           ; used runtime library name:
                                                           ; __adds, __subs, __stoi, __itos, __gts, __lts
    00000FD0 2FE6                   MOV.L       R14,@-R15
    00000FD2 E048                   MOV         #72,R0
    00000FD4 2FD6                   MOV.L       R13,@-R15
    00000FD6 6E43                   MOV         R4,R14
    00000FD8 2FC6                   MOV.L       R12,@-R15
    00000FDA E500                   MOV         #0,R5
    00000FDC 2FB6                   MOV.L       R11,@-R15
    00000FDE 2FA6                   MOV.L       R10,@-R15
    00000FE0 4F22                   STS.L       PR,@-R15
    00000FE2 7FF0                   ADD         #-16,R15




SH SERIES C/C++ Compiler (Ver. 6.0C)                                                                 09-Nov-2021 18:28:35  PAGE   53


SCT OFFSET   CODE       C LABEL     INSTRUCTION OPERAND    COMMENT

    00000FE4 54E4                   MOV.L       @(16,R14),R4
    00000FE6 1F41                   MOV.L       R4,@(4,R15)
    00000FE8 544D                   MOV.L       @(52,R4),R4
    00000FEA 1F42                   MOV.L       R4,@(8,R15)
    00000FEC 044E                   MOV.L       @(R0,R4),R4
    00000FEE 6342                   MOV.L       @R4,R3
    00000FF0 1F33                   MOV.L       R3,@(12,R15)
    00000FF2 5C41                   MOV.L       @(4,R4),R12
    00000FF4 53F1                   MOV.L       @(4,R15),R3
    00000FF6 513A                   MOV.L       @(40,R3),R1
    00000FF8 7124                   ADD         #36,R1
    00000FFA 2F12                   MOV.L       R1,@R15
    00000FFC BE84                   BSR         __$get__20List__tm__9_P6CameraFi_Z1Z
    00000FFE 6413                   MOV         R1,R4
    00001000 5204                   MOV.L       @(16,R0),R2
    00001002 E500                   MOV         #0,R5
    00001004 532D                   MOV.L       @(52,R2),R3
    00001006 E048                   MOV         #72,R0
    00001008 013E                   MOV.L       @(R0,R3),R1
    0000100A 6212                   MOV.L       @R1,R2
    0000100C 1F21                   MOV.L       R2,@(4,R15)
    0000100E 5DE4                   MOV.L       @(16,R14),R13
    00001010 5DDA                   MOV.L       @(40,R13),R13
    00001012 7D24                   ADD         #36,R13
    00001014 2FD2                   MOV.L       R13,@R15
    00001016 BE77                   BSR         __$get__20List__tm__9_P6CameraFi_Z1Z
    00001018 64D3                   MOV         R13,R4
    0000101A 5D04                   MOV.L       @(16,R0),R13
    0000101C 51F3                   MOV.L       @(12,R15),R1
    0000101E E048                   MOV         #72,R0
    00001020 D38C                   MOV.L       L1649+2,R3 ; __subs
    00001022 5DDD                   MOV.L       @(52,R13),R13
    00001024 0DDE                   MOV.L       @(R0,R13),R13
    00001026 5DD1                   MOV.L       @(4,R13),R13
    00001028 430B                   JSR         @R3
    0000102A 50F1                   MOV.L       @(4,R15),R0
    0000102C D38A                   MOV.L       L1649+6,R3 ; __itos
    0000102E 6B03                   MOV         R0,R11
    00001030 50E9                   MOV.L       @(36,R14),R0
    00001032 430B                   JSR         @R3
    00001034 5006                   MOV.L       @(24,R0),R0
    00001036 6403                   MOV         R0,R4
    00001038 D288                   MOV.L       L1649+10,R2; __adds
    0000103A 420B                   JSR         @R2
    0000103C 61B3                   MOV         R11,R1
    0000103E D388                   MOV.L       L1649+14,R3; __lts
    00001040 430B                   JSR         @R3
    00001042 E100                   MOV         #0,R1
    00001044 8800                   CMP/EQ      #0,R0
    00001046 8930                   BT          L1564
    00001048 D086                   MOV.L       L1649+18,R0; H'43000000
    0000104A D285                   MOV.L       L1649+14,R2; __lts
    0000104C 420B                   JSR         @R2
    0000104E 61B3                   MOV         R11,R1
    00001050 8800                   CMP/EQ      #0,R0
    00001052 892A                   BT          L1564
    00001054 D381                   MOV.L       L1649+10,R3; __adds




SH SERIES C/C++ Compiler (Ver. 6.0C)                                                                 09-Nov-2021 18:28:35  PAGE   54


SCT OFFSET   CODE       C LABEL     INSTRUCTION OPERAND    COMMENT

    00001056 6143                   MOV         R4,R1
    00001058 430B                   JSR         @R3
    0000105A 60C3                   MOV         R12,R0
    0000105C D27D                   MOV.L       L1649+2,R2 ; __subs
    0000105E 6103                   MOV         R0,R1
    00001060 420B                   JSR         @R2
    00001062 60D3                   MOV         R13,R0
    00001064 D37E                   MOV.L       L1649+14,R3; __lts
    00001066 430B                   JSR         @R3
    00001068 E100                   MOV         #0,R1
    0000106A 8800                   CMP/EQ      #0,R0
    0000106C 891D                   BT          L1564
    0000106E 61C3                   MOV         R12,R1
    00001070 D278                   MOV.L       L1649+2,R2 ; __subs
    00001072 420B                   JSR         @R2
    00001074 60D3                   MOV         R13,R0
    00001076 D17C                   MOV.L       L1649+22,R1; H'42800000
    00001078 D37C                   MOV.L       L1649+26,R3; __gts
    0000107A 430B                   JSR         @R3
    0000107C 0009                   NOP
    0000107E 8800                   CMP/EQ      #0,R0
    00001080 8913                   BT          L1564
    00001082 61C3                   MOV         R12,R1
    00001084 D373                   MOV.L       L1649+2,R3 ; __subs
    00001086 5AE9                   MOV.L       @(36,R14),R10
    00001088 52A6                   MOV.L       @(24,R10),R2
    0000108A 2F26                   MOV.L       R2,@-R15
    0000108C 57A8                   MOV.L       @(32,R10),R7
    0000108E 430B                   JSR         @R3
    00001090 60D3                   MOV         R13,R0
    00001092 D277                   MOV.L       L1649+30,R2; __stoi
    00001094 420B                   JSR         @R2
    00001096 0009                   NOP
    00001098 D375                   MOV.L       L1649+30,R3; __stoi
    0000109A 6603                   MOV         R0,R6
    0000109C 430B                   JSR         @R3
    0000109E 60B3                   MOV         R11,R0
    000010A0 D274                   MOV.L       L1649+34,R2; _ML_bmp_or_cl
    000010A2 6503                   MOV         R0,R5
    000010A4 420B                   JSR         @R2
    000010A6 54A3                   MOV.L       @(12,R10),R4
    000010A8 7F04                   ADD         #4,R15
    000010AA              L1564:                            
    000010AA 7F10                   ADD         #16,R15
    000010AC 4F26                   LDS.L       @R15+,PR
    000010AE 6AF6                   MOV.L       @R15+,R10
    000010B0 6BF6                   MOV.L       @R15+,R11
    000010B2 6CF6                   MOV.L       @R15+,R12
    000010B4 6DF6                   MOV.L       @R15+,R13
    000010B6 000B                   RTS
    000010B8 6EF6                   MOV.L       @R15+,R14
    000010BA              __$__dt__6SpriteFv:              ; function: Sprite::~Sprite()
                                                           ; frame size=12
    000010BA 2FE6                   MOV.L       R14,@-R15
    000010BC 4F22                   STS.L       PR,@-R15
    000010BE 6E43                   MOV         R4,R14
    000010C0 7FFC                   ADD         #-4,R15




SH SERIES C/C++ Compiler (Ver. 6.0C)                                                                 09-Nov-2021 18:28:35  PAGE   55


SCT OFFSET   CODE       C LABEL     INSTRUCTION OPERAND    COMMENT

    000010C2 2EE8                   TST         R14,R14
    000010C4 8D10                   BT/S        L1567
    000010C6 2F52                   MOV.L       R5,@R15
    000010C8 D26B                   MOV.L       L1649+38,R2; ___vtbl__6Sprite
    000010CA E500                   MOV         #0,R5
    000010CC D36B                   MOV.L       L1649+42,R3; __$__vtbl__13MonoBehaviour
    000010CE D26C                   MOV.L       L1649+46,R2; __$__vtbl__9Behaviour
    000010D0 1E22                   MOV.L       R2,@(8,R14)
    000010D2 B91B                   BSR         ___dt__9ComponentFv
    000010D4 64E3                   MOV         R14,R4
    000010D6 60F2                   MOV.L       @R15,R0
    000010D8 C801                   TST         #1,R0
    000010DA 8905                   BT          L1567
    000010DC D269                   MOV.L       L1649+50,R2; ___dl__FPv
    000010DE 64E3                   MOV         R14,R4
    000010E0 7F04                   ADD         #4,R15
    000010E2 4F26                   LDS.L       @R15+,PR
    000010E4 422B                   JMP         @R2
    000010E6 6EF6                   MOV.L       @R15+,R14
    000010E8              L1567:                            
    000010E8 7F04                   ADD         #4,R15
    000010EA 4F26                   LDS.L       @R15+,PR
    000010EC 000B                   RTS
    000010EE 6EF6                   MOV.L       @R15+,R14
    000010F0              ___ct__9RigidbodyFP10GameObjectfbT3PCc:
                                                           ; function: Rigidbody::Rigidbody(GameObject *, float, bool, bool, const c
                        +                                  har *)
                                                           ; frame size=24
    000010F0 2F86                   MOV.L       R8,@-R15
    000010F2 4F22                   STS.L       PR,@-R15
    000010F4 7FF0                   ADD         #-16,R15
    000010F6 2F42                   MOV.L       R4,@R15
    000010F8 1F53                   MOV.L       R5,@(12,R15)
    000010FA 1F62                   MOV.L       R6,@(8,R15)
    000010FC 1F71                   MOV.L       R7,@(4,R15)
    000010FE 63F2                   MOV.L       @R15,R3
    00001100 2338                   TST         R3,R3
    00001102 8B05                   BF          L1569
    00001104 D360                   MOV.L       L1649+54,R3; ___nw__FUl
    00001106 430B                   JSR         @R3
    00001108 E434                   MOV         #52,R4
    0000110A 2008                   TST         R0,R0
    0000110C 8D17                   BT/S        L1568
    0000110E 2F02                   MOV.L       R0,@R15
    00001110              L1569:                            
    00001110 57F7                   MOV.L       @(28,R15),R7
    00001112 56F3                   MOV.L       @(12,R15),R6
    00001114 D55D                   MOV.L       L1649+58,R5; L452
    00001116 BBE6                   BSR         ___ct__13MonoBehaviourFPCcP10GameObjectT1
    00001118 64F2                   MOV.L       @R15,R4
    0000111A 62F2                   MOV.L       @R15,R2
    0000111C D35C                   MOV.L       L1649+62,R3; ___vtbl__9Rigidbody
    0000111E 1232                   MOV.L       R3,@(8,R2)
    00001120 62F2                   MOV.L       @R15,R2
    00001122 53F2                   MOV.L       @(8,R15),R3
    00001124 1239                   MOV.L       R3,@(36,R2)
    00001126 62F2                   MOV.L       @R15,R2




SH SERIES C/C++ Compiler (Ver. 6.0C)                                                                 09-Nov-2021 18:28:35  PAGE   56


SCT OFFSET   CODE       C LABEL     INSTRUCTION OPERAND    COMMENT

    00001128 53F1                   MOV.L       @(4,R15),R3
    0000112A 123A                   MOV.L       R3,@(40,R2)
    0000112C 62F2                   MOV.L       @R15,R2
    0000112E 53F6                   MOV.L       @(24,R15),R3
    00001130 123B                   MOV.L       R3,@(44,R2)
    00001132 68F2                   MOV.L       @R15,R8
    00001134 D357                   MOV.L       L1649+66,R3; ___ct__7Vector2Fv
    00001136 7830                   ADD         #48,R8
    00001138 430B                   JSR         @R3
    0000113A E400                   MOV         #0,R4
    0000113C 2802                   MOV.L       R0,@R8
    0000113E              L1568:                            
    0000113E 60F2                   MOV.L       @R15,R0
    00001140 7F10                   ADD         #16,R15
    00001142 4F26                   LDS.L       @R15+,PR
    00001144 000B                   RTS
    00001146 68F6                   MOV.L       @R15+,R8
    00001148              ___dt__9RigidbodyFv:             ; function: Rigidbody::~Rigidbody()
                                                           ; frame size=12
    00001148 2FE6                   MOV.L       R14,@-R15
    0000114A 6E43                   MOV         R4,R14
    0000114C 4F22                   STS.L       PR,@-R15
    0000114E 2EE8                   TST         R14,R14
    00001150 7FFC                   ADD         #-4,R15
    00001152 8D14                   BT/S        L1573
    00001154 2F52                   MOV.L       R5,@R15
    00001156 D24E                   MOV.L       L1649+62,R2; ___vtbl__9Rigidbody
    00001158 D34A                   MOV.L       L1649+50,R3; ___dl__FPv
    0000115A 1E22                   MOV.L       R2,@(8,R14)
    0000115C 430B                   JSR         @R3
    0000115E 54EC                   MOV.L       @(48,R14),R4
    00001160 D246                   MOV.L       L1649+42,R2; __$__vtbl__13MonoBehaviour
    00001162 E500                   MOV         #0,R5
    00001164 D346                   MOV.L       L1649+46,R3; __$__vtbl__9Behaviour
    00001166 1E32                   MOV.L       R3,@(8,R14)
    00001168 B8D0                   BSR         ___dt__9ComponentFv
    0000116A 64E3                   MOV         R14,R4
    0000116C 60F2                   MOV.L       @R15,R0
    0000116E C801                   TST         #1,R0
    00001170 8905                   BT          L1573
    00001172 64E3                   MOV         R14,R4
    00001174 D243                   MOV.L       L1649+50,R2; ___dl__FPv
    00001176 7F04                   ADD         #4,R15
    00001178 4F26                   LDS.L       @R15+,PR
    0000117A 422B                   JMP         @R2
    0000117C 6EF6                   MOV.L       @R15+,R14
    0000117E              L1573:                            
    0000117E 7F04                   ADD         #4,R15
    00001180 4F26                   LDS.L       @R15+,PR
    00001182 000B                   RTS
    00001184 6EF6                   MOV.L       @R15+,R14
    00001186              _Start__9RigidbodyFv:            ; function: Rigidbody::Start()
                                                           ; frame size=4
    00001186 7FFC                   ADD         #-4,R15
    00001188 D343                   MOV.L       L1649+70,R3; _Set__7Vector2FfT1
    0000118A E600                   MOV         #0,R6
    0000118C 2F42                   MOV.L       R4,@R15




SH SERIES C/C++ Compiler (Ver. 6.0C)                                                                 09-Nov-2021 18:28:35  PAGE   57


SCT OFFSET   CODE       C LABEL     INSTRUCTION OPERAND    COMMENT

    0000118E 6563                   MOV         R6,R5
    00001190 544C                   MOV.L       @(48,R4),R4
    00001192 432B                   JMP         @R3
    00001194 7F04                   ADD         #4,R15
    00001196              ___ct__4TextFP10GameObjectPUcPCc:
                                                           ; function: Text::Text(GameObject *, unsigned char *, const char *)
                                                           ; frame size=20
    00001196 4F22                   STS.L       PR,@-R15
    00001198 7FF0                   ADD         #-16,R15
    0000119A 2F42                   MOV.L       R4,@R15
    0000119C 1F52                   MOV.L       R5,@(8,R15)
    0000119E 1F61                   MOV.L       R6,@(4,R15)
    000011A0 1F73                   MOV.L       R7,@(12,R15)
    000011A2 63F2                   MOV.L       @R15,R3
    000011A4 2338                   TST         R3,R3
    000011A6 8B05                   BF          L1576
    000011A8 D337                   MOV.L       L1649+54,R3; ___nw__FUl
    000011AA 430B                   JSR         @R3
    000011AC E428                   MOV         #40,R4
    000011AE 2008                   TST         R0,R0
    000011B0 8D0B                   BT/S        L1575
    000011B2 2F02                   MOV.L       R0,@R15
    000011B4              L1576:                            
    000011B4 57F3                   MOV.L       @(12,R15),R7
    000011B6 56F2                   MOV.L       @(8,R15),R6
    000011B8 D538                   MOV.L       L1649+74,R5; L453
    000011BA BB94                   BSR         ___ct__13MonoBehaviourFPCcP10GameObjectT1
    000011BC 64F2                   MOV.L       @R15,R4
    000011BE 62F2                   MOV.L       @R15,R2
    000011C0 D337                   MOV.L       L1649+78,R3; ___vtbl__4Text
    000011C2 1232                   MOV.L       R3,@(8,R2)
    000011C4 62F2                   MOV.L       @R15,R2
    000011C6 53F1                   MOV.L       @(4,R15),R3
    000011C8 1239                   MOV.L       R3,@(36,R2)
    000011CA              L1575:                            
    000011CA 60F2                   MOV.L       @R15,R0
    000011CC 7F10                   ADD         #16,R15
    000011CE 4F26                   LDS.L       @R15+,PR
    000011D0 000B                   RTS
    000011D2 0009                   NOP
    000011D4              _Update__4TextFv:                ; function: Text::Update()
                                                           ; frame size=28
                                                           ; used runtime library name:
                                                           ; __subs, __stoi
    000011D4 2FE6                   MOV.L       R14,@-R15
    000011D6 E048                   MOV         #72,R0
    000011D8 4F22                   STS.L       PR,@-R15
    000011DA 6E43                   MOV         R4,R14
    000011DC 7FEC                   ADD         #-20,R15
    000011DE E500                   MOV         #0,R5
    000011E0 54E4                   MOV.L       @(16,R14),R4
    000011E2 2F42                   MOV.L       R4,@R15
    000011E4 544D                   MOV.L       @(52,R4),R4
    000011E6 1F42                   MOV.L       R4,@(8,R15)
    000011E8 044E                   MOV.L       @(R0,R4),R4
    000011EA 6342                   MOV.L       @R4,R3
    000011EC 1F33                   MOV.L       R3,@(12,R15)




SH SERIES C/C++ Compiler (Ver. 6.0C)                                                                 09-Nov-2021 18:28:35  PAGE   58


SCT OFFSET   CODE       C LABEL     INSTRUCTION OPERAND    COMMENT

    000011EE 5241                   MOV.L       @(4,R4),R2
    000011F0 1F24                   MOV.L       R2,@(16,R15)
    000011F2 63F2                   MOV.L       @R15,R3
    000011F4 513A                   MOV.L       @(40,R3),R1
    000011F6 7124                   ADD         #36,R1
    000011F8 1F11                   MOV.L       R1,@(4,R15)
    000011FA BD85                   BSR         __$get__20List__tm__9_P6CameraFi_Z1Z
    000011FC 6413                   MOV         R1,R4
    000011FE E500                   MOV         #0,R5
    00001200 5204                   MOV.L       @(16,R0),R2
    00001202 E048                   MOV         #72,R0
    00001204 532D                   MOV.L       @(52,R2),R3
    00001206 013E                   MOV.L       @(R0,R3),R1
    00001208 6212                   MOV.L       @R1,R2
    0000120A 1F21                   MOV.L       R2,@(4,R15)
    0000120C 53E4                   MOV.L       @(16,R14),R3
    0000120E 513A                   MOV.L       @(40,R3),R1
    00001210 7124                   ADD         #36,R1
    00001212 2F12                   MOV.L       R1,@R15
    00001214 BD78                   BSR         __$get__20List__tm__9_P6CameraFi_Z1Z
    00001216 6413                   MOV         R1,R4
    00001218 5204                   MOV.L       @(16,R0),R2
    0000121A E710                   MOV         #16,R7
    0000121C 532D                   MOV.L       @(52,R2),R3
    0000121E E048                   MOV         #72,R0
    00001220 013E                   MOV.L       @(R0,R3),R1
    00001222 5211                   MOV.L       @(4,R1),R2
    00001224 D30B                   MOV.L       L1649+2,R3 ; __subs
    00001226 2F22                   MOV.L       R2,@R15
    00001228 56E9                   MOV.L       @(36,R14),R6
    0000122A 51F4                   MOV.L       @(16,R15),R1
    0000122C 430B                   JSR         @R3
    0000122E 6023                   MOV         R2,R0
    00001230 D20F                   MOV.L       L1649+30,R2; __stoi
    00001232 420B                   JSR         @R2
    00001234 0009                   NOP
    00001236 6503                   MOV         R0,R5
    00001238 51F3                   MOV.L       @(12,R15),R1
    0000123A D306                   MOV.L       L1649+2,R3 ; __subs
    0000123C 430B                   JSR         @R3
    0000123E 50F1                   MOV.L       @(4,R15),R0
    00001240 D20B                   MOV.L       L1649+30,R2; __stoi
    00001242 420B                   JSR         @R2
    00001244 0009                   NOP
    00001246 6403                   MOV         R0,R4
    00001248 D316                   MOV.L       L1649+82,R3; _PrintMini
    0000124A 7F14                   ADD         #20,R15
    0000124C 4F26                   LDS.L       @R15+,PR
    0000124E 432B                   JMP         @R3
    00001250 6EF6                   MOV.L       @R15+,R14
    00001252              L1649:                            
    00001252 0000                   .DATA.W     0
    00001254 <00000000>             .DATA.L     __subs
    00001258 <00000000>             .DATA.L     __itos
    0000125C <00000000>             .DATA.L     __adds
    00001260 <00000000>             .DATA.L     __lts
    00001264 43000000               .DATA.L     H'43000000




SH SERIES C/C++ Compiler (Ver. 6.0C)                                                                 09-Nov-2021 18:28:35  PAGE   59


SCT OFFSET   CODE       C LABEL     INSTRUCTION OPERAND    COMMENT

    00001268 42800000               .DATA.L     H'42800000
    0000126C <00000000>             .DATA.L     __gts
    00001270 <00000000>             .DATA.L     __stoi
    00001274 <00000000>             .DATA.L     _ML_bmp_or_cl
    00001278 <00000000>             .DATA.L     ___vtbl__6Sprite
    0000127C <00000000>             .DATA.L     __$__vtbl__13MonoBehaviour
    00001280 <00000000>             .DATA.L     __$__vtbl__9Behaviour
    00001284 <00000000>             .DATA.L     ___dl__FPv
    00001288 <00000000>             .DATA.L     ___nw__FUl
    0000128C <00000000>             .DATA.L     L452
    00001290 <00000000>             .DATA.L     ___vtbl__9Rigidbody
    00001294 <00000000>             .DATA.L     ___ct__7Vector2Fv
    00001298 <00000000>             .DATA.L     _Set__7Vector2FfT1
    0000129C <00000000>             .DATA.L     L453
    000012A0 <00000000>             .DATA.L     ___vtbl__4Text
    000012A4 <00000000>             .DATA.L     _PrintMini
    000012A8              __$__dt__4TextFv:                ; function: Text::~Text()
                                                           ; frame size=12
    000012A8 2FE6                   MOV.L       R14,@-R15
    000012AA 6E43                   MOV         R4,R14
    000012AC 4F22                   STS.L       PR,@-R15
    000012AE 2EE8                   TST         R14,R14
    000012B0 7FFC                   ADD         #-4,R15
    000012B2 8D10                   BT/S        L1581
    000012B4 2F52                   MOV.L       R5,@R15
    000012B6 E500                   MOV         #0,R5
    000012B8 D250                   MOV.L       L1650+2,R2 ; ___vtbl__4Text
    000012BA D351                   MOV.L       L1650+6,R3 ; __$__vtbl__13MonoBehaviour
    000012BC D251                   MOV.L       L1650+10,R2; __$__vtbl__9Behaviour
    000012BE 1E22                   MOV.L       R2,@(8,R14)
    000012C0 B824                   BSR         ___dt__9ComponentFv
    000012C2 64E3                   MOV         R14,R4
    000012C4 60F2                   MOV.L       @R15,R0
    000012C6 C801                   TST         #1,R0
    000012C8 8905                   BT          L1581
    000012CA 64E3                   MOV         R14,R4
    000012CC D24E                   MOV.L       L1650+14,R2; ___dl__FPv
    000012CE 7F04                   ADD         #4,R15
    000012D0 4F26                   LDS.L       @R15+,PR
    000012D2 422B                   JMP         @R2
    000012D4 6EF6                   MOV.L       @R15+,R14
    000012D6              L1581:                            
    000012D6 7F04                   ADD         #4,R15
    000012D8 4F26                   LDS.L       @R15+,PR
    000012DA 000B                   RTS
    000012DC 6EF6                   MOV.L       @R15+,R14
    000012DE              ___ct__7TilemapFP10GameObjectP7Vector2T2PCc:
                                                           ; function: Tilemap::Tilemap(GameObject *, Vector2 *, Vector2 *, const ch
                        +                                  ar *)
                                                           ; frame size=20
    000012DE 4F22                   STS.L       PR,@-R15
    000012E0 7FF0                   ADD         #-16,R15
    000012E2 2F42                   MOV.L       R4,@R15
    000012E4 1F53                   MOV.L       R5,@(12,R15)
    000012E6 1F62                   MOV.L       R6,@(8,R15)
    000012E8 1F71                   MOV.L       R7,@(4,R15)
    000012EA 63F2                   MOV.L       @R15,R3




SH SERIES C/C++ Compiler (Ver. 6.0C)                                                                 09-Nov-2021 18:28:35  PAGE   60


SCT OFFSET   CODE       C LABEL     INSTRUCTION OPERAND    COMMENT

    000012EC 2338                   TST         R3,R3
    000012EE 8B05                   BF          L1583
    000012F0 D346                   MOV.L       L1650+18,R3; ___nw__FUl
    000012F2 430B                   JSR         @R3
    000012F4 E434                   MOV         #52,R4
    000012F6 2008                   TST         R0,R0
    000012F8 8D0E                   BT/S        L1582
    000012FA 2F02                   MOV.L       R0,@R15
    000012FC              L1583:                            
    000012FC 57F5                   MOV.L       @(20,R15),R7
    000012FE 56F3                   MOV.L       @(12,R15),R6
    00001300 D543                   MOV.L       L1650+22,R5; L454
    00001302 BAF0                   BSR         ___ct__13MonoBehaviourFPCcP10GameObjectT1
    00001304 64F2                   MOV.L       @R15,R4
    00001306 62F2                   MOV.L       @R15,R2
    00001308 D342                   MOV.L       L1650+26,R3; ___vtbl__7Tilemap
    0000130A 1232                   MOV.L       R3,@(8,R2)
    0000130C 62F2                   MOV.L       @R15,R2
    0000130E 53F2                   MOV.L       @(8,R15),R3
    00001310 123B                   MOV.L       R3,@(44,R2)
    00001312 62F2                   MOV.L       @R15,R2
    00001314 53F1                   MOV.L       @(4,R15),R3
    00001316 123C                   MOV.L       R3,@(48,R2)
    00001318              L1582:                            
    00001318 60F2                   MOV.L       @R15,R0
    0000131A 7F10                   ADD         #16,R15
    0000131C 4F26                   LDS.L       @R15+,PR
    0000131E 000B                   RTS
    00001320 0009                   NOP
    00001322              ___dt__7TilemapFv:               ; function: Tilemap::~Tilemap()
                                                           ; frame size=16
    00001322 2FE6                   MOV.L       R14,@-R15
    00001324 2FD6                   MOV.L       R13,@-R15
    00001326 6E43                   MOV         R4,R14
    00001328 4F22                   STS.L       PR,@-R15
    0000132A 2EE8                   TST         R14,R14
    0000132C 7FFC                   ADD         #-4,R15
    0000132E 8D13                   BT/S        L1587
    00001330 2F52                   MOV.L       R5,@R15
    00001332 D238                   MOV.L       L1650+26,R2; ___vtbl__7Tilemap
    00001334 DD34                   MOV.L       L1650+14,R13; ___dl__FPv
    00001336 1E22                   MOV.L       R2,@(8,R14)
    00001338 4D0B                   JSR         @R13
    0000133A 54E9                   MOV.L       @(36,R14),R4
    0000133C 4D0B                   JSR         @R13
    0000133E 54EA                   MOV.L       @(40,R14),R4
    00001340 D32F                   MOV.L       L1650+6,R3 ; __$__vtbl__13MonoBehaviour
    00001342 E500                   MOV         #0,R5
    00001344 D22F                   MOV.L       L1650+10,R2; __$__vtbl__9Behaviour
    00001346 1E22                   MOV.L       R2,@(8,R14)
    00001348 D333                   MOV.L       L1650+30,R3; ___dt__9ComponentFv
    0000134A 430B                   JSR         @R3
    0000134C 64E3                   MOV         R14,R4
    0000134E 60F2                   MOV.L       @R15,R0
    00001350 C801                   TST         #1,R0
    00001352 8901                   BT          L1587
    00001354 4D0B                   JSR         @R13




SH SERIES C/C++ Compiler (Ver. 6.0C)                                                                 09-Nov-2021 18:28:35  PAGE   61


SCT OFFSET   CODE       C LABEL     INSTRUCTION OPERAND    COMMENT

    00001356 64E3                   MOV         R14,R4
    00001358              L1587:                            
    00001358 7F04                   ADD         #4,R15
    0000135A 4F26                   LDS.L       @R15+,PR
    0000135C 6DF6                   MOV.L       @R15+,R13
    0000135E 000B                   RTS
    00001360 6EF6                   MOV.L       @R15+,R14
    00001362              _Update__7TilemapFv:             ; function: Tilemap::Update()
                                                           ; frame size=56
                                                           ; used runtime library name:
                                                           ; __adds, __subs, __muls, __stoi, __itos, __gts, __lts
    00001362 E048                   MOV         #72,R0
    00001364 2FE6                   MOV.L       R14,@-R15
    00001366 E500                   MOV         #0,R5
    00001368 2FD6                   MOV.L       R13,@-R15
    0000136A 6E43                   MOV         R4,R14
    0000136C 2FC6                   MOV.L       R12,@-R15
    0000136E 2FB6                   MOV.L       R11,@-R15
    00001370 2FA6                   MOV.L       R10,@-R15
    00001372 2F96                   MOV.L       R9,@-R15
    00001374 2F86                   MOV.L       R8,@-R15
    00001376 4F22                   STS.L       PR,@-R15
    00001378 7FEC                   ADD         #-20,R15
    0000137A 54E4                   MOV.L       @(16,R14),R4
    0000137C 2F42                   MOV.L       R4,@R15
    0000137E 544D                   MOV.L       @(52,R4),R4
    00001380 1F43                   MOV.L       R4,@(12,R15)
    00001382 044E                   MOV.L       @(R0,R4),R4
    00001384 6342                   MOV.L       @R4,R3
    00001386 1F31                   MOV.L       R3,@(4,R15)
    00001388 5241                   MOV.L       @(4,R4),R2
    0000138A 1F24                   MOV.L       R2,@(16,R15)
    0000138C 63F2                   MOV.L       @R15,R3
    0000138E 513A                   MOV.L       @(40,R3),R1
    00001390 7124                   ADD         #36,R1
    00001392 1F12                   MOV.L       R1,@(8,R15)
    00001394 BCB8                   BSR         __$get__20List__tm__9_P6CameraFi_Z1Z
    00001396 6413                   MOV         R1,R4
    00001398 5204                   MOV.L       @(16,R0),R2
    0000139A E500                   MOV         #0,R5
    0000139C 532D                   MOV.L       @(52,R2),R3
    0000139E E048                   MOV         #72,R0
    000013A0 013E                   MOV.L       @(R0,R3),R1
    000013A2 6212                   MOV.L       @R1,R2
    000013A4 2F22                   MOV.L       R2,@R15
    000013A6 53E4                   MOV.L       @(16,R14),R3
    000013A8 513A                   MOV.L       @(40,R3),R1
    000013AA 7124                   ADD         #36,R1
    000013AC 1F12                   MOV.L       R1,@(8,R15)
    000013AE BCAB                   BSR         __$get__20List__tm__9_P6CameraFi_Z1Z
    000013B0 6413                   MOV         R1,R4
    000013B2 EC00                   MOV         #0,R12
    000013B4 5204                   MOV.L       @(16,R0),R2
    000013B6 E048                   MOV         #72,R0
    000013B8 532D                   MOV.L       @(52,R2),R3
    000013BA 013E                   MOV.L       @(R0,R3),R1
    000013BC D317                   MOV.L       L1650+34,R3; __subs




SH SERIES C/C++ Compiler (Ver. 6.0C)                                                                 09-Nov-2021 18:28:35  PAGE   62


SCT OFFSET   CODE       C LABEL     INSTRUCTION OPERAND    COMMENT

    000013BE 5411                   MOV.L       @(4,R1),R4
    000013C0 51F1                   MOV.L       @(4,R15),R1
    000013C2 430B                   JSR         @R3
    000013C4 60F2                   MOV.L       @R15,R0
    000013C6 2F02                   MOV.L       R0,@R15
    000013C8 51F4                   MOV.L       @(16,R15),R1
    000013CA D314                   MOV.L       L1650+34,R3; __subs
    000013CC 430B                   JSR         @R3
    000013CE 6043                   MOV         R4,R0
    000013D0 A084                   BRA         L1588
    000013D2 1F01                   MOV.L       R0,@(4,R15)
    000013D4              L1589:                            
    000013D4 D212                   MOV.L       L1650+38,R2; __itos
    000013D6 EA00                   MOV         #0,R10
    000013D8 420B                   JSR         @R2
    000013DA 60C3                   MOV         R12,R0
    000013DC 51EB                   MOV.L       @(44,R14),R1
    000013DE 6903                   MOV         R0,R9
    000013E0 D310                   MOV.L       L1650+42,R3; __muls
    000013E2 430B                   JSR         @R3
    000013E4 6112                   MOV.L       @R1,R1
    000013E6 D210                   MOV.L       L1650+46,R2; __stoi
    000013E8 420B                   JSR         @R2
    000013EA 0009                   NOP
    000013EC D30C                   MOV.L       L1650+38,R3; __itos
    000013EE 6D03                   MOV         R0,R13
    000013F0 60C3                   MOV         R12,R0
    000013F2 430B                   JSR         @R3
    000013F4 7001                   ADD         #1,R0
    000013F6 A062                   BRA         L1590
    000013F8 6803                   MOV         R0,R8
    000013FA              L1650:                            
    000013FA 0000                   .DATA.W     0
    000013FC <00000000>             .DATA.L     ___vtbl__4Text
    00001400 <00000000>             .DATA.L     __$__vtbl__13MonoBehaviour
    00001404 <00000000>             .DATA.L     __$__vtbl__9Behaviour
    00001408 <00000000>             .DATA.L     ___dl__FPv
    0000140C <00000000>             .DATA.L     ___nw__FUl
    00001410 <00000000>             .DATA.L     L454
    00001414 <00000000>             .DATA.L     ___vtbl__7Tilemap
    00001418 <00000000>             .DATA.L     ___dt__9ComponentFv
    0000141C <00000000>             .DATA.L     __subs
    00001420 <00000000>             .DATA.L     __itos
    00001424 <00000000>             .DATA.L     __muls
    00001428 <00000000>             .DATA.L     __stoi
    0000142C              L1591:                            
    0000142C D33E                   MOV.L       L1651+2,R3 ; __itos
    0000142E 430B                   JSR         @R3
    00001430 60A3                   MOV         R10,R0
    00001432 56EC                   MOV.L       @(48,R14),R6
    00001434 D23D                   MOV.L       L1651+6,R2 ; __muls
    00001436 6762                   MOV.L       @R6,R7
    00001438 420B                   JSR         @R2
    0000143A 6173                   MOV         R7,R1
    0000143C 61F2                   MOV.L       @R15,R1
    0000143E D33C                   MOV.L       L1651+10,R3; __adds
    00001440 430B                   JSR         @R3




SH SERIES C/C++ Compiler (Ver. 6.0C)                                                                 09-Nov-2021 18:28:35  PAGE   63


SCT OFFSET   CODE       C LABEL     INSTRUCTION OPERAND    COMMENT

    00001442 0009                   NOP
    00001444 D23B                   MOV.L       L1651+14,R2; __stoi
    00001446 420B                   JSR         @R2
    00001448 0009                   NOP
    0000144A 6503                   MOV         R0,R5
    0000144C 5461                   MOV.L       @(4,R6),R4
    0000144E 6193                   MOV         R9,R1
    00001450 D336                   MOV.L       L1651+6,R3 ; __muls
    00001452 430B                   JSR         @R3
    00001454 6043                   MOV         R4,R0
    00001456 51F1                   MOV.L       @(4,R15),R1
    00001458 D235                   MOV.L       L1651+10,R2; __adds
    0000145A 420B                   JSR         @R2
    0000145C 0009                   NOP
    0000145E D335                   MOV.L       L1651+14,R3; __stoi
    00001460 430B                   JSR         @R3
    00001462 0009                   NOP
    00001464 D230                   MOV.L       L1651+2,R2 ; __itos
    00001466 6603                   MOV         R0,R6
    00001468 420B                   JSR         @R2
    0000146A 6053                   MOV         R5,R0
    0000146C D330                   MOV.L       L1651+10,R3; __adds
    0000146E 430B                   JSR         @R3
    00001470 6173                   MOV         R7,R1
    00001472 D231                   MOV.L       L1651+18,R2; __lts
    00001474 420B                   JSR         @R2
    00001476 E100                   MOV         #0,R1
    00001478 8800                   CMP/EQ      #0,R0
    0000147A 891E                   BT          L1592
    0000147C 9353                   MOV.W       L1651,R3   ; H'0080
    0000147E 3533                   CMP/GE      R3,R5
    00001480 891B                   BT          L1592
    00001482 D129                   MOV.L       L1651+2,R1 ; __itos
    00001484 410B                   JSR         @R1
    00001486 6063                   MOV         R6,R0
    00001488 D229                   MOV.L       L1651+10,R2; __adds
    0000148A 420B                   JSR         @R2
    0000148C 6143                   MOV         R4,R1
    0000148E D22A                   MOV.L       L1651+18,R2; __lts
    00001490 420B                   JSR         @R2
    00001492 E100                   MOV         #0,R1
    00001494 8800                   CMP/EQ      #0,R0
    00001496 8910                   BT          L1592
    00001498 E240                   MOV         #64,R2
    0000149A 3623                   CMP/GE      R2,R6
    0000149C 890D                   BT          L1592
    0000149E 6BD3                   MOV         R13,R11
    000014A0 50EA                   MOV.L       @(40,R14),R0
    000014A2 4B08                   SHLL2       R11
    000014A4 D225                   MOV.L       L1651+22,R2; _ML_bmp_or_cl
    000014A6 0BBE                   MOV.L       @(R0,R11),R11
    000014A8 50E9                   MOV.L       @(36,R14),R0
    000014AA 4B08                   SHLL2       R11
    000014AC 0BBE                   MOV.L       @(R0,R11),R11
    000014AE 53B6                   MOV.L       @(24,R11),R3
    000014B0 2F36                   MOV.L       R3,@-R15
    000014B2 57B8                   MOV.L       @(32,R11),R7




SH SERIES C/C++ Compiler (Ver. 6.0C)                                                                 09-Nov-2021 18:28:35  PAGE   64


SCT OFFSET   CODE       C LABEL     INSTRUCTION OPERAND    COMMENT

    000014B4 420B                   JSR         @R2
    000014B6 54B3                   MOV.L       @(12,R11),R4
    000014B8 7F04                   ADD         #4,R15
    000014BA              L1592:                            
    000014BA 7A01                   ADD         #1,R10
    000014BC 7D01                   ADD         #1,R13
    000014BE              L1590:                            
    000014BE D31A                   MOV.L       L1651+2,R3 ; __itos
    000014C0 430B                   JSR         @R3
    000014C2 60D3                   MOV         R13,R0
    000014C4 51EB                   MOV.L       @(44,R14),R1
    000014C6 6203                   MOV         R0,R2
    000014C8 D318                   MOV.L       L1651+6,R3 ; __muls
    000014CA 6083                   MOV         R8,R0
    000014CC 430B                   JSR         @R3
    000014CE 6112                   MOV.L       @R1,R1
    000014D0 D319                   MOV.L       L1651+18,R3; __lts
    000014D2 430B                   JSR         @R3
    000014D4 6123                   MOV         R2,R1
    000014D6 8800                   CMP/EQ      #0,R0
    000014D8 8BA8                   BF          L1591
    000014DA 7C01                   ADD         #1,R12
    000014DC              L1588:                            
    000014DC D212                   MOV.L       L1651+2,R2 ; __itos
    000014DE 420B                   JSR         @R2
    000014E0 60C3                   MOV         R12,R0
    000014E2 51EB                   MOV.L       @(44,R14),R1
    000014E4 D316                   MOV.L       L1651+26,R3; __gts
    000014E6 430B                   JSR         @R3
    000014E8 5111                   MOV.L       @(4,R1),R1
    000014EA 8800                   CMP/EQ      #0,R0
    000014EC 8901                   BT          L1652
    000014EE AF71                   BRA         L1589
    000014F0 0009                   NOP
    000014F2              L1652:                            
    000014F2 7F14                   ADD         #20,R15
    000014F4 4F26                   LDS.L       @R15+,PR
    000014F6 68F6                   MOV.L       @R15+,R8
    000014F8 69F6                   MOV.L       @R15+,R9
    000014FA 6AF6                   MOV.L       @R15+,R10
    000014FC 6BF6                   MOV.L       @R15+,R11
    000014FE 6CF6                   MOV.L       @R15+,R12
    00001500 6DF6                   MOV.L       @R15+,R13
    00001502 000B                   RTS
    00001504 6EF6                   MOV.L       @R15+,R14
    00001506              _LoadScene__12SceneManagerFi:    ; function: SceneManager::LoadScene(int)
                                                           ; frame size=24
    00001506 2FE6                   MOV.L       R14,@-R15
    00001508 2FD6                   MOV.L       R13,@-R15
    0000150A 6E43                   MOV         R4,R14
    0000150C 2FC6                   MOV.L       R12,@-R15
    0000150E 4F22                   STS.L       PR,@-R15
    00001510 7FF8                   ADD         #-8,R15
    00001512 A01F                   BRA         L1594
    00001514 ED00                   MOV         #0,R13
    00001516              L1595:                            
    00001516 54E2                   MOV.L       @(8,R14),R4




SH SERIES C/C++ Compiler (Ver. 6.0C)                                                                 09-Nov-2021 18:28:35  PAGE   65


SCT OFFSET   CODE       C LABEL     INSTRUCTION OPERAND    COMMENT

    00001518 53E1                   MOV.L       @(4,R14),R3
    0000151A 6242                   MOV.L       @R4,R2
    0000151C 3340                   CMP/EQ      R4,R3
    0000151E 8B11                   BF          L1596
    00001520 1ED1                   MOV.L       R13,@(4,R14)
    00001522 A014                   BRA         L1597
    00001524 1ED2                   MOV.L       R13,@(8,R14)
    00001526              L1651:                            
    00001526 0080                   .DATA.W     H'0080
    00001528 <00000000>             .DATA.L     __itos
    0000152C <00000000>             .DATA.L     __muls
    00001530 <00000000>             .DATA.L     __adds
    00001534 <00000000>             .DATA.L     __stoi
    00001538 <00000000>             .DATA.L     __lts
    0000153C <00000000>             .DATA.L     _ML_bmp_or_cl
    00001540 <00000000>             .DATA.L     __gts
    00001544              L1596:                            
    00001544 52E2                   MOV.L       @(8,R14),R2
    00001546 5322                   MOV.L       @(8,R2),R3
    00001548 1E32                   MOV.L       R3,@(8,R14)
    0000154A 6233                   MOV         R3,R2
    0000154C 12D1                   MOV.L       R13,@(4,R2)
    0000154E              L1597:                            
    0000154E 53E3                   MOV.L       @(12,R14),R3
    00001550 73FF                   ADD         #-1,R3
    00001552 1E33                   MOV.L       R3,@(12,R14)
    00001554              L1594:                            
    00001554 52E3                   MOV.L       @(12,R14),R2
    00001556 4215                   CMP/PL      R2
    00001558 89DD                   BT          L1595
    0000155A 63D3                   MOV         R13,R3
    0000155C 2338                   TST         R3,R3
    0000155E 8F06                   BF/S        L1599
    00001560 2FD2                   MOV.L       R13,@R15
    00001562 D38A                   MOV.L       L1653+2,R3 ; ___nw__FUl
    00001564 430B                   JSR         @R3
    00001566 E430                   MOV         #48,R4
    00001568 2008                   TST         R0,R0
    0000156A 8D0E                   BT/S        L1600
    0000156C 2F02                   MOV.L       R0,@R15
    0000156E              L1599:                            
    0000156E E300                   MOV         #0,R3
    00001570 62F2                   MOV.L       @R15,R2
    00001572 1232                   MOV.L       R3,@(8,R2)
    00001574 62F2                   MOV.L       @R15,R2
    00001576 22D2                   MOV.L       R13,@R2
    00001578 63F2                   MOV.L       @R15,R3
    0000157A E200                   MOV         #0,R2
    0000157C 13D1                   MOV.L       R13,@(4,R3)
    0000157E 63F2                   MOV.L       @R15,R3
    00001580 132B                   MOV.L       R2,@(44,R3)
    00001582 63F2                   MOV.L       @R15,R3
    00001584 13D9                   MOV.L       R13,@(36,R3)
    00001586 63F2                   MOV.L       @R15,R3
    00001588 13DA                   MOV.L       R13,@(40,R3)
    0000158A              L1600:                            
    0000158A 64F2                   MOV.L       @R15,R4




SH SERIES C/C++ Compiler (Ver. 6.0C)                                                                 09-Nov-2021 18:28:35  PAGE   66


SCT OFFSET   CODE       C LABEL     INSTRUCTION OPERAND    COMMENT

    0000158C D37F                   MOV.L       L1653+2,R3 ; ___nw__FUl
    0000158E 14E3                   MOV.L       R14,@(12,R4)
    00001590 1F41                   MOV.L       R4,@(4,R15)
    00001592 430B                   JSR         @R3
    00001594 E40C                   MOV         #12,R4
    00001596 2008                   TST         R0,R0
    00001598 8D06                   BT/S        L1601
    0000159A 6C03                   MOV         R0,R12
    0000159C D37C                   MOV.L       L1653+6,R3 ; ___memzero
    0000159E E50C                   MOV         #12,R5
    000015A0 430B                   JSR         @R3
    000015A2 64C3                   MOV         R12,R4
    000015A4 A001                   BRA         L1602
    000015A6 64C3                   MOV         R12,R4
    000015A8              L1601:                            
    000015A8 64D3                   MOV         R13,R4
    000015AA              L1602:                            
    000015AA 53F1                   MOV.L       @(4,R15),R3
    000015AC 2432                   MOV.L       R3,@R4
    000015AE 52E3                   MOV.L       @(12,R14),R2
    000015B0 7201                   ADD         #1,R2
    000015B2 1E23                   MOV.L       R2,@(12,R14)
    000015B4 53E1                   MOV.L       @(4,R14),R3
    000015B6 2338                   TST         R3,R3
    000015B8 8B01                   BF          L1603
    000015BA A004                   BRA         L1148
    000015BC 1E41                   MOV.L       R4,@(4,R14)
    000015BE              L1603:                            
    000015BE 53E2                   MOV.L       @(8,R14),R3
    000015C0 1432                   MOV.L       R3,@(8,R4)
    000015C2 52E2                   MOV.L       @(8,R14),R2
    000015C4 1241                   MOV.L       R4,@(4,R2)
    000015C6              L1148:
    000015C6 1E42                   MOV.L       R4,@(8,R14)
    000015C8 7F08                   ADD         #8,R15
    000015CA 4F26                   LDS.L       @R15+,PR
    000015CC 6CF6                   MOV.L       @R15+,R12
    000015CE 6DF6                   MOV.L       @R15+,R13
    000015D0 000B                   RTS
    000015D2 6EF6                   MOV.L       @R15+,R14
    000015D4              _LoadScene__12SceneManagerFPUc:  ; function: SceneManager::LoadScene(unsigned char *)
                                                           ; frame size=16
    000015D4 2FE6                   MOV.L       R14,@-R15
    000015D6 6E43                   MOV         R4,R14
    000015D8 2FD6                   MOV.L       R13,@-R15
    000015DA 4F22                   STS.L       PR,@-R15
    000015DC 7FFC                   ADD         #-4,R15
    000015DE A010                   BRA         L1606
    000015E0 E400                   MOV         #0,R4
    000015E2              L1607:                            
    000015E2 56E2                   MOV.L       @(8,R14),R6
    000015E4 53E1                   MOV.L       @(4,R14),R3
    000015E6 6262                   MOV.L       @R6,R2
    000015E8 3360                   CMP/EQ      R6,R3
    000015EA 8B02                   BF          L1608
    000015EC 1E41                   MOV.L       R4,@(4,R14)
    000015EE A005                   BRA         L1609




SH SERIES C/C++ Compiler (Ver. 6.0C)                                                                 09-Nov-2021 18:28:35  PAGE   67


SCT OFFSET   CODE       C LABEL     INSTRUCTION OPERAND    COMMENT

    000015F0 1E42                   MOV.L       R4,@(8,R14)
    000015F2              L1608:                            
    000015F2 52E2                   MOV.L       @(8,R14),R2
    000015F4 5322                   MOV.L       @(8,R2),R3
    000015F6 1E32                   MOV.L       R3,@(8,R14)
    000015F8 6233                   MOV         R3,R2
    000015FA 1241                   MOV.L       R4,@(4,R2)
    000015FC              L1609:                            
    000015FC 53E3                   MOV.L       @(12,R14),R3
    000015FE 73FF                   ADD         #-1,R3
    00001600 1E33                   MOV.L       R3,@(12,R14)
    00001602              L1606:                            
    00001602 52E3                   MOV.L       @(12,R14),R2
    00001604 4215                   CMP/PL      R2
    00001606 89EC                   BT          L1607
    00001608 D162                   MOV.L       L1653+10,R1; _GetSceneInBuild__12SceneManagerFPUc
    0000160A 410B                   JSR         @R1
    0000160C 64E3                   MOV         R14,R4
    0000160E 2F02                   MOV.L       R0,@R15
    00001610 D35E                   MOV.L       L1653+2,R3 ; ___nw__FUl
    00001612 430B                   JSR         @R3
    00001614 E40C                   MOV         #12,R4
    00001616 2008                   TST         R0,R0
    00001618 8D06                   BT/S        L1610
    0000161A 6D03                   MOV         R0,R13
    0000161C D35C                   MOV.L       L1653+6,R3 ; ___memzero
    0000161E E50C                   MOV         #12,R5
    00001620 430B                   JSR         @R3
    00001622 64D3                   MOV         R13,R4
    00001624 A001                   BRA         L1611
    00001626 64D3                   MOV         R13,R4
    00001628              L1610:                            
    00001628 E400                   MOV         #0,R4
    0000162A              L1611:                            
    0000162A 63F2                   MOV.L       @R15,R3
    0000162C 2432                   MOV.L       R3,@R4
    0000162E 52E3                   MOV.L       @(12,R14),R2
    00001630 7201                   ADD         #1,R2
    00001632 1E23                   MOV.L       R2,@(12,R14)
    00001634 53E1                   MOV.L       @(4,R14),R3
    00001636 2338                   TST         R3,R3
    00001638 8B01                   BF          L1612
    0000163A A004                   BRA         L1149
    0000163C 1E41                   MOV.L       R4,@(4,R14)
    0000163E              L1612:                            
    0000163E 53E2                   MOV.L       @(8,R14),R3
    00001640 1432                   MOV.L       R3,@(8,R4)
    00001642 52E2                   MOV.L       @(8,R14),R2
    00001644 1241                   MOV.L       R4,@(4,R2)
    00001646              L1149:
    00001646 1E42                   MOV.L       R4,@(8,R14)
    00001648 7F04                   ADD         #4,R15
    0000164A 4F26                   LDS.L       @R15+,PR
    0000164C 6DF6                   MOV.L       @R15+,R13
    0000164E 000B                   RTS
    00001650 6EF6                   MOV.L       @R15+,R14
    00001652              _FindWithName__12SceneManagerFPUc:




SH SERIES C/C++ Compiler (Ver. 6.0C)                                                                 09-Nov-2021 18:28:35  PAGE   68


SCT OFFSET   CODE       C LABEL     INSTRUCTION OPERAND    COMMENT

                                                           ; function: SceneManager::FindWithName(unsigned char *)
                                                           ; frame size=32
    00001652 2FE6                   MOV.L       R14,@-R15
    00001654 2FD6                   MOV.L       R13,@-R15
    00001656 2FC6                   MOV.L       R12,@-R15
    00001658 2FB6                   MOV.L       R11,@-R15
    0000165A 6C43                   MOV         R4,R12
    0000165C 2FA6                   MOV.L       R10,@-R15
    0000165E 2F96                   MOV.L       R9,@-R15
    00001660 2F86                   MOV.L       R8,@-R15
    00001662 E900                   MOV         #0,R9
    00001664 4F22                   STS.L       PR,@-R15
    00001666 6853                   MOV         R5,R8
    00001668 A020                   BRA         L1615
    0000166A 6E93                   MOV         R9,R14
    0000166C              L1616:                            
    0000166C A016                   BRA         L1617
    0000166E 6D93                   MOV         R9,R13
    00001670              L1618:                            
    00001670 65E3                   MOV         R14,R5
    00001672 64C3                   MOV         R12,R4
    00001674 B09A                   BSR         __$get__19List__tm__8_P5SceneFi_Z1Z
    00001676 7404                   ADD         #4,R4
    00001678 6A03                   MOV         R0,R10
    0000167A 6BD3                   MOV         R13,R11
    0000167C 65D3                   MOV         R13,R5
    0000167E BB28                   BSR         __$get__26List__tm__14_P10GameObjectFi_Z1Z
    00001680 6403                   MOV         R0,R4
    00001682 6302                   MOV.L       @R0,R3
    00001684 3380                   CMP/EQ      R8,R3
    00001686 8B08                   BF          L1619
    00001688 65E3                   MOV         R14,R5
    0000168A 64C3                   MOV         R12,R4
    0000168C B08E                   BSR         __$get__19List__tm__8_P5SceneFi_Z1Z
    0000168E 7404                   ADD         #4,R4
    00001690 6403                   MOV         R0,R4
    00001692 BB1E                   BSR         __$get__26List__tm__14_P10GameObjectFi_Z1Z
    00001694 65D3                   MOV         R13,R5
    00001696 A00D                   BRA         L1620
    00001698 0009                   NOP
    0000169A              L1619:                            
    0000169A 7D01                   ADD         #1,R13
    0000169C              L1617:                            
    0000169C 65E3                   MOV         R14,R5
    0000169E 64C3                   MOV         R12,R4
    000016A0 B084                   BSR         __$get__19List__tm__8_P5SceneFi_Z1Z
    000016A2 7404                   ADD         #4,R4
    000016A4 5202                   MOV.L       @(8,R0),R2
    000016A6 3D23                   CMP/GE      R2,R13
    000016A8 8BE2                   BF          L1618
    000016AA 7E01                   ADD         #1,R14
    000016AC              L1615:                            
    000016AC 52C3                   MOV.L       @(12,R12),R2
    000016AE 3E23                   CMP/GE      R2,R14
    000016B0 8BDC                   BF          L1616
    000016B2 E000                   MOV         #0,R0
    000016B4              L1620:                            




SH SERIES C/C++ Compiler (Ver. 6.0C)                                                                 09-Nov-2021 18:28:35  PAGE   69


SCT OFFSET   CODE       C LABEL     INSTRUCTION OPERAND    COMMENT

    000016B4 4F26                   LDS.L       @R15+,PR
    000016B6 68F6                   MOV.L       @R15+,R8
    000016B8 69F6                   MOV.L       @R15+,R9
    000016BA 6AF6                   MOV.L       @R15+,R10
    000016BC 6BF6                   MOV.L       @R15+,R11
    000016BE 6CF6                   MOV.L       @R15+,R12
    000016C0 6DF6                   MOV.L       @R15+,R13
    000016C2 000B                   RTS
    000016C4 6EF6                   MOV.L       @R15+,R14
    000016C6              _UpdateScene__12SceneManagerFv:  ; function: SceneManager::UpdateScene()
                                                           ; frame size=12
    000016C6 2FE6                   MOV.L       R14,@-R15
    000016C8 2FD6                   MOV.L       R13,@-R15
    000016CA 6D43                   MOV         R4,R13
    000016CC 4F22                   STS.L       PR,@-R15
    000016CE A007                   BRA         L1621
    000016D0 EE00                   MOV         #0,R14
    000016D2              L1622:                            
    000016D2 65E3                   MOV         R14,R5
    000016D4 64D3                   MOV         R13,R4
    000016D6 B069                   BSR         __$get__19List__tm__8_P5SceneFi_Z1Z
    000016D8 7404                   ADD         #4,R4
    000016DA BAC9                   BSR         _Update__5SceneFv
    000016DC 6403                   MOV         R0,R4
    000016DE 7E01                   ADD         #1,R14
    000016E0              L1621:                            
    000016E0 52D3                   MOV.L       @(12,R13),R2
    000016E2 3E23                   CMP/GE      R2,R14
    000016E4 8BF5                   BF          L1622
    000016E6 4F26                   LDS.L       @R15+,PR
    000016E8 6DF6                   MOV.L       @R15+,R13
    000016EA 000B                   RTS
    000016EC 6EF6                   MOV.L       @R15+,R14
    000016EE              _StartScene__12SceneManagerFv:   ; function: SceneManager::StartScene()
                                                           ; frame size=12
    000016EE 2FE6                   MOV.L       R14,@-R15
    000016F0 2FD6                   MOV.L       R13,@-R15
    000016F2 6D43                   MOV         R4,R13
    000016F4 4F22                   STS.L       PR,@-R15
    000016F6 A007                   BRA         L1624
    000016F8 EE00                   MOV         #0,R14
    000016FA              L1625:                            
    000016FA 65E3                   MOV         R14,R5
    000016FC 64D3                   MOV         R13,R4
    000016FE B055                   BSR         __$get__19List__tm__8_P5SceneFi_Z1Z
    00001700 7404                   ADD         #4,R4
    00001702 BAC8                   BSR         _Start__5SceneFv
    00001704 6403                   MOV         R0,R4
    00001706 7E01                   ADD         #1,R14
    00001708              L1624:                            
    00001708 52D3                   MOV.L       @(12,R13),R2
    0000170A 3E23                   CMP/GE      R2,R14
    0000170C 8BF5                   BF          L1625
    0000170E 4F26                   LDS.L       @R15+,PR
    00001710 6DF6                   MOV.L       @R15+,R13
    00001712 000B                   RTS
    00001714 6EF6                   MOV.L       @R15+,R14




SH SERIES C/C++ Compiler (Ver. 6.0C)                                                                 09-Nov-2021 18:28:35  PAGE   70


SCT OFFSET   CODE       C LABEL     INSTRUCTION OPERAND    COMMENT

    00001716              _GetSceneInBuild__12SceneManagerFPUc:
                                                           ; function: SceneManager::GetSceneInBuild(unsigned char *)
                                                           ; frame size=20
    00001716 2FE6                   MOV.L       R14,@-R15
    00001718 4F22                   STS.L       PR,@-R15
    0000171A 7FF4                   ADD         #-12,R15
    0000171C D21E                   MOV.L       L1653+14,R2; L1117
    0000171E 1F41                   MOV.L       R4,@(4,R15)
    00001720 6322                   MOV.L       @R2,R3
    00001722 64F3                   MOV         R15,R4
    00001724 1F32                   MOV.L       R3,@(8,R15)
    00001726 7408                   ADD         #8,R4
    00001728 6043                   MOV         R4,R0
    0000172A 3402                   CMP/HS      R0,R4
    0000172C 8D25                   BT/S        L1627
    0000172E EE00                   MOV         #0,R14
    00001730              L1628:                            
    00001730 6242                   MOV.L       @R4,R2
    00001732 3520                   CMP/EQ      R2,R5
    00001734 8B1E                   BF          L1629
    00001736 63E3                   MOV         R14,R3
    00001738 2338                   TST         R3,R3
    0000173A 8F06                   BF/S        L1631
    0000173C 2FE2                   MOV.L       R14,@R15
    0000173E D313                   MOV.L       L1653+2,R3 ; ___nw__FUl
    00001740 430B                   JSR         @R3
    00001742 E430                   MOV         #48,R4
    00001744 2008                   TST         R0,R0
    00001746 8D0D                   BT/S        L1632
    00001748 2F02                   MOV.L       R0,@R15
    0000174A              L1631:                            
    0000174A E300                   MOV         #0,R3
    0000174C 60F2                   MOV.L       @R15,R0
    0000174E 1032                   MOV.L       R3,@(8,R0)
    00001750 60F2                   MOV.L       @R15,R0
    00001752 20E2                   MOV.L       R14,@R0
    00001754 60F2                   MOV.L       @R15,R0
    00001756 10E1                   MOV.L       R14,@(4,R0)
    00001758 60F2                   MOV.L       @R15,R0
    0000175A 103B                   MOV.L       R3,@(44,R0)
    0000175C 60F2                   MOV.L       @R15,R0
    0000175E 10E9                   MOV.L       R14,@(36,R0)
    00001760 60F2                   MOV.L       @R15,R0
    00001762 10EA                   MOV.L       R14,@(40,R0)
    00001764              L1632:                            
    00001764 64F2                   MOV.L       @R15,R4
    00001766 50F1                   MOV.L       @(4,R15),R0
    00001768 1403                   MOV.L       R0,@(12,R4)
    0000176A 6043                   MOV         R4,R0
    0000176C 7F0C                   ADD         #12,R15
    0000176E 4F26                   LDS.L       @R15+,PR
    00001770 000B                   RTS
    00001772 6EF6                   MOV.L       @R15+,R14
    00001774              L1629:                            
    00001774 7404                   ADD         #4,R4
    00001776 3402                   CMP/HS      R0,R4
    00001778 8BDA                   BF          L1628




SH SERIES C/C++ Compiler (Ver. 6.0C)                                                                 09-Nov-2021 18:28:35  PAGE   71


SCT OFFSET   CODE       C LABEL     INSTRUCTION OPERAND    COMMENT

    0000177A              L1627:                            
    0000177A E000                   MOV         #0,R0
    0000177C              L1633:                            
    0000177C 7F0C                   ADD         #12,R15
    0000177E 4F26                   LDS.L       @R15+,PR
    00001780 000B                   RTS
    00001782 6EF6                   MOV.L       @R15+,R14
    00001784              __$get_node__19List__tm__8_P5SceneFi_P15Node__tm__4_Z1Z:
                                                           ; function: Node<T1> *List<T1>::get_node(int) [with T1=Scene *]
                                                           ; frame size=0
    00001784 E700                   MOV         #0,R7
    00001786 A00B                   BRA         L1634
    00001788 6642                   MOV.L       @R4,R6
    0000178A              L1653:                            
    0000178A 0000                   .DATA.W     0
    0000178C <00000000>             .DATA.L     ___nw__FUl
    00001790 <00000000>             .DATA.L     ___memzero
    00001794 <00000000>             .DATA.L     _GetSceneInBuild__12SceneManagerFPUc
    00001798 <00000000>             .DATA.L     L1117
    0000179C              L1635:                            
    0000179C 5661                   MOV.L       @(4,R6),R6
    0000179E 7701                   ADD         #1,R7
    000017A0              L1634:                            
    000017A0 2668                   TST         R6,R6
    000017A2 8901                   BT          L1636
    000017A4 3750                   CMP/EQ      R5,R7
    000017A6 8BF9                   BF          L1635
    000017A8              L1636:                            
    000017A8 000B                   RTS
    000017AA 6063                   MOV         R6,R0
    000017AC              __$get__19List__tm__8_P5SceneFi_Z1Z:
                                                           ; function: T1 List<T1>::get(int) [with T1=Scene *]
                                                           ; frame size=4
    000017AC 4F22                   STS.L       PR,@-R15
    000017AE E3FF                   MOV         #-1,R3
    000017B0 3533                   CMP/GE      R3,R5
    000017B2 8B04                   BF          L1150
    000017B4 BFE6                   BSR         __$get_node__19List__tm__8_P5SceneFi_P15Node__tm__4_Z1Z
    000017B6 0009                   NOP
    000017B8 6403                   MOV         R0,R4
    000017BA 2448                   TST         R4,R4
    000017BC 8B02                   BF          L1640
    000017BE              L1150:
    000017BE 4F26                   LDS.L       @R15+,PR
    000017C0 000B                   RTS
    000017C2 E000                   MOV         #0,R0
    000017C4              L1640:                            
    000017C4 6042                   MOV.L       @R4,R0
    000017C6              L1639:                            
    000017C6 4F26                   LDS.L       @R15+,PR
    000017C8 000B                   RTS
    000017CA 0009                   NOP
D   00000000              __$__T30544580:                  ; static: __T30544580
    00000000 <00000000>             .DATA.L     __$__T_6Object
    00000004 00000000               .DATA.L     H'00000000
    00000008 16                     .DATA.B     H'16
    00000009 0000000301             .DATAB.B    3,0




SH SERIES C/C++ Compiler (Ver. 6.0C)                                                                 09-Nov-2021 18:28:35  PAGE   72


SCT OFFSET   CODE       C LABEL     INSTRUCTION OPERAND    COMMENT

             00           
    0000000C              __$__T30546052:                  ; static: __T30546052
    0000000C <00000000>             .DATA.L     ___T_9Component
    00000010 00000000               .DATA.L     H'00000000
    00000014 16                     .DATA.B     H'16
    00000015 0000000301             .DATAB.B    3,0
             00           
    00000018              __$__T30547608:                  ; static: __T30547608
    00000018 <00000000>             .DATA.L     ___T_9Component
    0000001C 00000000               .DATA.L     H'00000000
    00000020 16                     .DATA.B     H'16
    00000021 0000000301             .DATAB.B    3,0
             00           
    00000024              __$__T30549156:                  ; static: __T30549156
    00000024 <00000000>             .DATA.L     __$__T_6Object
    00000028 00000000               .DATA.L     H'00000000
    0000002C 16                     .DATA.B     H'16
    0000002D 0000000301             .DATAB.B    3,0
             00           
    00000030              __$__T30550924:                  ; static: __T30550924
    00000030 <00000000>             .DATA.L     __$__T_9Behaviour
    00000034 00000000               .DATA.L     H'00000000
    00000038 16                     .DATA.B     H'16
    00000039 0000000301             .DATAB.B    3,0
             00           
    0000003C              __$__T30552684:                  ; static: __T30552684
    0000003C <00000000>             .DATA.L     __$__T_6Object
    00000040 00000000               .DATA.L     H'00000000
    00000044 16                     .DATA.B     H'16
    00000045 0000000301             .DATAB.B    3,0
             00           
    00000048              __$__T30554148:                  ; static: __T30554148
    00000048 <00000000>             .DATA.L     __$__T_9Behaviour
    0000004C 00000000               .DATA.L     H'00000000
    00000050 16                     .DATA.B     H'16
    00000051 0000000301             .DATAB.B    3,0
             00           
    00000054              __$__T30555612:                  ; static: __T30555612
    00000054 <00000000>             .DATA.L     __$__T_13MonoBehaviour
    00000058 00000000               .DATA.L     H'00000000
    0000005C 12                     .DATA.B     H'12
    0000005D 0000000301             .DATAB.B    3,0
             00           
    00000060              __$__T30557076:                  ; static: __T30557076
    00000060 <00000000>             .DATA.L     __$__T_13MonoBehaviour
    00000064 00000000               .DATA.L     H'00000000
    00000068 12                     .DATA.B     H'12
    00000069 0000000301             .DATAB.B    3,0
             00           
    0000006C              __$__T30558548:                  ; static: __T30558548
    0000006C <00000000>             .DATA.L     __$__T_13MonoBehaviour
    00000070 00000000               .DATA.L     H'00000000
    00000074 12                     .DATA.B     H'12
    00000075 0000000301             .DATAB.B    3,0
             00           
    00000078              __$__T30560008:                  ; static: __T30560008
    00000078 <00000000>             .DATA.L     __$__T_13MonoBehaviour




SH SERIES C/C++ Compiler (Ver. 6.0C)                                                                 09-Nov-2021 18:28:35  PAGE   73


SCT OFFSET   CODE       C LABEL     INSTRUCTION OPERAND    COMMENT

    0000007C 00000000               .DATA.L     H'00000000
    00000080 12                     .DATA.B     H'12
    00000081 0000000301             .DATAB.B    3,0
             00           
    00000084              __$__T30561472:                  ; static: __T30561472
    00000084 <00000000>             .DATA.L     __$__T_13MonoBehaviour
    00000088 00000000               .DATA.L     H'00000000
    0000008C 12                     .DATA.B     H'12
    0000008D 0000000301             .DATAB.B    3,0
             00           
C$V 00000000              __$__vtbl__6Object:              ; static: virtual function table for Object
    00000000 0000000000             .DATA.L     H'00000000,H'00000000
             000000       
    00000008 <00000000>             .DATA.L     __$__T_6Object
    0000000C 0000000000             .DATA.L     H'00000000,H'00000000
             000000       
    00000014 <00000000>             .DATA.L     __$__dt__6ObjectFv
    00000018 0000000000             .DATA.L     H'00000000,H'00000000
             000000       
    00000020 <00000000>             .DATA.L     __$Destroy__6ObjectFv
    00000024 0000000000             .DATA.L     H'00000000,H'00000000
             000000       
    0000002C <00000000>             .DATA.L     __$DestroyImmediate__6ObjectFv
    00000030 0000000000             .DATA.L     H'00000000,H'00000000
             000000       
    00000038 <00000000>             .DATA.L     __$DontDestroyOnLoad__6ObjectFv
    0000003C 0000000000             .DATA.L     H'00000000,H'00000000
             000000       
    00000044 <00000000>             .DATA.L     __$FindObjectOfType__6ObjectFv
    00000048 0000000000             .DATA.L     H'00000000,H'00000000
             000000       
    00000050 <00000000>             .DATA.L     __$FindObjectsOfType__6ObjectFv
    00000054 0000000000             .DATA.L     H'00000000,H'00000000
             000000       
    0000005C <00000000>             .DATA.L     __$Instantiate__6ObjectFv
    00000060              ___vtbl__9Component:             ; static: virtual function table for Component
    00000060 0000000000             .DATA.L     H'00000000,H'00000000
             000000       
    00000068 <00000000>             .DATA.L     ___T_9Component
    0000006C 0000000000             .DATA.L     H'00000000,H'00000000
             000000       
    00000074 <00000000>             .DATA.L     ___dt__9ComponentFv
    00000078 0000000000             .DATA.L     H'00000000,H'00000000
             000000       
    00000080 <00000000>             .DATA.L     __$Destroy__6ObjectFv
    00000084 0000000000             .DATA.L     H'00000000,H'00000000
             000000       
    0000008C <00000000>             .DATA.L     __$DestroyImmediate__6ObjectFv
    00000090 0000000000             .DATA.L     H'00000000,H'00000000
             000000       
    00000098 <00000000>             .DATA.L     __$DontDestroyOnLoad__6ObjectFv
    0000009C 0000000000             .DATA.L     H'00000000,H'00000000
             000000       
    000000A4 <00000000>             .DATA.L     __$FindObjectOfType__6ObjectFv
    000000A8 0000000000             .DATA.L     H'00000000,H'00000000
             000000       
    000000B0 <00000000>             .DATA.L     __$FindObjectsOfType__6ObjectFv




SH SERIES C/C++ Compiler (Ver. 6.0C)                                                                 09-Nov-2021 18:28:35  PAGE   74


SCT OFFSET   CODE       C LABEL     INSTRUCTION OPERAND    COMMENT

    000000B4 0000000000             .DATA.L     H'00000000,H'00000000
             000000       
    000000BC <00000000>             .DATA.L     __$Instantiate__6ObjectFv
    000000C0 0000000000             .DATA.L     H'00000000,H'00000000
             000000       
    000000C8 <00000000>             .DATA.L     __$Awake__9ComponentFv
    000000CC 0000000000             .DATA.L     H'00000000,H'00000000
             000000       
    000000D4 <00000000>             .DATA.L     __$FixedUpdate__9ComponentFv
    000000D8 0000000000             .DATA.L     H'00000000,H'00000000
             000000       
    000000E0 <00000000>             .DATA.L     __$LateUpdate__9ComponentFv
    000000E4 0000000000             .DATA.L     H'00000000,H'00000000
             000000       
    000000EC <00000000>             .DATA.L     __$OnAnimatorIK__9ComponentFv
    000000F0 0000000000             .DATA.L     H'00000000,H'00000000
             000000       
    000000F8 <00000000>             .DATA.L     __$OnAnimatorMove__9ComponentFv
    000000FC 0000000000             .DATA.L     H'00000000,H'00000000
             000000       
    00000104 <00000000>             .DATA.L     __$OnApplicationFocus__9ComponentFv
    00000108 0000000000             .DATA.L     H'00000000,H'00000000
             000000       
    00000110 <00000000>             .DATA.L     __$OnApplicationPause__9ComponentFv
    00000114 0000000000             .DATA.L     H'00000000,H'00000000
             000000       
    0000011C <00000000>             .DATA.L     __$OnApplicationQuit__9ComponentFv
    00000120 0000000000             .DATA.L     H'00000000,H'00000000
             000000       
    00000128 <00000000>             .DATA.L     __$OnAudioFilterRead__9ComponentFv
    0000012C 0000000000             .DATA.L     H'00000000,H'00000000
             000000       
    00000134 <00000000>             .DATA.L     __$OnBecameInvisible__9ComponentFv
    00000138 0000000000             .DATA.L     H'00000000,H'00000000
             000000       
    00000140 <00000000>             .DATA.L     __$OnBecameVisible__9ComponentFv
    00000144 0000000000             .DATA.L     H'00000000,H'00000000
             000000       
    0000014C <00000000>             .DATA.L     __$OnCollisionEnter__9ComponentFv
    00000150 0000000000             .DATA.L     H'00000000,H'00000000
             000000       
    00000158 <00000000>             .DATA.L     __$OnCollisionEnter2D__9ComponentFv
    0000015C 0000000000             .DATA.L     H'00000000,H'00000000
             000000       
    00000164 <00000000>             .DATA.L     __$OnCollisionExit__9ComponentFv
    00000168 0000000000             .DATA.L     H'00000000,H'00000000
             000000       
    00000170 <00000000>             .DATA.L     __$OnCollisionExit2D__9ComponentFv
    00000174 0000000000             .DATA.L     H'00000000,H'00000000
             000000       
    0000017C <00000000>             .DATA.L     __$OnCollisionStay__9ComponentFv
    00000180 0000000000             .DATA.L     H'00000000,H'00000000
             000000       
    00000188 <00000000>             .DATA.L     __$OnCollisionStay2D__9ComponentFv
    0000018C 0000000000             .DATA.L     H'00000000,H'00000000
             000000       
    00000194 <00000000>             .DATA.L     __$OnConnectedToServer__9ComponentFv




SH SERIES C/C++ Compiler (Ver. 6.0C)                                                                 09-Nov-2021 18:28:35  PAGE   75


SCT OFFSET   CODE       C LABEL     INSTRUCTION OPERAND    COMMENT

    00000198 0000000000             .DATA.L     H'00000000,H'00000000
             000000       
    000001A0 <00000000>             .DATA.L     __$OnControllerColliderHit__9ComponentFv
    000001A4 0000000000             .DATA.L     H'00000000,H'00000000
             000000       
    000001AC <00000000>             .DATA.L     __$OnDestroy__9ComponentFv
    000001B0 0000000000             .DATA.L     H'00000000,H'00000000
             000000       
    000001B8 <00000000>             .DATA.L     __$OnDisable__9ComponentFv
    000001BC 0000000000             .DATA.L     H'00000000,H'00000000
             000000       
    000001C4 <00000000>             .DATA.L     __$OnDisconnectedFromServer__9ComponentFv
    000001C8 0000000000             .DATA.L     H'00000000,H'00000000
             000000       
    000001D0 <00000000>             .DATA.L     __$OnDrawGizmos__9ComponentFv
    000001D4 0000000000             .DATA.L     H'00000000,H'00000000
             000000       
    000001DC <00000000>             .DATA.L     __$OnDrawGizmosSelected__9ComponentFv
    000001E0 0000000000             .DATA.L     H'00000000,H'00000000
             000000       
    000001E8 <00000000>             .DATA.L     __$OnEnable__9ComponentFv
    000001EC 0000000000             .DATA.L     H'00000000,H'00000000
             000000       
    000001F4 <00000000>             .DATA.L     __$OnFailedToConnect__9ComponentFv
    000001F8 0000000000             .DATA.L     H'00000000,H'00000000
             000000       
    00000200 <00000000>             .DATA.L     __$OnFailedToConnectToMasterServer__9ComponentFv
    00000204 0000000000             .DATA.L     H'00000000,H'00000000
             000000       
    0000020C <00000000>             .DATA.L     __$OnGUI__9ComponentFv
    00000210 0000000000             .DATA.L     H'00000000,H'00000000
             000000       
    00000218 <00000000>             .DATA.L     __$OnJointBreak__9ComponentFv
    0000021C 0000000000             .DATA.L     H'00000000,H'00000000
             000000       
    00000224 <00000000>             .DATA.L     __$OnJointBreak2D__9ComponentFv
    00000228 0000000000             .DATA.L     H'00000000,H'00000000
             000000       
    00000230 <00000000>             .DATA.L     __$OnMasterServerEvent__9ComponentFv
    00000234 0000000000             .DATA.L     H'00000000,H'00000000
             000000       
    0000023C <00000000>             .DATA.L     __$OnMouseDown__9ComponentFv
    00000240 0000000000             .DATA.L     H'00000000,H'00000000
             000000       
    00000248 <00000000>             .DATA.L     __$OnMouseDrag__9ComponentFv
    0000024C 0000000000             .DATA.L     H'00000000,H'00000000
             000000       
    00000254 <00000000>             .DATA.L     __$OnMouseEnter__9ComponentFv
    00000258 0000000000             .DATA.L     H'00000000,H'00000000
             000000       
    00000260 <00000000>             .DATA.L     __$OnMouseExit__9ComponentFv
    00000264 0000000000             .DATA.L     H'00000000,H'00000000
             000000       
    0000026C <00000000>             .DATA.L     __$OnMouseOver__9ComponentFv
    00000270 0000000000             .DATA.L     H'00000000,H'00000000
             000000       
    00000278 <00000000>             .DATA.L     __$OnMouseUp__9ComponentFv




SH SERIES C/C++ Compiler (Ver. 6.0C)                                                                 09-Nov-2021 18:28:35  PAGE   76


SCT OFFSET   CODE       C LABEL     INSTRUCTION OPERAND    COMMENT

    0000027C 0000000000             .DATA.L     H'00000000,H'00000000
             000000       
    00000284 <00000000>             .DATA.L     __$OnMouseUpAsButton__9ComponentFv
    00000288 0000000000             .DATA.L     H'00000000,H'00000000
             000000       
    00000290 <00000000>             .DATA.L     __$OnNetworkInstantiate__9ComponentFv
    00000294 0000000000             .DATA.L     H'00000000,H'00000000
             000000       
    0000029C <00000000>             .DATA.L     __$OnParticleCollision__9ComponentFv
    000002A0 0000000000             .DATA.L     H'00000000,H'00000000
             000000       
    000002A8 <00000000>             .DATA.L     __$OnParticleSystemStopped__9ComponentFv
    000002AC 0000000000             .DATA.L     H'00000000,H'00000000
             000000       
    000002B4 <00000000>             .DATA.L     __$OnParticleTrigger__9ComponentFv
    000002B8 0000000000             .DATA.L     H'00000000,H'00000000
             000000       
    000002C0 <00000000>             .DATA.L     __$OnParticleUpdateJobScheduled__9ComponentFv
    000002C4 0000000000             .DATA.L     H'00000000,H'00000000
             000000       
    000002CC <00000000>             .DATA.L     __$OnPlayerConnected__9ComponentFv
    000002D0 0000000000             .DATA.L     H'00000000,H'00000000
             000000       
    000002D8 <00000000>             .DATA.L     __$OnPlayerDisconnected__9ComponentFv
    000002DC 0000000000             .DATA.L     H'00000000,H'00000000
             000000       
    000002E4 <00000000>             .DATA.L     __$OnPostRender__9ComponentFv
    000002E8 0000000000             .DATA.L     H'00000000,H'00000000
             000000       
    000002F0 <00000000>             .DATA.L     __$OnPreCull__9ComponentFv
    000002F4 0000000000             .DATA.L     H'00000000,H'00000000
             000000       
    000002FC <00000000>             .DATA.L     __$OnPreRender__9ComponentFv
    00000300 0000000000             .DATA.L     H'00000000,H'00000000
             000000       
    00000308 <00000000>             .DATA.L     __$OnRenderImage__9ComponentFv
    0000030C 0000000000             .DATA.L     H'00000000,H'00000000
             000000       
    00000314 <00000000>             .DATA.L     __$OnRenderObject__9ComponentFv
    00000318 0000000000             .DATA.L     H'00000000,H'00000000
             000000       
    00000320 <00000000>             .DATA.L     __$OnSerializeNetworkView__9ComponentFv
    00000324 0000000000             .DATA.L     H'00000000,H'00000000
             000000       
    0000032C <00000000>             .DATA.L     __$OnServerInitialized__9ComponentFv
    00000330 0000000000             .DATA.L     H'00000000,H'00000000
             000000       
    00000338 <00000000>             .DATA.L     __$OnTransformChildrenChanged__9ComponentFv
    0000033C 0000000000             .DATA.L     H'00000000,H'00000000
             000000       
    00000344 <00000000>             .DATA.L     __$OnTransformParentChanged__9ComponentFv
    00000348 0000000000             .DATA.L     H'00000000,H'00000000
             000000       
    00000350 <00000000>             .DATA.L     __$OnTriggerEnter__9ComponentFv
    00000354 0000000000             .DATA.L     H'00000000,H'00000000
             000000       
    0000035C <00000000>             .DATA.L     __$OnTriggerEnter2D__9ComponentFv




SH SERIES C/C++ Compiler (Ver. 6.0C)                                                                 09-Nov-2021 18:28:35  PAGE   77


SCT OFFSET   CODE       C LABEL     INSTRUCTION OPERAND    COMMENT

    00000360 0000000000             .DATA.L     H'00000000,H'00000000
             000000       
    00000368 <00000000>             .DATA.L     __$OnTriggerExit__9ComponentFv
    0000036C 0000000000             .DATA.L     H'00000000,H'00000000
             000000       
    00000374 <00000000>             .DATA.L     __$OnTriggerExit2D__9ComponentFv
    00000378 0000000000             .DATA.L     H'00000000,H'00000000
             000000       
    00000380 <00000000>             .DATA.L     __$OnTriggerStay__9ComponentFv
    00000384 0000000000             .DATA.L     H'00000000,H'00000000
             000000       
    0000038C <00000000>             .DATA.L     __$OnTriggerStay2D__9ComponentFv
    00000390 0000000000             .DATA.L     H'00000000,H'00000000
             000000       
    00000398 <00000000>             .DATA.L     __$OnValidate__9ComponentFv
    0000039C 0000000000             .DATA.L     H'00000000,H'00000000
             000000       
    000003A4 <00000000>             .DATA.L     __$OnWillRenderObject__9ComponentFv
    000003A8 0000000000             .DATA.L     H'00000000,H'00000000
             000000       
    000003B0 <00000000>             .DATA.L     __$Reset__9ComponentFv
    000003B4 0000000000             .DATA.L     H'00000000,H'00000000
             000000       
    000003BC <00000000>             .DATA.L     __$Start__9ComponentFv
    000003C0 0000000000             .DATA.L     H'00000000,H'00000000
             000000       
    000003C8 <00000000>             .DATA.L     __$Update__9ComponentFv
    000003CC              ___vtbl__9Transform:             ; static: virtual function table for Transform
    000003CC 0000000000             .DATA.L     H'00000000,H'00000000
             000000       
    000003D4 <00000000>             .DATA.L     ___T_9Transform
    000003D8 0000000000             .DATA.L     H'00000000,H'00000000
             000000       
    000003E0 <00000000>             .DATA.L     ___dt__9TransformFv
    000003E4 0000000000             .DATA.L     H'00000000,H'00000000
             000000       
    000003EC <00000000>             .DATA.L     __$Destroy__6ObjectFv
    000003F0 0000000000             .DATA.L     H'00000000,H'00000000
             000000       
    000003F8 <00000000>             .DATA.L     __$DestroyImmediate__6ObjectFv
    000003FC 0000000000             .DATA.L     H'00000000,H'00000000
             000000       
    00000404 <00000000>             .DATA.L     __$DontDestroyOnLoad__6ObjectFv
    00000408 0000000000             .DATA.L     H'00000000,H'00000000
             000000       
    00000410 <00000000>             .DATA.L     __$FindObjectOfType__6ObjectFv
    00000414 0000000000             .DATA.L     H'00000000,H'00000000
             000000       
    0000041C <00000000>             .DATA.L     __$FindObjectsOfType__6ObjectFv
    00000420 0000000000             .DATA.L     H'00000000,H'00000000
             000000       
    00000428 <00000000>             .DATA.L     __$Instantiate__6ObjectFv
    0000042C 0000000000             .DATA.L     H'00000000,H'00000000
             000000       
    00000434 <00000000>             .DATA.L     __$Awake__9ComponentFv
    00000438 0000000000             .DATA.L     H'00000000,H'00000000
             000000       




SH SERIES C/C++ Compiler (Ver. 6.0C)                                                                 09-Nov-2021 18:28:35  PAGE   78


SCT OFFSET   CODE       C LABEL     INSTRUCTION OPERAND    COMMENT

    00000440 <00000000>             .DATA.L     __$FixedUpdate__9ComponentFv
    00000444 0000000000             .DATA.L     H'00000000,H'00000000
             000000       
    0000044C <00000000>             .DATA.L     __$LateUpdate__9ComponentFv
    00000450 0000000000             .DATA.L     H'00000000,H'00000000
             000000       
    00000458 <00000000>             .DATA.L     __$OnAnimatorIK__9ComponentFv
    0000045C 0000000000             .DATA.L     H'00000000,H'00000000
             000000       
    00000464 <00000000>             .DATA.L     __$OnAnimatorMove__9ComponentFv
    00000468 0000000000             .DATA.L     H'00000000,H'00000000
             000000       
    00000470 <00000000>             .DATA.L     __$OnApplicationFocus__9ComponentFv
    00000474 0000000000             .DATA.L     H'00000000,H'00000000
             000000       
    0000047C <00000000>             .DATA.L     __$OnApplicationPause__9ComponentFv
    00000480 0000000000             .DATA.L     H'00000000,H'00000000
             000000       
    00000488 <00000000>             .DATA.L     __$OnApplicationQuit__9ComponentFv
    0000048C 0000000000             .DATA.L     H'00000000,H'00000000
             000000       
    00000494 <00000000>             .DATA.L     __$OnAudioFilterRead__9ComponentFv
    00000498 0000000000             .DATA.L     H'00000000,H'00000000
             000000       
    000004A0 <00000000>             .DATA.L     __$OnBecameInvisible__9ComponentFv
    000004A4 0000000000             .DATA.L     H'00000000,H'00000000
             000000       
    000004AC <00000000>             .DATA.L     __$OnBecameVisible__9ComponentFv
    000004B0 0000000000             .DATA.L     H'00000000,H'00000000
             000000       
    000004B8 <00000000>             .DATA.L     __$OnCollisionEnter__9ComponentFv
    000004BC 0000000000             .DATA.L     H'00000000,H'00000000
             000000       
    000004C4 <00000000>             .DATA.L     __$OnCollisionEnter2D__9ComponentFv
    000004C8 0000000000             .DATA.L     H'00000000,H'00000000
             000000       
    000004D0 <00000000>             .DATA.L     __$OnCollisionExit__9ComponentFv
    000004D4 0000000000             .DATA.L     H'00000000,H'00000000
             000000       
    000004DC <00000000>             .DATA.L     __$OnCollisionExit2D__9ComponentFv
    000004E0 0000000000             .DATA.L     H'00000000,H'00000000
             000000       
    000004E8 <00000000>             .DATA.L     __$OnCollisionStay__9ComponentFv
    000004EC 0000000000             .DATA.L     H'00000000,H'00000000
             000000       
    000004F4 <00000000>             .DATA.L     __$OnCollisionStay2D__9ComponentFv
    000004F8 0000000000             .DATA.L     H'00000000,H'00000000
             000000       
    00000500 <00000000>             .DATA.L     __$OnConnectedToServer__9ComponentFv
    00000504 0000000000             .DATA.L     H'00000000,H'00000000
             000000       
    0000050C <00000000>             .DATA.L     __$OnControllerColliderHit__9ComponentFv
    00000510 0000000000             .DATA.L     H'00000000,H'00000000
             000000       
    00000518 <00000000>             .DATA.L     __$OnDestroy__9ComponentFv
    0000051C 0000000000             .DATA.L     H'00000000,H'00000000
             000000       




SH SERIES C/C++ Compiler (Ver. 6.0C)                                                                 09-Nov-2021 18:28:35  PAGE   79


SCT OFFSET   CODE       C LABEL     INSTRUCTION OPERAND    COMMENT

    00000524 <00000000>             .DATA.L     __$OnDisable__9ComponentFv
    00000528 0000000000             .DATA.L     H'00000000,H'00000000
             000000       
    00000530 <00000000>             .DATA.L     __$OnDisconnectedFromServer__9ComponentFv
    00000534 0000000000             .DATA.L     H'00000000,H'00000000
             000000       
    0000053C <00000000>             .DATA.L     __$OnDrawGizmos__9ComponentFv
    00000540 0000000000             .DATA.L     H'00000000,H'00000000
             000000       
    00000548 <00000000>             .DATA.L     __$OnDrawGizmosSelected__9ComponentFv
    0000054C 0000000000             .DATA.L     H'00000000,H'00000000
             000000       
    00000554 <00000000>             .DATA.L     __$OnEnable__9ComponentFv
    00000558 0000000000             .DATA.L     H'00000000,H'00000000
             000000       
    00000560 <00000000>             .DATA.L     __$OnFailedToConnect__9ComponentFv
    00000564 0000000000             .DATA.L     H'00000000,H'00000000
             000000       
    0000056C <00000000>             .DATA.L     __$OnFailedToConnectToMasterServer__9ComponentFv
    00000570 0000000000             .DATA.L     H'00000000,H'00000000
             000000       
    00000578 <00000000>             .DATA.L     __$OnGUI__9ComponentFv
    0000057C 0000000000             .DATA.L     H'00000000,H'00000000
             000000       
    00000584 <00000000>             .DATA.L     __$OnJointBreak__9ComponentFv
    00000588 0000000000             .DATA.L     H'00000000,H'00000000
             000000       
    00000590 <00000000>             .DATA.L     __$OnJointBreak2D__9ComponentFv
    00000594 0000000000             .DATA.L     H'00000000,H'00000000
             000000       
    0000059C <00000000>             .DATA.L     __$OnMasterServerEvent__9ComponentFv
    000005A0 0000000000             .DATA.L     H'00000000,H'00000000
             000000       
    000005A8 <00000000>             .DATA.L     __$OnMouseDown__9ComponentFv
    000005AC 0000000000             .DATA.L     H'00000000,H'00000000
             000000       
    000005B4 <00000000>             .DATA.L     __$OnMouseDrag__9ComponentFv
    000005B8 0000000000             .DATA.L     H'00000000,H'00000000
             000000       
    000005C0 <00000000>             .DATA.L     __$OnMouseEnter__9ComponentFv
    000005C4 0000000000             .DATA.L     H'00000000,H'00000000
             000000       
    000005CC <00000000>             .DATA.L     __$OnMouseExit__9ComponentFv
    000005D0 0000000000             .DATA.L     H'00000000,H'00000000
             000000       
    000005D8 <00000000>             .DATA.L     __$OnMouseOver__9ComponentFv
    000005DC 0000000000             .DATA.L     H'00000000,H'00000000
             000000       
    000005E4 <00000000>             .DATA.L     __$OnMouseUp__9ComponentFv
    000005E8 0000000000             .DATA.L     H'00000000,H'00000000
             000000       
    000005F0 <00000000>             .DATA.L     __$OnMouseUpAsButton__9ComponentFv
    000005F4 0000000000             .DATA.L     H'00000000,H'00000000
             000000       
    000005FC <00000000>             .DATA.L     __$OnNetworkInstantiate__9ComponentFv
    00000600 0000000000             .DATA.L     H'00000000,H'00000000
             000000       




SH SERIES C/C++ Compiler (Ver. 6.0C)                                                                 09-Nov-2021 18:28:35  PAGE   80


SCT OFFSET   CODE       C LABEL     INSTRUCTION OPERAND    COMMENT

    00000608 <00000000>             .DATA.L     __$OnParticleCollision__9ComponentFv
    0000060C 0000000000             .DATA.L     H'00000000,H'00000000
             000000       
    00000614 <00000000>             .DATA.L     __$OnParticleSystemStopped__9ComponentFv
    00000618 0000000000             .DATA.L     H'00000000,H'00000000
             000000       
    00000620 <00000000>             .DATA.L     __$OnParticleTrigger__9ComponentFv
    00000624 0000000000             .DATA.L     H'00000000,H'00000000
             000000       
    0000062C <00000000>             .DATA.L     __$OnParticleUpdateJobScheduled__9ComponentFv
    00000630 0000000000             .DATA.L     H'00000000,H'00000000
             000000       
    00000638 <00000000>             .DATA.L     __$OnPlayerConnected__9ComponentFv
    0000063C 0000000000             .DATA.L     H'00000000,H'00000000
             000000       
    00000644 <00000000>             .DATA.L     __$OnPlayerDisconnected__9ComponentFv
    00000648 0000000000             .DATA.L     H'00000000,H'00000000
             000000       
    00000650 <00000000>             .DATA.L     __$OnPostRender__9ComponentFv
    00000654 0000000000             .DATA.L     H'00000000,H'00000000
             000000       
    0000065C <00000000>             .DATA.L     __$OnPreCull__9ComponentFv
    00000660 0000000000             .DATA.L     H'00000000,H'00000000
             000000       
    00000668 <00000000>             .DATA.L     __$OnPreRender__9ComponentFv
    0000066C 0000000000             .DATA.L     H'00000000,H'00000000
             000000       
    00000674 <00000000>             .DATA.L     __$OnRenderImage__9ComponentFv
    00000678 0000000000             .DATA.L     H'00000000,H'00000000
             000000       
    00000680 <00000000>             .DATA.L     __$OnRenderObject__9ComponentFv
    00000684 0000000000             .DATA.L     H'00000000,H'00000000
             000000       
    0000068C <00000000>             .DATA.L     __$OnSerializeNetworkView__9ComponentFv
    00000690 0000000000             .DATA.L     H'00000000,H'00000000
             000000       
    00000698 <00000000>             .DATA.L     __$OnServerInitialized__9ComponentFv
    0000069C 0000000000             .DATA.L     H'00000000,H'00000000
             000000       
    000006A4 <00000000>             .DATA.L     __$OnTransformChildrenChanged__9ComponentFv
    000006A8 0000000000             .DATA.L     H'00000000,H'00000000
             000000       
    000006B0 <00000000>             .DATA.L     __$OnTransformParentChanged__9ComponentFv
    000006B4 0000000000             .DATA.L     H'00000000,H'00000000
             000000       
    000006BC <00000000>             .DATA.L     __$OnTriggerEnter__9ComponentFv
    000006C0 0000000000             .DATA.L     H'00000000,H'00000000
             000000       
    000006C8 <00000000>             .DATA.L     __$OnTriggerEnter2D__9ComponentFv
    000006CC 0000000000             .DATA.L     H'00000000,H'00000000
             000000       
    000006D4 <00000000>             .DATA.L     __$OnTriggerExit__9ComponentFv
    000006D8 0000000000             .DATA.L     H'00000000,H'00000000
             000000       
    000006E0 <00000000>             .DATA.L     __$OnTriggerExit2D__9ComponentFv
    000006E4 0000000000             .DATA.L     H'00000000,H'00000000
             000000       




SH SERIES C/C++ Compiler (Ver. 6.0C)                                                                 09-Nov-2021 18:28:35  PAGE   81


SCT OFFSET   CODE       C LABEL     INSTRUCTION OPERAND    COMMENT

    000006EC <00000000>             .DATA.L     __$OnTriggerStay__9ComponentFv
    000006F0 0000000000             .DATA.L     H'00000000,H'00000000
             000000       
    000006F8 <00000000>             .DATA.L     __$OnTriggerStay2D__9ComponentFv
    000006FC 0000000000             .DATA.L     H'00000000,H'00000000
             000000       
    00000704 <00000000>             .DATA.L     __$OnValidate__9ComponentFv
    00000708 0000000000             .DATA.L     H'00000000,H'00000000
             000000       
    00000710 <00000000>             .DATA.L     __$OnWillRenderObject__9ComponentFv
    00000714 0000000000             .DATA.L     H'00000000,H'00000000
             000000       
    0000071C <00000000>             .DATA.L     __$Reset__9ComponentFv
    00000720 0000000000             .DATA.L     H'00000000,H'00000000
             000000       
    00000728 <00000000>             .DATA.L     _Start__9TransformFv
    0000072C 0000000000             .DATA.L     H'00000000,H'00000000
             000000       
    00000734 <00000000>             .DATA.L     _Update__9TransformFv
    00000738              __$__vtbl__9Behaviour:           ; static: virtual function table for Behaviour
    00000738 0000000000             .DATA.L     H'00000000,H'00000000
             000000       
    00000740 <00000000>             .DATA.L     __$__T_9Behaviour
    00000744 0000000000             .DATA.L     H'00000000,H'00000000
             000000       
    0000074C <00000000>             .DATA.L     __$__dt__9BehaviourFv
    00000750 0000000000             .DATA.L     H'00000000,H'00000000
             000000       
    00000758 <00000000>             .DATA.L     __$Destroy__6ObjectFv
    0000075C 0000000000             .DATA.L     H'00000000,H'00000000
             000000       
    00000764 <00000000>             .DATA.L     __$DestroyImmediate__6ObjectFv
    00000768 0000000000             .DATA.L     H'00000000,H'00000000
             000000       
    00000770 <00000000>             .DATA.L     __$DontDestroyOnLoad__6ObjectFv
    00000774 0000000000             .DATA.L     H'00000000,H'00000000
             000000       
    0000077C <00000000>             .DATA.L     __$FindObjectOfType__6ObjectFv
    00000780 0000000000             .DATA.L     H'00000000,H'00000000
             000000       
    00000788 <00000000>             .DATA.L     __$FindObjectsOfType__6ObjectFv
    0000078C 0000000000             .DATA.L     H'00000000,H'00000000
             000000       
    00000794 <00000000>             .DATA.L     __$Instantiate__6ObjectFv
    00000798 0000000000             .DATA.L     H'00000000,H'00000000
             000000       
    000007A0 <00000000>             .DATA.L     __$Awake__9ComponentFv
    000007A4 0000000000             .DATA.L     H'00000000,H'00000000
             000000       
    000007AC <00000000>             .DATA.L     __$FixedUpdate__9ComponentFv
    000007B0 0000000000             .DATA.L     H'00000000,H'00000000
             000000       
    000007B8 <00000000>             .DATA.L     __$LateUpdate__9ComponentFv
    000007BC 0000000000             .DATA.L     H'00000000,H'00000000
             000000       
    000007C4 <00000000>             .DATA.L     __$OnAnimatorIK__9ComponentFv
    000007C8 0000000000             .DATA.L     H'00000000,H'00000000




SH SERIES C/C++ Compiler (Ver. 6.0C)                                                                 09-Nov-2021 18:28:35  PAGE   82


SCT OFFSET   CODE       C LABEL     INSTRUCTION OPERAND    COMMENT

             000000       
    000007D0 <00000000>             .DATA.L     __$OnAnimatorMove__9ComponentFv
    000007D4 0000000000             .DATA.L     H'00000000,H'00000000
             000000       
    000007DC <00000000>             .DATA.L     __$OnApplicationFocus__9ComponentFv
    000007E0 0000000000             .DATA.L     H'00000000,H'00000000
             000000       
    000007E8 <00000000>             .DATA.L     __$OnApplicationPause__9ComponentFv
    000007EC 0000000000             .DATA.L     H'00000000,H'00000000
             000000       
    000007F4 <00000000>             .DATA.L     __$OnApplicationQuit__9ComponentFv
    000007F8 0000000000             .DATA.L     H'00000000,H'00000000
             000000       
    00000800 <00000000>             .DATA.L     __$OnAudioFilterRead__9ComponentFv
    00000804 0000000000             .DATA.L     H'00000000,H'00000000
             000000       
    0000080C <00000000>             .DATA.L     __$OnBecameInvisible__9ComponentFv
    00000810 0000000000             .DATA.L     H'00000000,H'00000000
             000000       
    00000818 <00000000>             .DATA.L     __$OnBecameVisible__9ComponentFv
    0000081C 0000000000             .DATA.L     H'00000000,H'00000000
             000000       
    00000824 <00000000>             .DATA.L     __$OnCollisionEnter__9ComponentFv
    00000828 0000000000             .DATA.L     H'00000000,H'00000000
             000000       
    00000830 <00000000>             .DATA.L     __$OnCollisionEnter2D__9ComponentFv
    00000834 0000000000             .DATA.L     H'00000000,H'00000000
             000000       
    0000083C <00000000>             .DATA.L     __$OnCollisionExit__9ComponentFv
    00000840 0000000000             .DATA.L     H'00000000,H'00000000
             000000       
    00000848 <00000000>             .DATA.L     __$OnCollisionExit2D__9ComponentFv
    0000084C 0000000000             .DATA.L     H'00000000,H'00000000
             000000       
    00000854 <00000000>             .DATA.L     __$OnCollisionStay__9ComponentFv
    00000858 0000000000             .DATA.L     H'00000000,H'00000000
             000000       
    00000860 <00000000>             .DATA.L     __$OnCollisionStay2D__9ComponentFv
    00000864 0000000000             .DATA.L     H'00000000,H'00000000
             000000       
    0000086C <00000000>             .DATA.L     __$OnConnectedToServer__9ComponentFv
    00000870 0000000000             .DATA.L     H'00000000,H'00000000
             000000       
    00000878 <00000000>             .DATA.L     __$OnControllerColliderHit__9ComponentFv
    0000087C 0000000000             .DATA.L     H'00000000,H'00000000
             000000       
    00000884 <00000000>             .DATA.L     __$OnDestroy__9ComponentFv
    00000888 0000000000             .DATA.L     H'00000000,H'00000000
             000000       
    00000890 <00000000>             .DATA.L     __$OnDisable__9ComponentFv
    00000894 0000000000             .DATA.L     H'00000000,H'00000000
             000000       
    0000089C <00000000>             .DATA.L     __$OnDisconnectedFromServer__9ComponentFv
    000008A0 0000000000             .DATA.L     H'00000000,H'00000000
             000000       
    000008A8 <00000000>             .DATA.L     __$OnDrawGizmos__9ComponentFv
    000008AC 0000000000             .DATA.L     H'00000000,H'00000000




SH SERIES C/C++ Compiler (Ver. 6.0C)                                                                 09-Nov-2021 18:28:35  PAGE   83


SCT OFFSET   CODE       C LABEL     INSTRUCTION OPERAND    COMMENT

             000000       
    000008B4 <00000000>             .DATA.L     __$OnDrawGizmosSelected__9ComponentFv
    000008B8 0000000000             .DATA.L     H'00000000,H'00000000
             000000       
    000008C0 <00000000>             .DATA.L     __$OnEnable__9ComponentFv
    000008C4 0000000000             .DATA.L     H'00000000,H'00000000
             000000       
    000008CC <00000000>             .DATA.L     __$OnFailedToConnect__9ComponentFv
    000008D0 0000000000             .DATA.L     H'00000000,H'00000000
             000000       
    000008D8 <00000000>             .DATA.L     __$OnFailedToConnectToMasterServer__9ComponentFv
    000008DC 0000000000             .DATA.L     H'00000000,H'00000000
             000000       
    000008E4 <00000000>             .DATA.L     __$OnGUI__9ComponentFv
    000008E8 0000000000             .DATA.L     H'00000000,H'00000000
             000000       
    000008F0 <00000000>             .DATA.L     __$OnJointBreak__9ComponentFv
    000008F4 0000000000             .DATA.L     H'00000000,H'00000000
             000000       
    000008FC <00000000>             .DATA.L     __$OnJointBreak2D__9ComponentFv
    00000900 0000000000             .DATA.L     H'00000000,H'00000000
             000000       
    00000908 <00000000>             .DATA.L     __$OnMasterServerEvent__9ComponentFv
    0000090C 0000000000             .DATA.L     H'00000000,H'00000000
             000000       
    00000914 <00000000>             .DATA.L     __$OnMouseDown__9ComponentFv
    00000918 0000000000             .DATA.L     H'00000000,H'00000000
             000000       
    00000920 <00000000>             .DATA.L     __$OnMouseDrag__9ComponentFv
    00000924 0000000000             .DATA.L     H'00000000,H'00000000
             000000       
    0000092C <00000000>             .DATA.L     __$OnMouseEnter__9ComponentFv
    00000930 0000000000             .DATA.L     H'00000000,H'00000000
             000000       
    00000938 <00000000>             .DATA.L     __$OnMouseExit__9ComponentFv
    0000093C 0000000000             .DATA.L     H'00000000,H'00000000
             000000       
    00000944 <00000000>             .DATA.L     __$OnMouseOver__9ComponentFv
    00000948 0000000000             .DATA.L     H'00000000,H'00000000
             000000       
    00000950 <00000000>             .DATA.L     __$OnMouseUp__9ComponentFv
    00000954 0000000000             .DATA.L     H'00000000,H'00000000
             000000       
    0000095C <00000000>             .DATA.L     __$OnMouseUpAsButton__9ComponentFv
    00000960 0000000000             .DATA.L     H'00000000,H'00000000
             000000       
    00000968 <00000000>             .DATA.L     __$OnNetworkInstantiate__9ComponentFv
    0000096C 0000000000             .DATA.L     H'00000000,H'00000000
             000000       
    00000974 <00000000>             .DATA.L     __$OnParticleCollision__9ComponentFv
    00000978 0000000000             .DATA.L     H'00000000,H'00000000
             000000       
    00000980 <00000000>             .DATA.L     __$OnParticleSystemStopped__9ComponentFv
    00000984 0000000000             .DATA.L     H'00000000,H'00000000
             000000       
    0000098C <00000000>             .DATA.L     __$OnParticleTrigger__9ComponentFv
    00000990 0000000000             .DATA.L     H'00000000,H'00000000




SH SERIES C/C++ Compiler (Ver. 6.0C)                                                                 09-Nov-2021 18:28:35  PAGE   84


SCT OFFSET   CODE       C LABEL     INSTRUCTION OPERAND    COMMENT

             000000       
    00000998 <00000000>             .DATA.L     __$OnParticleUpdateJobScheduled__9ComponentFv
    0000099C 0000000000             .DATA.L     H'00000000,H'00000000
             000000       
    000009A4 <00000000>             .DATA.L     __$OnPlayerConnected__9ComponentFv
    000009A8 0000000000             .DATA.L     H'00000000,H'00000000
             000000       
    000009B0 <00000000>             .DATA.L     __$OnPlayerDisconnected__9ComponentFv
    000009B4 0000000000             .DATA.L     H'00000000,H'00000000
             000000       
    000009BC <00000000>             .DATA.L     __$OnPostRender__9ComponentFv
    000009C0 0000000000             .DATA.L     H'00000000,H'00000000
             000000       
    000009C8 <00000000>             .DATA.L     __$OnPreCull__9ComponentFv
    000009CC 0000000000             .DATA.L     H'00000000,H'00000000
             000000       
    000009D4 <00000000>             .DATA.L     __$OnPreRender__9ComponentFv
    000009D8 0000000000             .DATA.L     H'00000000,H'00000000
             000000       
    000009E0 <00000000>             .DATA.L     __$OnRenderImage__9ComponentFv
    000009E4 0000000000             .DATA.L     H'00000000,H'00000000
             000000       
    000009EC <00000000>             .DATA.L     __$OnRenderObject__9ComponentFv
    000009F0 0000000000             .DATA.L     H'00000000,H'00000000
             000000       
    000009F8 <00000000>             .DATA.L     __$OnSerializeNetworkView__9ComponentFv
    000009FC 0000000000             .DATA.L     H'00000000,H'00000000
             000000       
    00000A04 <00000000>             .DATA.L     __$OnServerInitialized__9ComponentFv
    00000A08 0000000000             .DATA.L     H'00000000,H'00000000
             000000       
    00000A10 <00000000>             .DATA.L     __$OnTransformChildrenChanged__9ComponentFv
    00000A14 0000000000             .DATA.L     H'00000000,H'00000000
             000000       
    00000A1C <00000000>             .DATA.L     __$OnTransformParentChanged__9ComponentFv
    00000A20 0000000000             .DATA.L     H'00000000,H'00000000
             000000       
    00000A28 <00000000>             .DATA.L     __$OnTriggerEnter__9ComponentFv
    00000A2C 0000000000             .DATA.L     H'00000000,H'00000000
             000000       
    00000A34 <00000000>             .DATA.L     __$OnTriggerEnter2D__9ComponentFv
    00000A38 0000000000             .DATA.L     H'00000000,H'00000000
             000000       
    00000A40 <00000000>             .DATA.L     __$OnTriggerExit__9ComponentFv
    00000A44 0000000000             .DATA.L     H'00000000,H'00000000
             000000       
    00000A4C <00000000>             .DATA.L     __$OnTriggerExit2D__9ComponentFv
    00000A50 0000000000             .DATA.L     H'00000000,H'00000000
             000000       
    00000A58 <00000000>             .DATA.L     __$OnTriggerStay__9ComponentFv
    00000A5C 0000000000             .DATA.L     H'00000000,H'00000000
             000000       
    00000A64 <00000000>             .DATA.L     __$OnTriggerStay2D__9ComponentFv
    00000A68 0000000000             .DATA.L     H'00000000,H'00000000
             000000       
    00000A70 <00000000>             .DATA.L     __$OnValidate__9ComponentFv
    00000A74 0000000000             .DATA.L     H'00000000,H'00000000




SH SERIES C/C++ Compiler (Ver. 6.0C)                                                                 09-Nov-2021 18:28:35  PAGE   85


SCT OFFSET   CODE       C LABEL     INSTRUCTION OPERAND    COMMENT

             000000       
    00000A7C <00000000>             .DATA.L     __$OnWillRenderObject__9ComponentFv
    00000A80 0000000000             .DATA.L     H'00000000,H'00000000
             000000       
    00000A88 <00000000>             .DATA.L     __$Reset__9ComponentFv
    00000A8C 0000000000             .DATA.L     H'00000000,H'00000000
             000000       
    00000A94 <00000000>             .DATA.L     __$Start__9ComponentFv
    00000A98 0000000000             .DATA.L     H'00000000,H'00000000
             000000       
    00000AA0 <00000000>             .DATA.L     __$Update__9ComponentFv
    00000AA4              __$__vtbl__7Texture:             ; static: virtual function table for Texture
    00000AA4 0000000000             .DATA.L     H'00000000,H'00000000
             000000       
    00000AAC <00000000>             .DATA.L     __$__T_7Texture
    00000AB0 0000000000             .DATA.L     H'00000000,H'00000000
             000000       
    00000AB8 <00000000>             .DATA.L     __$__dt__7TextureFv
    00000ABC 0000000000             .DATA.L     H'00000000,H'00000000
             000000       
    00000AC4 <00000000>             .DATA.L     __$Destroy__6ObjectFv
    00000AC8 0000000000             .DATA.L     H'00000000,H'00000000
             000000       
    00000AD0 <00000000>             .DATA.L     __$DestroyImmediate__6ObjectFv
    00000AD4 0000000000             .DATA.L     H'00000000,H'00000000
             000000       
    00000ADC <00000000>             .DATA.L     __$DontDestroyOnLoad__6ObjectFv
    00000AE0 0000000000             .DATA.L     H'00000000,H'00000000
             000000       
    00000AE8 <00000000>             .DATA.L     __$FindObjectOfType__6ObjectFv
    00000AEC 0000000000             .DATA.L     H'00000000,H'00000000
             000000       
    00000AF4 <00000000>             .DATA.L     __$FindObjectsOfType__6ObjectFv
    00000AF8 0000000000             .DATA.L     H'00000000,H'00000000
             000000       
    00000B00 <00000000>             .DATA.L     __$Instantiate__6ObjectFv
    00000B04              __$__vtbl__13MonoBehaviour:      ; static: virtual function table for MonoBehaviour
    00000B04 0000000000             .DATA.L     H'00000000,H'00000000
             000000       
    00000B0C <00000000>             .DATA.L     __$__T_13MonoBehaviour
    00000B10 0000000000             .DATA.L     H'00000000,H'00000000
             000000       
    00000B18 <00000000>             .DATA.L     __$__dt__13MonoBehaviourFv
    00000B1C 0000000000             .DATA.L     H'00000000,H'00000000
             000000       
    00000B24 <00000000>             .DATA.L     __$Destroy__6ObjectFv
    00000B28 0000000000             .DATA.L     H'00000000,H'00000000
             000000       
    00000B30 <00000000>             .DATA.L     __$DestroyImmediate__6ObjectFv
    00000B34 0000000000             .DATA.L     H'00000000,H'00000000
             000000       
    00000B3C <00000000>             .DATA.L     __$DontDestroyOnLoad__6ObjectFv
    00000B40 0000000000             .DATA.L     H'00000000,H'00000000
             000000       
    00000B48 <00000000>             .DATA.L     __$FindObjectOfType__6ObjectFv
    00000B4C 0000000000             .DATA.L     H'00000000,H'00000000
             000000       




SH SERIES C/C++ Compiler (Ver. 6.0C)                                                                 09-Nov-2021 18:28:35  PAGE   86


SCT OFFSET   CODE       C LABEL     INSTRUCTION OPERAND    COMMENT

    00000B54 <00000000>             .DATA.L     __$FindObjectsOfType__6ObjectFv
    00000B58 0000000000             .DATA.L     H'00000000,H'00000000
             000000       
    00000B60 <00000000>             .DATA.L     __$Instantiate__6ObjectFv
    00000B64 0000000000             .DATA.L     H'00000000,H'00000000
             000000       
    00000B6C <00000000>             .DATA.L     __$Awake__9ComponentFv
    00000B70 0000000000             .DATA.L     H'00000000,H'00000000
             000000       
    00000B78 <00000000>             .DATA.L     __$FixedUpdate__9ComponentFv
    00000B7C 0000000000             .DATA.L     H'00000000,H'00000000
             000000       
    00000B84 <00000000>             .DATA.L     __$LateUpdate__9ComponentFv
    00000B88 0000000000             .DATA.L     H'00000000,H'00000000
             000000       
    00000B90 <00000000>             .DATA.L     __$OnAnimatorIK__9ComponentFv
    00000B94 0000000000             .DATA.L     H'00000000,H'00000000
             000000       
    00000B9C <00000000>             .DATA.L     __$OnAnimatorMove__9ComponentFv
    00000BA0 0000000000             .DATA.L     H'00000000,H'00000000
             000000       
    00000BA8 <00000000>             .DATA.L     __$OnApplicationFocus__9ComponentFv
    00000BAC 0000000000             .DATA.L     H'00000000,H'00000000
             000000       
    00000BB4 <00000000>             .DATA.L     __$OnApplicationPause__9ComponentFv
    00000BB8 0000000000             .DATA.L     H'00000000,H'00000000
             000000       
    00000BC0 <00000000>             .DATA.L     __$OnApplicationQuit__9ComponentFv
    00000BC4 0000000000             .DATA.L     H'00000000,H'00000000
             000000       
    00000BCC <00000000>             .DATA.L     __$OnAudioFilterRead__9ComponentFv
    00000BD0 0000000000             .DATA.L     H'00000000,H'00000000
             000000       
    00000BD8 <00000000>             .DATA.L     __$OnBecameInvisible__9ComponentFv
    00000BDC 0000000000             .DATA.L     H'00000000,H'00000000
             000000       
    00000BE4 <00000000>             .DATA.L     __$OnBecameVisible__9ComponentFv
    00000BE8 0000000000             .DATA.L     H'00000000,H'00000000
             000000       
    00000BF0 <00000000>             .DATA.L     __$OnCollisionEnter__9ComponentFv
    00000BF4 0000000000             .DATA.L     H'00000000,H'00000000
             000000       
    00000BFC <00000000>             .DATA.L     __$OnCollisionEnter2D__9ComponentFv
    00000C00 0000000000             .DATA.L     H'00000000,H'00000000
             000000       
    00000C08 <00000000>             .DATA.L     __$OnCollisionExit__9ComponentFv
    00000C0C 0000000000             .DATA.L     H'00000000,H'00000000
             000000       
    00000C14 <00000000>             .DATA.L     __$OnCollisionExit2D__9ComponentFv
    00000C18 0000000000             .DATA.L     H'00000000,H'00000000
             000000       
    00000C20 <00000000>             .DATA.L     __$OnCollisionStay__9ComponentFv
    00000C24 0000000000             .DATA.L     H'00000000,H'00000000
             000000       
    00000C2C <00000000>             .DATA.L     __$OnCollisionStay2D__9ComponentFv
    00000C30 0000000000             .DATA.L     H'00000000,H'00000000
             000000       




SH SERIES C/C++ Compiler (Ver. 6.0C)                                                                 09-Nov-2021 18:28:35  PAGE   87


SCT OFFSET   CODE       C LABEL     INSTRUCTION OPERAND    COMMENT

    00000C38 <00000000>             .DATA.L     __$OnConnectedToServer__9ComponentFv
    00000C3C 0000000000             .DATA.L     H'00000000,H'00000000
             000000       
    00000C44 <00000000>             .DATA.L     __$OnControllerColliderHit__9ComponentFv
    00000C48 0000000000             .DATA.L     H'00000000,H'00000000
             000000       
    00000C50 <00000000>             .DATA.L     __$OnDestroy__9ComponentFv
    00000C54 0000000000             .DATA.L     H'00000000,H'00000000
             000000       
    00000C5C <00000000>             .DATA.L     __$OnDisable__9ComponentFv
    00000C60 0000000000             .DATA.L     H'00000000,H'00000000
             000000       
    00000C68 <00000000>             .DATA.L     __$OnDisconnectedFromServer__9ComponentFv
    00000C6C 0000000000             .DATA.L     H'00000000,H'00000000
             000000       
    00000C74 <00000000>             .DATA.L     __$OnDrawGizmos__9ComponentFv
    00000C78 0000000000             .DATA.L     H'00000000,H'00000000
             000000       
    00000C80 <00000000>             .DATA.L     __$OnDrawGizmosSelected__9ComponentFv
    00000C84 0000000000             .DATA.L     H'00000000,H'00000000
             000000       
    00000C8C <00000000>             .DATA.L     __$OnEnable__9ComponentFv
    00000C90 0000000000             .DATA.L     H'00000000,H'00000000
             000000       
    00000C98 <00000000>             .DATA.L     __$OnFailedToConnect__9ComponentFv
    00000C9C 0000000000             .DATA.L     H'00000000,H'00000000
             000000       
    00000CA4 <00000000>             .DATA.L     __$OnFailedToConnectToMasterServer__9ComponentFv
    00000CA8 0000000000             .DATA.L     H'00000000,H'00000000
             000000       
    00000CB0 <00000000>             .DATA.L     __$OnGUI__9ComponentFv
    00000CB4 0000000000             .DATA.L     H'00000000,H'00000000
             000000       
    00000CBC <00000000>             .DATA.L     __$OnJointBreak__9ComponentFv
    00000CC0 0000000000             .DATA.L     H'00000000,H'00000000
             000000       
    00000CC8 <00000000>             .DATA.L     __$OnJointBreak2D__9ComponentFv
    00000CCC 0000000000             .DATA.L     H'00000000,H'00000000
             000000       
    00000CD4 <00000000>             .DATA.L     __$OnMasterServerEvent__9ComponentFv
    00000CD8 0000000000             .DATA.L     H'00000000,H'00000000
             000000       
    00000CE0 <00000000>             .DATA.L     __$OnMouseDown__9ComponentFv
    00000CE4 0000000000             .DATA.L     H'00000000,H'00000000
             000000       
    00000CEC <00000000>             .DATA.L     __$OnMouseDrag__9ComponentFv
    00000CF0 0000000000             .DATA.L     H'00000000,H'00000000
             000000       
    00000CF8 <00000000>             .DATA.L     __$OnMouseEnter__9ComponentFv
    00000CFC 0000000000             .DATA.L     H'00000000,H'00000000
             000000       
    00000D04 <00000000>             .DATA.L     __$OnMouseExit__9ComponentFv
    00000D08 0000000000             .DATA.L     H'00000000,H'00000000
             000000       
    00000D10 <00000000>             .DATA.L     __$OnMouseOver__9ComponentFv
    00000D14 0000000000             .DATA.L     H'00000000,H'00000000
             000000       




SH SERIES C/C++ Compiler (Ver. 6.0C)                                                                 09-Nov-2021 18:28:35  PAGE   88


SCT OFFSET   CODE       C LABEL     INSTRUCTION OPERAND    COMMENT

    00000D1C <00000000>             .DATA.L     __$OnMouseUp__9ComponentFv
    00000D20 0000000000             .DATA.L     H'00000000,H'00000000
             000000       
    00000D28 <00000000>             .DATA.L     __$OnMouseUpAsButton__9ComponentFv
    00000D2C 0000000000             .DATA.L     H'00000000,H'00000000
             000000       
    00000D34 <00000000>             .DATA.L     __$OnNetworkInstantiate__9ComponentFv
    00000D38 0000000000             .DATA.L     H'00000000,H'00000000
             000000       
    00000D40 <00000000>             .DATA.L     __$OnParticleCollision__9ComponentFv
    00000D44 0000000000             .DATA.L     H'00000000,H'00000000
             000000       
    00000D4C <00000000>             .DATA.L     __$OnParticleSystemStopped__9ComponentFv
    00000D50 0000000000             .DATA.L     H'00000000,H'00000000
             000000       
    00000D58 <00000000>             .DATA.L     __$OnParticleTrigger__9ComponentFv
    00000D5C 0000000000             .DATA.L     H'00000000,H'00000000
             000000       
    00000D64 <00000000>             .DATA.L     __$OnParticleUpdateJobScheduled__9ComponentFv
    00000D68 0000000000             .DATA.L     H'00000000,H'00000000
             000000       
    00000D70 <00000000>             .DATA.L     __$OnPlayerConnected__9ComponentFv
    00000D74 0000000000             .DATA.L     H'00000000,H'00000000
             000000       
    00000D7C <00000000>             .DATA.L     __$OnPlayerDisconnected__9ComponentFv
    00000D80 0000000000             .DATA.L     H'00000000,H'00000000
             000000       
    00000D88 <00000000>             .DATA.L     __$OnPostRender__9ComponentFv
    00000D8C 0000000000             .DATA.L     H'00000000,H'00000000
             000000       
    00000D94 <00000000>             .DATA.L     __$OnPreCull__9ComponentFv
    00000D98 0000000000             .DATA.L     H'00000000,H'00000000
             000000       
    00000DA0 <00000000>             .DATA.L     __$OnPreRender__9ComponentFv
    00000DA4 0000000000             .DATA.L     H'00000000,H'00000000
             000000       
    00000DAC <00000000>             .DATA.L     __$OnRenderImage__9ComponentFv
    00000DB0 0000000000             .DATA.L     H'00000000,H'00000000
             000000       
    00000DB8 <00000000>             .DATA.L     __$OnRenderObject__9ComponentFv
    00000DBC 0000000000             .DATA.L     H'00000000,H'00000000
             000000       
    00000DC4 <00000000>             .DATA.L     __$OnSerializeNetworkView__9ComponentFv
    00000DC8 0000000000             .DATA.L     H'00000000,H'00000000
             000000       
    00000DD0 <00000000>             .DATA.L     __$OnServerInitialized__9ComponentFv
    00000DD4 0000000000             .DATA.L     H'00000000,H'00000000
             000000       
    00000DDC <00000000>             .DATA.L     __$OnTransformChildrenChanged__9ComponentFv
    00000DE0 0000000000             .DATA.L     H'00000000,H'00000000
             000000       
    00000DE8 <00000000>             .DATA.L     __$OnTransformParentChanged__9ComponentFv
    00000DEC 0000000000             .DATA.L     H'00000000,H'00000000
             000000       
    00000DF4 <00000000>             .DATA.L     __$OnTriggerEnter__9ComponentFv
    00000DF8 0000000000             .DATA.L     H'00000000,H'00000000
             000000       




SH SERIES C/C++ Compiler (Ver. 6.0C)                                                                 09-Nov-2021 18:28:35  PAGE   89


SCT OFFSET   CODE       C LABEL     INSTRUCTION OPERAND    COMMENT

    00000E00 <00000000>             .DATA.L     __$OnTriggerEnter2D__9ComponentFv
    00000E04 0000000000             .DATA.L     H'00000000,H'00000000
             000000       
    00000E0C <00000000>             .DATA.L     __$OnTriggerExit__9ComponentFv
    00000E10 0000000000             .DATA.L     H'00000000,H'00000000
             000000       
    00000E18 <00000000>             .DATA.L     __$OnTriggerExit2D__9ComponentFv
    00000E1C 0000000000             .DATA.L     H'00000000,H'00000000
             000000       
    00000E24 <00000000>             .DATA.L     __$OnTriggerStay__9ComponentFv
    00000E28 0000000000             .DATA.L     H'00000000,H'00000000
             000000       
    00000E30 <00000000>             .DATA.L     __$OnTriggerStay2D__9ComponentFv
    00000E34 0000000000             .DATA.L     H'00000000,H'00000000
             000000       
    00000E3C <00000000>             .DATA.L     __$OnValidate__9ComponentFv
    00000E40 0000000000             .DATA.L     H'00000000,H'00000000
             000000       
    00000E48 <00000000>             .DATA.L     __$OnWillRenderObject__9ComponentFv
    00000E4C 0000000000             .DATA.L     H'00000000,H'00000000
             000000       
    00000E54 <00000000>             .DATA.L     __$Reset__9ComponentFv
    00000E58 0000000000             .DATA.L     H'00000000,H'00000000
             000000       
    00000E60 <00000000>             .DATA.L     __$Start__9ComponentFv
    00000E64 0000000000             .DATA.L     H'00000000,H'00000000
             000000       
    00000E6C <00000000>             .DATA.L     __$Update__9ComponentFv
    00000E70              ___vtbl__10GameObject:           ; static: virtual function table for GameObject
    00000E70 0000000000             .DATA.L     H'00000000,H'00000000
             000000       
    00000E78 <00000000>             .DATA.L     ___T_10GameObject
    00000E7C 0000000000             .DATA.L     H'00000000,H'00000000
             000000       
    00000E84 <00000000>             .DATA.L     ___dt__10GameObjectFv
    00000E88 0000000000             .DATA.L     H'00000000,H'00000000
             000000       
    00000E90 <00000000>             .DATA.L     __$Destroy__6ObjectFv
    00000E94 0000000000             .DATA.L     H'00000000,H'00000000
             000000       
    00000E9C <00000000>             .DATA.L     __$DestroyImmediate__6ObjectFv
    00000EA0 0000000000             .DATA.L     H'00000000,H'00000000
             000000       
    00000EA8 <00000000>             .DATA.L     __$DontDestroyOnLoad__6ObjectFv
    00000EAC 0000000000             .DATA.L     H'00000000,H'00000000
             000000       
    00000EB4 <00000000>             .DATA.L     __$FindObjectOfType__6ObjectFv
    00000EB8 0000000000             .DATA.L     H'00000000,H'00000000
             000000       
    00000EC0 <00000000>             .DATA.L     __$FindObjectsOfType__6ObjectFv
    00000EC4 0000000000             .DATA.L     H'00000000,H'00000000
             000000       
    00000ECC <00000000>             .DATA.L     __$Instantiate__6ObjectFv
    00000ED0              __$__vtbl__6Camera:              ; static: virtual function table for Camera
    00000ED0 0000000000             .DATA.L     H'00000000,H'00000000
             000000       
    00000ED8 <00000000>             .DATA.L     __$__T_6Camera




SH SERIES C/C++ Compiler (Ver. 6.0C)                                                                 09-Nov-2021 18:28:35  PAGE   90


SCT OFFSET   CODE       C LABEL     INSTRUCTION OPERAND    COMMENT

    00000EDC 0000000000             .DATA.L     H'00000000,H'00000000
             000000       
    00000EE4 <00000000>             .DATA.L     __$__dt__6CameraFv
    00000EE8 0000000000             .DATA.L     H'00000000,H'00000000
             000000       
    00000EF0 <00000000>             .DATA.L     __$Destroy__6ObjectFv
    00000EF4 0000000000             .DATA.L     H'00000000,H'00000000
             000000       
    00000EFC <00000000>             .DATA.L     __$DestroyImmediate__6ObjectFv
    00000F00 0000000000             .DATA.L     H'00000000,H'00000000
             000000       
    00000F08 <00000000>             .DATA.L     __$DontDestroyOnLoad__6ObjectFv
    00000F0C 0000000000             .DATA.L     H'00000000,H'00000000
             000000       
    00000F14 <00000000>             .DATA.L     __$FindObjectOfType__6ObjectFv
    00000F18 0000000000             .DATA.L     H'00000000,H'00000000
             000000       
    00000F20 <00000000>             .DATA.L     __$FindObjectsOfType__6ObjectFv
    00000F24 0000000000             .DATA.L     H'00000000,H'00000000
             000000       
    00000F2C <00000000>             .DATA.L     __$Instantiate__6ObjectFv
    00000F30 0000000000             .DATA.L     H'00000000,H'00000000
             000000       
    00000F38 <00000000>             .DATA.L     __$Awake__9ComponentFv
    00000F3C 0000000000             .DATA.L     H'00000000,H'00000000
             000000       
    00000F44 <00000000>             .DATA.L     __$FixedUpdate__9ComponentFv
    00000F48 0000000000             .DATA.L     H'00000000,H'00000000
             000000       
    00000F50 <00000000>             .DATA.L     __$LateUpdate__9ComponentFv
    00000F54 0000000000             .DATA.L     H'00000000,H'00000000
             000000       
    00000F5C <00000000>             .DATA.L     __$OnAnimatorIK__9ComponentFv
    00000F60 0000000000             .DATA.L     H'00000000,H'00000000
             000000       
    00000F68 <00000000>             .DATA.L     __$OnAnimatorMove__9ComponentFv
    00000F6C 0000000000             .DATA.L     H'00000000,H'00000000
             000000       
    00000F74 <00000000>             .DATA.L     __$OnApplicationFocus__9ComponentFv
    00000F78 0000000000             .DATA.L     H'00000000,H'00000000
             000000       
    00000F80 <00000000>             .DATA.L     __$OnApplicationPause__9ComponentFv
    00000F84 0000000000             .DATA.L     H'00000000,H'00000000
             000000       
    00000F8C <00000000>             .DATA.L     __$OnApplicationQuit__9ComponentFv
    00000F90 0000000000             .DATA.L     H'00000000,H'00000000
             000000       
    00000F98 <00000000>             .DATA.L     __$OnAudioFilterRead__9ComponentFv
    00000F9C 0000000000             .DATA.L     H'00000000,H'00000000
             000000       
    00000FA4 <00000000>             .DATA.L     __$OnBecameInvisible__9ComponentFv
    00000FA8 0000000000             .DATA.L     H'00000000,H'00000000
             000000       
    00000FB0 <00000000>             .DATA.L     __$OnBecameVisible__9ComponentFv
    00000FB4 0000000000             .DATA.L     H'00000000,H'00000000
             000000       
    00000FBC <00000000>             .DATA.L     __$OnCollisionEnter__9ComponentFv




SH SERIES C/C++ Compiler (Ver. 6.0C)                                                                 09-Nov-2021 18:28:35  PAGE   91


SCT OFFSET   CODE       C LABEL     INSTRUCTION OPERAND    COMMENT

    00000FC0 0000000000             .DATA.L     H'00000000,H'00000000
             000000       
    00000FC8 <00000000>             .DATA.L     __$OnCollisionEnter2D__9ComponentFv
    00000FCC 0000000000             .DATA.L     H'00000000,H'00000000
             000000       
    00000FD4 <00000000>             .DATA.L     __$OnCollisionExit__9ComponentFv
    00000FD8 0000000000             .DATA.L     H'00000000,H'00000000
             000000       
    00000FE0 <00000000>             .DATA.L     __$OnCollisionExit2D__9ComponentFv
    00000FE4 0000000000             .DATA.L     H'00000000,H'00000000
             000000       
    00000FEC <00000000>             .DATA.L     __$OnCollisionStay__9ComponentFv
    00000FF0 0000000000             .DATA.L     H'00000000,H'00000000
             000000       
    00000FF8 <00000000>             .DATA.L     __$OnCollisionStay2D__9ComponentFv
    00000FFC 0000000000             .DATA.L     H'00000000,H'00000000
             000000       
    00001004 <00000000>             .DATA.L     __$OnConnectedToServer__9ComponentFv
    00001008 0000000000             .DATA.L     H'00000000,H'00000000
             000000       
    00001010 <00000000>             .DATA.L     __$OnControllerColliderHit__9ComponentFv
    00001014 0000000000             .DATA.L     H'00000000,H'00000000
             000000       
    0000101C <00000000>             .DATA.L     __$OnDestroy__9ComponentFv
    00001020 0000000000             .DATA.L     H'00000000,H'00000000
             000000       
    00001028 <00000000>             .DATA.L     __$OnDisable__9ComponentFv
    0000102C 0000000000             .DATA.L     H'00000000,H'00000000
             000000       
    00001034 <00000000>             .DATA.L     __$OnDisconnectedFromServer__9ComponentFv
    00001038 0000000000             .DATA.L     H'00000000,H'00000000
             000000       
    00001040 <00000000>             .DATA.L     __$OnDrawGizmos__9ComponentFv
    00001044 0000000000             .DATA.L     H'00000000,H'00000000
             000000       
    0000104C <00000000>             .DATA.L     __$OnDrawGizmosSelected__9ComponentFv
    00001050 0000000000             .DATA.L     H'00000000,H'00000000
             000000       
    00001058 <00000000>             .DATA.L     __$OnEnable__9ComponentFv
    0000105C 0000000000             .DATA.L     H'00000000,H'00000000
             000000       
    00001064 <00000000>             .DATA.L     __$OnFailedToConnect__9ComponentFv
    00001068 0000000000             .DATA.L     H'00000000,H'00000000
             000000       
    00001070 <00000000>             .DATA.L     __$OnFailedToConnectToMasterServer__9ComponentFv
    00001074 0000000000             .DATA.L     H'00000000,H'00000000
             000000       
    0000107C <00000000>             .DATA.L     __$OnGUI__9ComponentFv
    00001080 0000000000             .DATA.L     H'00000000,H'00000000
             000000       
    00001088 <00000000>             .DATA.L     __$OnJointBreak__9ComponentFv
    0000108C 0000000000             .DATA.L     H'00000000,H'00000000
             000000       
    00001094 <00000000>             .DATA.L     __$OnJointBreak2D__9ComponentFv
    00001098 0000000000             .DATA.L     H'00000000,H'00000000
             000000       
    000010A0 <00000000>             .DATA.L     __$OnMasterServerEvent__9ComponentFv




SH SERIES C/C++ Compiler (Ver. 6.0C)                                                                 09-Nov-2021 18:28:35  PAGE   92


SCT OFFSET   CODE       C LABEL     INSTRUCTION OPERAND    COMMENT

    000010A4 0000000000             .DATA.L     H'00000000,H'00000000
             000000       
    000010AC <00000000>             .DATA.L     __$OnMouseDown__9ComponentFv
    000010B0 0000000000             .DATA.L     H'00000000,H'00000000
             000000       
    000010B8 <00000000>             .DATA.L     __$OnMouseDrag__9ComponentFv
    000010BC 0000000000             .DATA.L     H'00000000,H'00000000
             000000       
    000010C4 <00000000>             .DATA.L     __$OnMouseEnter__9ComponentFv
    000010C8 0000000000             .DATA.L     H'00000000,H'00000000
             000000       
    000010D0 <00000000>             .DATA.L     __$OnMouseExit__9ComponentFv
    000010D4 0000000000             .DATA.L     H'00000000,H'00000000
             000000       
    000010DC <00000000>             .DATA.L     __$OnMouseOver__9ComponentFv
    000010E0 0000000000             .DATA.L     H'00000000,H'00000000
             000000       
    000010E8 <00000000>             .DATA.L     __$OnMouseUp__9ComponentFv
    000010EC 0000000000             .DATA.L     H'00000000,H'00000000
             000000       
    000010F4 <00000000>             .DATA.L     __$OnMouseUpAsButton__9ComponentFv
    000010F8 0000000000             .DATA.L     H'00000000,H'00000000
             000000       
    00001100 <00000000>             .DATA.L     __$OnNetworkInstantiate__9ComponentFv
    00001104 0000000000             .DATA.L     H'00000000,H'00000000
             000000       
    0000110C <00000000>             .DATA.L     __$OnParticleCollision__9ComponentFv
    00001110 0000000000             .DATA.L     H'00000000,H'00000000
             000000       
    00001118 <00000000>             .DATA.L     __$OnParticleSystemStopped__9ComponentFv
    0000111C 0000000000             .DATA.L     H'00000000,H'00000000
             000000       
    00001124 <00000000>             .DATA.L     __$OnParticleTrigger__9ComponentFv
    00001128 0000000000             .DATA.L     H'00000000,H'00000000
             000000       
    00001130 <00000000>             .DATA.L     __$OnParticleUpdateJobScheduled__9ComponentFv
    00001134 0000000000             .DATA.L     H'00000000,H'00000000
             000000       
    0000113C <00000000>             .DATA.L     __$OnPlayerConnected__9ComponentFv
    00001140 0000000000             .DATA.L     H'00000000,H'00000000
             000000       
    00001148 <00000000>             .DATA.L     __$OnPlayerDisconnected__9ComponentFv
    0000114C 0000000000             .DATA.L     H'00000000,H'00000000
             000000       
    00001154 <00000000>             .DATA.L     __$OnPostRender__9ComponentFv
    00001158 0000000000             .DATA.L     H'00000000,H'00000000
             000000       
    00001160 <00000000>             .DATA.L     __$OnPreCull__9ComponentFv
    00001164 0000000000             .DATA.L     H'00000000,H'00000000
             000000       
    0000116C <00000000>             .DATA.L     __$OnPreRender__9ComponentFv
    00001170 0000000000             .DATA.L     H'00000000,H'00000000
             000000       
    00001178 <00000000>             .DATA.L     __$OnRenderImage__9ComponentFv
    0000117C 0000000000             .DATA.L     H'00000000,H'00000000
             000000       
    00001184 <00000000>             .DATA.L     __$OnRenderObject__9ComponentFv




SH SERIES C/C++ Compiler (Ver. 6.0C)                                                                 09-Nov-2021 18:28:35  PAGE   93


SCT OFFSET   CODE       C LABEL     INSTRUCTION OPERAND    COMMENT

    00001188 0000000000             .DATA.L     H'00000000,H'00000000
             000000       
    00001190 <00000000>             .DATA.L     __$OnSerializeNetworkView__9ComponentFv
    00001194 0000000000             .DATA.L     H'00000000,H'00000000
             000000       
    0000119C <00000000>             .DATA.L     __$OnServerInitialized__9ComponentFv
    000011A0 0000000000             .DATA.L     H'00000000,H'00000000
             000000       
    000011A8 <00000000>             .DATA.L     __$OnTransformChildrenChanged__9ComponentFv
    000011AC 0000000000             .DATA.L     H'00000000,H'00000000
             000000       
    000011B4 <00000000>             .DATA.L     __$OnTransformParentChanged__9ComponentFv
    000011B8 0000000000             .DATA.L     H'00000000,H'00000000
             000000       
    000011C0 <00000000>             .DATA.L     __$OnTriggerEnter__9ComponentFv
    000011C4 0000000000             .DATA.L     H'00000000,H'00000000
             000000       
    000011CC <00000000>             .DATA.L     __$OnTriggerEnter2D__9ComponentFv
    000011D0 0000000000             .DATA.L     H'00000000,H'00000000
             000000       
    000011D8 <00000000>             .DATA.L     __$OnTriggerExit__9ComponentFv
    000011DC 0000000000             .DATA.L     H'00000000,H'00000000
             000000       
    000011E4 <00000000>             .DATA.L     __$OnTriggerExit2D__9ComponentFv
    000011E8 0000000000             .DATA.L     H'00000000,H'00000000
             000000       
    000011F0 <00000000>             .DATA.L     __$OnTriggerStay__9ComponentFv
    000011F4 0000000000             .DATA.L     H'00000000,H'00000000
             000000       
    000011FC <00000000>             .DATA.L     __$OnTriggerStay2D__9ComponentFv
    00001200 0000000000             .DATA.L     H'00000000,H'00000000
             000000       
    00001208 <00000000>             .DATA.L     __$OnValidate__9ComponentFv
    0000120C 0000000000             .DATA.L     H'00000000,H'00000000
             000000       
    00001214 <00000000>             .DATA.L     __$OnWillRenderObject__9ComponentFv
    00001218 0000000000             .DATA.L     H'00000000,H'00000000
             000000       
    00001220 <00000000>             .DATA.L     __$Reset__9ComponentFv
    00001224 0000000000             .DATA.L     H'00000000,H'00000000
             000000       
    0000122C <00000000>             .DATA.L     __$Start__9ComponentFv
    00001230 0000000000             .DATA.L     H'00000000,H'00000000
             000000       
    00001238 <00000000>             .DATA.L     __$Update__9ComponentFv
    0000123C              ___vtbl__5Image:                 ; static: virtual function table for Image
    0000123C 0000000000             .DATA.L     H'00000000,H'00000000
             000000       
    00001244 <00000000>             .DATA.L     ___T_5Image
    00001248 0000000000             .DATA.L     H'00000000,H'00000000
             000000       
    00001250 <00000000>             .DATA.L     __$__dt__5ImageFv
    00001254 0000000000             .DATA.L     H'00000000,H'00000000
             000000       
    0000125C <00000000>             .DATA.L     __$Destroy__6ObjectFv
    00001260 0000000000             .DATA.L     H'00000000,H'00000000
             000000       




SH SERIES C/C++ Compiler (Ver. 6.0C)                                                                 09-Nov-2021 18:28:35  PAGE   94


SCT OFFSET   CODE       C LABEL     INSTRUCTION OPERAND    COMMENT

    00001268 <00000000>             .DATA.L     __$DestroyImmediate__6ObjectFv
    0000126C 0000000000             .DATA.L     H'00000000,H'00000000
             000000       
    00001274 <00000000>             .DATA.L     __$DontDestroyOnLoad__6ObjectFv
    00001278 0000000000             .DATA.L     H'00000000,H'00000000
             000000       
    00001280 <00000000>             .DATA.L     __$FindObjectOfType__6ObjectFv
    00001284 0000000000             .DATA.L     H'00000000,H'00000000
             000000       
    0000128C <00000000>             .DATA.L     __$FindObjectsOfType__6ObjectFv
    00001290 0000000000             .DATA.L     H'00000000,H'00000000
             000000       
    00001298 <00000000>             .DATA.L     __$Instantiate__6ObjectFv
    0000129C 0000000000             .DATA.L     H'00000000,H'00000000
             000000       
    000012A4 <00000000>             .DATA.L     __$Awake__9ComponentFv
    000012A8 0000000000             .DATA.L     H'00000000,H'00000000
             000000       
    000012B0 <00000000>             .DATA.L     __$FixedUpdate__9ComponentFv
    000012B4 0000000000             .DATA.L     H'00000000,H'00000000
             000000       
    000012BC <00000000>             .DATA.L     __$LateUpdate__9ComponentFv
    000012C0 0000000000             .DATA.L     H'00000000,H'00000000
             000000       
    000012C8 <00000000>             .DATA.L     __$OnAnimatorIK__9ComponentFv
    000012CC 0000000000             .DATA.L     H'00000000,H'00000000
             000000       
    000012D4 <00000000>             .DATA.L     __$OnAnimatorMove__9ComponentFv
    000012D8 0000000000             .DATA.L     H'00000000,H'00000000
             000000       
    000012E0 <00000000>             .DATA.L     __$OnApplicationFocus__9ComponentFv
    000012E4 0000000000             .DATA.L     H'00000000,H'00000000
             000000       
    000012EC <00000000>             .DATA.L     __$OnApplicationPause__9ComponentFv
    000012F0 0000000000             .DATA.L     H'00000000,H'00000000
             000000       
    000012F8 <00000000>             .DATA.L     __$OnApplicationQuit__9ComponentFv
    000012FC 0000000000             .DATA.L     H'00000000,H'00000000
             000000       
    00001304 <00000000>             .DATA.L     __$OnAudioFilterRead__9ComponentFv
    00001308 0000000000             .DATA.L     H'00000000,H'00000000
             000000       
    00001310 <00000000>             .DATA.L     __$OnBecameInvisible__9ComponentFv
    00001314 0000000000             .DATA.L     H'00000000,H'00000000
             000000       
    0000131C <00000000>             .DATA.L     __$OnBecameVisible__9ComponentFv
    00001320 0000000000             .DATA.L     H'00000000,H'00000000
             000000       
    00001328 <00000000>             .DATA.L     __$OnCollisionEnter__9ComponentFv
    0000132C 0000000000             .DATA.L     H'00000000,H'00000000
             000000       
    00001334 <00000000>             .DATA.L     __$OnCollisionEnter2D__9ComponentFv
    00001338 0000000000             .DATA.L     H'00000000,H'00000000
             000000       
    00001340 <00000000>             .DATA.L     __$OnCollisionExit__9ComponentFv
    00001344 0000000000             .DATA.L     H'00000000,H'00000000
             000000       




SH SERIES C/C++ Compiler (Ver. 6.0C)                                                                 09-Nov-2021 18:28:35  PAGE   95


SCT OFFSET   CODE       C LABEL     INSTRUCTION OPERAND    COMMENT

    0000134C <00000000>             .DATA.L     __$OnCollisionExit2D__9ComponentFv
    00001350 0000000000             .DATA.L     H'00000000,H'00000000
             000000       
    00001358 <00000000>             .DATA.L     __$OnCollisionStay__9ComponentFv
    0000135C 0000000000             .DATA.L     H'00000000,H'00000000
             000000       
    00001364 <00000000>             .DATA.L     __$OnCollisionStay2D__9ComponentFv
    00001368 0000000000             .DATA.L     H'00000000,H'00000000
             000000       
    00001370 <00000000>             .DATA.L     __$OnConnectedToServer__9ComponentFv
    00001374 0000000000             .DATA.L     H'00000000,H'00000000
             000000       
    0000137C <00000000>             .DATA.L     __$OnControllerColliderHit__9ComponentFv
    00001380 0000000000             .DATA.L     H'00000000,H'00000000
             000000       
    00001388 <00000000>             .DATA.L     __$OnDestroy__9ComponentFv
    0000138C 0000000000             .DATA.L     H'00000000,H'00000000
             000000       
    00001394 <00000000>             .DATA.L     __$OnDisable__9ComponentFv
    00001398 0000000000             .DATA.L     H'00000000,H'00000000
             000000       
    000013A0 <00000000>             .DATA.L     __$OnDisconnectedFromServer__9ComponentFv
    000013A4 0000000000             .DATA.L     H'00000000,H'00000000
             000000       
    000013AC <00000000>             .DATA.L     __$OnDrawGizmos__9ComponentFv
    000013B0 0000000000             .DATA.L     H'00000000,H'00000000
             000000       
    000013B8 <00000000>             .DATA.L     __$OnDrawGizmosSelected__9ComponentFv
    000013BC 0000000000             .DATA.L     H'00000000,H'00000000
             000000       
    000013C4 <00000000>             .DATA.L     __$OnEnable__9ComponentFv
    000013C8 0000000000             .DATA.L     H'00000000,H'00000000
             000000       
    000013D0 <00000000>             .DATA.L     __$OnFailedToConnect__9ComponentFv
    000013D4 0000000000             .DATA.L     H'00000000,H'00000000
             000000       
    000013DC <00000000>             .DATA.L     __$OnFailedToConnectToMasterServer__9ComponentFv
    000013E0 0000000000             .DATA.L     H'00000000,H'00000000
             000000       
    000013E8 <00000000>             .DATA.L     __$OnGUI__9ComponentFv
    000013EC 0000000000             .DATA.L     H'00000000,H'00000000
             000000       
    000013F4 <00000000>             .DATA.L     __$OnJointBreak__9ComponentFv
    000013F8 0000000000             .DATA.L     H'00000000,H'00000000
             000000       
    00001400 <00000000>             .DATA.L     __$OnJointBreak2D__9ComponentFv
    00001404 0000000000             .DATA.L     H'00000000,H'00000000
             000000       
    0000140C <00000000>             .DATA.L     __$OnMasterServerEvent__9ComponentFv
    00001410 0000000000             .DATA.L     H'00000000,H'00000000
             000000       
    00001418 <00000000>             .DATA.L     __$OnMouseDown__9ComponentFv
    0000141C 0000000000             .DATA.L     H'00000000,H'00000000
             000000       
    00001424 <00000000>             .DATA.L     __$OnMouseDrag__9ComponentFv
    00001428 0000000000             .DATA.L     H'00000000,H'00000000
             000000       




SH SERIES C/C++ Compiler (Ver. 6.0C)                                                                 09-Nov-2021 18:28:35  PAGE   96


SCT OFFSET   CODE       C LABEL     INSTRUCTION OPERAND    COMMENT

    00001430 <00000000>             .DATA.L     __$OnMouseEnter__9ComponentFv
    00001434 0000000000             .DATA.L     H'00000000,H'00000000
             000000       
    0000143C <00000000>             .DATA.L     __$OnMouseExit__9ComponentFv
    00001440 0000000000             .DATA.L     H'00000000,H'00000000
             000000       
    00001448 <00000000>             .DATA.L     __$OnMouseOver__9ComponentFv
    0000144C 0000000000             .DATA.L     H'00000000,H'00000000
             000000       
    00001454 <00000000>             .DATA.L     __$OnMouseUp__9ComponentFv
    00001458 0000000000             .DATA.L     H'00000000,H'00000000
             000000       
    00001460 <00000000>             .DATA.L     __$OnMouseUpAsButton__9ComponentFv
    00001464 0000000000             .DATA.L     H'00000000,H'00000000
             000000       
    0000146C <00000000>             .DATA.L     __$OnNetworkInstantiate__9ComponentFv
    00001470 0000000000             .DATA.L     H'00000000,H'00000000
             000000       
    00001478 <00000000>             .DATA.L     __$OnParticleCollision__9ComponentFv
    0000147C 0000000000             .DATA.L     H'00000000,H'00000000
             000000       
    00001484 <00000000>             .DATA.L     __$OnParticleSystemStopped__9ComponentFv
    00001488 0000000000             .DATA.L     H'00000000,H'00000000
             000000       
    00001490 <00000000>             .DATA.L     __$OnParticleTrigger__9ComponentFv
    00001494 0000000000             .DATA.L     H'00000000,H'00000000
             000000       
    0000149C <00000000>             .DATA.L     __$OnParticleUpdateJobScheduled__9ComponentFv
    000014A0 0000000000             .DATA.L     H'00000000,H'00000000
             000000       
    000014A8 <00000000>             .DATA.L     __$OnPlayerConnected__9ComponentFv
    000014AC 0000000000             .DATA.L     H'00000000,H'00000000
             000000       
    000014B4 <00000000>             .DATA.L     __$OnPlayerDisconnected__9ComponentFv
    000014B8 0000000000             .DATA.L     H'00000000,H'00000000
             000000       
    000014C0 <00000000>             .DATA.L     __$OnPostRender__9ComponentFv
    000014C4 0000000000             .DATA.L     H'00000000,H'00000000
             000000       
    000014CC <00000000>             .DATA.L     __$OnPreCull__9ComponentFv
    000014D0 0000000000             .DATA.L     H'00000000,H'00000000
             000000       
    000014D8 <00000000>             .DATA.L     __$OnPreRender__9ComponentFv
    000014DC 0000000000             .DATA.L     H'00000000,H'00000000
             000000       
    000014E4 <00000000>             .DATA.L     __$OnRenderImage__9ComponentFv
    000014E8 0000000000             .DATA.L     H'00000000,H'00000000
             000000       
    000014F0 <00000000>             .DATA.L     __$OnRenderObject__9ComponentFv
    000014F4 0000000000             .DATA.L     H'00000000,H'00000000
             000000       
    000014FC <00000000>             .DATA.L     __$OnSerializeNetworkView__9ComponentFv
    00001500 0000000000             .DATA.L     H'00000000,H'00000000
             000000       
    00001508 <00000000>             .DATA.L     __$OnServerInitialized__9ComponentFv
    0000150C 0000000000             .DATA.L     H'00000000,H'00000000
             000000       




SH SERIES C/C++ Compiler (Ver. 6.0C)                                                                 09-Nov-2021 18:28:35  PAGE   97


SCT OFFSET   CODE       C LABEL     INSTRUCTION OPERAND    COMMENT

    00001514 <00000000>             .DATA.L     __$OnTransformChildrenChanged__9ComponentFv
    00001518 0000000000             .DATA.L     H'00000000,H'00000000
             000000       
    00001520 <00000000>             .DATA.L     __$OnTransformParentChanged__9ComponentFv
    00001524 0000000000             .DATA.L     H'00000000,H'00000000
             000000       
    0000152C <00000000>             .DATA.L     __$OnTriggerEnter__9ComponentFv
    00001530 0000000000             .DATA.L     H'00000000,H'00000000
             000000       
    00001538 <00000000>             .DATA.L     __$OnTriggerEnter2D__9ComponentFv
    0000153C 0000000000             .DATA.L     H'00000000,H'00000000
             000000       
    00001544 <00000000>             .DATA.L     __$OnTriggerExit__9ComponentFv
    00001548 0000000000             .DATA.L     H'00000000,H'00000000
             000000       
    00001550 <00000000>             .DATA.L     __$OnTriggerExit2D__9ComponentFv
    00001554 0000000000             .DATA.L     H'00000000,H'00000000
             000000       
    0000155C <00000000>             .DATA.L     __$OnTriggerStay__9ComponentFv
    00001560 0000000000             .DATA.L     H'00000000,H'00000000
             000000       
    00001568 <00000000>             .DATA.L     __$OnTriggerStay2D__9ComponentFv
    0000156C 0000000000             .DATA.L     H'00000000,H'00000000
             000000       
    00001574 <00000000>             .DATA.L     __$OnValidate__9ComponentFv
    00001578 0000000000             .DATA.L     H'00000000,H'00000000
             000000       
    00001580 <00000000>             .DATA.L     __$OnWillRenderObject__9ComponentFv
    00001584 0000000000             .DATA.L     H'00000000,H'00000000
             000000       
    0000158C <00000000>             .DATA.L     __$Reset__9ComponentFv
    00001590 0000000000             .DATA.L     H'00000000,H'00000000
             000000       
    00001598 <00000000>             .DATA.L     __$Start__9ComponentFv
    0000159C 0000000000             .DATA.L     H'00000000,H'00000000
             000000       
    000015A4 <00000000>             .DATA.L     _Update__5ImageFv
    000015A8              ___vtbl__6Sprite:                ; static: virtual function table for Sprite
    000015A8 0000000000             .DATA.L     H'00000000,H'00000000
             000000       
    000015B0 <00000000>             .DATA.L     ___T_6Sprite
    000015B4 0000000000             .DATA.L     H'00000000,H'00000000
             000000       
    000015BC <00000000>             .DATA.L     __$__dt__6SpriteFv
    000015C0 0000000000             .DATA.L     H'00000000,H'00000000
             000000       
    000015C8 <00000000>             .DATA.L     __$Destroy__6ObjectFv
    000015CC 0000000000             .DATA.L     H'00000000,H'00000000
             000000       
    000015D4 <00000000>             .DATA.L     __$DestroyImmediate__6ObjectFv
    000015D8 0000000000             .DATA.L     H'00000000,H'00000000
             000000       
    000015E0 <00000000>             .DATA.L     __$DontDestroyOnLoad__6ObjectFv
    000015E4 0000000000             .DATA.L     H'00000000,H'00000000
             000000       
    000015EC <00000000>             .DATA.L     __$FindObjectOfType__6ObjectFv
    000015F0 0000000000             .DATA.L     H'00000000,H'00000000




SH SERIES C/C++ Compiler (Ver. 6.0C)                                                                 09-Nov-2021 18:28:35  PAGE   98


SCT OFFSET   CODE       C LABEL     INSTRUCTION OPERAND    COMMENT

             000000       
    000015F8 <00000000>             .DATA.L     __$FindObjectsOfType__6ObjectFv
    000015FC 0000000000             .DATA.L     H'00000000,H'00000000
             000000       
    00001604 <00000000>             .DATA.L     __$Instantiate__6ObjectFv
    00001608 0000000000             .DATA.L     H'00000000,H'00000000
             000000       
    00001610 <00000000>             .DATA.L     __$Awake__9ComponentFv
    00001614 0000000000             .DATA.L     H'00000000,H'00000000
             000000       
    0000161C <00000000>             .DATA.L     __$FixedUpdate__9ComponentFv
    00001620 0000000000             .DATA.L     H'00000000,H'00000000
             000000       
    00001628 <00000000>             .DATA.L     __$LateUpdate__9ComponentFv
    0000162C 0000000000             .DATA.L     H'00000000,H'00000000
             000000       
    00001634 <00000000>             .DATA.L     __$OnAnimatorIK__9ComponentFv
    00001638 0000000000             .DATA.L     H'00000000,H'00000000
             000000       
    00001640 <00000000>             .DATA.L     __$OnAnimatorMove__9ComponentFv
    00001644 0000000000             .DATA.L     H'00000000,H'00000000
             000000       
    0000164C <00000000>             .DATA.L     __$OnApplicationFocus__9ComponentFv
    00001650 0000000000             .DATA.L     H'00000000,H'00000000
             000000       
    00001658 <00000000>             .DATA.L     __$OnApplicationPause__9ComponentFv
    0000165C 0000000000             .DATA.L     H'00000000,H'00000000
             000000       
    00001664 <00000000>             .DATA.L     __$OnApplicationQuit__9ComponentFv
    00001668 0000000000             .DATA.L     H'00000000,H'00000000
             000000       
    00001670 <00000000>             .DATA.L     __$OnAudioFilterRead__9ComponentFv
    00001674 0000000000             .DATA.L     H'00000000,H'00000000
             000000       
    0000167C <00000000>             .DATA.L     __$OnBecameInvisible__9ComponentFv
    00001680 0000000000             .DATA.L     H'00000000,H'00000000
             000000       
    00001688 <00000000>             .DATA.L     __$OnBecameVisible__9ComponentFv
    0000168C 0000000000             .DATA.L     H'00000000,H'00000000
             000000       
    00001694 <00000000>             .DATA.L     __$OnCollisionEnter__9ComponentFv
    00001698 0000000000             .DATA.L     H'00000000,H'00000000
             000000       
    000016A0 <00000000>             .DATA.L     __$OnCollisionEnter2D__9ComponentFv
    000016A4 0000000000             .DATA.L     H'00000000,H'00000000
             000000       
    000016AC <00000000>             .DATA.L     __$OnCollisionExit__9ComponentFv
    000016B0 0000000000             .DATA.L     H'00000000,H'00000000
             000000       
    000016B8 <00000000>             .DATA.L     __$OnCollisionExit2D__9ComponentFv
    000016BC 0000000000             .DATA.L     H'00000000,H'00000000
             000000       
    000016C4 <00000000>             .DATA.L     __$OnCollisionStay__9ComponentFv
    000016C8 0000000000             .DATA.L     H'00000000,H'00000000
             000000       
    000016D0 <00000000>             .DATA.L     __$OnCollisionStay2D__9ComponentFv
    000016D4 0000000000             .DATA.L     H'00000000,H'00000000




SH SERIES C/C++ Compiler (Ver. 6.0C)                                                                 09-Nov-2021 18:28:35  PAGE   99


SCT OFFSET   CODE       C LABEL     INSTRUCTION OPERAND    COMMENT

             000000       
    000016DC <00000000>             .DATA.L     __$OnConnectedToServer__9ComponentFv
    000016E0 0000000000             .DATA.L     H'00000000,H'00000000
             000000       
    000016E8 <00000000>             .DATA.L     __$OnControllerColliderHit__9ComponentFv
    000016EC 0000000000             .DATA.L     H'00000000,H'00000000
             000000       
    000016F4 <00000000>             .DATA.L     __$OnDestroy__9ComponentFv
    000016F8 0000000000             .DATA.L     H'00000000,H'00000000
             000000       
    00001700 <00000000>             .DATA.L     __$OnDisable__9ComponentFv
    00001704 0000000000             .DATA.L     H'00000000,H'00000000
             000000       
    0000170C <00000000>             .DATA.L     __$OnDisconnectedFromServer__9ComponentFv
    00001710 0000000000             .DATA.L     H'00000000,H'00000000
             000000       
    00001718 <00000000>             .DATA.L     __$OnDrawGizmos__9ComponentFv
    0000171C 0000000000             .DATA.L     H'00000000,H'00000000
             000000       
    00001724 <00000000>             .DATA.L     __$OnDrawGizmosSelected__9ComponentFv
    00001728 0000000000             .DATA.L     H'00000000,H'00000000
             000000       
    00001730 <00000000>             .DATA.L     __$OnEnable__9ComponentFv
    00001734 0000000000             .DATA.L     H'00000000,H'00000000
             000000       
    0000173C <00000000>             .DATA.L     __$OnFailedToConnect__9ComponentFv
    00001740 0000000000             .DATA.L     H'00000000,H'00000000
             000000       
    00001748 <00000000>             .DATA.L     __$OnFailedToConnectToMasterServer__9ComponentFv
    0000174C 0000000000             .DATA.L     H'00000000,H'00000000
             000000       
    00001754 <00000000>             .DATA.L     __$OnGUI__9ComponentFv
    00001758 0000000000             .DATA.L     H'00000000,H'00000000
             000000       
    00001760 <00000000>             .DATA.L     __$OnJointBreak__9ComponentFv
    00001764 0000000000             .DATA.L     H'00000000,H'00000000
             000000       
    0000176C <00000000>             .DATA.L     __$OnJointBreak2D__9ComponentFv
    00001770 0000000000             .DATA.L     H'00000000,H'00000000
             000000       
    00001778 <00000000>             .DATA.L     __$OnMasterServerEvent__9ComponentFv
    0000177C 0000000000             .DATA.L     H'00000000,H'00000000
             000000       
    00001784 <00000000>             .DATA.L     __$OnMouseDown__9ComponentFv
    00001788 0000000000             .DATA.L     H'00000000,H'00000000
             000000       
    00001790 <00000000>             .DATA.L     __$OnMouseDrag__9ComponentFv
    00001794 0000000000             .DATA.L     H'00000000,H'00000000
             000000       
    0000179C <00000000>             .DATA.L     __$OnMouseEnter__9ComponentFv
    000017A0 0000000000             .DATA.L     H'00000000,H'00000000
             000000       
    000017A8 <00000000>             .DATA.L     __$OnMouseExit__9ComponentFv
    000017AC 0000000000             .DATA.L     H'00000000,H'00000000
             000000       
    000017B4 <00000000>             .DATA.L     __$OnMouseOver__9ComponentFv
    000017B8 0000000000             .DATA.L     H'00000000,H'00000000




SH SERIES C/C++ Compiler (Ver. 6.0C)                                                                 09-Nov-2021 18:28:35  PAGE  100


SCT OFFSET   CODE       C LABEL     INSTRUCTION OPERAND    COMMENT

             000000       
    000017C0 <00000000>             .DATA.L     __$OnMouseUp__9ComponentFv
    000017C4 0000000000             .DATA.L     H'00000000,H'00000000
             000000       
    000017CC <00000000>             .DATA.L     __$OnMouseUpAsButton__9ComponentFv
    000017D0 0000000000             .DATA.L     H'00000000,H'00000000
             000000       
    000017D8 <00000000>             .DATA.L     __$OnNetworkInstantiate__9ComponentFv
    000017DC 0000000000             .DATA.L     H'00000000,H'00000000
             000000       
    000017E4 <00000000>             .DATA.L     __$OnParticleCollision__9ComponentFv
    000017E8 0000000000             .DATA.L     H'00000000,H'00000000
             000000       
    000017F0 <00000000>             .DATA.L     __$OnParticleSystemStopped__9ComponentFv
    000017F4 0000000000             .DATA.L     H'00000000,H'00000000
             000000       
    000017FC <00000000>             .DATA.L     __$OnParticleTrigger__9ComponentFv
    00001800 0000000000             .DATA.L     H'00000000,H'00000000
             000000       
    00001808 <00000000>             .DATA.L     __$OnParticleUpdateJobScheduled__9ComponentFv
    0000180C 0000000000             .DATA.L     H'00000000,H'00000000
             000000       
    00001814 <00000000>             .DATA.L     __$OnPlayerConnected__9ComponentFv
    00001818 0000000000             .DATA.L     H'00000000,H'00000000
             000000       
    00001820 <00000000>             .DATA.L     __$OnPlayerDisconnected__9ComponentFv
    00001824 0000000000             .DATA.L     H'00000000,H'00000000
             000000       
    0000182C <00000000>             .DATA.L     __$OnPostRender__9ComponentFv
    00001830 0000000000             .DATA.L     H'00000000,H'00000000
             000000       
    00001838 <00000000>             .DATA.L     __$OnPreCull__9ComponentFv
    0000183C 0000000000             .DATA.L     H'00000000,H'00000000
             000000       
    00001844 <00000000>             .DATA.L     __$OnPreRender__9ComponentFv
    00001848 0000000000             .DATA.L     H'00000000,H'00000000
             000000       
    00001850 <00000000>             .DATA.L     __$OnRenderImage__9ComponentFv
    00001854 0000000000             .DATA.L     H'00000000,H'00000000
             000000       
    0000185C <00000000>             .DATA.L     __$OnRenderObject__9ComponentFv
    00001860 0000000000             .DATA.L     H'00000000,H'00000000
             000000       
    00001868 <00000000>             .DATA.L     __$OnSerializeNetworkView__9ComponentFv
    0000186C 0000000000             .DATA.L     H'00000000,H'00000000
             000000       
    00001874 <00000000>             .DATA.L     __$OnServerInitialized__9ComponentFv
    00001878 0000000000             .DATA.L     H'00000000,H'00000000
             000000       
    00001880 <00000000>             .DATA.L     __$OnTransformChildrenChanged__9ComponentFv
    00001884 0000000000             .DATA.L     H'00000000,H'00000000
             000000       
    0000188C <00000000>             .DATA.L     __$OnTransformParentChanged__9ComponentFv
    00001890 0000000000             .DATA.L     H'00000000,H'00000000
             000000       
    00001898 <00000000>             .DATA.L     __$OnTriggerEnter__9ComponentFv
    0000189C 0000000000             .DATA.L     H'00000000,H'00000000




SH SERIES C/C++ Compiler (Ver. 6.0C)                                                                 09-Nov-2021 18:28:35  PAGE  101


SCT OFFSET   CODE       C LABEL     INSTRUCTION OPERAND    COMMENT

             000000       
    000018A4 <00000000>             .DATA.L     __$OnTriggerEnter2D__9ComponentFv
    000018A8 0000000000             .DATA.L     H'00000000,H'00000000
             000000       
    000018B0 <00000000>             .DATA.L     __$OnTriggerExit__9ComponentFv
    000018B4 0000000000             .DATA.L     H'00000000,H'00000000
             000000       
    000018BC <00000000>             .DATA.L     __$OnTriggerExit2D__9ComponentFv
    000018C0 0000000000             .DATA.L     H'00000000,H'00000000
             000000       
    000018C8 <00000000>             .DATA.L     __$OnTriggerStay__9ComponentFv
    000018CC 0000000000             .DATA.L     H'00000000,H'00000000
             000000       
    000018D4 <00000000>             .DATA.L     __$OnTriggerStay2D__9ComponentFv
    000018D8 0000000000             .DATA.L     H'00000000,H'00000000
             000000       
    000018E0 <00000000>             .DATA.L     __$OnValidate__9ComponentFv
    000018E4 0000000000             .DATA.L     H'00000000,H'00000000
             000000       
    000018EC <00000000>             .DATA.L     __$OnWillRenderObject__9ComponentFv
    000018F0 0000000000             .DATA.L     H'00000000,H'00000000
             000000       
    000018F8 <00000000>             .DATA.L     __$Reset__9ComponentFv
    000018FC 0000000000             .DATA.L     H'00000000,H'00000000
             000000       
    00001904 <00000000>             .DATA.L     __$Start__9ComponentFv
    00001908 0000000000             .DATA.L     H'00000000,H'00000000
             000000       
    00001910 <00000000>             .DATA.L     _Update__6SpriteFv
    00001914              ___vtbl__9Rigidbody:             ; static: virtual function table for Rigidbody
    00001914 0000000000             .DATA.L     H'00000000,H'00000000
             000000       
    0000191C <00000000>             .DATA.L     ___T_9Rigidbody
    00001920 0000000000             .DATA.L     H'00000000,H'00000000
             000000       
    00001928 <00000000>             .DATA.L     ___dt__9RigidbodyFv
    0000192C 0000000000             .DATA.L     H'00000000,H'00000000
             000000       
    00001934 <00000000>             .DATA.L     __$Destroy__6ObjectFv
    00001938 0000000000             .DATA.L     H'00000000,H'00000000
             000000       
    00001940 <00000000>             .DATA.L     __$DestroyImmediate__6ObjectFv
    00001944 0000000000             .DATA.L     H'00000000,H'00000000
             000000       
    0000194C <00000000>             .DATA.L     __$DontDestroyOnLoad__6ObjectFv
    00001950 0000000000             .DATA.L     H'00000000,H'00000000
             000000       
    00001958 <00000000>             .DATA.L     __$FindObjectOfType__6ObjectFv
    0000195C 0000000000             .DATA.L     H'00000000,H'00000000
             000000       
    00001964 <00000000>             .DATA.L     __$FindObjectsOfType__6ObjectFv
    00001968 0000000000             .DATA.L     H'00000000,H'00000000
             000000       
    00001970 <00000000>             .DATA.L     __$Instantiate__6ObjectFv
    00001974 0000000000             .DATA.L     H'00000000,H'00000000
             000000       
    0000197C <00000000>             .DATA.L     __$Awake__9ComponentFv




SH SERIES C/C++ Compiler (Ver. 6.0C)                                                                 09-Nov-2021 18:28:35  PAGE  102


SCT OFFSET   CODE       C LABEL     INSTRUCTION OPERAND    COMMENT

    00001980 0000000000             .DATA.L     H'00000000,H'00000000
             000000       
    00001988 <00000000>             .DATA.L     __$FixedUpdate__9ComponentFv
    0000198C 0000000000             .DATA.L     H'00000000,H'00000000
             000000       
    00001994 <00000000>             .DATA.L     __$LateUpdate__9ComponentFv
    00001998 0000000000             .DATA.L     H'00000000,H'00000000
             000000       
    000019A0 <00000000>             .DATA.L     __$OnAnimatorIK__9ComponentFv
    000019A4 0000000000             .DATA.L     H'00000000,H'00000000
             000000       
    000019AC <00000000>             .DATA.L     __$OnAnimatorMove__9ComponentFv
    000019B0 0000000000             .DATA.L     H'00000000,H'00000000
             000000       
    000019B8 <00000000>             .DATA.L     __$OnApplicationFocus__9ComponentFv
    000019BC 0000000000             .DATA.L     H'00000000,H'00000000
             000000       
    000019C4 <00000000>             .DATA.L     __$OnApplicationPause__9ComponentFv
    000019C8 0000000000             .DATA.L     H'00000000,H'00000000
             000000       
    000019D0 <00000000>             .DATA.L     __$OnApplicationQuit__9ComponentFv
    000019D4 0000000000             .DATA.L     H'00000000,H'00000000
             000000       
    000019DC <00000000>             .DATA.L     __$OnAudioFilterRead__9ComponentFv
    000019E0 0000000000             .DATA.L     H'00000000,H'00000000
             000000       
    000019E8 <00000000>             .DATA.L     __$OnBecameInvisible__9ComponentFv
    000019EC 0000000000             .DATA.L     H'00000000,H'00000000
             000000       
    000019F4 <00000000>             .DATA.L     __$OnBecameVisible__9ComponentFv
    000019F8 0000000000             .DATA.L     H'00000000,H'00000000
             000000       
    00001A00 <00000000>             .DATA.L     __$OnCollisionEnter__9ComponentFv
    00001A04 0000000000             .DATA.L     H'00000000,H'00000000
             000000       
    00001A0C <00000000>             .DATA.L     __$OnCollisionEnter2D__9ComponentFv
    00001A10 0000000000             .DATA.L     H'00000000,H'00000000
             000000       
    00001A18 <00000000>             .DATA.L     __$OnCollisionExit__9ComponentFv
    00001A1C 0000000000             .DATA.L     H'00000000,H'00000000
             000000       
    00001A24 <00000000>             .DATA.L     __$OnCollisionExit2D__9ComponentFv
    00001A28 0000000000             .DATA.L     H'00000000,H'00000000
             000000       
    00001A30 <00000000>             .DATA.L     __$OnCollisionStay__9ComponentFv
    00001A34 0000000000             .DATA.L     H'00000000,H'00000000
             000000       
    00001A3C <00000000>             .DATA.L     __$OnCollisionStay2D__9ComponentFv
    00001A40 0000000000             .DATA.L     H'00000000,H'00000000
             000000       
    00001A48 <00000000>             .DATA.L     __$OnConnectedToServer__9ComponentFv
    00001A4C 0000000000             .DATA.L     H'00000000,H'00000000
             000000       
    00001A54 <00000000>             .DATA.L     __$OnControllerColliderHit__9ComponentFv
    00001A58 0000000000             .DATA.L     H'00000000,H'00000000
             000000       
    00001A60 <00000000>             .DATA.L     __$OnDestroy__9ComponentFv




SH SERIES C/C++ Compiler (Ver. 6.0C)                                                                 09-Nov-2021 18:28:35  PAGE  103


SCT OFFSET   CODE       C LABEL     INSTRUCTION OPERAND    COMMENT

    00001A64 0000000000             .DATA.L     H'00000000,H'00000000
             000000       
    00001A6C <00000000>             .DATA.L     __$OnDisable__9ComponentFv
    00001A70 0000000000             .DATA.L     H'00000000,H'00000000
             000000       
    00001A78 <00000000>             .DATA.L     __$OnDisconnectedFromServer__9ComponentFv
    00001A7C 0000000000             .DATA.L     H'00000000,H'00000000
             000000       
    00001A84 <00000000>             .DATA.L     __$OnDrawGizmos__9ComponentFv
    00001A88 0000000000             .DATA.L     H'00000000,H'00000000
             000000       
    00001A90 <00000000>             .DATA.L     __$OnDrawGizmosSelected__9ComponentFv
    00001A94 0000000000             .DATA.L     H'00000000,H'00000000
             000000       
    00001A9C <00000000>             .DATA.L     __$OnEnable__9ComponentFv
    00001AA0 0000000000             .DATA.L     H'00000000,H'00000000
             000000       
    00001AA8 <00000000>             .DATA.L     __$OnFailedToConnect__9ComponentFv
    00001AAC 0000000000             .DATA.L     H'00000000,H'00000000
             000000       
    00001AB4 <00000000>             .DATA.L     __$OnFailedToConnectToMasterServer__9ComponentFv
    00001AB8 0000000000             .DATA.L     H'00000000,H'00000000
             000000       
    00001AC0 <00000000>             .DATA.L     __$OnGUI__9ComponentFv
    00001AC4 0000000000             .DATA.L     H'00000000,H'00000000
             000000       
    00001ACC <00000000>             .DATA.L     __$OnJointBreak__9ComponentFv
    00001AD0 0000000000             .DATA.L     H'00000000,H'00000000
             000000       
    00001AD8 <00000000>             .DATA.L     __$OnJointBreak2D__9ComponentFv
    00001ADC 0000000000             .DATA.L     H'00000000,H'00000000
             000000       
    00001AE4 <00000000>             .DATA.L     __$OnMasterServerEvent__9ComponentFv
    00001AE8 0000000000             .DATA.L     H'00000000,H'00000000
             000000       
    00001AF0 <00000000>             .DATA.L     __$OnMouseDown__9ComponentFv
    00001AF4 0000000000             .DATA.L     H'00000000,H'00000000
             000000       
    00001AFC <00000000>             .DATA.L     __$OnMouseDrag__9ComponentFv
    00001B00 0000000000             .DATA.L     H'00000000,H'00000000
             000000       
    00001B08 <00000000>             .DATA.L     __$OnMouseEnter__9ComponentFv
    00001B0C 0000000000             .DATA.L     H'00000000,H'00000000
             000000       
    00001B14 <00000000>             .DATA.L     __$OnMouseExit__9ComponentFv
    00001B18 0000000000             .DATA.L     H'00000000,H'00000000
             000000       
    00001B20 <00000000>             .DATA.L     __$OnMouseOver__9ComponentFv
    00001B24 0000000000             .DATA.L     H'00000000,H'00000000
             000000       
    00001B2C <00000000>             .DATA.L     __$OnMouseUp__9ComponentFv
    00001B30 0000000000             .DATA.L     H'00000000,H'00000000
             000000       
    00001B38 <00000000>             .DATA.L     __$OnMouseUpAsButton__9ComponentFv
    00001B3C 0000000000             .DATA.L     H'00000000,H'00000000
             000000       
    00001B44 <00000000>             .DATA.L     __$OnNetworkInstantiate__9ComponentFv




SH SERIES C/C++ Compiler (Ver. 6.0C)                                                                 09-Nov-2021 18:28:35  PAGE  104


SCT OFFSET   CODE       C LABEL     INSTRUCTION OPERAND    COMMENT

    00001B48 0000000000             .DATA.L     H'00000000,H'00000000
             000000       
    00001B50 <00000000>             .DATA.L     __$OnParticleCollision__9ComponentFv
    00001B54 0000000000             .DATA.L     H'00000000,H'00000000
             000000       
    00001B5C <00000000>             .DATA.L     __$OnParticleSystemStopped__9ComponentFv
    00001B60 0000000000             .DATA.L     H'00000000,H'00000000
             000000       
    00001B68 <00000000>             .DATA.L     __$OnParticleTrigger__9ComponentFv
    00001B6C 0000000000             .DATA.L     H'00000000,H'00000000
             000000       
    00001B74 <00000000>             .DATA.L     __$OnParticleUpdateJobScheduled__9ComponentFv
    00001B78 0000000000             .DATA.L     H'00000000,H'00000000
             000000       
    00001B80 <00000000>             .DATA.L     __$OnPlayerConnected__9ComponentFv
    00001B84 0000000000             .DATA.L     H'00000000,H'00000000
             000000       
    00001B8C <00000000>             .DATA.L     __$OnPlayerDisconnected__9ComponentFv
    00001B90 0000000000             .DATA.L     H'00000000,H'00000000
             000000       
    00001B98 <00000000>             .DATA.L     __$OnPostRender__9ComponentFv
    00001B9C 0000000000             .DATA.L     H'00000000,H'00000000
             000000       
    00001BA4 <00000000>             .DATA.L     __$OnPreCull__9ComponentFv
    00001BA8 0000000000             .DATA.L     H'00000000,H'00000000
             000000       
    00001BB0 <00000000>             .DATA.L     __$OnPreRender__9ComponentFv
    00001BB4 0000000000             .DATA.L     H'00000000,H'00000000
             000000       
    00001BBC <00000000>             .DATA.L     __$OnRenderImage__9ComponentFv
    00001BC0 0000000000             .DATA.L     H'00000000,H'00000000
             000000       
    00001BC8 <00000000>             .DATA.L     __$OnRenderObject__9ComponentFv
    00001BCC 0000000000             .DATA.L     H'00000000,H'00000000
             000000       
    00001BD4 <00000000>             .DATA.L     __$OnSerializeNetworkView__9ComponentFv
    00001BD8 0000000000             .DATA.L     H'00000000,H'00000000
             000000       
    00001BE0 <00000000>             .DATA.L     __$OnServerInitialized__9ComponentFv
    00001BE4 0000000000             .DATA.L     H'00000000,H'00000000
             000000       
    00001BEC <00000000>             .DATA.L     __$OnTransformChildrenChanged__9ComponentFv
    00001BF0 0000000000             .DATA.L     H'00000000,H'00000000
             000000       
    00001BF8 <00000000>             .DATA.L     __$OnTransformParentChanged__9ComponentFv
    00001BFC 0000000000             .DATA.L     H'00000000,H'00000000
             000000       
    00001C04 <00000000>             .DATA.L     __$OnTriggerEnter__9ComponentFv
    00001C08 0000000000             .DATA.L     H'00000000,H'00000000
             000000       
    00001C10 <00000000>             .DATA.L     __$OnTriggerEnter2D__9ComponentFv
    00001C14 0000000000             .DATA.L     H'00000000,H'00000000
             000000       
    00001C1C <00000000>             .DATA.L     __$OnTriggerExit__9ComponentFv
    00001C20 0000000000             .DATA.L     H'00000000,H'00000000
             000000       
    00001C28 <00000000>             .DATA.L     __$OnTriggerExit2D__9ComponentFv




SH SERIES C/C++ Compiler (Ver. 6.0C)                                                                 09-Nov-2021 18:28:35  PAGE  105


SCT OFFSET   CODE       C LABEL     INSTRUCTION OPERAND    COMMENT

    00001C2C 0000000000             .DATA.L     H'00000000,H'00000000
             000000       
    00001C34 <00000000>             .DATA.L     __$OnTriggerStay__9ComponentFv
    00001C38 0000000000             .DATA.L     H'00000000,H'00000000
             000000       
    00001C40 <00000000>             .DATA.L     __$OnTriggerStay2D__9ComponentFv
    00001C44 0000000000             .DATA.L     H'00000000,H'00000000
             000000       
    00001C4C <00000000>             .DATA.L     __$OnValidate__9ComponentFv
    00001C50 0000000000             .DATA.L     H'00000000,H'00000000
             000000       
    00001C58 <00000000>             .DATA.L     __$OnWillRenderObject__9ComponentFv
    00001C5C 0000000000             .DATA.L     H'00000000,H'00000000
             000000       
    00001C64 <00000000>             .DATA.L     __$Reset__9ComponentFv
    00001C68 0000000000             .DATA.L     H'00000000,H'00000000
             000000       
    00001C70 <00000000>             .DATA.L     _Start__9RigidbodyFv
    00001C74 0000000000             .DATA.L     H'00000000,H'00000000
             000000       
    00001C7C <00000000>             .DATA.L     __$Update__9ComponentFv
    00001C80              ___vtbl__4Text:                  ; static: virtual function table for Text
    00001C80 0000000000             .DATA.L     H'00000000,H'00000000
             000000       
    00001C88 <00000000>             .DATA.L     ___T_4Text
    00001C8C 0000000000             .DATA.L     H'00000000,H'00000000
             000000       
    00001C94 <00000000>             .DATA.L     __$__dt__4TextFv
    00001C98 0000000000             .DATA.L     H'00000000,H'00000000
             000000       
    00001CA0 <00000000>             .DATA.L     __$Destroy__6ObjectFv
    00001CA4 0000000000             .DATA.L     H'00000000,H'00000000
             000000       
    00001CAC <00000000>             .DATA.L     __$DestroyImmediate__6ObjectFv
    00001CB0 0000000000             .DATA.L     H'00000000,H'00000000
             000000       
    00001CB8 <00000000>             .DATA.L     __$DontDestroyOnLoad__6ObjectFv
    00001CBC 0000000000             .DATA.L     H'00000000,H'00000000
             000000       
    00001CC4 <00000000>             .DATA.L     __$FindObjectOfType__6ObjectFv
    00001CC8 0000000000             .DATA.L     H'00000000,H'00000000
             000000       
    00001CD0 <00000000>             .DATA.L     __$FindObjectsOfType__6ObjectFv
    00001CD4 0000000000             .DATA.L     H'00000000,H'00000000
             000000       
    00001CDC <00000000>             .DATA.L     __$Instantiate__6ObjectFv
    00001CE0 0000000000             .DATA.L     H'00000000,H'00000000
             000000       
    00001CE8 <00000000>             .DATA.L     __$Awake__9ComponentFv
    00001CEC 0000000000             .DATA.L     H'00000000,H'00000000
             000000       
    00001CF4 <00000000>             .DATA.L     __$FixedUpdate__9ComponentFv
    00001CF8 0000000000             .DATA.L     H'00000000,H'00000000
             000000       
    00001D00 <00000000>             .DATA.L     __$LateUpdate__9ComponentFv
    00001D04 0000000000             .DATA.L     H'00000000,H'00000000
             000000       




SH SERIES C/C++ Compiler (Ver. 6.0C)                                                                 09-Nov-2021 18:28:35  PAGE  106


SCT OFFSET   CODE       C LABEL     INSTRUCTION OPERAND    COMMENT

    00001D0C <00000000>             .DATA.L     __$OnAnimatorIK__9ComponentFv
    00001D10 0000000000             .DATA.L     H'00000000,H'00000000
             000000       
    00001D18 <00000000>             .DATA.L     __$OnAnimatorMove__9ComponentFv
    00001D1C 0000000000             .DATA.L     H'00000000,H'00000000
             000000       
    00001D24 <00000000>             .DATA.L     __$OnApplicationFocus__9ComponentFv
    00001D28 0000000000             .DATA.L     H'00000000,H'00000000
             000000       
    00001D30 <00000000>             .DATA.L     __$OnApplicationPause__9ComponentFv
    00001D34 0000000000             .DATA.L     H'00000000,H'00000000
             000000       
    00001D3C <00000000>             .DATA.L     __$OnApplicationQuit__9ComponentFv
    00001D40 0000000000             .DATA.L     H'00000000,H'00000000
             000000       
    00001D48 <00000000>             .DATA.L     __$OnAudioFilterRead__9ComponentFv
    00001D4C 0000000000             .DATA.L     H'00000000,H'00000000
             000000       
    00001D54 <00000000>             .DATA.L     __$OnBecameInvisible__9ComponentFv
    00001D58 0000000000             .DATA.L     H'00000000,H'00000000
             000000       
    00001D60 <00000000>             .DATA.L     __$OnBecameVisible__9ComponentFv
    00001D64 0000000000             .DATA.L     H'00000000,H'00000000
             000000       
    00001D6C <00000000>             .DATA.L     __$OnCollisionEnter__9ComponentFv
    00001D70 0000000000             .DATA.L     H'00000000,H'00000000
             000000       
    00001D78 <00000000>             .DATA.L     __$OnCollisionEnter2D__9ComponentFv
    00001D7C 0000000000             .DATA.L     H'00000000,H'00000000
             000000       
    00001D84 <00000000>             .DATA.L     __$OnCollisionExit__9ComponentFv
    00001D88 0000000000             .DATA.L     H'00000000,H'00000000
             000000       
    00001D90 <00000000>             .DATA.L     __$OnCollisionExit2D__9ComponentFv
    00001D94 0000000000             .DATA.L     H'00000000,H'00000000
             000000       
    00001D9C <00000000>             .DATA.L     __$OnCollisionStay__9ComponentFv
    00001DA0 0000000000             .DATA.L     H'00000000,H'00000000
             000000       
    00001DA8 <00000000>             .DATA.L     __$OnCollisionStay2D__9ComponentFv
    00001DAC 0000000000             .DATA.L     H'00000000,H'00000000
             000000       
    00001DB4 <00000000>             .DATA.L     __$OnConnectedToServer__9ComponentFv
    00001DB8 0000000000             .DATA.L     H'00000000,H'00000000
             000000       
    00001DC0 <00000000>             .DATA.L     __$OnControllerColliderHit__9ComponentFv
    00001DC4 0000000000             .DATA.L     H'00000000,H'00000000
             000000       
    00001DCC <00000000>             .DATA.L     __$OnDestroy__9ComponentFv
    00001DD0 0000000000             .DATA.L     H'00000000,H'00000000
             000000       
    00001DD8 <00000000>             .DATA.L     __$OnDisable__9ComponentFv
    00001DDC 0000000000             .DATA.L     H'00000000,H'00000000
             000000       
    00001DE4 <00000000>             .DATA.L     __$OnDisconnectedFromServer__9ComponentFv
    00001DE8 0000000000             .DATA.L     H'00000000,H'00000000
             000000       




SH SERIES C/C++ Compiler (Ver. 6.0C)                                                                 09-Nov-2021 18:28:35  PAGE  107


SCT OFFSET   CODE       C LABEL     INSTRUCTION OPERAND    COMMENT

    00001DF0 <00000000>             .DATA.L     __$OnDrawGizmos__9ComponentFv
    00001DF4 0000000000             .DATA.L     H'00000000,H'00000000
             000000       
    00001DFC <00000000>             .DATA.L     __$OnDrawGizmosSelected__9ComponentFv
    00001E00 0000000000             .DATA.L     H'00000000,H'00000000
             000000       
    00001E08 <00000000>             .DATA.L     __$OnEnable__9ComponentFv
    00001E0C 0000000000             .DATA.L     H'00000000,H'00000000
             000000       
    00001E14 <00000000>             .DATA.L     __$OnFailedToConnect__9ComponentFv
    00001E18 0000000000             .DATA.L     H'00000000,H'00000000
             000000       
    00001E20 <00000000>             .DATA.L     __$OnFailedToConnectToMasterServer__9ComponentFv
    00001E24 0000000000             .DATA.L     H'00000000,H'00000000
             000000       
    00001E2C <00000000>             .DATA.L     __$OnGUI__9ComponentFv
    00001E30 0000000000             .DATA.L     H'00000000,H'00000000
             000000       
    00001E38 <00000000>             .DATA.L     __$OnJointBreak__9ComponentFv
    00001E3C 0000000000             .DATA.L     H'00000000,H'00000000
             000000       
    00001E44 <00000000>             .DATA.L     __$OnJointBreak2D__9ComponentFv
    00001E48 0000000000             .DATA.L     H'00000000,H'00000000
             000000       
    00001E50 <00000000>             .DATA.L     __$OnMasterServerEvent__9ComponentFv
    00001E54 0000000000             .DATA.L     H'00000000,H'00000000
             000000       
    00001E5C <00000000>             .DATA.L     __$OnMouseDown__9ComponentFv
    00001E60 0000000000             .DATA.L     H'00000000,H'00000000
             000000       
    00001E68 <00000000>             .DATA.L     __$OnMouseDrag__9ComponentFv
    00001E6C 0000000000             .DATA.L     H'00000000,H'00000000
             000000       
    00001E74 <00000000>             .DATA.L     __$OnMouseEnter__9ComponentFv
    00001E78 0000000000             .DATA.L     H'00000000,H'00000000
             000000       
    00001E80 <00000000>             .DATA.L     __$OnMouseExit__9ComponentFv
    00001E84 0000000000             .DATA.L     H'00000000,H'00000000
             000000       
    00001E8C <00000000>             .DATA.L     __$OnMouseOver__9ComponentFv
    00001E90 0000000000             .DATA.L     H'00000000,H'00000000
             000000       
    00001E98 <00000000>             .DATA.L     __$OnMouseUp__9ComponentFv
    00001E9C 0000000000             .DATA.L     H'00000000,H'00000000
             000000       
    00001EA4 <00000000>             .DATA.L     __$OnMouseUpAsButton__9ComponentFv
    00001EA8 0000000000             .DATA.L     H'00000000,H'00000000
             000000       
    00001EB0 <00000000>             .DATA.L     __$OnNetworkInstantiate__9ComponentFv
    00001EB4 0000000000             .DATA.L     H'00000000,H'00000000
             000000       
    00001EBC <00000000>             .DATA.L     __$OnParticleCollision__9ComponentFv
    00001EC0 0000000000             .DATA.L     H'00000000,H'00000000
             000000       
    00001EC8 <00000000>             .DATA.L     __$OnParticleSystemStopped__9ComponentFv
    00001ECC 0000000000             .DATA.L     H'00000000,H'00000000
             000000       




SH SERIES C/C++ Compiler (Ver. 6.0C)                                                                 09-Nov-2021 18:28:35  PAGE  108


SCT OFFSET   CODE       C LABEL     INSTRUCTION OPERAND    COMMENT

    00001ED4 <00000000>             .DATA.L     __$OnParticleTrigger__9ComponentFv
    00001ED8 0000000000             .DATA.L     H'00000000,H'00000000
             000000       
    00001EE0 <00000000>             .DATA.L     __$OnParticleUpdateJobScheduled__9ComponentFv
    00001EE4 0000000000             .DATA.L     H'00000000,H'00000000
             000000       
    00001EEC <00000000>             .DATA.L     __$OnPlayerConnected__9ComponentFv
    00001EF0 0000000000             .DATA.L     H'00000000,H'00000000
             000000       
    00001EF8 <00000000>             .DATA.L     __$OnPlayerDisconnected__9ComponentFv
    00001EFC 0000000000             .DATA.L     H'00000000,H'00000000
             000000       
    00001F04 <00000000>             .DATA.L     __$OnPostRender__9ComponentFv
    00001F08 0000000000             .DATA.L     H'00000000,H'00000000
             000000       
    00001F10 <00000000>             .DATA.L     __$OnPreCull__9ComponentFv
    00001F14 0000000000             .DATA.L     H'00000000,H'00000000
             000000       
    00001F1C <00000000>             .DATA.L     __$OnPreRender__9ComponentFv
    00001F20 0000000000             .DATA.L     H'00000000,H'00000000
             000000       
    00001F28 <00000000>             .DATA.L     __$OnRenderImage__9ComponentFv
    00001F2C 0000000000             .DATA.L     H'00000000,H'00000000
             000000       
    00001F34 <00000000>             .DATA.L     __$OnRenderObject__9ComponentFv
    00001F38 0000000000             .DATA.L     H'00000000,H'00000000
             000000       
    00001F40 <00000000>             .DATA.L     __$OnSerializeNetworkView__9ComponentFv
    00001F44 0000000000             .DATA.L     H'00000000,H'00000000
             000000       
    00001F4C <00000000>             .DATA.L     __$OnServerInitialized__9ComponentFv
    00001F50 0000000000             .DATA.L     H'00000000,H'00000000
             000000       
    00001F58 <00000000>             .DATA.L     __$OnTransformChildrenChanged__9ComponentFv
    00001F5C 0000000000             .DATA.L     H'00000000,H'00000000
             000000       
    00001F64 <00000000>             .DATA.L     __$OnTransformParentChanged__9ComponentFv
    00001F68 0000000000             .DATA.L     H'00000000,H'00000000
             000000       
    00001F70 <00000000>             .DATA.L     __$OnTriggerEnter__9ComponentFv
    00001F74 0000000000             .DATA.L     H'00000000,H'00000000
             000000       
    00001F7C <00000000>             .DATA.L     __$OnTriggerEnter2D__9ComponentFv
    00001F80 0000000000             .DATA.L     H'00000000,H'00000000
             000000       
    00001F88 <00000000>             .DATA.L     __$OnTriggerExit__9ComponentFv
    00001F8C 0000000000             .DATA.L     H'00000000,H'00000000
             000000       
    00001F94 <00000000>             .DATA.L     __$OnTriggerExit2D__9ComponentFv
    00001F98 0000000000             .DATA.L     H'00000000,H'00000000
             000000       
    00001FA0 <00000000>             .DATA.L     __$OnTriggerStay__9ComponentFv
    00001FA4 0000000000             .DATA.L     H'00000000,H'00000000
             000000       
    00001FAC <00000000>             .DATA.L     __$OnTriggerStay2D__9ComponentFv
    00001FB0 0000000000             .DATA.L     H'00000000,H'00000000
             000000       




SH SERIES C/C++ Compiler (Ver. 6.0C)                                                                 09-Nov-2021 18:28:35  PAGE  109


SCT OFFSET   CODE       C LABEL     INSTRUCTION OPERAND    COMMENT

    00001FB8 <00000000>             .DATA.L     __$OnValidate__9ComponentFv
    00001FBC 0000000000             .DATA.L     H'00000000,H'00000000
             000000       
    00001FC4 <00000000>             .DATA.L     __$OnWillRenderObject__9ComponentFv
    00001FC8 0000000000             .DATA.L     H'00000000,H'00000000
             000000       
    00001FD0 <00000000>             .DATA.L     __$Reset__9ComponentFv
    00001FD4 0000000000             .DATA.L     H'00000000,H'00000000
             000000       
    00001FDC <00000000>             .DATA.L     __$Start__9ComponentFv
    00001FE0 0000000000             .DATA.L     H'00000000,H'00000000
             000000       
    00001FE8 <00000000>             .DATA.L     _Update__4TextFv
    00001FEC              ___vtbl__7Tilemap:               ; static: virtual function table for Tilemap
    00001FEC 0000000000             .DATA.L     H'00000000,H'00000000
             000000       
    00001FF4 <00000000>             .DATA.L     ___T_7Tilemap
    00001FF8 0000000000             .DATA.L     H'00000000,H'00000000
             000000       
    00002000 <00000000>             .DATA.L     ___dt__7TilemapFv
    00002004 0000000000             .DATA.L     H'00000000,H'00000000
             000000       
    0000200C <00000000>             .DATA.L     __$Destroy__6ObjectFv
    00002010 0000000000             .DATA.L     H'00000000,H'00000000
             000000       
    00002018 <00000000>             .DATA.L     __$DestroyImmediate__6ObjectFv
    0000201C 0000000000             .DATA.L     H'00000000,H'00000000
             000000       
    00002024 <00000000>             .DATA.L     __$DontDestroyOnLoad__6ObjectFv
    00002028 0000000000             .DATA.L     H'00000000,H'00000000
             000000       
    00002030 <00000000>             .DATA.L     __$FindObjectOfType__6ObjectFv
    00002034 0000000000             .DATA.L     H'00000000,H'00000000
             000000       
    0000203C <00000000>             .DATA.L     __$FindObjectsOfType__6ObjectFv
    00002040 0000000000             .DATA.L     H'00000000,H'00000000
             000000       
    00002048 <00000000>             .DATA.L     __$Instantiate__6ObjectFv
    0000204C 0000000000             .DATA.L     H'00000000,H'00000000
             000000       
    00002054 <00000000>             .DATA.L     __$Awake__9ComponentFv
    00002058 0000000000             .DATA.L     H'00000000,H'00000000
             000000       
    00002060 <00000000>             .DATA.L     __$FixedUpdate__9ComponentFv
    00002064 0000000000             .DATA.L     H'00000000,H'00000000
             000000       
    0000206C <00000000>             .DATA.L     __$LateUpdate__9ComponentFv
    00002070 0000000000             .DATA.L     H'00000000,H'00000000
             000000       
    00002078 <00000000>             .DATA.L     __$OnAnimatorIK__9ComponentFv
    0000207C 0000000000             .DATA.L     H'00000000,H'00000000
             000000       
    00002084 <00000000>             .DATA.L     __$OnAnimatorMove__9ComponentFv
    00002088 0000000000             .DATA.L     H'00000000,H'00000000
             000000       
    00002090 <00000000>             .DATA.L     __$OnApplicationFocus__9ComponentFv
    00002094 0000000000             .DATA.L     H'00000000,H'00000000




SH SERIES C/C++ Compiler (Ver. 6.0C)                                                                 09-Nov-2021 18:28:35  PAGE  110


SCT OFFSET   CODE       C LABEL     INSTRUCTION OPERAND    COMMENT

             000000       
    0000209C <00000000>             .DATA.L     __$OnApplicationPause__9ComponentFv
    000020A0 0000000000             .DATA.L     H'00000000,H'00000000
             000000       
    000020A8 <00000000>             .DATA.L     __$OnApplicationQuit__9ComponentFv
    000020AC 0000000000             .DATA.L     H'00000000,H'00000000
             000000       
    000020B4 <00000000>             .DATA.L     __$OnAudioFilterRead__9ComponentFv
    000020B8 0000000000             .DATA.L     H'00000000,H'00000000
             000000       
    000020C0 <00000000>             .DATA.L     __$OnBecameInvisible__9ComponentFv
    000020C4 0000000000             .DATA.L     H'00000000,H'00000000
             000000       
    000020CC <00000000>             .DATA.L     __$OnBecameVisible__9ComponentFv
    000020D0 0000000000             .DATA.L     H'00000000,H'00000000
             000000       
    000020D8 <00000000>             .DATA.L     __$OnCollisionEnter__9ComponentFv
    000020DC 0000000000             .DATA.L     H'00000000,H'00000000
             000000       
    000020E4 <00000000>             .DATA.L     __$OnCollisionEnter2D__9ComponentFv
    000020E8 0000000000             .DATA.L     H'00000000,H'00000000
             000000       
    000020F0 <00000000>             .DATA.L     __$OnCollisionExit__9ComponentFv
    000020F4 0000000000             .DATA.L     H'00000000,H'00000000
             000000       
    000020FC <00000000>             .DATA.L     __$OnCollisionExit2D__9ComponentFv
    00002100 0000000000             .DATA.L     H'00000000,H'00000000
             000000       
    00002108 <00000000>             .DATA.L     __$OnCollisionStay__9ComponentFv
    0000210C 0000000000             .DATA.L     H'00000000,H'00000000
             000000       
    00002114 <00000000>             .DATA.L     __$OnCollisionStay2D__9ComponentFv
    00002118 0000000000             .DATA.L     H'00000000,H'00000000
             000000       
    00002120 <00000000>             .DATA.L     __$OnConnectedToServer__9ComponentFv
    00002124 0000000000             .DATA.L     H'00000000,H'00000000
             000000       
    0000212C <00000000>             .DATA.L     __$OnControllerColliderHit__9ComponentFv
    00002130 0000000000             .DATA.L     H'00000000,H'00000000
             000000       
    00002138 <00000000>             .DATA.L     __$OnDestroy__9ComponentFv
    0000213C 0000000000             .DATA.L     H'00000000,H'00000000
             000000       
    00002144 <00000000>             .DATA.L     __$OnDisable__9ComponentFv
    00002148 0000000000             .DATA.L     H'00000000,H'00000000
             000000       
    00002150 <00000000>             .DATA.L     __$OnDisconnectedFromServer__9ComponentFv
    00002154 0000000000             .DATA.L     H'00000000,H'00000000
             000000       
    0000215C <00000000>             .DATA.L     __$OnDrawGizmos__9ComponentFv
    00002160 0000000000             .DATA.L     H'00000000,H'00000000
             000000       
    00002168 <00000000>             .DATA.L     __$OnDrawGizmosSelected__9ComponentFv
    0000216C 0000000000             .DATA.L     H'00000000,H'00000000
             000000       
    00002174 <00000000>             .DATA.L     __$OnEnable__9ComponentFv
    00002178 0000000000             .DATA.L     H'00000000,H'00000000




SH SERIES C/C++ Compiler (Ver. 6.0C)                                                                 09-Nov-2021 18:28:35  PAGE  111


SCT OFFSET   CODE       C LABEL     INSTRUCTION OPERAND    COMMENT

             000000       
    00002180 <00000000>             .DATA.L     __$OnFailedToConnect__9ComponentFv
    00002184 0000000000             .DATA.L     H'00000000,H'00000000
             000000       
    0000218C <00000000>             .DATA.L     __$OnFailedToConnectToMasterServer__9ComponentFv
    00002190 0000000000             .DATA.L     H'00000000,H'00000000
             000000       
    00002198 <00000000>             .DATA.L     __$OnGUI__9ComponentFv
    0000219C 0000000000             .DATA.L     H'00000000,H'00000000
             000000       
    000021A4 <00000000>             .DATA.L     __$OnJointBreak__9ComponentFv
    000021A8 0000000000             .DATA.L     H'00000000,H'00000000
             000000       
    000021B0 <00000000>             .DATA.L     __$OnJointBreak2D__9ComponentFv
    000021B4 0000000000             .DATA.L     H'00000000,H'00000000
             000000       
    000021BC <00000000>             .DATA.L     __$OnMasterServerEvent__9ComponentFv
    000021C0 0000000000             .DATA.L     H'00000000,H'00000000
             000000       
    000021C8 <00000000>             .DATA.L     __$OnMouseDown__9ComponentFv
    000021CC 0000000000             .DATA.L     H'00000000,H'00000000
             000000       
    000021D4 <00000000>             .DATA.L     __$OnMouseDrag__9ComponentFv
    000021D8 0000000000             .DATA.L     H'00000000,H'00000000
             000000       
    000021E0 <00000000>             .DATA.L     __$OnMouseEnter__9ComponentFv
    000021E4 0000000000             .DATA.L     H'00000000,H'00000000
             000000       
    000021EC <00000000>             .DATA.L     __$OnMouseExit__9ComponentFv
    000021F0 0000000000             .DATA.L     H'00000000,H'00000000
             000000       
    000021F8 <00000000>             .DATA.L     __$OnMouseOver__9ComponentFv
    000021FC 0000000000             .DATA.L     H'00000000,H'00000000
             000000       
    00002204 <00000000>             .DATA.L     __$OnMouseUp__9ComponentFv
    00002208 0000000000             .DATA.L     H'00000000,H'00000000
             000000       
    00002210 <00000000>             .DATA.L     __$OnMouseUpAsButton__9ComponentFv
    00002214 0000000000             .DATA.L     H'00000000,H'00000000
             000000       
    0000221C <00000000>             .DATA.L     __$OnNetworkInstantiate__9ComponentFv
    00002220 0000000000             .DATA.L     H'00000000,H'00000000
             000000       
    00002228 <00000000>             .DATA.L     __$OnParticleCollision__9ComponentFv
    0000222C 0000000000             .DATA.L     H'00000000,H'00000000
             000000       
    00002234 <00000000>             .DATA.L     __$OnParticleSystemStopped__9ComponentFv
    00002238 0000000000             .DATA.L     H'00000000,H'00000000
             000000       
    00002240 <00000000>             .DATA.L     __$OnParticleTrigger__9ComponentFv
    00002244 0000000000             .DATA.L     H'00000000,H'00000000
             000000       
    0000224C <00000000>             .DATA.L     __$OnParticleUpdateJobScheduled__9ComponentFv
    00002250 0000000000             .DATA.L     H'00000000,H'00000000
             000000       
    00002258 <00000000>             .DATA.L     __$OnPlayerConnected__9ComponentFv
    0000225C 0000000000             .DATA.L     H'00000000,H'00000000




SH SERIES C/C++ Compiler (Ver. 6.0C)                                                                 09-Nov-2021 18:28:35  PAGE  112


SCT OFFSET   CODE       C LABEL     INSTRUCTION OPERAND    COMMENT

             000000       
    00002264 <00000000>             .DATA.L     __$OnPlayerDisconnected__9ComponentFv
    00002268 0000000000             .DATA.L     H'00000000,H'00000000
             000000       
    00002270 <00000000>             .DATA.L     __$OnPostRender__9ComponentFv
    00002274 0000000000             .DATA.L     H'00000000,H'00000000
             000000       
    0000227C <00000000>             .DATA.L     __$OnPreCull__9ComponentFv
    00002280 0000000000             .DATA.L     H'00000000,H'00000000
             000000       
    00002288 <00000000>             .DATA.L     __$OnPreRender__9ComponentFv
    0000228C 0000000000             .DATA.L     H'00000000,H'00000000
             000000       
    00002294 <00000000>             .DATA.L     __$OnRenderImage__9ComponentFv
    00002298 0000000000             .DATA.L     H'00000000,H'00000000
             000000       
    000022A0 <00000000>             .DATA.L     __$OnRenderObject__9ComponentFv
    000022A4 0000000000             .DATA.L     H'00000000,H'00000000
             000000       
    000022AC <00000000>             .DATA.L     __$OnSerializeNetworkView__9ComponentFv
    000022B0 0000000000             .DATA.L     H'00000000,H'00000000
             000000       
    000022B8 <00000000>             .DATA.L     __$OnServerInitialized__9ComponentFv
    000022BC 0000000000             .DATA.L     H'00000000,H'00000000
             000000       
    000022C4 <00000000>             .DATA.L     __$OnTransformChildrenChanged__9ComponentFv
    000022C8 0000000000             .DATA.L     H'00000000,H'00000000
             000000       
    000022D0 <00000000>             .DATA.L     __$OnTransformParentChanged__9ComponentFv
    000022D4 0000000000             .DATA.L     H'00000000,H'00000000
             000000       
    000022DC <00000000>             .DATA.L     __$OnTriggerEnter__9ComponentFv
    000022E0 0000000000             .DATA.L     H'00000000,H'00000000
             000000       
    000022E8 <00000000>             .DATA.L     __$OnTriggerEnter2D__9ComponentFv
    000022EC 0000000000             .DATA.L     H'00000000,H'00000000
             000000       
    000022F4 <00000000>             .DATA.L     __$OnTriggerExit__9ComponentFv
    000022F8 0000000000             .DATA.L     H'00000000,H'00000000
             000000       
    00002300 <00000000>             .DATA.L     __$OnTriggerExit2D__9ComponentFv
    00002304 0000000000             .DATA.L     H'00000000,H'00000000
             000000       
    0000230C <00000000>             .DATA.L     __$OnTriggerStay__9ComponentFv
    00002310 0000000000             .DATA.L     H'00000000,H'00000000
             000000       
    00002318 <00000000>             .DATA.L     __$OnTriggerStay2D__9ComponentFv
    0000231C 0000000000             .DATA.L     H'00000000,H'00000000
             000000       
    00002324 <00000000>             .DATA.L     __$OnValidate__9ComponentFv
    00002328 0000000000             .DATA.L     H'00000000,H'00000000
             000000       
    00002330 <00000000>             .DATA.L     __$OnWillRenderObject__9ComponentFv
    00002334 0000000000             .DATA.L     H'00000000,H'00000000
             000000       
    0000233C <00000000>             .DATA.L     __$Reset__9ComponentFv
    00002340 0000000000             .DATA.L     H'00000000,H'00000000




SH SERIES C/C++ Compiler (Ver. 6.0C)                                                                 09-Nov-2021 18:28:35  PAGE  113


SCT OFFSET   CODE       C LABEL     INSTRUCTION OPERAND    COMMENT

             000000       
    00002348 <00000000>             .DATA.L     __$Start__9ComponentFv
    0000234C 0000000000             .DATA.L     H'00000000,H'00000000
             000000       
    00002354 <00000000>             .DATA.L     _Update__7TilemapFv
C   00000000              L758:
    00000000 4E6F6E65               .SDATA      "None"
    00000004 00                     .DATA.B     H'00
    00000005 00000001               .RES.B      1
    00000006 00000002               .RES.W      1
    00000008              L759:
    00000008 00                     .DATA.B     H'00
    00000009 00000001               .RES.B      1
    0000000A 00000002               .RES.W      1
    0000000C              L1117:
    0000000C <00000000>             .DATA.L     L1118
    00000010              L442:
    00000010 4F626A6563             .SDATA      "Object"
             74           
    00000016 00                     .DATA.B     H'00
    00000017 00000001               .RES.B      1
    00000018              L443:
    00000018 436F6D706F             .SDATA      "Component"
             6E656E74     
    00000021 00                     .DATA.B     H'00
    00000022 00000002               .RES.W      1
    00000024              L444:
    00000024 5472616E73             .SDATA      "Transform"
             666F726D     
    0000002D 00                     .DATA.B     H'00
    0000002E 00000002               .RES.W      1
    00000030              L445:
    00000030 4265686176             .SDATA      "Behaviour"
             696F7572     
    00000039 00                     .DATA.B     H'00
    0000003A 00000002               .RES.W      1
    0000003C              L446:
    0000003C 5465787475             .SDATA      "Texture"
             7265         
    00000043 00                     .DATA.B     H'00
    00000044              L447:
    00000044 4D6F6E6F42             .SDATA      "MonoBehaviour"
             6568617669   
             6F7572       
    00000051 00                     .DATA.B     H'00
    00000052 00000002               .RES.W      1
    00000054              L448:
    00000054 47616D654F             .SDATA      "GameObject"
             626A656374   
    0000005E 00                     .DATA.B     H'00
    0000005F 00000001               .RES.B      1
    00000060              L449:
    00000060 43616D6572             .SDATA      "Camera"
             61           
    00000066 00                     .DATA.B     H'00
    00000067 00000001               .RES.B      1
    00000068              L450:




SH SERIES C/C++ Compiler (Ver. 6.0C)                                                                 09-Nov-2021 18:28:35  PAGE  114


SCT OFFSET   CODE       C LABEL     INSTRUCTION OPERAND    COMMENT

    00000068 496D616765             .SDATA      "Image"
    0000006D 00                     .DATA.B     H'00
    0000006E 00000002               .RES.W      1
    00000070              L451:
    00000070 5370726974             .SDATA      "Sprite"
             65           
    00000076 00                     .DATA.B     H'00
    00000077 00000001               .RES.B      1
    00000078              L452:
    00000078 5269676964             .SDATA      "Rigidbody"
             626F6479     
    00000081 00                     .DATA.B     H'00
    00000082 00000002               .RES.W      1
    00000084              L453:
    00000084 54657874               .SDATA      "Text"
    00000088 00                     .DATA.B     H'00
    00000089 00000001               .RES.B      1
    0000008A 00000002               .RES.W      1
    0000008C              L454:
    0000008C 54696C656D             .SDATA      "Tilemap"
             6170         
    00000093 00                     .DATA.B     H'00
    00000094              L1118:
    00000094 4D61696E               .SDATA      "Main"
    00000098 00                     .DATA.B     H'00
D   00000090              __$__T_6Object:                  ; static: typeinfo for Object
    00000090 <00000000>             .DATA.L     ___vtbl__Q2_3std9type_info,L442,__$__TID_6Object
             <00000000>   
             <00000000>   
    0000009C 00000000               .DATA.L     H'00000000
    000000A0              ___T_9Component:                 ; static: typeinfo for Component
    000000A0 <00000000>             .DATA.L     ___vtbl__Q2_3std9type_info,L443,__$__TID_9Component,__$__T30544580
             <00000000>   
             <00000000>   
             <00000000>   
    000000B0              ___T_9Transform:                 ; static: typeinfo for Transform
    000000B0 <00000000>             .DATA.L     ___vtbl__Q2_3std9type_info,L444,__$__TID_9Transform,__$__T30546052
             <00000000>   
             <00000000>   
             <00000000>   
    000000C0              __$__T_9Behaviour:               ; static: typeinfo for Behaviour
    000000C0 <00000000>             .DATA.L     ___vtbl__Q2_3std9type_info,L445,__$__TID_9Behaviour,__$__T30547608
             <00000000>   
             <00000000>   
             <00000000>   
    000000D0              __$__T_7Texture:                 ; static: typeinfo for Texture
    000000D0 <00000000>             .DATA.L     ___vtbl__Q2_3std9type_info,L446,__$__TID_7Texture,__$__T30549156
             <00000000>   
             <00000000>   
             <00000000>   
    000000E0              __$__T_13MonoBehaviour:          ; static: typeinfo for MonoBehaviour
    000000E0 <00000000>             .DATA.L     ___vtbl__Q2_3std9type_info,L447,__$__TID_13MonoBehaviour,__$__T30550924
             <00000000>   
             <00000000>   
             <00000000>   
    000000F0              ___T_10GameObject:               ; static: typeinfo for GameObject
    000000F0 <00000000>             .DATA.L     ___vtbl__Q2_3std9type_info,L448,__$__TID_10GameObject,__$__T30552684




SH SERIES C/C++ Compiler (Ver. 6.0C)                                                                 09-Nov-2021 18:28:35  PAGE  115


SCT OFFSET   CODE       C LABEL     INSTRUCTION OPERAND    COMMENT

             <00000000>   
             <00000000>   
             <00000000>   
    00000100              __$__T_6Camera:                  ; static: typeinfo for Camera
    00000100 <00000000>             .DATA.L     ___vtbl__Q2_3std9type_info,L449,__$__TID_6Camera,__$__T30554148
             <00000000>   
             <00000000>   
             <00000000>   
    00000110              ___T_5Image:                     ; static: typeinfo for Image
    00000110 <00000000>             .DATA.L     ___vtbl__Q2_3std9type_info,L450,__$__TID_5Image,__$__T30555612
             <00000000>   
             <00000000>   
             <00000000>   
    00000120              ___T_6Sprite:                    ; static: typeinfo for Sprite
    00000120 <00000000>             .DATA.L     ___vtbl__Q2_3std9type_info,L451,__$__TID_6Sprite,__$__T30557076
             <00000000>   
             <00000000>   
             <00000000>   
    00000130              ___T_9Rigidbody:                 ; static: typeinfo for Rigidbody
    00000130 <00000000>             .DATA.L     ___vtbl__Q2_3std9type_info,L452,__$__TID_9Rigidbody,__$__T30558548
             <00000000>   
             <00000000>   
             <00000000>   
    00000140              ___T_4Text:                      ; static: typeinfo for Text
    00000140 <00000000>             .DATA.L     ___vtbl__Q2_3std9type_info,L453,__$__TID_4Text,__$__T30560008
             <00000000>   
             <00000000>   
             <00000000>   
    00000150              ___T_7Tilemap:                   ; static: typeinfo for Tilemap
    00000150 <00000000>             .DATA.L     ___vtbl__Q2_3std9type_info,L454,__$__TID_7Tilemap,__$__T30561472
             <00000000>   
             <00000000>   
             <00000000>   
B   00000000              __$__TID_6Object:                ; static: type identifier for Object
    00000000 00000001               .RES.B      1
    00000001              __$__TID_9Component:             ; static: type identifier for Component
    00000001 00000001               .RES.B      1
    00000002              __$__TID_9Transform:             ; static: type identifier for Transform
    00000002 00000001               .RES.B      1
    00000003              __$__TID_9Behaviour:             ; static: type identifier for Behaviour
    00000003 00000001               .RES.B      1
    00000004              __$__TID_7Texture:               ; static: type identifier for Texture
    00000004 00000001               .RES.B      1
    00000005              __$__TID_13MonoBehaviour:        ; static: type identifier for MonoBehaviour
    00000005 00000001               .RES.B      1
    00000006              __$__TID_10GameObject:           ; static: type identifier for GameObject
    00000006 00000001               .RES.B      1
    00000007              __$__TID_6Camera:                ; static: type identifier for Camera
    00000007 00000001               .RES.B      1
    00000008              __$__TID_5Image:                 ; static: type identifier for Image
    00000008 00000001               .RES.B      1
    00000009              __$__TID_6Sprite:                ; static: type identifier for Sprite
    00000009 00000001               .RES.B      1
    0000000A              __$__TID_9Rigidbody:             ; static: type identifier for Rigidbody
    0000000A 00000001               .RES.B      1
    0000000B              __$__TID_4Text:                  ; static: type identifier for Text
    0000000B 00000001               .RES.B      1




SH SERIES C/C++ Compiler (Ver. 6.0C)                                                                 09-Nov-2021 18:28:35  PAGE  116


SCT OFFSET   CODE       C LABEL     INSTRUCTION OPERAND    COMMENT

    0000000C              __$__TID_7Tilemap:               ; static: type identifier for Tilemap
    0000000C 00000001               .RES.B      1



























































SH SERIES C/C++ Compiler (Ver. 6.0C)                                                                 09-Nov-2021 18:28:35  PAGE    1


******** STATISTICS INFORMATION ********


********** ERROR INFORMATION ***********

NUMBER OF ERRORS:           0
NUMBER OF WARNINGS:        49




******* SOURCE LINE INFORMATION ********

COMPILED SOURCE LINE:      502



******* SECTION SIZE INFORMATION *******

PROGRAM  SECTION (P):                               000017CC Byte(s)
PROGRAM  SECTION (P$VTBL):                          00000000 Byte(s)
CONSTANT SECTION (C):                               00000099 Byte(s)
CONSTANT SECTION (C$VTBL):                          00002358 Byte(s)
DATA     SECTION (D):                               00000160 Byte(s)
DATA     SECTION (D$VTBL):                          00000000 Byte(s)
BSS      SECTION (B):                               0000000D Byte(s)
BSS      SECTION (B$VTBL):                          00000000 Byte(s)

 TOTAL PROGRAM SIZE: 00003D2A Byte(s)



********** LABEL INFORMATION ***********

NUMBER OF EXTERNAL REFERENCE SYMBOLS:           18
NUMBER OF EXTERNAL DEFINITION SYMBOLS:          76
NUMBER OF INTERNAL/EXTERNAL SYMBOLS:           295


























*** COMMAND PARAMETER ***


  -subcommand=C:\Users\leofa\AppData\Local\Temp\hmk73F4.tmp 

