SH SERIES C/C++ Compiler (Ver. 6.0C)                                                                 18-Nov-2021 16:33:51  PAGE    1

************ OBJECT LISTING ************

FILE NAME: C:\Users\leofa\OneDrive\Documents\PycharmProjects\Particule-Casio\Particule\lib\Moteur\SDK Graph 75 85 95\ParticuleEngine
           .cpp

SCT OFFSET   CODE       C LABEL     INSTRUCTION OPERAND    COMMENT

      ParticuleE     1    extern "C"
      ParticuleE     2    {
      ParticuleE     3    #include "keybios.h"
      ParticuleE     4    #include "fxlib.h"
      ParticuleE     5    #include <stdio.h>
      ParticuleE     6    #include "stdio.h"
      ParticuleE     7    #include "stdlib.h"
      ParticuleE     8    
      ParticuleE     9    #include "string.h"
      ParticuleE    10    #include "time.h"
      ParticuleE    11    }
      ParticuleE    12    #include "Announcement.h"
      ParticuleE    13    #include "MonochromeLib.h"
      ParticuleE    14    #include "List.h"
      ParticuleE    15    #include <iostream>
      ParticuleE    16    #include <math.h>
      ParticuleE    17    #include "usefull.h"
      ParticuleE    18    #include "Ressources.h"
      ParticuleE    19    #include "ParticuleEngine.hpp"
      ParticuleE    20    
      ParticuleE    21    int Random(int start, int end) {
P   00000000              _Random__FiT1:                   ; function: Random(int, int)
                                                           ; frame size=12
                                                           ; used runtime library name:
                                                           ; __modls
    00000000 4F22                   STS.L       PR,@-R15
    00000002 7FF8                   ADD         #-8,R15
      ParticuleE    22        return (getTicks() % (end - start)) + start;
    00000004 D3B3                   MOV.L       L1969,R3   ; _getTicks
    00000006 2F42                   MOV.L       R4,@R15
    00000008 430B                   JSR         @R3
    0000000A 1F51                   MOV.L       R5,@(4,R15)
    0000000C 63F2                   MOV.L       @R15,R3
    0000000E 6103                   MOV         R0,R1
    00000010 52F1                   MOV.L       @(4,R15),R2
    00000012 3238                   SUB         R3,R2
    00000014 6023                   MOV         R2,R0
    00000016 D2B0                   MOV.L       L1969+4,R2 ; __modls
    00000018 420B                   JSR         @R2
    0000001A 0009                   NOP
      ParticuleE    23    }
    0000001C 7F08                   ADD         #8,R15
    0000001E 4F26                   LDS.L       @R15+,PR
    00000020 000B                   RTS
    00000022 303C                   ADD         R3,R0
      ParticuleE    24    
      ParticuleE    25    int LenChar(char* txt) {
    00000024              _LenChar__FPc:                   ; function: LenChar(char *)
                                                           ; frame size=4
    00000024 4F22                   STS.L       PR,@-R15
      ParticuleE    26        return strlen(txt);
    00000026 D3AD                   MOV.L       L1969+8,R3 ; _strlen
    00000028 430B                   JSR         @R3




SH SERIES C/C++ Compiler (Ver. 6.0C)                                                                 18-Nov-2021 16:33:51  PAGE    2


SCT OFFSET   CODE       C LABEL     INSTRUCTION OPERAND    COMMENT

    0000002A 0009                   NOP
      ParticuleE    27    }
    0000002C 4F26                   LDS.L       @R15+,PR
    0000002E 000B                   RTS
    00000030 0009                   NOP
      ParticuleE    28    
      ParticuleE    29    int mod(int x, int m) {
    00000032              _mod__FiT1:                      ; function: mod(int, int)
                                                           ; frame size=4
                                                           ; used runtime library name:
                                                           ; __modls
      ParticuleE    30        return (x % m + m) % m;
    00000032 6143                   MOV         R4,R1
    00000034 D3A8                   MOV.L       L1969+4,R3 ; __modls
    00000036 4F22                   STS.L       PR,@-R15
    00000038 430B                   JSR         @R3
    0000003A 6053                   MOV         R5,R0
    0000003C D3A6                   MOV.L       L1969+4,R3 ; __modls
    0000003E 6103                   MOV         R0,R1
    00000040 315C                   ADD         R5,R1
    00000042 430B                   JSR         @R3
    00000044 6053                   MOV         R5,R0
      ParticuleE    31    }
    00000046 4F26                   LDS.L       @R15+,PR
    00000048 000B                   RTS
    0000004A 0009                   NOP
      ParticuleE    32    
      ParticuleE    33    enum Tag
      ParticuleE    34    {
      ParticuleE    35        Untagged = 0,
      ParticuleE    36        Respawn = 1,
      ParticuleE    37        Finish = 2,
      ParticuleE    38        EditorOnly = 3,
      ParticuleE    39        MainCamera = 4,
      ParticuleE    40        Player = 5,
      ParticuleE    41        GameController = 6
      ParticuleE    42    };
      ParticuleE    43    
      ParticuleE    44    enum Layer
      ParticuleE    45    {
      ParticuleE    46        Default = 0,
      ParticuleE    47        TransparentFX = 1,
      ParticuleE    48        IgnoreRaycast = 2,
      ParticuleE    49        Water = 3,
      ParticuleE    50        UI = 4
      ParticuleE    51    };
      ParticuleE    52    
      ParticuleE    53    Vector2::Vector2() {
      ParticuleE    54        this->x = 0;
      ParticuleE    55        this->y = 0;
      ParticuleE    56    }
      ParticuleE    57    Vector2::Vector2(float x, float y) {
      ParticuleE    58        this->x = x;
      ParticuleE    59        this->y = y;
      ParticuleE    60    };
      ParticuleE    61    void Vector2::Set(float x, float y) {
      ParticuleE    62        this->x = x;




SH SERIES C/C++ Compiler (Ver. 6.0C)                                                                 18-Nov-2021 16:33:51  PAGE    3


SCT OFFSET   CODE       C LABEL     INSTRUCTION OPERAND    COMMENT

      ParticuleE    63        this->y = y;
      ParticuleE    64    };
      ParticuleE    65    void Vector2::Set(Vector2* vect) {
      ParticuleE    66        this->x = vect->x;
      ParticuleE    67        this->y = vect->y;
      ParticuleE    68    };
      ParticuleE    69    
      ParticuleE    70    void Vector2::Set(Vector2 vect) {
      ParticuleE    71        this->x = vect.x;
      ParticuleE    72        this->y = vect.y;
      ParticuleE    73    };
      ParticuleE    74    
      ParticuleE    75    void Vector2::Add(Vector2* vect) {
      ParticuleE    76        this->x += vect->x;
      ParticuleE    77        this->y += vect->y;
      ParticuleE    78    };
      ParticuleE    79    void Vector2::Add(float x, float y) {
      ParticuleE    80        this->x += x;
      ParticuleE    81        this->y += y;
      ParticuleE    82    };
      ParticuleE    83    
      ParticuleE    84    bool Vector2::operator==(const Vector2& other) {
      ParticuleE    85        return this->x == other.x && this->y == other.y;
      ParticuleE    86    }
      ParticuleE    87    
      ParticuleE    88    bool Vector2::operator!=(const Vector2& other) {
      ParticuleE    89        return !(this->x == other.x && this->y == other.y);
      ParticuleE    90    }
      ParticuleE    91    
      ParticuleE    92    Vector2 Vector2::operator+(const Vector2& other) {
      ParticuleE    93        return Vector2(this->x + other.x, this->y + other.y);
      ParticuleE    94    }
      ParticuleE    95    
      ParticuleE    96    Vector2 Vector2::operator-(const Vector2& other) {
      ParticuleE    97        return Vector2(this->x - other.x, this->y - other.y);
      ParticuleE    98    }
      ParticuleE    99    
      ParticuleE   100    Vector2 Vector2::operator*(const Vector2& other) {
      ParticuleE   101        return Vector2(this->x * other.x, this->y * other.y);
      ParticuleE   102    }
      ParticuleE   103    
      ParticuleE   104    Vector2 Vector2::operator/(const Vector2& other) {
      ParticuleE   105        return Vector2(this->x / other.x, this->y / other.y);
      ParticuleE   106    }
      ParticuleE   107    
      ParticuleE   108    
      ParticuleE   109    
      ParticuleE   110    Object::Object(const char* name, const char* UUID) {
      ParticuleE   111        this->name = (unsigned char*)name;
      ParticuleE   112        this->ID = (unsigned char*)UUID;
      ParticuleE   113    };
      ParticuleE   114    
      ParticuleE   115    
      ParticuleE   116    unsigned char* Object::GetInstanceID() {
      ParticuleE   117        return ID;
      ParticuleE   118    };
      ParticuleE   119    unsigned char* Object::ToString() {




SH SERIES C/C++ Compiler (Ver. 6.0C)                                                                 18-Nov-2021 16:33:51  PAGE    4


SCT OFFSET   CODE       C LABEL     INSTRUCTION OPERAND    COMMENT

      ParticuleE   120        return name;
      ParticuleE   121    };
      ParticuleE   122    
      ParticuleE   123    
      ParticuleE   124    // Overload operator
      ParticuleE   125    bool Object::operator==(const Object& obj) {
      ParticuleE   126        return this->ID == obj.ID;
      ParticuleE   127    }
      ParticuleE   128    
      ParticuleE   129    bool Object::operator!=(const Object& obj) {
      ParticuleE   130        return this->ID != obj.ID;
      ParticuleE   131    }
      ParticuleE   132    
      ParticuleE   133    Component::Component(const char* name, GameObject* gameObject, const char* UUID) : Object(name, UUID)
      ParticuleE   134    {
      ParticuleE   135        this->gameObject = gameObject;
      ParticuleE   136    };
      ParticuleE   137    
      ParticuleE   138    
      ParticuleE   139    
      ParticuleE   140    Transform::Transform(GameObject* gameObject, const char* UUID, const char* name) : Component(name, gameObj
                         +ect, UUID) {
      ParticuleE   141        childCount = 0;
      ParticuleE   142        //eulerAngles = new Vector2();
      ParticuleE   143        //forward = None
      ParticuleE   144        hasChanged = NULL;
      ParticuleE   145        hierarchyCapacity = NULL;
      ParticuleE   146        hierarchyCount = NULL;
      ParticuleE   147        //localEulerAngles = new Vector2();
      ParticuleE   148        localPosition = new Vector2();
      ParticuleE   149        //localRotation = NULL;
      ParticuleE   150        //localScale = new Vector2(1, 1);
      ParticuleE   151        //localToWorldMatrix = NULL;
      ParticuleE   152        lossyScale = new Vector2(1, 1);
      ParticuleE   153        parent = NULL;
      ParticuleE   154        //children = []
      ParticuleE   155        position = new Vector2();
      ParticuleE   156        //self.right = None
      ParticuleE   157        //root = NULL;
      ParticuleE   158        //rotation = NULL;
      ParticuleE   159        //self.up = None
      ParticuleE   160        //worldToLocalMatrix = NULL;
      ParticuleE   161        lastPosition = new Vector2();
      ParticuleE   162    };
      ParticuleE   163    
      ParticuleE   164    
      ParticuleE   165    void Transform::SetParent(Transform* transform) {
      ParticuleE   166        if (parent != NULL) {
      ParticuleE   167            parent->children.Remove(this);
      ParticuleE   168        }
      ParticuleE   169        transform->children.Add(this);
      ParticuleE   170        parent = transform;
      ParticuleE   171    }
      ParticuleE   172    
      ParticuleE   173    void Transform::Start() {
      ParticuleE   174        lastPosition->x = position->x;
      ParticuleE   175        lastPosition->y = position->y;




SH SERIES C/C++ Compiler (Ver. 6.0C)                                                                 18-Nov-2021 16:33:51  PAGE    5


SCT OFFSET   CODE       C LABEL     INSTRUCTION OPERAND    COMMENT

      ParticuleE   176    }
      ParticuleE   177    
      ParticuleE   178    void Transform::Update() {
      ParticuleE   179        childCount = children.Count;
      ParticuleE   180    
      ParticuleE   181        if (parent == NULL) {
      ParticuleE   182    
      ParticuleE   183            if (*position != *localPosition) {
      ParticuleE   184                if (*localPosition != *lastPosition) {
      ParticuleE   185                    position->x = localPosition->x;
      ParticuleE   186                    position->y = localPosition->y;
      ParticuleE   187                }
      ParticuleE   188            }
      ParticuleE   189            localPosition->x = position->x;
      ParticuleE   190            localPosition->y = position->y;
      ParticuleE   191        }
      ParticuleE   192        else
      ParticuleE   193        {
      ParticuleE   194            //return;
      ParticuleE   195            if ((*position != *lastPosition) && (*position == (*localPosition + *parent->position))) {
      ParticuleE   196                localPosition->Set(*localPosition + (*lastPosition - *position));
      ParticuleE   197            }
      ParticuleE   198            position->Set(*localPosition + *parent->position);
      ParticuleE   199    
      ParticuleE   200        }
      ParticuleE   201        lastPosition->x = position->x;
      ParticuleE   202        lastPosition->y = position->y;
      ParticuleE   203    }
      ParticuleE   204    
      ParticuleE   205    
      ParticuleE   206    Behaviour::Behaviour(const char* name, GameObject* gameObject, const char* UUID) : Component(name, gameObj
                         +ect, UUID) {
      ParticuleE   207        enabled = true;
      ParticuleE   208        isActiveAndEnabled = true;
      ParticuleE   209    };
      ParticuleE   210    
      ParticuleE   211    /*
      ParticuleE   212    enum ScaleMode
      ParticuleE   213    {
      ParticuleE   214        //https://docs.unity3d.com/ScriptReference/ScaleMode.html
      ParticuleE   215        StretchToFill,
      ParticuleE   216        ScaleAndCrop,
      ParticuleE   217        ScaleToFit,
      ParticuleE   218    };
      ParticuleE   219    class CallbackEventHandler{
      ParticuleE   220        //https://docs.unity3d.com/ScriptReference/UIElements.CallbackEventHandler.html
      ParticuleE   221    
      ParticuleE   222    };
      ParticuleE   223    
      ParticuleE   224    class Focusable : public CallbackEventHandler {
      ParticuleE   225        //https://docs.unity3d.com/ScriptReference/UIElements.Focusable.html
      ParticuleE   226    
      ParticuleE   227    };
      ParticuleE   228    
      ParticuleE   229    class VisualElement : public Focusable {
      ParticuleE   230        //https://docs.unity3d.com/ScriptReference/UIElements.VisualElement.html
      ParticuleE   231    




SH SERIES C/C++ Compiler (Ver. 6.0C)                                                                 18-Nov-2021 16:33:51  PAGE    6


SCT OFFSET   CODE       C LABEL     INSTRUCTION OPERAND    COMMENT

      ParticuleE   232    };
      ParticuleE   233    */
      ParticuleE   234    
      ParticuleE   235    
      ParticuleE   236    enum TextureDimension
      ParticuleE   237    {
      ParticuleE   238        Unknown,
      ParticuleE   239        None,
      ParticuleE   240        Any,
      ParticuleE   241        Tex2D,
      ParticuleE   242        Tex3D,
      ParticuleE   243        Cube,
      ParticuleE   244        Tex2DArray,
      ParticuleE   245        CubeArray
      ParticuleE   246    };
      ParticuleE   247    
      ParticuleE   248    enum FilterMode
      ParticuleE   249    {
      ParticuleE   250        Point,
      ParticuleE   251        Bilinear,
      ParticuleE   252        Trilinear
      ParticuleE   253    };
      ParticuleE   254    
      ParticuleE   255    Texture::Texture() : Object("None", NULL) {
      ParticuleE   256        textureData = "";
      ParticuleE   257        this->width = 0;
      ParticuleE   258        this->height = 0;
      ParticuleE   259    };
      ParticuleE   260    Texture::Texture(const char* name, int width, int height, const unsigned char* Data, const char* UUID) : O
                         +bject(name, UUID) {
      ParticuleE   261        textureData = (unsigned char*)Data;
      ParticuleE   262        this->width = width;
      ParticuleE   263        this->height = height;
      ParticuleE   264    };
      ParticuleE   265    
      ParticuleE   266    MonoBehaviour::MonoBehaviour(const char* name, GameObject* gameObject, const char* UUID) : Behaviour(name,
                         + gameObject, UUID) {
      ParticuleE   267        useGUILayout = true;
      ParticuleE   268    };
      ParticuleE   269    
      ParticuleE   270    
      ParticuleE   271    GameObject::GameObject(Scene* scene, const char* name, const char* UUID) : Object(name, UUID)
      ParticuleE   272    {
      ParticuleE   273        this->scene = scene;
      ParticuleE   274        this->transform = new Transform(this);
      ParticuleE   275        activeInHierarchy = true;
      ParticuleE   276        activeSelf = true;
      ParticuleE   277        isStatic = false;
      ParticuleE   278        layer = Default;
      ParticuleE   279        sceneCullingMask = NULL;
      ParticuleE   280        tag = Untagged;
      ParticuleE   281        ListOfComponent.Add(transform);
      ParticuleE   282    };
      ParticuleE   283    
      ParticuleE   284    bool GameObject::IsActive() {
      ParticuleE   285        if (!activeSelf) {
      ParticuleE   286            activeInHierarchy = false;




SH SERIES C/C++ Compiler (Ver. 6.0C)                                                                 18-Nov-2021 16:33:51  PAGE    7


SCT OFFSET   CODE       C LABEL     INSTRUCTION OPERAND    COMMENT

      ParticuleE   287            return false;
      ParticuleE   288        }
      ParticuleE   289        if (transform->parent != NULL) {
      ParticuleE   290            if (!transform->parent->gameObject->activeInHierarchy || !transform->parent->gameObject->activeSel
                         +f) {
      ParticuleE   291                activeInHierarchy = false;
      ParticuleE   292                return false;
      ParticuleE   293            }
      ParticuleE   294        }
      ParticuleE   295        activeInHierarchy = true;
      ParticuleE   296        return true;
      ParticuleE   297    }
      ParticuleE   298    
      ParticuleE   299    
      ParticuleE   300    void GameObject::AddComponent(Component* component) {
      ParticuleE   301        ListOfComponent.Add(component);
      ParticuleE   302    };
      ParticuleE   303    Component* GameObject::GetComponent(const char* name) {
      ParticuleE   304        for (int i = 0; i < ListOfComponent.Count; i++)
      ParticuleE   305        {
      ParticuleE   306            if (ListOfComponent[i]->name == (unsigned char*)name)
      ParticuleE   307                return ListOfComponent[i];
      ParticuleE   308        }
      ParticuleE   309        return NULL;
      ParticuleE   310    };
      ParticuleE   311    
      ParticuleE   312    
      ParticuleE   313    GameObject* GameObject::Find(unsigned char* name) {
      ParticuleE   314        return FindWithName(name, this);
      ParticuleE   315    };
      ParticuleE   316    
      ParticuleE   317    
      ParticuleE   318    void Scene::AddGameObject(GameObject* gObj) {
      ParticuleE   319        AllGameObject.Add(gObj);
      ParticuleE   320    };
      ParticuleE   321    
      ParticuleE   322    void Scene::Update() {
      ParticuleE   323        for (int i = 0; i < AllGameObject.Count; i++)
      ParticuleE   324        {
      ParticuleE   325            if (AllGameObject[i]->IsActive()) {
      ParticuleE   326                for (int o = 0; o < AllGameObject[i]->ListOfComponent.Count; o++)
      ParticuleE   327                {
      ParticuleE   328                    AllGameObject[i]->ListOfComponent[o]->PhysicsCalculator();
      ParticuleE   329                }
      ParticuleE   330            }
      ParticuleE   331        }
      ParticuleE   332        for (int i = 0; i < AllGameObject.Count; i++)
      ParticuleE   333        {
      ParticuleE   334            if (AllGameObject[i]->IsActive()) {
      ParticuleE   335                for (int o = 0; o < AllGameObject[i]->ListOfComponent.Count; o++)
      ParticuleE   336                {
      ParticuleE   337                    AllGameObject[i]->ListOfComponent[o]->FixedUpdate();
      ParticuleE   338                }
      ParticuleE   339            }
      ParticuleE   340        }
      ParticuleE   341        for (int i = 0; i < AllGameObject.Count; i++)
      ParticuleE   342        {




SH SERIES C/C++ Compiler (Ver. 6.0C)                                                                 18-Nov-2021 16:33:51  PAGE    8


SCT OFFSET   CODE       C LABEL     INSTRUCTION OPERAND    COMMENT

      ParticuleE   343            if (AllGameObject[i]->IsActive()) {
      ParticuleE   344                for (int o = 0; o < AllGameObject[i]->ListOfComponent.Count; o++)
      ParticuleE   345                {
      ParticuleE   346                    AllGameObject[i]->ListOfComponent[o]->Update();
      ParticuleE   347                }
      ParticuleE   348            }
      ParticuleE   349        }
      ParticuleE   350        for (int i = 0; i < AllGameObject.Count; i++)
      ParticuleE   351        {
      ParticuleE   352            if (AllGameObject[i]->IsActive()) {
      ParticuleE   353                for (int o = 0; o < AllGameObject[i]->ListOfComponent.Count; o++)
      ParticuleE   354                {
      ParticuleE   355                    AllGameObject[i]->ListOfComponent[o]->LateUpdate();
      ParticuleE   356                }
      ParticuleE   357            }
      ParticuleE   358        }
      ParticuleE   359        for (int i = 0; i < AllGameObject.Count; i++)
      ParticuleE   360        {
      ParticuleE   361            if (AllGameObject[i]->IsActive()) {
      ParticuleE   362                AllGameObject[i]->transform->Update();
      ParticuleE   363            }
      ParticuleE   364        }
      ParticuleE   365        for (int i = 0; i < AllGameObject.Count; i++)
      ParticuleE   366        {
      ParticuleE   367            if (AllGameObject[i]->IsActive()) {
      ParticuleE   368                for (int o = 0; o < AllGameObject[i]->ListOfComponent.Count; o++)
      ParticuleE   369                {
      ParticuleE   370                    AllGameObject[i]->ListOfComponent[o]->OnRenderObject();
      ParticuleE   371                }
      ParticuleE   372            }
      ParticuleE   373        }
      ParticuleE   374    };
      ParticuleE   375    
      ParticuleE   376    void Scene::Start() {
      ParticuleE   377        for (int i = 0; i < AllGameObject.Count; i++)
      ParticuleE   378        {
      ParticuleE   379            if (AllGameObject[i]->IsActive()) {
      ParticuleE   380                for (int o = 0; o < AllGameObject[i]->ListOfComponent.Count; o++)
      ParticuleE   381                {
      ParticuleE   382                    AllGameObject[i]->ListOfComponent[o]->Start();
      ParticuleE   383                }
      ParticuleE   384            }
      ParticuleE   385        }
      ParticuleE   386        for (int i = 0; i < AllGameObject.Count; i++)
      ParticuleE   387        {
      ParticuleE   388            if (AllGameObject[i]->IsActive()) {
      ParticuleE   389                for (int o = 0; o < AllGameObject[i]->ListOfComponent.Count; o++)
      ParticuleE   390                {
      ParticuleE   391                    AllGameObject[i]->ListOfComponent[o]->Awake();
      ParticuleE   392                }
      ParticuleE   393            }
      ParticuleE   394        }
      ParticuleE   395    };
      ParticuleE   396    
      ParticuleE   397    Camera::Camera(GameObject* gameObject, const char* UUID) : Behaviour("Camera", gameObject, UUID) {
      ParticuleE   398        gameObject->scene->AllCameras.Add(this);
      ParticuleE   399    }




SH SERIES C/C++ Compiler (Ver. 6.0C)                                                                 18-Nov-2021 16:33:51  PAGE    9


SCT OFFSET   CODE       C LABEL     INSTRUCTION OPERAND    COMMENT

      ParticuleE   400    
      ParticuleE   401    Image::Image(GameObject* gameObject, Texture* image, const char* UUID) : MonoBehaviour("Image", gameObject
                         +, UUID) {
      ParticuleE   402        this->image = image;
      ParticuleE   403    };
      ParticuleE   404    
      ParticuleE   405    void Image::OnRenderObject() {
      ParticuleE   406        float posX = gameObject->transform->position->x;
      ParticuleE   407        float posY = gameObject->transform->position->y;
      ParticuleE   408        float camX = gameObject->scene->AllCameras[0]->gameObject->transform->position->x;
      ParticuleE   409        float camY = gameObject->scene->AllCameras[0]->gameObject->transform->position->y;
      ParticuleE   410        if (posX - camX + image->height > 0 && posX - camX < 128 && posY - camY + image->height>0 && posY - ca
                         +mY < 64)
      ParticuleE   411            ML_bmp_or_cl((const unsigned char*)image->textureData, (int)(posX - camX), (int)(posY - camY), ima
                         +ge->width, image->height);
      ParticuleE   412    };
      ParticuleE   413    
      ParticuleE   414    Sprite::Sprite(GameObject* gameObject, Texture* image,bool HaveBackground, const char* UUID) : MonoBehavio
                         +ur("Sprite", gameObject, UUID) {
      ParticuleE   415        this->image = image;
      ParticuleE   416        this->HaveBackground = HaveBackground;
      ParticuleE   417    };
      ParticuleE   418    
      ParticuleE   419    void Sprite::OnRenderObject() {
      ParticuleE   420        float posX = gameObject->transform->position->x;
      ParticuleE   421        float posY = gameObject->transform->position->y;
      ParticuleE   422        float camX = gameObject->scene->AllCameras[0]->gameObject->transform->position->x;
      ParticuleE   423        float camY = gameObject->scene->AllCameras[0]->gameObject->transform->position->y;
      ParticuleE   424        if (posX - camX + image->height > 0 && posX - camX < 128 && posY - camY + image->height>0 && posY - ca
                         +mY < 64)
      ParticuleE   425            if (HaveBackground)
      ParticuleE   426                ML_rectangle((int)(posX - camX), (int)(posY - camY), (int)(posX - camX)+image->width, (int)(po
                         +sY - camY)+image->height, 0, ML_WHITE, ML_WHITE);
      ParticuleE   427            ML_bmp_or_cl((const unsigned char*)image->textureData, (int)(posX - camX), (int)(posY - camY), ima
                         +ge->width, image->height);
      ParticuleE   428    };
      ParticuleE   429    
      ParticuleE   430    
      ParticuleE   431    
      ParticuleE   432    Rigidbody::Rigidbody(GameObject* gameObject, float Mass, bool UseGravity, bool IsKinematic, const char* UU
                         +ID) : MonoBehaviour("Rigidbody", gameObject, UUID) {
      ParticuleE   433        this->Mass = Mass;
      ParticuleE   434        this->UseGravity = UseGravity;
      ParticuleE   435        this->IsKinematic = IsKinematic;
      ParticuleE   436        this->velocity = new Vector2();
      ParticuleE   437        this->lastPosition = new Vector2();
      ParticuleE   438    
      ParticuleE   439    };
      ParticuleE   440    
      ParticuleE   441    void Rigidbody::Start() {
      ParticuleE   442        this->velocity->Set(0, 0);
      ParticuleE   443        this->lastPosition->Set(this->gameObject->transform->position);
      ParticuleE   444        this->MyCollider = (Collider2D*)(((BoxCollider2D*)this->gameObject->GetComponent("BoxCollider2D")));
      ParticuleE   445    }
      ParticuleE   446    
      ParticuleE   447    
      ParticuleE   448    bool Rigidbody::CheckCollider() {




SH SERIES C/C++ Compiler (Ver. 6.0C)                                                                 18-Nov-2021 16:33:51  PAGE   10


SCT OFFSET   CODE       C LABEL     INSTRUCTION OPERAND    COMMENT

      ParticuleE   449        if (MyCollider != NULL && gameObject->isStatic && !MyCollider->IsTrigger)
      ParticuleE   450            return false;
      ParticuleE   451        for (int i = 0; i < gameObject->scene->LstColliders.Count; i++) {
      ParticuleE   452            if (MyCollider != gameObject->scene->LstColliders[i] && ((Component*)gameObject->scene->LstCollide
                         +rs[i])->gameObject->IsActive()) {
      ParticuleE   453                if (MyCollider->AreTheyTouching(gameObject->scene->LstColliders[i]))
      ParticuleE   454                    return true;
      ParticuleE   455            }
      ParticuleE   456        }
      ParticuleE   457        return false;
      ParticuleE   458    }
      ParticuleE   459    
      ParticuleE   460    bool Rigidbody::IsVisible() {
      ParticuleE   461        
      ParticuleE   462        float posX = gameObject->transform->position->x;
      ParticuleE   463        float posY = gameObject->transform->position->y;
      ParticuleE   464        float camX = gameObject->scene->AllCameras[0]->gameObject->transform->position->x;
      ParticuleE   465        float camY = gameObject->scene->AllCameras[0]->gameObject->transform->position->y;
      ParticuleE   466        return (posX - camX + (127 * 2) > 0 && posX - camX < (128 * 2) && posY - camY + (63 * 2)>0 && posY - c
                         +amY < (64 * 2));
      ParticuleE   467    }
      ParticuleE   468    
      ParticuleE   469    void Rigidbody::PhysicsCalculator() {
      ParticuleE   470        if (!(UseGravity && IsVisible()))
      ParticuleE   471            return;
      ParticuleE   472    
      ParticuleE   473        if (CheckCollider()) {
      ParticuleE   474            gameObject->transform->position->Set(lastPosition);
      ParticuleE   475        }
      ParticuleE   476        else {
      ParticuleE   477            this->velocity->Set(this->velocity->x - (this->gameObject->scene->sceneManager->projectSettings->G
                         +ravity->x * this->Mass),
      ParticuleE   478                this->velocity->y - (this->gameObject->scene->sceneManager->projectSettings->Gravity->y * this
                         +->Mass));
      ParticuleE   479        }
      ParticuleE   480        gameObject->transform->position->Add(this->velocity->x, -this->velocity->y);
      ParticuleE   481        if (CheckCollider()) {
      ParticuleE   482            int x = 0;
      ParticuleE   483            int y = 0;
      ParticuleE   484            while (y < abs((int)this->velocity->y) || x < abs((int)this->velocity->x))
      ParticuleE   485            {
      ParticuleE   486                if (CheckCollider()) {
      ParticuleE   487                    if (y < abs((int)this->velocity->y))
      ParticuleE   488                        gameObject->transform->position->Add(0, -(abs(this->velocity->y) / this->velocity->y) 
                         +* (-1));
      ParticuleE   489                    if (x < abs((int)this->velocity->x))
      ParticuleE   490                        gameObject->transform->position->Add((abs(this->velocity->x) / this->velocity->x) * (-
                         +1), 0);
      ParticuleE   491                }
      ParticuleE   492                y++;
      ParticuleE   493                x++;
      ParticuleE   494            }
      ParticuleE   495            this->velocity->Set(0, 0);
      ParticuleE   496        }
      ParticuleE   497        this->lastPosition->Set(this->gameObject->transform->position);
      ParticuleE   498    };
      ParticuleE   499    




SH SERIES C/C++ Compiler (Ver. 6.0C)                                                                 18-Nov-2021 16:33:51  PAGE   11


SCT OFFSET   CODE       C LABEL     INSTRUCTION OPERAND    COMMENT

      ParticuleE   500    void Collider2D::Update() {
      ParticuleE   501    
      ParticuleE   502        if (gameObject->isStatic && !IsTrigger)
      ParticuleE   503            return;
      ParticuleE   504        for (int i = 0; i < gameObject->scene->LstColliders.Count; i++) {
      ParticuleE   505            if (this != gameObject->scene->LstColliders[i] && gameObject->scene->LstColliders[i]->gameObject->
                         +IsActive()) {
      ParticuleE   506    
      ParticuleE   507    
      ParticuleE   508                if (AreTheyTouching(gameObject->scene->LstColliders[i])) {
      ParticuleE   509                    // collision détectée !
      ParticuleE   510                    if (Contains(gameObject->scene->LstColliders[i])) {
      ParticuleE   511                        for (int o = 0; o < gameObject->ListOfComponent.Count; o++) {
      ParticuleE   512                            if (gameObject->scene->LstColliders[i]->IsTrigger || IsTrigger)
      ParticuleE   513                                gameObject->ListOfComponent[o]->OnTriggerStay2D(gameObject->scene->LstCollider
                         +s[i]);
      ParticuleE   514                            gameObject->ListOfComponent[o]->OnCollisionStay2D(gameObject->scene->LstColliders[
                         +i]);
      ParticuleE   515                        }
      ParticuleE   516                    }
      ParticuleE   517                    else
      ParticuleE   518                    {
      ParticuleE   519                        LstColliders.Add(gameObject->scene->LstColliders[i]);
      ParticuleE   520                        for (int o = 0; o < gameObject->ListOfComponent.Count; o++) {
      ParticuleE   521                            if (gameObject->scene->LstColliders[i]->IsTrigger || IsTrigger)
      ParticuleE   522                                gameObject->ListOfComponent[o]->OnTriggerEnter2D(gameObject->scene->LstCollide
                         +rs[i]);
      ParticuleE   523                            gameObject->ListOfComponent[o]->OnCollisionEnter2D(gameObject->scene->LstColliders
                         +[i]);
      ParticuleE   524                        }
      ParticuleE   525                    }
      ParticuleE   526    
      ParticuleE   527                }
      ParticuleE   528                else
      ParticuleE   529                {
      ParticuleE   530                    if (Contains(gameObject->scene->LstColliders[i])) {
      ParticuleE   531                        for (int o = 0; o < gameObject->ListOfComponent.Count; o++) {
      ParticuleE   532                            if (gameObject->scene->LstColliders[i]->IsTrigger || IsTrigger)
      ParticuleE   533                                gameObject->ListOfComponent[o]->OnTriggerExit2D(gameObject->scene->LstCollider
                         +s[i]);
      ParticuleE   534                            gameObject->ListOfComponent[o]->OnCollisionExit2D(gameObject->scene->LstColliders[
                         +i]);
      ParticuleE   535                        }
      ParticuleE   536                        for (int o = 0; o < LstColliders.Count; o++) {
      ParticuleE   537                            if (LstColliders[o] == gameObject->scene->LstColliders[i]) {
      ParticuleE   538                                LstColliders.RemoveAt(o);
      ParticuleE   539                            }
      ParticuleE   540                        }
      ParticuleE   541    
      ParticuleE   542                        //LstColliders.Remove(gameObject->scene->LstColliders[i]);
      ParticuleE   543                    }
      ParticuleE   544                }
      ParticuleE   545            }
      ParticuleE   546        }
      ParticuleE   547    };
      ParticuleE   548    
      ParticuleE   549    




SH SERIES C/C++ Compiler (Ver. 6.0C)                                                                 18-Nov-2021 16:33:51  PAGE   12


SCT OFFSET   CODE       C LABEL     INSTRUCTION OPERAND    COMMENT

      ParticuleE   550    BoxCollider2D::BoxCollider2D(GameObject* gameObject, bool IsTrigger, Vector2* center, Vector2* size, const
                         + char* UUID) : Collider2D(gameObject, IsTrigger, UUID) {
      ParticuleE   551        ((Object*)this)->name = "BoxCollider2D";
      ParticuleE   552        this->center = center;
      ParticuleE   553        this->size = size;
      ParticuleE   554        //LstColliders.DeleteAct = false;
      ParticuleE   555    };
      ParticuleE   556    
      ParticuleE   557    bool BoxCollider2D::AreTheyTouching(Collider2D* collider) {
      ParticuleE   558        int x1 = ((Component*)collider)->gameObject->transform->position->x +
      ParticuleE   559            ((BoxCollider2D*)collider)->center->x - (((BoxCollider2D*)collider)->size->x / 2);
      ParticuleE   560        int x2 = ((Component*)collider)->gameObject->transform->position->x +
      ParticuleE   561            ((BoxCollider2D*)collider)->center->x + (((BoxCollider2D*)collider)->size->x / 2);
      ParticuleE   562        int y1 = ((Component*)collider)->gameObject->transform->position->y +
      ParticuleE   563            ((BoxCollider2D*)collider)->center->y - (((BoxCollider2D*)collider)->size->y / 2);
      ParticuleE   564        int y2 = ((Component*)collider)->gameObject->transform->position->y +
      ParticuleE   565            ((BoxCollider2D*)collider)->center->y + (((BoxCollider2D*)collider)->size->y / 2);
      ParticuleE   566        
      ParticuleE   567        int MyX1 = ((Component*)this)->gameObject->transform->position->x + ((BoxCollider2D*)this)->center->x 
                         +- (size->x / 2);
      ParticuleE   568        int MyX2 = ((Component*)this)->gameObject->transform->position->x + ((BoxCollider2D*)this)->center->x 
                         ++ (size->x / 2);
      ParticuleE   569        int MyY1 = ((Component*)this)->gameObject->transform->position->y + ((BoxCollider2D*)this)->center->y 
                         +- (size->y / 2);
      ParticuleE   570        int MyY2 = ((Component*)this)->gameObject->transform->position->y + ((BoxCollider2D*)this)->center->y 
                         ++ (size->y / 2);
      ParticuleE   571        return (x1 < MyX2&&
      ParticuleE   572            x2 > MyX1 &&
      ParticuleE   573            y1 < MyY2&&
      ParticuleE   574            y2 > MyY1);
      ParticuleE   575    }
      ParticuleE   576    
      ParticuleE   577    
      ParticuleE   578    
      ParticuleE   579    
      ParticuleE   580    Text::Text(GameObject* gameObject, unsigned char* text, const char* UUID) : MonoBehaviour("Text", gameObje
                         +ct, UUID) {
      ParticuleE   581        this->text = text;
      ParticuleE   582    
      ParticuleE   583    };
      ParticuleE   584    
      ParticuleE   585    void Text::OnRenderObject() {
      ParticuleE   586        float posX = gameObject->transform->position->x;
      ParticuleE   587        float posY = gameObject->transform->position->y;
      ParticuleE   588        float camX = gameObject->scene->AllCameras[0]->gameObject->transform->position->x;
      ParticuleE   589        float camY = gameObject->scene->AllCameras[0]->gameObject->transform->position->y;
      ParticuleE   590        PrintMini((int)(posX - camX), (int)(posY - camY), (unsigned char*)this->text, MINI_OVER);
      ParticuleE   591    }
      ParticuleE   592    
      ParticuleE   593    Tilemap::Tilemap(GameObject* gameObject, Vector2* sizeTilemap, Vector2* sizeCase, const char* UUID) : Mono
                         +Behaviour("Tilemap", gameObject, UUID) {
      ParticuleE   594        this->sizeTilemap = sizeTilemap;
      ParticuleE   595        this->sizeCase = sizeCase;
      ParticuleE   596    };
      ParticuleE   597    
      ParticuleE   598    
      ParticuleE   599    void Tilemap::OnRenderObject() {




SH SERIES C/C++ Compiler (Ver. 6.0C)                                                                 18-Nov-2021 16:33:51  PAGE   13


SCT OFFSET   CODE       C LABEL     INSTRUCTION OPERAND    COMMENT

      ParticuleE   600        float posX = gameObject->transform->position->x;
      ParticuleE   601        float posY = gameObject->transform->position->y;
      ParticuleE   602        float camX = gameObject->scene->AllCameras[0]->gameObject->transform->position->x;
      ParticuleE   603        float camY = gameObject->scene->AllCameras[0]->gameObject->transform->position->y;
      ParticuleE   604        for (int h = 0; h < sizeTilemap->y; h++) {
      ParticuleE   605            int x = 0;
      ParticuleE   606            for (int w = h * sizeTilemap->x; w < (h + 1) * sizeTilemap->x; w++) {
      ParticuleE   607                int tempx = (int)((posX - camX) + x * sizeCase->x);
      ParticuleE   608                int tempy = (int)((posY - camY) + h * sizeCase->y);
      ParticuleE   609                if (tempx + sizeCase->x > 0 && tempx < 128 && tempy + sizeCase->y>0 && tempy < 64)
      ParticuleE   610                    ML_bmp_or_cl((const unsigned char*)(images[Datas[w]])->textureData, tempx, tempy, (images[
                         +Datas[w]])->width, (images[Datas[w]])->height);
      ParticuleE   611                x++;
      ParticuleE   612            }
      ParticuleE   613        }
      ParticuleE   614    
      ParticuleE   615    };
      ParticuleE   616    
      ParticuleE   617    
      ParticuleE   618    
      ParticuleE   619    
      ParticuleE   620    void SceneManager::LoadScene(int index) {
      ParticuleE   621        for (int i = 0; i < AllSceneLoaded.Count; i++) {
      ParticuleE   622            delete AllSceneLoaded.Pop();
      ParticuleE   623        }
      ParticuleE   624        AllSceneLoaded.Clear();
      ParticuleE   625        AllSceneLoaded.Add(GetSceneInBuild(index));
      ParticuleE   626    };
      ParticuleE   627    void SceneManager::LoadScene(unsigned char* name) {
      ParticuleE   628        AllSceneLoaded.Clear();
      ParticuleE   629        AllSceneLoaded.Add(GetSceneInBuild(name));
      ParticuleE   630    };
      ParticuleE   631    
      ParticuleE   632    GameObject* SceneManager::FindWithName(unsigned char* name) {
      ParticuleE   633        for (int i = 0; i < AllSceneLoaded.Count; i++)
      ParticuleE   634        {
      ParticuleE   635            for (int o = 0; o < AllSceneLoaded[i]->AllGameObject.Count; o++) {
      ParticuleE   636                if (AllSceneLoaded[i]->AllGameObject[o]->name == name) {
      ParticuleE   637                    return AllSceneLoaded[i]->AllGameObject[o];
      ParticuleE   638                }
      ParticuleE   639            }
      ParticuleE   640        }
      ParticuleE   641        return NULL;
      ParticuleE   642    }
      ParticuleE   643    
      ParticuleE   644    
      ParticuleE   645    void SceneManager::UpdateScene() {
      ParticuleE   646        if (LoadSceneAfter > -1) {
      ParticuleE   647            this->LoadScene(LoadSceneAfter);
      ParticuleE   648            this->StartScene();
      ParticuleE   649            LoadSceneAfter = -1;
      ParticuleE   650            return;
      ParticuleE   651        }
      ParticuleE   652        for (int i = 0; i < AllSceneLoaded.Count; i++)
      ParticuleE   653        {
      ParticuleE   654            AllSceneLoaded[i]->Update();
      ParticuleE   655        }




SH SERIES C/C++ Compiler (Ver. 6.0C)                                                                 18-Nov-2021 16:33:51  PAGE   14


SCT OFFSET   CODE       C LABEL     INSTRUCTION OPERAND    COMMENT

      ParticuleE   656    };
      ParticuleE   657    
      ParticuleE   658    void SceneManager::StartScene() {
      ParticuleE   659        for (int i = 0; i < AllSceneLoaded.Count; i++)
      ParticuleE   660        {
      ParticuleE   661            AllSceneLoaded[i]->Start();
      ParticuleE   662        }
      ParticuleE   663    }
      ParticuleE   664    
      ParticuleE   665    
      ParticuleE   666    void LoadScene(Scene* scene, int nb) {
    0000004C              _LoadScene__FP5Scenei:           ; function: LoadScene(Scene *, int)
                                                           ; frame size=0
      ParticuleE   667        scene->sceneManager->LoadSceneAfter = nb;
    0000004C 5244                   MOV.L       @(16,R4),R2
      ParticuleE   668        //scene->sceneManager->LoadScene(nb);
      ParticuleE   669        //scene->sceneManager->StartScene();
      ParticuleE   670    };
    0000004E 000B                   RTS
    00000050 1251                   MOV.L       R5,@(4,R2)
      ParticuleE   671    
      ParticuleE   672    GameObject* FindWithName(unsigned char* name, GameObject* gameObject) {
    00000052              _FindWithName__FPUcP10GameObject:
                                                           ; function: FindWithName(unsigned char *, GameObject *)
                                                           ; frame size=8
    00000052 7FF8                   ADD         #-8,R15
      ParticuleE   673        return gameObject->scene->sceneManager->FindWithName(name);
    00000054 D3A2                   MOV.L       L1969+12,R3; _FindWithName__12SceneManagerFPUc
    00000056 1F41                   MOV.L       R4,@(4,R15)
    00000058 2F52                   MOV.L       R5,@R15
    0000005A 55F1                   MOV.L       @(4,R15),R5
    0000005C 64F2                   MOV.L       @R15,R4
    0000005E 544B                   MOV.L       @(44,R4),R4
    00000060 5444                   MOV.L       @(16,R4),R4
    00000062 432B                   JMP         @R3
    00000064 7F08                   ADD         #8,R15
    00000066              ___ct__7Vector2Fv:               ; function: Vector2::Vector2()
                                                           ; frame size=8
    00000066 6343                   MOV         R4,R3
    00000068 4F22                   STS.L       PR,@-R15
    0000006A 2338                   TST         R3,R3
    0000006C 7FFC                   ADD         #-4,R15
    0000006E 8F06                   BF/S        L1541
    00000070 2F42                   MOV.L       R4,@R15
    00000072 D39C                   MOV.L       L1969+16,R3; ___nw__FUl
    00000074 430B                   JSR         @R3
    00000076 E408                   MOV         #8,R4
    00000078 2008                   TST         R0,R0
    0000007A 8D05                   BT/S        L1540
    0000007C 2F02                   MOV.L       R0,@R15
    0000007E              L1541:                            
    0000007E E300                   MOV         #0,R3
    00000080 62F2                   MOV.L       @R15,R2
    00000082 2232                   MOV.L       R3,@R2
    00000084 62F2                   MOV.L       @R15,R2
    00000086 1231                   MOV.L       R3,@(4,R2)
    00000088              L1540:                            




SH SERIES C/C++ Compiler (Ver. 6.0C)                                                                 18-Nov-2021 16:33:51  PAGE   15


SCT OFFSET   CODE       C LABEL     INSTRUCTION OPERAND    COMMENT

    00000088 60F2                   MOV.L       @R15,R0
    0000008A 7F04                   ADD         #4,R15
    0000008C 4F26                   LDS.L       @R15+,PR
    0000008E 000B                   RTS
    00000090 0009                   NOP
    00000092              ___ct__7Vector2FfT1:             ; function: Vector2::Vector2(float, float)
                                                           ; frame size=16
    00000092 4F22                   STS.L       PR,@-R15
    00000094 7FF4                   ADD         #-12,R15
    00000096 2F42                   MOV.L       R4,@R15
    00000098 1F52                   MOV.L       R5,@(8,R15)
    0000009A 1F61                   MOV.L       R6,@(4,R15)
    0000009C 63F2                   MOV.L       @R15,R3
    0000009E 2338                   TST         R3,R3
    000000A0 8B05                   BF          L1544
    000000A2 D390                   MOV.L       L1969+16,R3; ___nw__FUl
    000000A4 430B                   JSR         @R3
    000000A6 E408                   MOV         #8,R4
    000000A8 2008                   TST         R0,R0
    000000AA 8D06                   BT/S        L1543
    000000AC 2F02                   MOV.L       R0,@R15
    000000AE              L1544:                            
    000000AE 62F2                   MOV.L       @R15,R2
    000000B0 53F2                   MOV.L       @(8,R15),R3
    000000B2 2232                   MOV.L       R3,@R2
    000000B4 62F2                   MOV.L       @R15,R2
    000000B6 53F1                   MOV.L       @(4,R15),R3
    000000B8 1231                   MOV.L       R3,@(4,R2)
    000000BA              L1543:                            
    000000BA 60F2                   MOV.L       @R15,R0
    000000BC 7F0C                   ADD         #12,R15
    000000BE 4F26                   LDS.L       @R15+,PR
    000000C0 000B                   RTS
    000000C2 0009                   NOP
    000000C4              _Set__7Vector2FfT1:              ; function: Vector2::Set(float, float)
                                                           ; frame size=0
    000000C4 2452                   MOV.L       R5,@R4
    000000C6 000B                   RTS
    000000C8 1461                   MOV.L       R6,@(4,R4)
    000000CA              _Set__7Vector2FP7Vector2:        ; function: Vector2::Set(Vector2 *)
                                                           ; frame size=0
    000000CA 6352                   MOV.L       @R5,R3
    000000CC 2432                   MOV.L       R3,@R4
    000000CE 5251                   MOV.L       @(4,R5),R2
    000000D0 000B                   RTS
    000000D2 1421                   MOV.L       R2,@(4,R4)
    000000D4              _Set__7Vector2F7Vector2:         ; function: Vector2::Set(Vector2)
                                                           ; frame size=0
    000000D4 65F3                   MOV         R15,R5
    000000D6 6352                   MOV.L       @R5,R3
    000000D8 2432                   MOV.L       R3,@R4
    000000DA 5251                   MOV.L       @(4,R5),R2
    000000DC 000B                   RTS
    000000DE 1421                   MOV.L       R2,@(4,R4)
    000000E0              _Add__7Vector2FfT1:              ; function: Vector2::Add(float, float)
                                                           ; frame size=4
                                                           ; used runtime library name:




SH SERIES C/C++ Compiler (Ver. 6.0C)                                                                 18-Nov-2021 16:33:51  PAGE   16


SCT OFFSET   CODE       C LABEL     INSTRUCTION OPERAND    COMMENT

                                                           ; __adds
    000000E0 4F22                   STS.L       PR,@-R15
    000000E2 6053                   MOV         R5,R0
    000000E4 D380                   MOV.L       L1969+20,R3; __adds
    000000E6 430B                   JSR         @R3
    000000E8 6142                   MOV.L       @R4,R1
    000000EA 2402                   MOV.L       R0,@R4
    000000EC D27E                   MOV.L       L1969+20,R2; __adds
    000000EE 6063                   MOV         R6,R0
    000000F0 420B                   JSR         @R2
    000000F2 5141                   MOV.L       @(4,R4),R1
    000000F4 4F26                   LDS.L       @R15+,PR
    000000F6 000B                   RTS
    000000F8 1401                   MOV.L       R0,@(4,R4)
    000000FA              _Add__7Vector2FP7Vector2:        ; function: Vector2::Add(Vector2 *)
                                                           ; frame size=4
                                                           ; used runtime library name:
                                                           ; __adds
    000000FA 4F22                   STS.L       PR,@-R15
    000000FC 6052                   MOV.L       @R5,R0
    000000FE D37A                   MOV.L       L1969+20,R3; __adds
    00000100 430B                   JSR         @R3
    00000102 6142                   MOV.L       @R4,R1
    00000104 2402                   MOV.L       R0,@R4
    00000106 5051                   MOV.L       @(4,R5),R0
    00000108 D277                   MOV.L       L1969+20,R2; __adds
    0000010A 420B                   JSR         @R2
    0000010C 5141                   MOV.L       @(4,R4),R1
    0000010E 4F26                   LDS.L       @R15+,PR
    00000110 000B                   RTS
    00000112 1401                   MOV.L       R0,@(4,R4)
    00000114              ___eq__7Vector2FRC7Vector2:      ; function: Vector2::operator ==(const Vector2 &)
                                                           ; frame size=4
                                                           ; used runtime library name:
                                                           ; __nes
    00000114 4F22                   STS.L       PR,@-R15
    00000116 6142                   MOV.L       @R4,R1
    00000118 D374                   MOV.L       L1969+24,R3; __nes
    0000011A 430B                   JSR         @R3
    0000011C 6052                   MOV.L       @R5,R0
    0000011E 8800                   CMP/EQ      #0,R0
    00000120 8B08                   BF          L1551
    00000122 5141                   MOV.L       @(4,R4),R1
    00000124 D271                   MOV.L       L1969+24,R2; __nes
    00000126 420B                   JSR         @R2
    00000128 5051                   MOV.L       @(4,R5),R0
    0000012A 8800                   CMP/EQ      #0,R0
    0000012C 8B02                   BF          L1551
    0000012E 4F26                   LDS.L       @R15+,PR
    00000130 000B                   RTS
    00000132 E001                   MOV         #1,R0
    00000134              L1551:                            
    00000134 E000                   MOV         #0,R0
    00000136              L1553:                            
    00000136 4F26                   LDS.L       @R15+,PR
    00000138 000B                   RTS
    0000013A 0009                   NOP




SH SERIES C/C++ Compiler (Ver. 6.0C)                                                                 18-Nov-2021 16:33:51  PAGE   17


SCT OFFSET   CODE       C LABEL     INSTRUCTION OPERAND    COMMENT

    0000013C              ___ne__7Vector2FRC7Vector2:      ; function: Vector2::operator !=(const Vector2 &)
                                                           ; frame size=4
                                                           ; used runtime library name:
                                                           ; __nes
    0000013C 4F22                   STS.L       PR,@-R15
    0000013E 6142                   MOV.L       @R4,R1
    00000140 D36A                   MOV.L       L1969+24,R3; __nes
    00000142 430B                   JSR         @R3
    00000144 6052                   MOV.L       @R5,R0
    00000146 8800                   CMP/EQ      #0,R0
    00000148 8B08                   BF          L1554
    0000014A 5141                   MOV.L       @(4,R4),R1
    0000014C D267                   MOV.L       L1969+24,R2; __nes
    0000014E 420B                   JSR         @R2
    00000150 5051                   MOV.L       @(4,R5),R0
    00000152 8800                   CMP/EQ      #0,R0
    00000154 8B02                   BF          L1554
    00000156 4F26                   LDS.L       @R15+,PR
    00000158 000B                   RTS
    0000015A E000                   MOV         #0,R0
    0000015C              L1554:                            
    0000015C E001                   MOV         #1,R0
    0000015E              L1556:                            
    0000015E 4F26                   LDS.L       @R15+,PR
    00000160 000B                   RTS
    00000162 0009                   NOP
    00000164              ___pl__7Vector2FRC7Vector2:      ; function: Vector2::operator +(const Vector2 &)
                                                           ; frame size=20
                                                           ; used runtime library name:
                                                           ; __adds, __quick_evn_mvn
    00000164 4F22                   STS.L       PR,@-R15
    00000166 6053                   MOV         R5,R0
    00000168 D35F                   MOV.L       L1969+20,R3; __adds
    0000016A 7FF0                   ADD         #-16,R15
    0000016C 1F41                   MOV.L       R4,@(4,R15)
    0000016E 2F52                   MOV.L       R5,@R15
    00000170 51F1                   MOV.L       @(4,R15),R1
    00000172 5111                   MOV.L       @(4,R1),R1
    00000174 430B                   JSR         @R3
    00000176 5001                   MOV.L       @(4,R0),R0
    00000178 51F1                   MOV.L       @(4,R15),R1
    0000017A 6603                   MOV         R0,R6
    0000017C D35A                   MOV.L       L1969+20,R3; __adds
    0000017E 60F2                   MOV.L       @R15,R0
    00000180 6112                   MOV.L       @R1,R1
    00000182 430B                   JSR         @R3
    00000184 6002                   MOV.L       @R0,R0
    00000186 6503                   MOV         R0,R5
    00000188 64F3                   MOV         R15,R4
    0000018A BF82                   BSR         ___ct__7Vector2FfT1
    0000018C 7408                   ADD         #8,R4
    0000018E 62F3                   MOV         R15,R2
    00000190 D357                   MOV.L       L1969+28,R3; __quick_evn_mvn
    00000192 7208                   ADD         #8,R2
    00000194 51F5                   MOV.L       @(20,R15),R1
    00000196 430B                   JSR         @R3
    00000198 E008                   MOV         #8,R0




SH SERIES C/C++ Compiler (Ver. 6.0C)                                                                 18-Nov-2021 16:33:51  PAGE   18


SCT OFFSET   CODE       C LABEL     INSTRUCTION OPERAND    COMMENT

    0000019A 7F10                   ADD         #16,R15
    0000019C 4F26                   LDS.L       @R15+,PR
    0000019E 000B                   RTS
    000001A0 0009                   NOP
    000001A2              ___mi__7Vector2FRC7Vector2:      ; function: Vector2::operator -(const Vector2 &)
                                                           ; frame size=20
                                                           ; used runtime library name:
                                                           ; __subs, __quick_evn_mvn
    000001A2 6053                   MOV         R5,R0
    000001A4 D353                   MOV.L       L1969+32,R3; __subs
    000001A6 4F22                   STS.L       PR,@-R15
    000001A8 7FF0                   ADD         #-16,R15
    000001AA 1F41                   MOV.L       R4,@(4,R15)
    000001AC 2F52                   MOV.L       R5,@R15
    000001AE 51F1                   MOV.L       @(4,R15),R1
    000001B0 5111                   MOV.L       @(4,R1),R1
    000001B2 430B                   JSR         @R3
    000001B4 5001                   MOV.L       @(4,R0),R0
    000001B6 6603                   MOV         R0,R6
    000001B8 51F1                   MOV.L       @(4,R15),R1
    000001BA 60F2                   MOV.L       @R15,R0
    000001BC 6112                   MOV.L       @R1,R1
    000001BE D34D                   MOV.L       L1969+32,R3; __subs
    000001C0 430B                   JSR         @R3
    000001C2 6002                   MOV.L       @R0,R0
    000001C4 6503                   MOV         R0,R5
    000001C6 64F3                   MOV         R15,R4
    000001C8 BF63                   BSR         ___ct__7Vector2FfT1
    000001CA 7408                   ADD         #8,R4
    000001CC 51F5                   MOV.L       @(20,R15),R1
    000001CE 62F3                   MOV         R15,R2
    000001D0 D347                   MOV.L       L1969+28,R3; __quick_evn_mvn
    000001D2 7208                   ADD         #8,R2
    000001D4 430B                   JSR         @R3
    000001D6 E008                   MOV         #8,R0
    000001D8 7F10                   ADD         #16,R15
    000001DA 4F26                   LDS.L       @R15+,PR
    000001DC 000B                   RTS
    000001DE 0009                   NOP
    000001E0              ___ml__7Vector2FRC7Vector2:      ; function: Vector2::operator *(const Vector2 &)
                                                           ; frame size=20
                                                           ; used runtime library name:
                                                           ; __muls, __quick_evn_mvn
    000001E0 4F22                   STS.L       PR,@-R15
    000001E2 6053                   MOV         R5,R0
    000001E4 D344                   MOV.L       L1969+36,R3; __muls
    000001E6 7FF0                   ADD         #-16,R15
    000001E8 1F41                   MOV.L       R4,@(4,R15)
    000001EA 2F52                   MOV.L       R5,@R15
    000001EC 51F1                   MOV.L       @(4,R15),R1
    000001EE 5111                   MOV.L       @(4,R1),R1
    000001F0 430B                   JSR         @R3
    000001F2 5001                   MOV.L       @(4,R0),R0
    000001F4 51F1                   MOV.L       @(4,R15),R1
    000001F6 6603                   MOV         R0,R6
    000001F8 D33F                   MOV.L       L1969+36,R3; __muls
    000001FA 60F2                   MOV.L       @R15,R0




SH SERIES C/C++ Compiler (Ver. 6.0C)                                                                 18-Nov-2021 16:33:51  PAGE   19


SCT OFFSET   CODE       C LABEL     INSTRUCTION OPERAND    COMMENT

    000001FC 6112                   MOV.L       @R1,R1
    000001FE 430B                   JSR         @R3
    00000200 6002                   MOV.L       @R0,R0
    00000202 6503                   MOV         R0,R5
    00000204 64F3                   MOV         R15,R4
    00000206 BF44                   BSR         ___ct__7Vector2FfT1
    00000208 7408                   ADD         #8,R4
    0000020A 62F3                   MOV         R15,R2
    0000020C D338                   MOV.L       L1969+28,R3; __quick_evn_mvn
    0000020E 7208                   ADD         #8,R2
    00000210 51F5                   MOV.L       @(20,R15),R1
    00000212 430B                   JSR         @R3
    00000214 E008                   MOV         #8,R0
    00000216 7F10                   ADD         #16,R15
    00000218 4F26                   LDS.L       @R15+,PR
    0000021A 000B                   RTS
    0000021C 0009                   NOP
    0000021E              ___dv__7Vector2FRC7Vector2:      ; function: Vector2::operator /(const Vector2 &)
                                                           ; frame size=20
                                                           ; used runtime library name:
                                                           ; __divs, __quick_evn_mvn
    0000021E 6053                   MOV         R5,R0
    00000220 D336                   MOV.L       L1969+40,R3; __divs
    00000222 4F22                   STS.L       PR,@-R15
    00000224 7FF0                   ADD         #-16,R15
    00000226 1F41                   MOV.L       R4,@(4,R15)
    00000228 2F52                   MOV.L       R5,@R15
    0000022A 51F1                   MOV.L       @(4,R15),R1
    0000022C 5111                   MOV.L       @(4,R1),R1
    0000022E 430B                   JSR         @R3
    00000230 5001                   MOV.L       @(4,R0),R0
    00000232 6603                   MOV         R0,R6
    00000234 51F1                   MOV.L       @(4,R15),R1
    00000236 60F2                   MOV.L       @R15,R0
    00000238 6112                   MOV.L       @R1,R1
    0000023A D330                   MOV.L       L1969+40,R3; __divs
    0000023C 430B                   JSR         @R3
    0000023E 6002                   MOV.L       @R0,R0
    00000240 6503                   MOV         R0,R5
    00000242 64F3                   MOV         R15,R4
    00000244 BF25                   BSR         ___ct__7Vector2FfT1
    00000246 7408                   ADD         #8,R4
    00000248 51F5                   MOV.L       @(20,R15),R1
    0000024A 62F3                   MOV         R15,R2
    0000024C D328                   MOV.L       L1969+28,R3; __quick_evn_mvn
    0000024E 7208                   ADD         #8,R2
    00000250 430B                   JSR         @R3
    00000252 E008                   MOV         #8,R0
    00000254 7F10                   ADD         #16,R15
    00000256 4F26                   LDS.L       @R15+,PR
    00000258 000B                   RTS
    0000025A 0009                   NOP
    0000025C              ___ct__6ObjectFPCcT1:            ; function: Object::Object(const char *, const char *)
                                                           ; frame size=16
    0000025C 4F22                   STS.L       PR,@-R15
    0000025E 7FF4                   ADD         #-12,R15
    00000260 2F42                   MOV.L       R4,@R15




SH SERIES C/C++ Compiler (Ver. 6.0C)                                                                 18-Nov-2021 16:33:51  PAGE   20


SCT OFFSET   CODE       C LABEL     INSTRUCTION OPERAND    COMMENT

    00000262 1F52                   MOV.L       R5,@(8,R15)
    00000264 1F61                   MOV.L       R6,@(4,R15)
    00000266 63F2                   MOV.L       @R15,R3
    00000268 2338                   TST         R3,R3
    0000026A 8B05                   BF          L1562
    0000026C D31D                   MOV.L       L1969+16,R3; ___nw__FUl
    0000026E 430B                   JSR         @R3
    00000270 E40C                   MOV         #12,R4
    00000272 2008                   TST         R0,R0
    00000274 8D09                   BT/S        L1561
    00000276 2F02                   MOV.L       R0,@R15
    00000278              L1562:                            
    00000278 62F2                   MOV.L       @R15,R2
    0000027A D321                   MOV.L       L1969+44,R3; __$__vtbl__6Object
    0000027C 1232                   MOV.L       R3,@(8,R2)
    0000027E 62F2                   MOV.L       @R15,R2
    00000280 53F2                   MOV.L       @(8,R15),R3
    00000282 2232                   MOV.L       R3,@R2
    00000284 62F2                   MOV.L       @R15,R2
    00000286 53F1                   MOV.L       @(4,R15),R3
    00000288 1231                   MOV.L       R3,@(4,R2)
    0000028A              L1561:                            
    0000028A 60F2                   MOV.L       @R15,R0
    0000028C 7F0C                   ADD         #12,R15
    0000028E 4F26                   LDS.L       @R15+,PR
    00000290 000B                   RTS
    00000292 0009                   NOP
      ParticuleE   674    };
    00000294              __$__dt__6ObjectFv:              ; function: Object::~Object()
                                                           ; frame size=4
    00000294 2FE6                   MOV.L       R14,@-R15
    00000296 6E43                   MOV         R4,R14
    00000298 2EE8                   TST         R14,R14
    0000029A 8908                   BT          L1566
    0000029C D218                   MOV.L       L1969+44,R2; __$__vtbl__6Object
    0000029E E301                   MOV         #1,R3
    000002A0 1E22                   MOV.L       R2,@(8,R14)
    000002A2 2538                   TST         R3,R5
    000002A4 8903                   BT          L1566
    000002A6 64E3                   MOV         R14,R4
    000002A8 D116                   MOV.L       L1969+48,R1; ___dl__FPv
    000002AA 412B                   JMP         @R1
    000002AC 6EF6                   MOV.L       @R15+,R14
    000002AE              L1566:                            
    000002AE 000B                   RTS
    000002B0 6EF6                   MOV.L       @R15+,R14
    000002B2              _GetInstanceID__6ObjectFv:       ; function: Object::GetInstanceID()
                                                           ; frame size=0
    000002B2 000B                   RTS
    000002B4 5041                   MOV.L       @(4,R4),R0
    000002B6              _ToString__6ObjectFv:            ; function: Object::ToString()
                                                           ; frame size=0
    000002B6 000B                   RTS
    000002B8 6042                   MOV.L       @R4,R0
    000002BA              __$Destroy__6ObjectFv:           ; function: Object::Destroy()
                                                           ; frame size=0
    000002BA 000B                   RTS




SH SERIES C/C++ Compiler (Ver. 6.0C)                                                                 18-Nov-2021 16:33:51  PAGE   21


SCT OFFSET   CODE       C LABEL     INSTRUCTION OPERAND    COMMENT

    000002BC 0009                   NOP
    000002BE              ___eq__6ObjectFRC6Object:        ; function: Object::operator ==(const Object &)
                                                           ; frame size=0
    000002BE 5351                   MOV.L       @(4,R5),R3
    000002C0 5241                   MOV.L       @(4,R4),R2
    000002C2 3230                   CMP/EQ      R3,R2
    000002C4 000B                   RTS
    000002C6 0029                   MOVT        R0
    000002C8              ___ne__6ObjectFRC6Object:        ; function: Object::operator !=(const Object &)
                                                           ; frame size=0
    000002C8 5151                   MOV.L       @(4,R5),R1
    000002CA 5041                   MOV.L       @(4,R4),R0
    000002CC 3010                   CMP/EQ      R1,R0
    000002CE 0029                   MOVT        R0
    000002D0 000B                   RTS
    000002D2 CA01                   XOR         #1,R0
    000002D4              L1969:                            
    000002D4 <00000000>             .DATA.L     _getTicks
    000002D8 <00000000>             .DATA.L     __modls
    000002DC <00000000>             .DATA.L     _strlen
    000002E0 <00000000>             .DATA.L     _FindWithName__12SceneManagerFPUc
    000002E4 <00000000>             .DATA.L     ___nw__FUl
    000002E8 <00000000>             .DATA.L     __adds
    000002EC <00000000>             .DATA.L     __nes
    000002F0 <00000000>             .DATA.L     __quick_evn_mvn
    000002F4 <00000000>             .DATA.L     __subs
    000002F8 <00000000>             .DATA.L     __muls
    000002FC <00000000>             .DATA.L     __divs
    00000300 <00000000>             .DATA.L     __$__vtbl__6Object
    00000304 <00000000>             .DATA.L     ___dl__FPv
    00000308              ___ct__9ComponentFPCcP10GameObjectT1:
                                                           ; function: Component::Component(const char *, GameObject *, const char *
                        +                                  )
                                                           ; frame size=20
    00000308 4F22                   STS.L       PR,@-R15
    0000030A 7FF0                   ADD         #-16,R15
    0000030C 2F42                   MOV.L       R4,@R15
    0000030E 1F52                   MOV.L       R5,@(8,R15)
    00000310 1F61                   MOV.L       R6,@(4,R15)
    00000312 1F73                   MOV.L       R7,@(12,R15)
    00000314 63F2                   MOV.L       @R15,R3
    00000316 2338                   TST         R3,R3
    00000318 8B05                   BF          L1573
    0000031A D38A                   MOV.L       L1970,R3   ; ___nw__FUl
    0000031C 430B                   JSR         @R3
    0000031E E410                   MOV         #16,R4
    00000320 2008                   TST         R0,R0
    00000322 8D0A                   BT/S        L1572
    00000324 2F02                   MOV.L       R0,@R15
    00000326              L1573:                            
    00000326 56F3                   MOV.L       @(12,R15),R6
    00000328 55F2                   MOV.L       @(8,R15),R5
    0000032A BF97                   BSR         ___ct__6ObjectFPCcT1
    0000032C 64F2                   MOV.L       @R15,R4
    0000032E 62F2                   MOV.L       @R15,R2
    00000330 D385                   MOV.L       L1970+4,R3 ; __$__vtbl__9Component
    00000332 1232                   MOV.L       R3,@(8,R2)




SH SERIES C/C++ Compiler (Ver. 6.0C)                                                                 18-Nov-2021 16:33:51  PAGE   22


SCT OFFSET   CODE       C LABEL     INSTRUCTION OPERAND    COMMENT

    00000334 62F2                   MOV.L       @R15,R2
    00000336 53F1                   MOV.L       @(4,R15),R3
    00000338 1233                   MOV.L       R3,@(12,R2)
    0000033A              L1572:                            
    0000033A 60F2                   MOV.L       @R15,R0
    0000033C 7F10                   ADD         #16,R15
    0000033E 4F26                   LDS.L       @R15+,PR
    00000340 000B                   RTS
    00000342 0009                   NOP
    00000344              __$__dt__9ComponentFv:           ; function: Component::~Component()
                                                           ; frame size=4
    00000344 2FE6                   MOV.L       R14,@-R15
    00000346 6E43                   MOV         R4,R14
    00000348 2EE8                   TST         R14,R14
    0000034A 8909                   BT          L1577
    0000034C D27E                   MOV.L       L1970+4,R2 ; __$__vtbl__9Component
    0000034E D37F                   MOV.L       L1970+8,R3 ; __$__vtbl__6Object
    00000350 1E32                   MOV.L       R3,@(8,R14)
    00000352 E201                   MOV         #1,R2
    00000354 2528                   TST         R2,R5
    00000356 8903                   BT          L1577
    00000358 D17D                   MOV.L       L1970+12,R1; ___dl__FPv
    0000035A 64E3                   MOV         R14,R4
    0000035C 412B                   JMP         @R1
    0000035E 6EF6                   MOV.L       @R15+,R14
    00000360              L1577:                            
    00000360 000B                   RTS
    00000362 6EF6                   MOV.L       @R15+,R14
    00000364              __$PhysicsCalculator__9ComponentFv:
                                                           ; function: Component::PhysicsCalculator()
                                                           ; frame size=0
    00000364 000B                   RTS
    00000366 0009                   NOP
    00000368              __$Awake__9ComponentFv:          ; function: Component::Awake()
                                                           ; frame size=0
    00000368 000B                   RTS
    0000036A 0009                   NOP
    0000036C              __$FixedUpdate__9ComponentFv:    ; function: Component::FixedUpdate()
                                                           ; frame size=0
    0000036C 000B                   RTS
    0000036E 0009                   NOP
    00000370              __$LateUpdate__9ComponentFv:     ; function: Component::LateUpdate()
                                                           ; frame size=0
    00000370 000B                   RTS
    00000372 0009                   NOP
    00000374              __$OnCollisionEnter2D__9ComponentFP10Collider2D:
                                                           ; function: Component::OnCollisionEnter2D(Collider2D *)
                                                           ; frame size=0
    00000374 000B                   RTS
    00000376 0009                   NOP
    00000378              __$OnCollisionExit2D__9ComponentFP10Collider2D:
                                                           ; function: Component::OnCollisionExit2D(Collider2D *)
                                                           ; frame size=0
    00000378 000B                   RTS
    0000037A 0009                   NOP
    0000037C              __$OnCollisionStay2D__9ComponentFP10Collider2D:
                                                           ; function: Component::OnCollisionStay2D(Collider2D *)




SH SERIES C/C++ Compiler (Ver. 6.0C)                                                                 18-Nov-2021 16:33:51  PAGE   23


SCT OFFSET   CODE       C LABEL     INSTRUCTION OPERAND    COMMENT

                                                           ; frame size=0
    0000037C 000B                   RTS
    0000037E 0009                   NOP
    00000380              __$OnControllerColliderHit__9ComponentFv:
                                                           ; function: Component::OnControllerColliderHit()
                                                           ; frame size=0
    00000380 000B                   RTS
    00000382 0009                   NOP
    00000384              __$OnDestroy__9ComponentFv:      ; function: Component::OnDestroy()
                                                           ; frame size=0
    00000384 000B                   RTS
    00000386 0009                   NOP
    00000388              __$OnDisable__9ComponentFv:      ; function: Component::OnDisable()
                                                           ; frame size=0
    00000388 000B                   RTS
    0000038A 0009                   NOP
    0000038C              __$OnEnable__9ComponentFv:       ; function: Component::OnEnable()
                                                           ; frame size=0
    0000038C 000B                   RTS
    0000038E 0009                   NOP
    00000390              __$OnGUI__9ComponentFv:          ; function: Component::OnGUI()
                                                           ; frame size=0
    00000390 000B                   RTS
    00000392 0009                   NOP
    00000394              __$OnRenderObject__9ComponentFv: ; function: Component::OnRenderObject()
                                                           ; frame size=0
    00000394 000B                   RTS
    00000396 0009                   NOP
    00000398              __$OnTriggerEnter2D__9ComponentFP10Collider2D:
                                                           ; function: Component::OnTriggerEnter2D(Collider2D *)
                                                           ; frame size=0
    00000398 000B                   RTS
    0000039A 0009                   NOP
    0000039C              __$OnTriggerExit2D__9ComponentFP10Collider2D:
                                                           ; function: Component::OnTriggerExit2D(Collider2D *)
                                                           ; frame size=0
    0000039C 000B                   RTS
    0000039E 0009                   NOP
    000003A0              __$OnTriggerStay2D__9ComponentFP10Collider2D:
                                                           ; function: Component::OnTriggerStay2D(Collider2D *)
                                                           ; frame size=0
    000003A0 000B                   RTS
    000003A2 0009                   NOP
    000003A4              __$OnValidate__9ComponentFv:     ; function: Component::OnValidate()
                                                           ; frame size=0
    000003A4 000B                   RTS
    000003A6 0009                   NOP
    000003A8              __$Reset__9ComponentFv:          ; function: Component::Reset()
                                                           ; frame size=0
    000003A8 000B                   RTS
    000003AA 0009                   NOP
    000003AC              __$Start__9ComponentFv:          ; function: Component::Start()
                                                           ; frame size=0
    000003AC 000B                   RTS
    000003AE 0009                   NOP
    000003B0              __$Update__9ComponentFv:         ; function: Component::Update()
                                                           ; frame size=0




SH SERIES C/C++ Compiler (Ver. 6.0C)                                                                 18-Nov-2021 16:33:51  PAGE   24


SCT OFFSET   CODE       C LABEL     INSTRUCTION OPERAND    COMMENT

    000003B0 000B                   RTS
    000003B2 0009                   NOP
    000003B4              ___ct__9TransformFP10GameObjectPCcT2:
                                                           ; function: Transform::Transform(GameObject *, const char *, const char *
                        +                                  )
                                                           ; frame size=28
    000003B4 2FE6                   MOV.L       R14,@-R15
    000003B6 2F86                   MOV.L       R8,@-R15
    000003B8 4F22                   STS.L       PR,@-R15
    000003BA 7FF0                   ADD         #-16,R15
    000003BC 2F42                   MOV.L       R4,@R15
    000003BE 1F51                   MOV.L       R5,@(4,R15)
    000003C0 1F63                   MOV.L       R6,@(12,R15)
    000003C2 1F72                   MOV.L       R7,@(8,R15)
    000003C4 63F2                   MOV.L       @R15,R3
    000003C6 2338                   TST         R3,R3
    000003C8 8B05                   BF          L1599
    000003CA D35E                   MOV.L       L1970,R3   ; ___nw__FUl
    000003CC 430B                   JSR         @R3
    000003CE E444                   MOV         #68,R4
    000003D0 2008                   TST         R0,R0
    000003D2 8D32                   BT/S        L1598
    000003D4 2F02                   MOV.L       R0,@R15
    000003D6              L1599:                            
    000003D6 57F3                   MOV.L       @(12,R15),R7
    000003D8 56F1                   MOV.L       @(4,R15),R6
    000003DA 55F2                   MOV.L       @(8,R15),R5
    000003DC BF94                   BSR         ___ct__9ComponentFPCcP10GameObjectT1
    000003DE 64F2                   MOV.L       @R15,R4
    000003E0 62F2                   MOV.L       @R15,R2
    000003E2 EE00                   MOV         #0,R14
    000003E4 D35B                   MOV.L       L1970+16,R3; ___vtbl__9Transform
    000003E6 1232                   MOV.L       R3,@(8,R2)
    000003E8 62F2                   MOV.L       @R15,R2
    000003EA E301                   MOV         #1,R3
    000003EC 1237                   MOV.L       R3,@(28,R2)
    000003EE 62F2                   MOV.L       @R15,R2
    000003F0 12E8                   MOV.L       R14,@(32,R2)
    000003F2 63F2                   MOV.L       @R15,R3
    000003F4 13E5                   MOV.L       R14,@(20,R3)
    000003F6 63F2                   MOV.L       @R15,R3
    000003F8 13E6                   MOV.L       R14,@(24,R3)
    000003FA 63F2                   MOV.L       @R15,R3
    000003FC 13E9                   MOV.L       R14,@(36,R3)
    000003FE 63F2                   MOV.L       @R15,R3
    00000400 13EA                   MOV.L       R14,@(40,R3)
    00000402 63F2                   MOV.L       @R15,R3
    00000404 13EB                   MOV.L       R14,@(44,R3)
    00000406 63F2                   MOV.L       @R15,R3
    00000408 13EC                   MOV.L       R14,@(48,R3)
    0000040A 68F2                   MOV.L       @R15,R8
    0000040C 7834                   ADD         #52,R8
    0000040E BE2A                   BSR         ___ct__7Vector2Fv
    00000410 64E3                   MOV         R14,R4
    00000412 2802                   MOV.L       R0,@R8
    00000414 68F2                   MOV.L       @R15,R8
    00000416 7838                   ADD         #56,R8




SH SERIES C/C++ Compiler (Ver. 6.0C)                                                                 18-Nov-2021 16:33:51  PAGE   25


SCT OFFSET   CODE       C LABEL     INSTRUCTION OPERAND    COMMENT

    00000418 D64F                   MOV.L       L1970+20,R6; H'3F800000
    0000041A 6563                   MOV         R6,R5
    0000041C BE39                   BSR         ___ct__7Vector2FfT1
    0000041E 64E3                   MOV         R14,R4
    00000420 2802                   MOV.L       R0,@R8
    00000422 63F2                   MOV.L       @R15,R3
    00000424 13EF                   MOV.L       R14,@(60,R3)
    00000426 68F2                   MOV.L       @R15,R8
    00000428 7840                   ADD         #64,R8
    0000042A BE1C                   BSR         ___ct__7Vector2Fv
    0000042C 64E3                   MOV         R14,R4
    0000042E 2802                   MOV.L       R0,@R8
    00000430 68F2                   MOV.L       @R15,R8
    00000432 7810                   ADD         #16,R8
    00000434 BE17                   BSR         ___ct__7Vector2Fv
    00000436 64E3                   MOV         R14,R4
    00000438 2802                   MOV.L       R0,@R8
    0000043A              L1598:                            
    0000043A 60F2                   MOV.L       @R15,R0
    0000043C 7F10                   ADD         #16,R15
    0000043E 4F26                   LDS.L       @R15+,PR
    00000440 68F6                   MOV.L       @R15+,R8
    00000442 000B                   RTS
    00000444 6EF6                   MOV.L       @R15+,R14
    00000446              __$__dt__9TransformFv:           ; function: Transform::~Transform()
                                                           ; frame size=16
    00000446 2FE6                   MOV.L       R14,@-R15
    00000448 2FD6                   MOV.L       R13,@-R15
    0000044A 6E43                   MOV         R4,R14
    0000044C 4F22                   STS.L       PR,@-R15
    0000044E 2EE8                   TST         R14,R14
    00000450 7FFC                   ADD         #-4,R15
    00000452 8D12                   BT/S        L1603
    00000454 2F52                   MOV.L       R5,@R15
    00000456 D23F                   MOV.L       L1970+16,R2; ___vtbl__9Transform
    00000458 DD3D                   MOV.L       L1970+12,R13; ___dl__FPv
    0000045A 1E22                   MOV.L       R2,@(8,R14)
    0000045C 4D0B                   JSR         @R13
    0000045E 54E4                   MOV.L       @(16,R14),R4
    00000460 4D0B                   JSR         @R13
    00000462 54ED                   MOV.L       @(52,R14),R4
    00000464 E040                   MOV         #64,R0
    00000466 4D0B                   JSR         @R13
    00000468 04EE                   MOV.L       @(R0,R14),R4
    0000046A D337                   MOV.L       L1970+4,R3 ; __$__vtbl__9Component
    0000046C D237                   MOV.L       L1970+8,R2 ; __$__vtbl__6Object
    0000046E 1E22                   MOV.L       R2,@(8,R14)
    00000470 60F2                   MOV.L       @R15,R0
    00000472 C801                   TST         #1,R0
    00000474 8901                   BT          L1603
    00000476 4D0B                   JSR         @R13
    00000478 64E3                   MOV         R14,R4
    0000047A              L1603:                            
    0000047A 7F04                   ADD         #4,R15
    0000047C 4F26                   LDS.L       @R15+,PR
    0000047E 6DF6                   MOV.L       @R15+,R13
    00000480 000B                   RTS




SH SERIES C/C++ Compiler (Ver. 6.0C)                                                                 18-Nov-2021 16:33:51  PAGE   26


SCT OFFSET   CODE       C LABEL     INSTRUCTION OPERAND    COMMENT

    00000482 6EF6                   MOV.L       @R15+,R14
    00000484              _SetParent__9TransformFP9Transform:
                                                           ; function: Transform::SetParent(Transform *)
                                                           ; frame size=16
    00000484 2FE6                   MOV.L       R14,@-R15
    00000486 2FD6                   MOV.L       R13,@-R15
    00000488 2FC6                   MOV.L       R12,@-R15
    0000048A 6D43                   MOV         R4,R13
    0000048C 4F22                   STS.L       PR,@-R15
    0000048E 53DF                   MOV.L       @(60,R13),R3
    00000490 2338                   TST         R3,R3
    00000492 8D04                   BT/S        L1604
    00000494 6E53                   MOV         R5,R14
    00000496 65D3                   MOV         R13,R5
    00000498 54DF                   MOV.L       @(60,R13),R4
    0000049A B0C6                   BSR         __$Remove__24List__tm__12_P9TransformFZ1Z_Z1Z
    0000049C 7414                   ADD         #20,R4
    0000049E              L1604:                            
    0000049E D229                   MOV.L       L1970,R2   ; ___nw__FUl
    000004A0 420B                   JSR         @R2
    000004A2 E40C                   MOV         #12,R4
    000004A4 2008                   TST         R0,R0
    000004A6 8D06                   BT/S        L1605
    000004A8 6C03                   MOV         R0,R12
    000004AA E50C                   MOV         #12,R5
    000004AC D22B                   MOV.L       L1970+24,R2; ___memzero
    000004AE 420B                   JSR         @R2
    000004B0 64C3                   MOV         R12,R4
    000004B2 A001                   BRA         L1606
    000004B4 64C3                   MOV         R12,R4
    000004B6              L1605:                            
    000004B6 E400                   MOV         #0,R4
    000004B8              L1606:                            
    000004B8 24D2                   MOV.L       R13,@R4
    000004BA 52E8                   MOV.L       @(32,R14),R2
    000004BC 7201                   ADD         #1,R2
    000004BE 1E28                   MOV.L       R2,@(32,R14)
    000004C0 53E5                   MOV.L       @(20,R14),R3
    000004C2 2338                   TST         R3,R3
    000004C4 8B01                   BF          L1607
    000004C6 A004                   BRA         L1381
    000004C8 1E45                   MOV.L       R4,@(20,R14)
    000004CA              L1607:                            
    000004CA 53E6                   MOV.L       @(24,R14),R3
    000004CC 1432                   MOV.L       R3,@(8,R4)
    000004CE 52E6                   MOV.L       @(24,R14),R2
    000004D0 1241                   MOV.L       R4,@(4,R2)
    000004D2              L1381:
    000004D2 1E46                   MOV.L       R4,@(24,R14)
    000004D4 1DEF                   MOV.L       R14,@(60,R13)
    000004D6 4F26                   LDS.L       @R15+,PR
    000004D8 6CF6                   MOV.L       @R15+,R12
    000004DA 6DF6                   MOV.L       @R15+,R13
    000004DC 000B                   RTS
    000004DE 6EF6                   MOV.L       @R15+,R14
    000004E0              _Start__9TransformFv:            ; function: Transform::Start()
                                                           ; frame size=0




SH SERIES C/C++ Compiler (Ver. 6.0C)                                                                 18-Nov-2021 16:33:51  PAGE   27


SCT OFFSET   CODE       C LABEL     INSTRUCTION OPERAND    COMMENT

    000004E0 5344                   MOV.L       @(16,R4),R3
    000004E2 E040                   MOV         #64,R0
    000004E4 024E                   MOV.L       @(R0,R4),R2
    000004E6 6122                   MOV.L       @R2,R1
    000004E8 2312                   MOV.L       R1,@R3
    000004EA 5344                   MOV.L       @(16,R4),R3
    000004EC 024E                   MOV.L       @(R0,R4),R2
    000004EE 5121                   MOV.L       @(4,R2),R1
    000004F0 000B                   RTS
    000004F2 1311                   MOV.L       R1,@(4,R3)
    000004F4              _Update__9TransformFv:           ; function: Transform::Update()
                                                           ; frame size=36
    000004F4 2FE6                   MOV.L       R14,@-R15
    000004F6 6E43                   MOV         R4,R14
    000004F8 4F22                   STS.L       PR,@-R15
    000004FA 7FF0                   ADD         #-16,R15
    000004FC 53E8                   MOV.L       @(32,R14),R3
    000004FE 1E39                   MOV.L       R3,@(36,R14)
    00000500 52EF                   MOV.L       @(60,R14),R2
    00000502 2228                   TST         R2,R2
    00000504 8B2C                   BF          L1611
    00000506 E040                   MOV         #64,R0
    00000508 55ED                   MOV.L       @(52,R14),R5
    0000050A BE17                   BSR         ___ne__7Vector2FRC7Vector2
    0000050C 04EE                   MOV.L       @(R0,R14),R4
    0000050E 2008                   TST         R0,R0
    00000510 890D                   BT          L1612
    00000512 55E4                   MOV.L       @(16,R14),R5
    00000514 BE12                   BSR         ___ne__7Vector2FRC7Vector2
    00000516 54ED                   MOV.L       @(52,R14),R4
    00000518 2008                   TST         R0,R0
    0000051A 8908                   BT          L1612
    0000051C 52ED                   MOV.L       @(52,R14),R2
    0000051E E040                   MOV         #64,R0
    00000520 6122                   MOV.L       @R2,R1
    00000522 03EE                   MOV.L       @(R0,R14),R3
    00000524 2312                   MOV.L       R1,@R3
    00000526 03EE                   MOV.L       @(R0,R14),R3
    00000528 52ED                   MOV.L       @(52,R14),R2
    0000052A 5121                   MOV.L       @(4,R2),R1
    0000052C 1311                   MOV.L       R1,@(4,R3)
    0000052E              L1612:                            
    0000052E E040                   MOV         #64,R0
    00000530 53ED                   MOV.L       @(52,R14),R3
    00000532 02EE                   MOV.L       @(R0,R14),R2
    00000534 6122                   MOV.L       @R2,R1
    00000536 2312                   MOV.L       R1,@R3
    00000538 53ED                   MOV.L       @(52,R14),R3
    0000053A 02EE                   MOV.L       @(R0,R14),R2
    0000053C 5121                   MOV.L       @(4,R2),R1
    0000053E 1311                   MOV.L       R1,@(4,R3)
    00000540 A042                   BRA         L1614
    00000542 0009                   NOP
    00000544              L1970:                            
    00000544 <00000000>             .DATA.L     ___nw__FUl
    00000548 <00000000>             .DATA.L     __$__vtbl__9Component
    0000054C <00000000>             .DATA.L     __$__vtbl__6Object




SH SERIES C/C++ Compiler (Ver. 6.0C)                                                                 18-Nov-2021 16:33:51  PAGE   28


SCT OFFSET   CODE       C LABEL     INSTRUCTION OPERAND    COMMENT

    00000550 <00000000>             .DATA.L     ___dl__FPv
    00000554 <00000000>             .DATA.L     ___vtbl__9Transform
    00000558 3F800000               .DATA.L     H'3F800000
    0000055C <00000000>             .DATA.L     ___memzero
    00000560              L1611:                            
    00000560 55E4                   MOV.L       @(16,R14),R5
    00000562 E040                   MOV         #64,R0
    00000564 BDEA                   BSR         ___ne__7Vector2FRC7Vector2
    00000566 04EE                   MOV.L       @(R0,R14),R4
    00000568 2008                   TST         R0,R0
    0000056A 8921                   BT          L1615
    0000056C 55EF                   MOV.L       @(60,R14),R5
    0000056E E040                   MOV         #64,R0
    00000570 54ED                   MOV.L       @(52,R14),R4
    00000572 63F3                   MOV         R15,R3
    00000574 055E                   MOV.L       @(R0,R5),R5
    00000576 7308                   ADD         #8,R3
    00000578 BDF4                   BSR         ___pl__7Vector2FRC7Vector2
    0000057A 2F36                   MOV.L       R3,@-R15
    0000057C 7F04                   ADD         #4,R15
    0000057E 65F3                   MOV         R15,R5
    00000580 7508                   ADD         #8,R5
    00000582 E040                   MOV         #64,R0
    00000584 BDC6                   BSR         ___eq__7Vector2FRC7Vector2
    00000586 04EE                   MOV.L       @(R0,R14),R4
    00000588 2008                   TST         R0,R0
    0000058A 8911                   BT          L1615
    0000058C 7FF8                   ADD         #-8,R15
    0000058E E040                   MOV         #64,R0
    00000590 54E4                   MOV.L       @(16,R14),R4
    00000592 63F3                   MOV         R15,R3
    00000594 05EE                   MOV.L       @(R0,R14),R5
    00000596 7308                   ADD         #8,R3
    00000598 BE03                   BSR         ___mi__7Vector2FRC7Vector2
    0000059A 2F36                   MOV.L       R3,@-R15
    0000059C 7F04                   ADD         #4,R15
    0000059E 65F3                   MOV         R15,R5
    000005A0 54ED                   MOV.L       @(52,R14),R4
    000005A2 7508                   ADD         #8,R5
    000005A4 BDDE                   BSR         ___pl__7Vector2FRC7Vector2
    000005A6 2FF6                   MOV.L       R15,@-R15
    000005A8 7F04                   ADD         #4,R15
    000005AA BD93                   BSR         _Set__7Vector2F7Vector2
    000005AC 54ED                   MOV.L       @(52,R14),R4
    000005AE 7F08                   ADD         #8,R15
    000005B0              L1615:                            
    000005B0 7FF8                   ADD         #-8,R15
    000005B2 E040                   MOV         #64,R0
    000005B4 54ED                   MOV.L       @(52,R14),R4
    000005B6 55EF                   MOV.L       @(60,R14),R5
    000005B8 055E                   MOV.L       @(R0,R5),R5
    000005BA BDD3                   BSR         ___pl__7Vector2FRC7Vector2
    000005BC 2FF6                   MOV.L       R15,@-R15
    000005BE 7F04                   ADD         #4,R15
    000005C0 E040                   MOV         #64,R0
    000005C2 BD87                   BSR         _Set__7Vector2F7Vector2
    000005C4 04EE                   MOV.L       @(R0,R14),R4




SH SERIES C/C++ Compiler (Ver. 6.0C)                                                                 18-Nov-2021 16:33:51  PAGE   29


SCT OFFSET   CODE       C LABEL     INSTRUCTION OPERAND    COMMENT

    000005C6 7F08                   ADD         #8,R15
    000005C8              L1614:                            
    000005C8 52E4                   MOV.L       @(16,R14),R2
    000005CA E040                   MOV         #64,R0
    000005CC 03EE                   MOV.L       @(R0,R14),R3
    000005CE 6132                   MOV.L       @R3,R1
    000005D0 2212                   MOV.L       R1,@R2
    000005D2 53E4                   MOV.L       @(16,R14),R3
    000005D4 02EE                   MOV.L       @(R0,R14),R2
    000005D6 5121                   MOV.L       @(4,R2),R1
    000005D8 1311                   MOV.L       R1,@(4,R3)
    000005DA 7F10                   ADD         #16,R15
    000005DC 4F26                   LDS.L       @R15+,PR
    000005DE 000B                   RTS
    000005E0 6EF6                   MOV.L       @R15+,R14
    000005E2              __$get_node__24List__tm__12_P9TransformFi_P15Node__tm__4_Z1Z:
                                                           ; function: Node<T1> *List<T1>::get_node(int) [with T1=Transform *]
                                                           ; frame size=0
    000005E2 E700                   MOV         #0,R7
    000005E4 A002                   BRA         L1617
    000005E6 6642                   MOV.L       @R4,R6
    000005E8              L1618:                            
    000005E8 5661                   MOV.L       @(4,R6),R6
    000005EA 7701                   ADD         #1,R7
    000005EC              L1617:                            
    000005EC 2668                   TST         R6,R6
    000005EE 8901                   BT          L1619
    000005F0 3750                   CMP/EQ      R5,R7
    000005F2 8BF9                   BF          L1618
    000005F4              L1619:                            
    000005F4 000B                   RTS
    000005F6 6063                   MOV         R6,R0
    000005F8              __$prepop__24List__tm__12_P9TransformFv_Z1Z:
                                                           ; function: T1 List<T1>::prepop() [with T1=Transform *]
                                                           ; frame size=0
    000005F8 6342                   MOV.L       @R4,R3
    000005FA 2338                   TST         R3,R3
    000005FC 8B01                   BF          L1621
    000005FE 000B                   RTS
    00000600 E000                   MOV         #0,R0
    00000602              L1621:                            
    00000602 6642                   MOV.L       @R4,R6
    00000604 5341                   MOV.L       @(4,R4),R3
    00000606 6762                   MOV.L       @R6,R7
    00000608 3630                   CMP/EQ      R3,R6
    0000060A 8F03                   BF/S        L1623
    0000060C E500                   MOV         #0,R5
    0000060E 2452                   MOV.L       R5,@R4
    00000610 A005                   BRA         L1624
    00000612 1451                   MOV.L       R5,@(4,R4)
    00000614              L1623:                            
    00000614 6242                   MOV.L       @R4,R2
    00000616 5321                   MOV.L       @(4,R2),R3
    00000618 2432                   MOV.L       R3,@R4
    0000061A 6233                   MOV         R3,R2
    0000061C 1252                   MOV.L       R5,@(8,R2)
    0000061E              L1624:                            




SH SERIES C/C++ Compiler (Ver. 6.0C)                                                                 18-Nov-2021 16:33:51  PAGE   30


SCT OFFSET   CODE       C LABEL     INSTRUCTION OPERAND    COMMENT

    0000061E 6073                   MOV         R7,R0
    00000620 5343                   MOV.L       @(12,R4),R3
    00000622 73FF                   ADD         #-1,R3
    00000624 1433                   MOV.L       R3,@(12,R4)
    00000626              L1622:                            
    00000626 000B                   RTS
    00000628 0009                   NOP
    0000062A              __$Remove__24List__tm__12_P9TransformFZ1Z_Z1Z:
                                                           ; function: T1 List<T1>::Remove(T1) [with T1=Transform *]
                                                           ; frame size=12
    0000062A 2FE6                   MOV.L       R14,@-R15
    0000062C 4F22                   STS.L       PR,@-R15
    0000062E 7FFC                   ADD         #-4,R15
    00000630 B043                   BSR         __$IndexOf__24List__tm__12_P9TransformFZ1Z_i
    00000632 6E43                   MOV         R4,R14
    00000634 6503                   MOV         R0,R5
    00000636 4511                   CMP/PZ      R5
    00000638 8B0B                   BF          L1382
    0000063A 2558                   TST         R5,R5
    0000063C 8B04                   BF          L1627
    0000063E 64E3                   MOV         R14,R4
    00000640 7F04                   ADD         #4,R15
    00000642 4F26                   LDS.L       @R15+,PR
    00000644 AFD8                   BRA         __$prepop__24List__tm__12_P9TransformFv_Z1Z
    00000646 6EF6                   MOV.L       @R15+,R14
    00000648              L1627:                            
    00000648 BFCB                   BSR         __$get_node__24List__tm__12_P9TransformFi_P15Node__tm__4_Z1Z
    0000064A 64E3                   MOV         R14,R4
    0000064C 6403                   MOV         R0,R4
    0000064E 2448                   TST         R4,R4
    00000650 8B04                   BF          L1628
    00000652              L1382:
    00000652 E000                   MOV         #0,R0
    00000654 7F04                   ADD         #4,R15
    00000656 4F26                   LDS.L       @R15+,PR
    00000658 000B                   RTS
    0000065A 6EF6                   MOV.L       @R15+,R14
    0000065C              L1628:                            
    0000065C 5241                   MOV.L       @(4,R4),R2
    0000065E 2228                   TST         R2,R2
    00000660 8B15                   BF          L1629
    00000662 54E1                   MOV.L       @(4,R14),R4
    00000664 63E2                   MOV.L       @R14,R3
    00000666 3340                   CMP/EQ      R4,R3
    00000668 8F04                   BF/S        L1630
    0000066A 6542                   MOV.L       @R4,R5
    0000066C E000                   MOV         #0,R0
    0000066E 2E02                   MOV.L       R0,@R14
    00000670 A005                   BRA         L1631
    00000672 1E01                   MOV.L       R0,@(4,R14)
    00000674              L1630:                            
    00000674 50E1                   MOV.L       @(4,R14),R0
    00000676 E300                   MOV         #0,R3
    00000678 5002                   MOV.L       @(8,R0),R0
    0000067A 1E01                   MOV.L       R0,@(4,R14)
    0000067C 1031                   MOV.L       R3,@(4,R0)
    0000067E              L1631:                            




SH SERIES C/C++ Compiler (Ver. 6.0C)                                                                 18-Nov-2021 16:33:51  PAGE   31


SCT OFFSET   CODE       C LABEL     INSTRUCTION OPERAND    COMMENT

    0000067E 50E3                   MOV.L       @(12,R14),R0
    00000680 70FF                   ADD         #-1,R0
    00000682 1E03                   MOV.L       R0,@(12,R14)
    00000684 6053                   MOV         R5,R0
    00000686 7F04                   ADD         #4,R15
    00000688 4F26                   LDS.L       @R15+,PR
    0000068A 000B                   RTS
    0000068C 6EF6                   MOV.L       @R15+,R14
    0000068E              L1629:                            
    0000068E 6342                   MOV.L       @R4,R3
    00000690 2F32                   MOV.L       R3,@R15
    00000692 5241                   MOV.L       @(4,R4),R2
    00000694 5342                   MOV.L       @(8,R4),R3
    00000696 1232                   MOV.L       R3,@(8,R2)
    00000698 5242                   MOV.L       @(8,R4),R2
    0000069A 5341                   MOV.L       @(4,R4),R3
    0000069C 1231                   MOV.L       R3,@(4,R2)
    0000069E 52E2                   MOV.L       @(8,R14),R2
    000006A0 2228                   TST         R2,R2
    000006A2 8902                   BT          L1632
    000006A4 D33B                   MOV.L       L1971,R3   ; ___dl__FPv
    000006A6 430B                   JSR         @R3
    000006A8 0009                   NOP
    000006AA              L1632:                            
    000006AA 52E3                   MOV.L       @(12,R14),R2
    000006AC 72FF                   ADD         #-1,R2
    000006AE 1E23                   MOV.L       R2,@(12,R14)
    000006B0 60F2                   MOV.L       @R15,R0
    000006B2              L1626:                            
    000006B2 7F04                   ADD         #4,R15
    000006B4 4F26                   LDS.L       @R15+,PR
    000006B6 000B                   RTS
    000006B8 6EF6                   MOV.L       @R15+,R14
    000006BA              __$IndexOf__24List__tm__12_P9TransformFZ1Z_i:
                                                           ; function: int List<T1>::IndexOf(T1) [with T1=Transform *]
                                                           ; frame size=8
    000006BA E600                   MOV         #0,R6
    000006BC 2FE6                   MOV.L       R14,@-R15
    000006BE 4F22                   STS.L       PR,@-R15
    000006C0 A009                   BRA         L1633
    000006C2 6E42                   MOV.L       @R4,R14
    000006C4              L1634:                            
    000006C4 62E2                   MOV.L       @R14,R2
    000006C6 3250                   CMP/EQ      R5,R2
    000006C8 8B03                   BF          L1635
    000006CA 6063                   MOV         R6,R0
    000006CC 4F26                   LDS.L       @R15+,PR
    000006CE 000B                   RTS
    000006D0 6EF6                   MOV.L       @R15+,R14
    000006D2              L1635:                            
    000006D2 7601                   ADD         #1,R6
    000006D4 5EE1                   MOV.L       @(4,R14),R14
    000006D6              L1633:                            
    000006D6 53E1                   MOV.L       @(4,R14),R3
    000006D8 2338                   TST         R3,R3
    000006DA 8BF3                   BF          L1634
    000006DC 5342                   MOV.L       @(8,R4),R3




SH SERIES C/C++ Compiler (Ver. 6.0C)                                                                 18-Nov-2021 16:33:51  PAGE   32


SCT OFFSET   CODE       C LABEL     INSTRUCTION OPERAND    COMMENT

    000006DE 2338                   TST         R3,R3
    000006E0 8902                   BT          L1638
    000006E2 D32C                   MOV.L       L1971,R3   ; ___dl__FPv
    000006E4 430B                   JSR         @R3
    000006E6 64E3                   MOV         R14,R4
    000006E8              L1638:                            
    000006E8 E0FF                   MOV         #-1,R0
    000006EA              L1636:                            
    000006EA 4F26                   LDS.L       @R15+,PR
    000006EC 000B                   RTS
    000006EE 6EF6                   MOV.L       @R15+,R14
    000006F0              ___ct__9BehaviourFPCcP10GameObjectT1:
                                                           ; function: Behaviour::Behaviour(const char *, GameObject *, const char *
                        +                                  )
                                                           ; frame size=20
    000006F0 4F22                   STS.L       PR,@-R15
    000006F2 7FF0                   ADD         #-16,R15
    000006F4 2F42                   MOV.L       R4,@R15
    000006F6 1F52                   MOV.L       R5,@(8,R15)
    000006F8 1F61                   MOV.L       R6,@(4,R15)
    000006FA 1F73                   MOV.L       R7,@(12,R15)
    000006FC 63F2                   MOV.L       @R15,R3
    000006FE 2338                   TST         R3,R3
    00000700 8B05                   BF          L1640
    00000702 D325                   MOV.L       L1971+4,R3 ; ___nw__FUl
    00000704 430B                   JSR         @R3
    00000706 E418                   MOV         #24,R4
    00000708 2008                   TST         R0,R0
    0000070A 8D0D                   BT/S        L1639
    0000070C 2F02                   MOV.L       R0,@R15
    0000070E              L1640:                            
    0000070E 57F3                   MOV.L       @(12,R15),R7
    00000710 56F1                   MOV.L       @(4,R15),R6
    00000712 55F2                   MOV.L       @(8,R15),R5
    00000714 BDF8                   BSR         ___ct__9ComponentFPCcP10GameObjectT1
    00000716 64F2                   MOV.L       @R15,R4
    00000718 62F2                   MOV.L       @R15,R2
    0000071A E401                   MOV         #1,R4
    0000071C D31F                   MOV.L       L1971+8,R3 ; __$__vtbl__9Behaviour
    0000071E 1232                   MOV.L       R3,@(8,R2)
    00000720 62F2                   MOV.L       @R15,R2
    00000722 1244                   MOV.L       R4,@(16,R2)
    00000724 63F2                   MOV.L       @R15,R3
    00000726 1345                   MOV.L       R4,@(20,R3)
    00000728              L1639:                            
    00000728 60F2                   MOV.L       @R15,R0
    0000072A 7F10                   ADD         #16,R15
    0000072C 4F26                   LDS.L       @R15+,PR
    0000072E 000B                   RTS
    00000730 0009                   NOP
    00000732              __$__dt__9BehaviourFv:           ; function: Behaviour::~Behaviour()
                                                           ; frame size=4
    00000732 2FE6                   MOV.L       R14,@-R15
    00000734 6E43                   MOV         R4,R14
    00000736 2EE8                   TST         R14,R14
    00000738 890A                   BT          L1644
    0000073A D218                   MOV.L       L1971+8,R2 ; __$__vtbl__9Behaviour




SH SERIES C/C++ Compiler (Ver. 6.0C)                                                                 18-Nov-2021 16:33:51  PAGE   33


SCT OFFSET   CODE       C LABEL     INSTRUCTION OPERAND    COMMENT

    0000073C D318                   MOV.L       L1971+12,R3; __$__vtbl__9Component
    0000073E D219                   MOV.L       L1971+16,R2; __$__vtbl__6Object
    00000740 1E22                   MOV.L       R2,@(8,R14)
    00000742 E301                   MOV         #1,R3
    00000744 2538                   TST         R3,R5
    00000746 8903                   BT          L1644
    00000748 D112                   MOV.L       L1971,R1   ; ___dl__FPv
    0000074A 64E3                   MOV         R14,R4
    0000074C 412B                   JMP         @R1
    0000074E 6EF6                   MOV.L       @R15+,R14
    00000750              L1644:                            
    00000750 000B                   RTS
    00000752 6EF6                   MOV.L       @R15+,R14
    00000754              ___ct__7TextureFv:               ; function: Texture::Texture()
                                                           ; frame size=8
    00000754 4F22                   STS.L       PR,@-R15
    00000756 6343                   MOV         R4,R3
    00000758 7FFC                   ADD         #-4,R15
    0000075A 2338                   TST         R3,R3
    0000075C 8F06                   BF/S        L1646
    0000075E 2F42                   MOV.L       R4,@R15
    00000760 D30D                   MOV.L       L1971+4,R3 ; ___nw__FUl
    00000762 430B                   JSR         @R3
    00000764 E424                   MOV         #36,R4
    00000766 2008                   TST         R0,R0
    00000768 8D0F                   BT/S        L1645
    0000076A 2F02                   MOV.L       R0,@R15
    0000076C              L1646:                            
    0000076C D50E                   MOV.L       L1971+20,R5; L664
    0000076E E600                   MOV         #0,R6
    00000770 BD74                   BSR         ___ct__6ObjectFPCcT1
    00000772 64F2                   MOV.L       @R15,R4
    00000774 62F2                   MOV.L       @R15,R2
    00000776 E400                   MOV         #0,R4
    00000778 D30C                   MOV.L       L1971+24,R3; __$__vtbl__7Texture
    0000077A 1232                   MOV.L       R3,@(8,R2)
    0000077C 62F2                   MOV.L       @R15,R2
    0000077E D30C                   MOV.L       L1971+28,R3; L665
    00000780 1233                   MOV.L       R3,@(12,R2)
    00000782 62F2                   MOV.L       @R15,R2
    00000784 1248                   MOV.L       R4,@(32,R2)
    00000786 63F2                   MOV.L       @R15,R3
    00000788 1346                   MOV.L       R4,@(24,R3)
    0000078A              L1645:                            
    0000078A 60F2                   MOV.L       @R15,R0
    0000078C 7F04                   ADD         #4,R15
    0000078E 4F26                   LDS.L       @R15+,PR
    00000790 000B                   RTS
    00000792 0009                   NOP
    00000794              L1971:                            
    00000794 <00000000>             .DATA.L     ___dl__FPv
    00000798 <00000000>             .DATA.L     ___nw__FUl
    0000079C <00000000>             .DATA.L     __$__vtbl__9Behaviour
    000007A0 <00000000>             .DATA.L     __$__vtbl__9Component
    000007A4 <00000000>             .DATA.L     __$__vtbl__6Object
    000007A8 <00000000>             .DATA.L     L664
    000007AC <00000000>             .DATA.L     __$__vtbl__7Texture




SH SERIES C/C++ Compiler (Ver. 6.0C)                                                                 18-Nov-2021 16:33:51  PAGE   34


SCT OFFSET   CODE       C LABEL     INSTRUCTION OPERAND    COMMENT

    000007B0 <00000000>             .DATA.L     L665
    000007B4              ___ct__7TextureFPCciT2PCUcT1:    ; function: Texture::Texture(const char *, int, int, const unsigned char 
                        +                                  *, const char *)
                                                           ; frame size=20
    000007B4 4F22                   STS.L       PR,@-R15
    000007B6 7FF0                   ADD         #-16,R15
    000007B8 2F42                   MOV.L       R4,@R15
    000007BA 1F53                   MOV.L       R5,@(12,R15)
    000007BC 1F62                   MOV.L       R6,@(8,R15)
    000007BE 1F71                   MOV.L       R7,@(4,R15)
    000007C0 63F2                   MOV.L       @R15,R3
    000007C2 2338                   TST         R3,R3
    000007C4 8B05                   BF          L1649
    000007C6 D391                   MOV.L       L1972,R3   ; ___nw__FUl
    000007C8 430B                   JSR         @R3
    000007CA E424                   MOV         #36,R4
    000007CC 2008                   TST         R0,R0
    000007CE 8D10                   BT/S        L1648
    000007D0 2F02                   MOV.L       R0,@R15
    000007D2              L1649:                            
    000007D2 56F6                   MOV.L       @(24,R15),R6
    000007D4 55F3                   MOV.L       @(12,R15),R5
    000007D6 BD41                   BSR         ___ct__6ObjectFPCcT1
    000007D8 64F2                   MOV.L       @R15,R4
    000007DA 62F2                   MOV.L       @R15,R2
    000007DC D38C                   MOV.L       L1972+4,R3 ; __$__vtbl__7Texture
    000007DE 1232                   MOV.L       R3,@(8,R2)
    000007E0 62F2                   MOV.L       @R15,R2
    000007E2 53F5                   MOV.L       @(20,R15),R3
    000007E4 1233                   MOV.L       R3,@(12,R2)
    000007E6 62F2                   MOV.L       @R15,R2
    000007E8 53F2                   MOV.L       @(8,R15),R3
    000007EA 1238                   MOV.L       R3,@(32,R2)
    000007EC 62F2                   MOV.L       @R15,R2
    000007EE 53F1                   MOV.L       @(4,R15),R3
    000007F0 1236                   MOV.L       R3,@(24,R2)
    000007F2              L1648:                            
    000007F2 60F2                   MOV.L       @R15,R0
    000007F4 7F10                   ADD         #16,R15
    000007F6 4F26                   LDS.L       @R15+,PR
    000007F8 000B                   RTS
    000007FA 0009                   NOP
    000007FC              __$__dt__7TextureFv:             ; function: Texture::~Texture()
                                                           ; frame size=4
    000007FC 2FE6                   MOV.L       R14,@-R15
    000007FE 6E43                   MOV         R4,R14
    00000800 2EE8                   TST         R14,R14
    00000802 8909                   BT          L1653
    00000804 D282                   MOV.L       L1972+4,R2 ; __$__vtbl__7Texture
    00000806 D383                   MOV.L       L1972+8,R3 ; __$__vtbl__6Object
    00000808 1E32                   MOV.L       R3,@(8,R14)
    0000080A E201                   MOV         #1,R2
    0000080C 2528                   TST         R2,R5
    0000080E 8903                   BT          L1653
    00000810 D181                   MOV.L       L1972+12,R1; ___dl__FPv
    00000812 64E3                   MOV         R14,R4
    00000814 412B                   JMP         @R1




SH SERIES C/C++ Compiler (Ver. 6.0C)                                                                 18-Nov-2021 16:33:51  PAGE   35


SCT OFFSET   CODE       C LABEL     INSTRUCTION OPERAND    COMMENT

    00000816 6EF6                   MOV.L       @R15+,R14
    00000818              L1653:                            
    00000818 000B                   RTS
    0000081A 6EF6                   MOV.L       @R15+,R14
    0000081C              ___ct__13MonoBehaviourFPCcP10GameObjectT1:
                                                           ; function: MonoBehaviour::MonoBehaviour(const char *, GameObject *, cons
                        +                                  t char *)
                                                           ; frame size=20
    0000081C 4F22                   STS.L       PR,@-R15
    0000081E 7FF0                   ADD         #-16,R15
    00000820 2F42                   MOV.L       R4,@R15
    00000822 1F51                   MOV.L       R5,@(4,R15)
    00000824 1F62                   MOV.L       R6,@(8,R15)
    00000826 1F73                   MOV.L       R7,@(12,R15)
    00000828 63F2                   MOV.L       @R15,R3
    0000082A 2338                   TST         R3,R3
    0000082C 8B05                   BF          L1655
    0000082E D377                   MOV.L       L1972,R3   ; ___nw__FUl
    00000830 430B                   JSR         @R3
    00000832 E41C                   MOV         #28,R4
    00000834 2008                   TST         R0,R0
    00000836 8D0B                   BT/S        L1654
    00000838 2F02                   MOV.L       R0,@R15
    0000083A              L1655:                            
    0000083A 57F3                   MOV.L       @(12,R15),R7
    0000083C 56F2                   MOV.L       @(8,R15),R6
    0000083E 55F1                   MOV.L       @(4,R15),R5
    00000840 BF56                   BSR         ___ct__9BehaviourFPCcP10GameObjectT1
    00000842 64F2                   MOV.L       @R15,R4
    00000844 62F2                   MOV.L       @R15,R2
    00000846 D375                   MOV.L       L1972+16,R3; __$__vtbl__13MonoBehaviour
    00000848 1232                   MOV.L       R3,@(8,R2)
    0000084A E301                   MOV         #1,R3
    0000084C 62F2                   MOV.L       @R15,R2
    0000084E 1236                   MOV.L       R3,@(24,R2)
    00000850              L1654:                            
    00000850 60F2                   MOV.L       @R15,R0
    00000852 7F10                   ADD         #16,R15
    00000854 4F26                   LDS.L       @R15+,PR
    00000856 000B                   RTS
    00000858 0009                   NOP
    0000085A              __$__dt__13MonoBehaviourFv:      ; function: MonoBehaviour::~MonoBehaviour()
                                                           ; frame size=4
    0000085A 2FE6                   MOV.L       R14,@-R15
    0000085C 6E43                   MOV         R4,R14
    0000085E 2EE8                   TST         R14,R14
    00000860 890B                   BT          L1659
    00000862 D26E                   MOV.L       L1972+16,R2; __$__vtbl__13MonoBehaviour
    00000864 D36E                   MOV.L       L1972+20,R3; __$__vtbl__9Behaviour
    00000866 D26F                   MOV.L       L1972+24,R2; __$__vtbl__9Component
    00000868 D36A                   MOV.L       L1972+8,R3 ; __$__vtbl__6Object
    0000086A E201                   MOV         #1,R2
    0000086C 1E32                   MOV.L       R3,@(8,R14)
    0000086E 2528                   TST         R2,R5
    00000870 8903                   BT          L1659
    00000872 64E3                   MOV         R14,R4
    00000874 D168                   MOV.L       L1972+12,R1; ___dl__FPv




SH SERIES C/C++ Compiler (Ver. 6.0C)                                                                 18-Nov-2021 16:33:51  PAGE   36


SCT OFFSET   CODE       C LABEL     INSTRUCTION OPERAND    COMMENT

    00000876 412B                   JMP         @R1
    00000878 6EF6                   MOV.L       @R15+,R14
    0000087A              L1659:                            
    0000087A 000B                   RTS
    0000087C 6EF6                   MOV.L       @R15+,R14
    0000087E              ___ct__10GameObjectFP5ScenePCcT2:
                                                           ; function: GameObject::GameObject(Scene *, const char *, const char *)
                                                           ; frame size=32
    0000087E 2FE6                   MOV.L       R14,@-R15
    00000880 2FD6                   MOV.L       R13,@-R15
    00000882 2F86                   MOV.L       R8,@-R15
    00000884 4F22                   STS.L       PR,@-R15
    00000886 7FF0                   ADD         #-16,R15
    00000888 2F42                   MOV.L       R4,@R15
    0000088A 1F52                   MOV.L       R5,@(8,R15)
    0000088C 1F63                   MOV.L       R6,@(12,R15)
    0000088E 1F71                   MOV.L       R7,@(4,R15)
    00000890 63F2                   MOV.L       @R15,R3
    00000892 2338                   TST         R3,R3
    00000894 8B05                   BF          L1661
    00000896 D35D                   MOV.L       L1972,R3   ; ___nw__FUl
    00000898 430B                   JSR         @R3
    0000089A E43C                   MOV         #60,R4
    0000089C 2008                   TST         R0,R0
    0000089E 8D4E                   BT/S        L1660
    000008A0 2F02                   MOV.L       R0,@R15
    000008A2              L1661:                            
    000008A2 56F1                   MOV.L       @(4,R15),R6
    000008A4 55F3                   MOV.L       @(12,R15),R5
    000008A6 BCD9                   BSR         ___ct__6ObjectFPCcT1
    000008A8 64F2                   MOV.L       @R15,R4
    000008AA ED01                   MOV         #1,R13
    000008AC D75F                   MOV.L       L1972+32,R7; L422
    000008AE EE00                   MOV         #0,R14
    000008B0 62F2                   MOV.L       @R15,R2
    000008B2 66E3                   MOV         R14,R6
    000008B4 D35C                   MOV.L       L1972+28,R3; __$__vtbl__10GameObject
    000008B6 1232                   MOV.L       R3,@(8,R2)
    000008B8 62F2                   MOV.L       @R15,R2
    000008BA 12D5                   MOV.L       R13,@(20,R2)
    000008BC 63F2                   MOV.L       @R15,R3
    000008BE 13E6                   MOV.L       R14,@(24,R3)
    000008C0 63F2                   MOV.L       @R15,R3
    000008C2 13E3                   MOV.L       R14,@(12,R3)
    000008C4 63F2                   MOV.L       @R15,R3
    000008C6 13E4                   MOV.L       R14,@(16,R3)
    000008C8 63F2                   MOV.L       @R15,R3
    000008CA 52F2                   MOV.L       @(8,R15),R2
    000008CC 132B                   MOV.L       R2,@(44,R3)
    000008CE 68F2                   MOV.L       @R15,R8
    000008D0 65F2                   MOV.L       @R15,R5
    000008D2 7838                   ADD         #56,R8
    000008D4 BD6E                   BSR         ___ct__9TransformFP10GameObjectPCcT2
    000008D6 64E3                   MOV         R14,R4
    000008D8 2802                   MOV.L       R0,@R8
    000008DA 63F2                   MOV.L       @R15,R3
    000008DC 13D7                   MOV.L       R13,@(28,R3)




SH SERIES C/C++ Compiler (Ver. 6.0C)                                                                 18-Nov-2021 16:33:51  PAGE   37


SCT OFFSET   CODE       C LABEL     INSTRUCTION OPERAND    COMMENT

    000008DE 63F2                   MOV.L       @R15,R3
    000008E0 13D8                   MOV.L       R13,@(32,R3)
    000008E2 63F2                   MOV.L       @R15,R3
    000008E4 13E9                   MOV.L       R14,@(36,R3)
    000008E6 63F2                   MOV.L       @R15,R3
    000008E8 13EA                   MOV.L       R14,@(40,R3)
    000008EA 63F2                   MOV.L       @R15,R3
    000008EC 13EC                   MOV.L       R14,@(48,R3)
    000008EE 63F2                   MOV.L       @R15,R3
    000008F0 13ED                   MOV.L       R14,@(52,R3)
    000008F2 63F2                   MOV.L       @R15,R3
    000008F4 523E                   MOV.L       @(56,R3),R2
    000008F6 1F21                   MOV.L       R2,@(4,R15)
    000008F8 D344                   MOV.L       L1972,R3   ; ___nw__FUl
    000008FA 430B                   JSR         @R3
    000008FC E40C                   MOV         #12,R4
    000008FE 2008                   TST         R0,R0
    00000900 8D06                   BT/S        L1662
    00000902 6D03                   MOV         R0,R13
    00000904 D34A                   MOV.L       L1972+36,R3; ___memzero
    00000906 E50C                   MOV         #12,R5
    00000908 430B                   JSR         @R3
    0000090A 64D3                   MOV         R13,R4
    0000090C A001                   BRA         L1663
    0000090E 64D3                   MOV         R13,R4
    00000910              L1662:                            
    00000910 64E3                   MOV         R14,R4
    00000912              L1663:                            
    00000912 53F1                   MOV.L       @(4,R15),R3
    00000914 2432                   MOV.L       R3,@R4
    00000916 62F2                   MOV.L       @R15,R2
    00000918 5326                   MOV.L       @(24,R2),R3
    0000091A 7301                   ADD         #1,R3
    0000091C 1236                   MOV.L       R3,@(24,R2)
    0000091E 62F2                   MOV.L       @R15,R2
    00000920 5323                   MOV.L       @(12,R2),R3
    00000922 2338                   TST         R3,R3
    00000924 8B03                   BF          L1664
    00000926 63F2                   MOV.L       @R15,R3
    00000928 1343                   MOV.L       R4,@(12,R3)
    0000092A A006                   BRA         L1383
    0000092C 0009                   NOP
    0000092E              L1664:                            
    0000092E 63F2                   MOV.L       @R15,R3
    00000930 5234                   MOV.L       @(16,R3),R2
    00000932 1422                   MOV.L       R2,@(8,R4)
    00000934 63F2                   MOV.L       @R15,R3
    00000936 5234                   MOV.L       @(16,R3),R2
    00000938 1241                   MOV.L       R4,@(4,R2)
    0000093A              L1383:
    0000093A 63F2                   MOV.L       @R15,R3
    0000093C 1344                   MOV.L       R4,@(16,R3)
    0000093E              L1660:                            
    0000093E 60F2                   MOV.L       @R15,R0
    00000940 7F10                   ADD         #16,R15
    00000942 4F26                   LDS.L       @R15+,PR
    00000944 68F6                   MOV.L       @R15+,R8




SH SERIES C/C++ Compiler (Ver. 6.0C)                                                                 18-Nov-2021 16:33:51  PAGE   38


SCT OFFSET   CODE       C LABEL     INSTRUCTION OPERAND    COMMENT

    00000946 6DF6                   MOV.L       @R15+,R13
    00000948 000B                   RTS
    0000094A 6EF6                   MOV.L       @R15+,R14
    0000094C              __$__dt__10GameObjectFv:         ; function: GameObject::~GameObject()
                                                           ; frame size=36
    0000094C 2FE6                   MOV.L       R14,@-R15
    0000094E 6E43                   MOV         R4,R14
    00000950 2FD6                   MOV.L       R13,@-R15
    00000952 2EE8                   TST         R14,R14
    00000954 2FC6                   MOV.L       R12,@-R15
    00000956 2FB6                   MOV.L       R11,@-R15
    00000958 2FA6                   MOV.L       R10,@-R15
    0000095A 2F96                   MOV.L       R9,@-R15
    0000095C 4F22                   STS.L       PR,@-R15
    0000095E 7FF8                   ADD         #-8,R15
    00000960 8D4B                   BT/S        L1679
    00000962 1F51                   MOV.L       R5,@(4,R15)
    00000964 D230                   MOV.L       L1972+28,R2; __$__vtbl__10GameObject
    00000966 ED00                   MOV         #0,R13
    00000968 1E22                   MOV.L       R2,@(8,R14)
    0000096A A01E                   BRA         L1668
    0000096C 6BD3                   MOV         R13,R11
    0000096E              L1669:                            
    0000096E 59E4                   MOV.L       @(16,R14),R9
    00000970 52E3                   MOV.L       @(12,R14),R2
    00000972 3290                   CMP/EQ      R9,R2
    00000974 8F04                   BF/S        L1671
    00000976 6A92                   MOV.L       @R9,R10
    00000978 EC00                   MOV         #0,R12
    0000097A 1EC3                   MOV.L       R12,@(12,R14)
    0000097C A005                   BRA         L1672
    0000097E 1EC4                   MOV.L       R12,@(16,R14)
    00000980              L1671:                            
    00000980 5CE4                   MOV.L       @(16,R14),R12
    00000982 E300                   MOV         #0,R3
    00000984 5CC2                   MOV.L       @(8,R12),R12
    00000986 1EC4                   MOV.L       R12,@(16,R14)
    00000988 1C31                   MOV.L       R3,@(4,R12)
    0000098A              L1672:                            
    0000098A 5CE6                   MOV.L       @(24,R14),R12
    0000098C 7CFF                   ADD         #-1,R12
    0000098E 1EC6                   MOV.L       R12,@(24,R14)
    00000990 6CA3                   MOV         R10,R12
    00000992 2CC8                   TST         R12,R12
    00000994 8908                   BT          L1673
    00000996 E503                   MOV         #3,R5
    00000998 52C2                   MOV.L       @(8,R12),R2
    0000099A 720C                   ADD         #12,R2
    0000099C 2F22                   MOV.L       R2,@R15
    0000099E 6423                   MOV         R2,R4
    000009A0 5322                   MOV.L       @(8,R2),R3
    000009A2 6442                   MOV.L       @R4,R4
    000009A4 430B                   JSR         @R3
    000009A6 34CC                   ADD         R12,R4
    000009A8              L1673:                            
    000009A8 7B01                   ADD         #1,R11
    000009AA              L1668:                            




SH SERIES C/C++ Compiler (Ver. 6.0C)                                                                 18-Nov-2021 16:33:51  PAGE   39


SCT OFFSET   CODE       C LABEL     INSTRUCTION OPERAND    COMMENT

    000009AA 52E6                   MOV.L       @(24,R14),R2
    000009AC 3B23                   CMP/GE      R2,R11
    000009AE 8BDE                   BF          L1669
    000009B0 A010                   BRA         L1674
    000009B2 0009                   NOP
    000009B4              L1675:                            
    000009B4 54E4                   MOV.L       @(16,R14),R4
    000009B6 6342                   MOV.L       @R4,R3
    000009B8 52E3                   MOV.L       @(12,R14),R2
    000009BA 3240                   CMP/EQ      R4,R2
    000009BC 8B02                   BF          L1676
    000009BE 1ED3                   MOV.L       R13,@(12,R14)
    000009C0 A005                   BRA         L1677
    000009C2 1ED4                   MOV.L       R13,@(16,R14)
    000009C4              L1676:                            
    000009C4 53E4                   MOV.L       @(16,R14),R3
    000009C6 5232                   MOV.L       @(8,R3),R2
    000009C8 1E24                   MOV.L       R2,@(16,R14)
    000009CA 6323                   MOV         R2,R3
    000009CC 13D1                   MOV.L       R13,@(4,R3)
    000009CE              L1677:                            
    000009CE 52E6                   MOV.L       @(24,R14),R2
    000009D0 72FF                   ADD         #-1,R2
    000009D2 1E26                   MOV.L       R2,@(24,R14)
    000009D4              L1674:                            
    000009D4 53E6                   MOV.L       @(24,R14),R3
    000009D6 4315                   CMP/PL      R3
    000009D8 89EC                   BT          L1675
    000009DA D10E                   MOV.L       L1972+8,R1 ; __$__vtbl__6Object
    000009DC 1E12                   MOV.L       R1,@(8,R14)
    000009DE 50F1                   MOV.L       @(4,R15),R0
    000009E0 C801                   TST         #1,R0
    000009E2 890A                   BT          L1679
    000009E4 D20C                   MOV.L       L1972+12,R2; ___dl__FPv
    000009E6 64E3                   MOV         R14,R4
    000009E8 7F08                   ADD         #8,R15
    000009EA 4F26                   LDS.L       @R15+,PR
    000009EC 69F6                   MOV.L       @R15+,R9
    000009EE 6AF6                   MOV.L       @R15+,R10
    000009F0 6BF6                   MOV.L       @R15+,R11
    000009F2 6CF6                   MOV.L       @R15+,R12
    000009F4 6DF6                   MOV.L       @R15+,R13
    000009F6 422B                   JMP         @R2
    000009F8 6EF6                   MOV.L       @R15+,R14
    000009FA              L1679:                            
    000009FA 7F08                   ADD         #8,R15
    000009FC 4F26                   LDS.L       @R15+,PR
    000009FE 69F6                   MOV.L       @R15+,R9
    00000A00 6AF6                   MOV.L       @R15+,R10
    00000A02 6BF6                   MOV.L       @R15+,R11
    00000A04 6CF6                   MOV.L       @R15+,R12
    00000A06 6DF6                   MOV.L       @R15+,R13
    00000A08 000B                   RTS
    00000A0A 6EF6                   MOV.L       @R15+,R14
    00000A0C              L1972:                            
    00000A0C <00000000>             .DATA.L     ___nw__FUl
    00000A10 <00000000>             .DATA.L     __$__vtbl__7Texture




SH SERIES C/C++ Compiler (Ver. 6.0C)                                                                 18-Nov-2021 16:33:51  PAGE   40


SCT OFFSET   CODE       C LABEL     INSTRUCTION OPERAND    COMMENT

    00000A14 <00000000>             .DATA.L     __$__vtbl__6Object
    00000A18 <00000000>             .DATA.L     ___dl__FPv
    00000A1C <00000000>             .DATA.L     __$__vtbl__13MonoBehaviour
    00000A20 <00000000>             .DATA.L     __$__vtbl__9Behaviour
    00000A24 <00000000>             .DATA.L     __$__vtbl__9Component
    00000A28 <00000000>             .DATA.L     __$__vtbl__10GameObject
    00000A2C <00000000>             .DATA.L     L422
    00000A30 <00000000>             .DATA.L     ___memzero
    00000A34              _IsActive__10GameObjectFv:       ; function: GameObject::IsActive()
                                                           ; frame size=8
    00000A34 7FF8                   ADD         #-8,R15
    00000A36 5348                   MOV.L       @(32,R4),R3
    00000A38 2338                   TST         R3,R3
    00000A3A 890E                   BT          L1384
    00000A3C 524E                   MOV.L       @(56,R4),R2
    00000A3E 532F                   MOV.L       @(60,R2),R3
    00000A40 2338                   TST         R3,R3
    00000A42 890C                   BT          L1682
    00000A44 554E                   MOV.L       @(56,R4),R5
    00000A46 2F52                   MOV.L       R5,@R15
    00000A48 555F                   MOV.L       @(60,R5),R5
    00000A4A 1F51                   MOV.L       R5,@(4,R15)
    00000A4C 5553                   MOV.L       @(12,R5),R5
    00000A4E 5357                   MOV.L       @(28,R5),R3
    00000A50 2338                   TST         R3,R3
    00000A52 8902                   BT          L1384
    00000A54 5358                   MOV.L       @(32,R5),R3
    00000A56 2338                   TST         R3,R3
    00000A58 8B01                   BF          L1682
    00000A5A              L1384:
    00000A5A A001                   BRA         L1968
    00000A5C E500                   MOV         #0,R5
    00000A5E              L1682:                            
    00000A5E E501                   MOV         #1,R5
    00000A60              L1968:                            
    00000A60 1457                   MOV.L       R5,@(28,R4)
    00000A62 6053                   MOV         R5,R0
    00000A64 000B                   RTS
    00000A66 7F08                   ADD         #8,R15
    00000A68              _AddComponent__10GameObjectFP9Component:
                                                           ; function: GameObject::AddComponent(Component *)
                                                           ; frame size=16
    00000A68 2FE6                   MOV.L       R14,@-R15
    00000A6A 6E43                   MOV         R4,R14
    00000A6C D381                   MOV.L       L1973+2,R3 ; ___nw__FUl
    00000A6E 2FD6                   MOV.L       R13,@-R15
    00000A70 4F22                   STS.L       PR,@-R15
    00000A72 7FFC                   ADD         #-4,R15
    00000A74 2F52                   MOV.L       R5,@R15
    00000A76 430B                   JSR         @R3
    00000A78 E40C                   MOV         #12,R4
    00000A7A 2008                   TST         R0,R0
    00000A7C 8D06                   BT/S        L1685
    00000A7E 6D03                   MOV         R0,R13
    00000A80 D37D                   MOV.L       L1973+6,R3 ; ___memzero
    00000A82 E50C                   MOV         #12,R5
    00000A84 430B                   JSR         @R3




SH SERIES C/C++ Compiler (Ver. 6.0C)                                                                 18-Nov-2021 16:33:51  PAGE   41


SCT OFFSET   CODE       C LABEL     INSTRUCTION OPERAND    COMMENT

    00000A86 64D3                   MOV         R13,R4
    00000A88 A001                   BRA         L1686
    00000A8A 64D3                   MOV         R13,R4
    00000A8C              L1685:                            
    00000A8C E400                   MOV         #0,R4
    00000A8E              L1686:                            
    00000A8E 63F2                   MOV.L       @R15,R3
    00000A90 2432                   MOV.L       R3,@R4
    00000A92 52E6                   MOV.L       @(24,R14),R2
    00000A94 7201                   ADD         #1,R2
    00000A96 1E26                   MOV.L       R2,@(24,R14)
    00000A98 53E3                   MOV.L       @(12,R14),R3
    00000A9A 2338                   TST         R3,R3
    00000A9C 8B01                   BF          L1687
    00000A9E A004                   BRA         L1385
    00000AA0 1E43                   MOV.L       R4,@(12,R14)
    00000AA2              L1687:                            
    00000AA2 53E4                   MOV.L       @(16,R14),R3
    00000AA4 1432                   MOV.L       R3,@(8,R4)
    00000AA6 52E4                   MOV.L       @(16,R14),R2
    00000AA8 1241                   MOV.L       R4,@(4,R2)
    00000AAA              L1385:
    00000AAA 1E44                   MOV.L       R4,@(16,R14)
    00000AAC 7F04                   ADD         #4,R15
    00000AAE 4F26                   LDS.L       @R15+,PR
    00000AB0 6DF6                   MOV.L       @R15+,R13
    00000AB2 000B                   RTS
    00000AB4 6EF6                   MOV.L       @R15+,R14
    00000AB6              _GetComponent__10GameObjectFPCc: ; function: GameObject::GetComponent(const char *)
                                                           ; frame size=16
    00000AB6 2FE6                   MOV.L       R14,@-R15
    00000AB8 2FD6                   MOV.L       R13,@-R15
    00000ABA 6D43                   MOV         R4,R13
    00000ABC 4F22                   STS.L       PR,@-R15
    00000ABE 7FFC                   ADD         #-4,R15
    00000AC0 2F52                   MOV.L       R5,@R15
    00000AC2 A011                   BRA         L1690
    00000AC4 EE00                   MOV         #0,R14
    00000AC6              L1691:                            
    00000AC6 65E3                   MOV         R14,R5
    00000AC8 64D3                   MOV         R13,R4
    00000ACA B029                   BSR         __$get__24List__tm__12_P9ComponentFi_Z1Z
    00000ACC 740C                   ADD         #12,R4
    00000ACE 63F2                   MOV.L       @R15,R3
    00000AD0 6202                   MOV.L       @R0,R2
    00000AD2 3230                   CMP/EQ      R3,R2
    00000AD4 8B07                   BF          L1692
    00000AD6 65E3                   MOV         R14,R5
    00000AD8 64D3                   MOV         R13,R4
    00000ADA 740C                   ADD         #12,R4
    00000ADC 7F04                   ADD         #4,R15
    00000ADE 4F26                   LDS.L       @R15+,PR
    00000AE0 6DF6                   MOV.L       @R15+,R13
    00000AE2 A01D                   BRA         __$get__24List__tm__12_P9ComponentFi_Z1Z
    00000AE4 6EF6                   MOV.L       @R15+,R14
    00000AE6              L1692:                            
    00000AE6 7E01                   ADD         #1,R14




SH SERIES C/C++ Compiler (Ver. 6.0C)                                                                 18-Nov-2021 16:33:51  PAGE   42


SCT OFFSET   CODE       C LABEL     INSTRUCTION OPERAND    COMMENT

    00000AE8              L1690:                            
    00000AE8 52D6                   MOV.L       @(24,R13),R2
    00000AEA 3E23                   CMP/GE      R2,R14
    00000AEC 8BEB                   BF          L1691
    00000AEE E000                   MOV         #0,R0
    00000AF0 7F04                   ADD         #4,R15
    00000AF2 4F26                   LDS.L       @R15+,PR
    00000AF4 6DF6                   MOV.L       @R15+,R13
    00000AF6 000B                   RTS
    00000AF8 6EF6                   MOV.L       @R15+,R14
    00000AFA              _Find__10GameObjectFPUc:         ; function: GameObject::Find(unsigned char *)
                                                           ; frame size=8
    00000AFA 7FF8                   ADD         #-8,R15
    00000AFC D05F                   MOV.L       L1973+10,R0; _FindWithName__FPUcP10GameObject
    00000AFE 1F41                   MOV.L       R4,@(4,R15)
    00000B00 2F52                   MOV.L       R5,@R15
    00000B02 55F1                   MOV.L       @(4,R15),R5
    00000B04 64F2                   MOV.L       @R15,R4
    00000B06 402B                   JMP         @R0
    00000B08 7F08                   ADD         #8,R15
    00000B0A              __$get_node__24List__tm__12_P9ComponentFi_P15Node__tm__4_Z1Z:
                                                           ; function: Node<T1> *List<T1>::get_node(int) [with T1=Component *]
                                                           ; frame size=0
    00000B0A E700                   MOV         #0,R7
    00000B0C A002                   BRA         L1695
    00000B0E 6642                   MOV.L       @R4,R6
    00000B10              L1696:                            
    00000B10 5661                   MOV.L       @(4,R6),R6
    00000B12 7701                   ADD         #1,R7
    00000B14              L1695:                            
    00000B14 2668                   TST         R6,R6
    00000B16 8901                   BT          L1697
    00000B18 3750                   CMP/EQ      R5,R7
    00000B1A 8BF9                   BF          L1696
    00000B1C              L1697:                            
    00000B1C 000B                   RTS
    00000B1E 6063                   MOV         R6,R0
    00000B20              __$get__24List__tm__12_P9ComponentFi_Z1Z:
                                                           ; function: T1 List<T1>::get(int) [with T1=Component *]
                                                           ; frame size=4
    00000B20 4F22                   STS.L       PR,@-R15
    00000B22 E3FF                   MOV         #-1,R3
    00000B24 3533                   CMP/GE      R3,R5
    00000B26 8B04                   BF          L1386
    00000B28 BFEF                   BSR         __$get_node__24List__tm__12_P9ComponentFi_P15Node__tm__4_Z1Z
    00000B2A 0009                   NOP
    00000B2C 6403                   MOV         R0,R4
    00000B2E 2448                   TST         R4,R4
    00000B30 8B02                   BF          L1701
    00000B32              L1386:
    00000B32 4F26                   LDS.L       @R15+,PR
    00000B34 000B                   RTS
    00000B36 E000                   MOV         #0,R0
    00000B38              L1701:                            
    00000B38 6042                   MOV.L       @R4,R0
    00000B3A              L1700:                            
    00000B3A 4F26                   LDS.L       @R15+,PR




SH SERIES C/C++ Compiler (Ver. 6.0C)                                                                 18-Nov-2021 16:33:51  PAGE   43


SCT OFFSET   CODE       C LABEL     INSTRUCTION OPERAND    COMMENT

    00000B3C 000B                   RTS
    00000B3E 0009                   NOP
    00000B40              __$__dt__5SceneFv:               ; function: Scene::~Scene()
                                                           ; frame size=36
    00000B40 2FE6                   MOV.L       R14,@-R15
    00000B42 6E43                   MOV         R4,R14
    00000B44 2FD6                   MOV.L       R13,@-R15
    00000B46 2EE8                   TST         R14,R14
    00000B48 2FC6                   MOV.L       R12,@-R15
    00000B4A 2FB6                   MOV.L       R11,@-R15
    00000B4C 2FA6                   MOV.L       R10,@-R15
    00000B4E 2F96                   MOV.L       R9,@-R15
    00000B50 4F22                   STS.L       PR,@-R15
    00000B52 7FF8                   ADD         #-8,R15
    00000B54 8D47                   BT/S        L1714
    00000B56 1F51                   MOV.L       R5,@(4,R15)
    00000B58 ED00                   MOV         #0,R13
    00000B5A A01E                   BRA         L1703
    00000B5C 6BD3                   MOV         R13,R11
    00000B5E              L1704:                            
    00000B5E 59E1                   MOV.L       @(4,R14),R9
    00000B60 63E2                   MOV.L       @R14,R3
    00000B62 3390                   CMP/EQ      R9,R3
    00000B64 8F04                   BF/S        L1706
    00000B66 6A92                   MOV.L       @R9,R10
    00000B68 EC00                   MOV         #0,R12
    00000B6A 2EC2                   MOV.L       R12,@R14
    00000B6C A005                   BRA         L1707
    00000B6E 1EC1                   MOV.L       R12,@(4,R14)
    00000B70              L1706:                            
    00000B70 5CE1                   MOV.L       @(4,R14),R12
    00000B72 E300                   MOV         #0,R3
    00000B74 5CC2                   MOV.L       @(8,R12),R12
    00000B76 1EC1                   MOV.L       R12,@(4,R14)
    00000B78 1C31                   MOV.L       R3,@(4,R12)
    00000B7A              L1707:                            
    00000B7A 5CE3                   MOV.L       @(12,R14),R12
    00000B7C 7CFF                   ADD         #-1,R12
    00000B7E 1EC3                   MOV.L       R12,@(12,R14)
    00000B80 6CA3                   MOV         R10,R12
    00000B82 2CC8                   TST         R12,R12
    00000B84 8908                   BT          L1708
    00000B86 E503                   MOV         #3,R5
    00000B88 52C2                   MOV.L       @(8,R12),R2
    00000B8A 720C                   ADD         #12,R2
    00000B8C 2F22                   MOV.L       R2,@R15
    00000B8E 6423                   MOV         R2,R4
    00000B90 5322                   MOV.L       @(8,R2),R3
    00000B92 6442                   MOV.L       @R4,R4
    00000B94 430B                   JSR         @R3
    00000B96 34CC                   ADD         R12,R4
    00000B98              L1708:                            
    00000B98 7B01                   ADD         #1,R11
    00000B9A              L1703:                            
    00000B9A 52E3                   MOV.L       @(12,R14),R2
    00000B9C 3B23                   CMP/GE      R2,R11
    00000B9E 8BDE                   BF          L1704




SH SERIES C/C++ Compiler (Ver. 6.0C)                                                                 18-Nov-2021 16:33:51  PAGE   44


SCT OFFSET   CODE       C LABEL     INSTRUCTION OPERAND    COMMENT

    00000BA0 A010                   BRA         L1709
    00000BA2 0009                   NOP
    00000BA4              L1710:                            
    00000BA4 54E1                   MOV.L       @(4,R14),R4
    00000BA6 6342                   MOV.L       @R4,R3
    00000BA8 62E2                   MOV.L       @R14,R2
    00000BAA 3240                   CMP/EQ      R4,R2
    00000BAC 8B02                   BF          L1711
    00000BAE 2ED2                   MOV.L       R13,@R14
    00000BB0 A005                   BRA         L1712
    00000BB2 1ED1                   MOV.L       R13,@(4,R14)
    00000BB4              L1711:                            
    00000BB4 53E1                   MOV.L       @(4,R14),R3
    00000BB6 5232                   MOV.L       @(8,R3),R2
    00000BB8 1E21                   MOV.L       R2,@(4,R14)
    00000BBA 6323                   MOV         R2,R3
    00000BBC 13D1                   MOV.L       R13,@(4,R3)
    00000BBE              L1712:                            
    00000BBE 52E3                   MOV.L       @(12,R14),R2
    00000BC0 72FF                   ADD         #-1,R2
    00000BC2 1E23                   MOV.L       R2,@(12,R14)
    00000BC4              L1709:                            
    00000BC4 53E3                   MOV.L       @(12,R14),R3
    00000BC6 4315                   CMP/PL      R3
    00000BC8 89EC                   BT          L1710
    00000BCA 50F1                   MOV.L       @(4,R15),R0
    00000BCC C801                   TST         #1,R0
    00000BCE 890A                   BT          L1714
    00000BD0 D22B                   MOV.L       L1973+14,R2; ___dl__FPv
    00000BD2 64E3                   MOV         R14,R4
    00000BD4 7F08                   ADD         #8,R15
    00000BD6 4F26                   LDS.L       @R15+,PR
    00000BD8 69F6                   MOV.L       @R15+,R9
    00000BDA 6AF6                   MOV.L       @R15+,R10
    00000BDC 6BF6                   MOV.L       @R15+,R11
    00000BDE 6CF6                   MOV.L       @R15+,R12
    00000BE0 6DF6                   MOV.L       @R15+,R13
    00000BE2 422B                   JMP         @R2
    00000BE4 6EF6                   MOV.L       @R15+,R14
    00000BE6              L1714:                            
    00000BE6 7F08                   ADD         #8,R15
    00000BE8 4F26                   LDS.L       @R15+,PR
    00000BEA 69F6                   MOV.L       @R15+,R9
    00000BEC 6AF6                   MOV.L       @R15+,R10
    00000BEE 6BF6                   MOV.L       @R15+,R11
    00000BF0 6CF6                   MOV.L       @R15+,R12
    00000BF2 6DF6                   MOV.L       @R15+,R13
    00000BF4 000B                   RTS
    00000BF6 6EF6                   MOV.L       @R15+,R14
    00000BF8              _AddGameObject__5SceneFP10GameObject:
                                                           ; function: Scene::AddGameObject(GameObject *)
                                                           ; frame size=16
    00000BF8 2FE6                   MOV.L       R14,@-R15
    00000BFA 6E43                   MOV         R4,R14
    00000BFC D31D                   MOV.L       L1973+2,R3 ; ___nw__FUl
    00000BFE 2FD6                   MOV.L       R13,@-R15
    00000C00 4F22                   STS.L       PR,@-R15




SH SERIES C/C++ Compiler (Ver. 6.0C)                                                                 18-Nov-2021 16:33:51  PAGE   45


SCT OFFSET   CODE       C LABEL     INSTRUCTION OPERAND    COMMENT

    00000C02 7FFC                   ADD         #-4,R15
    00000C04 2F52                   MOV.L       R5,@R15
    00000C06 430B                   JSR         @R3
    00000C08 E40C                   MOV         #12,R4
    00000C0A 2008                   TST         R0,R0
    00000C0C 8D06                   BT/S        L1715
    00000C0E 6D03                   MOV         R0,R13
    00000C10 D319                   MOV.L       L1973+6,R3 ; ___memzero
    00000C12 E50C                   MOV         #12,R5
    00000C14 430B                   JSR         @R3
    00000C16 64D3                   MOV         R13,R4
    00000C18 A001                   BRA         L1716
    00000C1A 64D3                   MOV         R13,R4
    00000C1C              L1715:                            
    00000C1C E400                   MOV         #0,R4
    00000C1E              L1716:                            
    00000C1E 63F2                   MOV.L       @R15,R3
    00000C20 2432                   MOV.L       R3,@R4
    00000C22 52E3                   MOV.L       @(12,R14),R2
    00000C24 7201                   ADD         #1,R2
    00000C26 1E23                   MOV.L       R2,@(12,R14)
    00000C28 63E2                   MOV.L       @R14,R3
    00000C2A 2338                   TST         R3,R3
    00000C2C 8B01                   BF          L1717
    00000C2E A004                   BRA         L1387
    00000C30 2E42                   MOV.L       R4,@R14
    00000C32              L1717:                            
    00000C32 53E1                   MOV.L       @(4,R14),R3
    00000C34 1432                   MOV.L       R3,@(8,R4)
    00000C36 52E1                   MOV.L       @(4,R14),R2
    00000C38 1241                   MOV.L       R4,@(4,R2)
    00000C3A              L1387:
    00000C3A 1E41                   MOV.L       R4,@(4,R14)
    00000C3C 7F04                   ADD         #4,R15
    00000C3E 4F26                   LDS.L       @R15+,PR
    00000C40 6DF6                   MOV.L       @R15+,R13
    00000C42 000B                   RTS
    00000C44 6EF6                   MOV.L       @R15+,R14
    00000C46              _Update__5SceneFv:               ; function: Scene::Update()
                                                           ; frame size=40
    00000C46 2FE6                   MOV.L       R14,@-R15
    00000C48 2FD6                   MOV.L       R13,@-R15
    00000C4A 6E43                   MOV         R4,R14
    00000C4C 2FC6                   MOV.L       R12,@-R15
    00000C4E ED00                   MOV         #0,R13
    00000C50 2FB6                   MOV.L       R11,@-R15
    00000C52 2FA6                   MOV.L       R10,@-R15
    00000C54 2F96                   MOV.L       R9,@-R15
    00000C56 2F86                   MOV.L       R8,@-R15
    00000C58 4F22                   STS.L       PR,@-R15
    00000C5A 7FF8                   ADD         #-8,R15
    00000C5C A02A                   BRA         L1720
    00000C5E 6CD3                   MOV         R13,R12
    00000C60              L1721:                            
    00000C60 65C3                   MOV         R12,R5
    00000C62 B15A                   BSR         __$get__26List__tm__14_P10GameObjectFi_Z1Z
    00000C64 64E3                   MOV         R14,R4




SH SERIES C/C++ Compiler (Ver. 6.0C)                                                                 18-Nov-2021 16:33:51  PAGE   46


SCT OFFSET   CODE       C LABEL     INSTRUCTION OPERAND    COMMENT

    00000C66 BEE5                   BSR         _IsActive__10GameObjectFv
    00000C68 6403                   MOV         R0,R4
    00000C6A 2008                   TST         R0,R0
    00000C6C 8921                   BT          L1722
    00000C6E A01A                   BRA         L1723
    00000C70 6BD3                   MOV         R13,R11
    00000C72              L1973:                            
    00000C72 0000                   .DATA.W     0
    00000C74 <00000000>             .DATA.L     ___nw__FUl
    00000C78 <00000000>             .DATA.L     ___memzero
    00000C7C <00000000>             .DATA.L     _FindWithName__FPUcP10GameObject
    00000C80 <00000000>             .DATA.L     ___dl__FPv
    00000C84              L1724:                            
    00000C84 65C3                   MOV         R12,R5
    00000C86 B148                   BSR         __$get__26List__tm__14_P10GameObjectFi_Z1Z
    00000C88 64E3                   MOV         R14,R4
    00000C8A 6903                   MOV         R0,R9
    00000C8C 2FB2                   MOV.L       R11,@R15
    00000C8E 65B3                   MOV         R11,R5
    00000C90 790C                   ADD         #12,R9
    00000C92 BF45                   BSR         __$get__24List__tm__12_P9ComponentFi_Z1Z
    00000C94 6493                   MOV         R9,R4
    00000C96 6803                   MOV         R0,R8
    00000C98 5A82                   MOV.L       @(8,R8),R10
    00000C9A 7A24                   ADD         #36,R10
    00000C9C 52A2                   MOV.L       @(8,R10),R2
    00000C9E 64A2                   MOV.L       @R10,R4
    00000CA0 420B                   JSR         @R2
    00000CA2 348C                   ADD         R8,R4
    00000CA4 7B01                   ADD         #1,R11
    00000CA6              L1723:                            
    00000CA6 65C3                   MOV         R12,R5
    00000CA8 B137                   BSR         __$get__26List__tm__14_P10GameObjectFi_Z1Z
    00000CAA 64E3                   MOV         R14,R4
    00000CAC 5206                   MOV.L       @(24,R0),R2
    00000CAE 3B23                   CMP/GE      R2,R11
    00000CB0 8BE8                   BF          L1724
    00000CB2              L1722:                            
    00000CB2 7C01                   ADD         #1,R12
    00000CB4              L1720:                            
    00000CB4 52E3                   MOV.L       @(12,R14),R2
    00000CB6 3C23                   CMP/GE      R2,R12
    00000CB8 8BD2                   BF          L1721
    00000CBA A022                   BRA         L1725
    00000CBC 6CD3                   MOV         R13,R12
    00000CBE              L1726:                            
    00000CBE 65C3                   MOV         R12,R5
    00000CC0 B12B                   BSR         __$get__26List__tm__14_P10GameObjectFi_Z1Z
    00000CC2 64E3                   MOV         R14,R4
    00000CC4 BEB6                   BSR         _IsActive__10GameObjectFv
    00000CC6 6403                   MOV         R0,R4
    00000CC8 2008                   TST         R0,R0
    00000CCA 8919                   BT          L1727
    00000CCC A012                   BRA         L1728
    00000CCE 6BD3                   MOV         R13,R11
    00000CD0              L1729:                            
    00000CD0 65C3                   MOV         R12,R5




SH SERIES C/C++ Compiler (Ver. 6.0C)                                                                 18-Nov-2021 16:33:51  PAGE   47


SCT OFFSET   CODE       C LABEL     INSTRUCTION OPERAND    COMMENT

    00000CD2 B122                   BSR         __$get__26List__tm__14_P10GameObjectFi_Z1Z
    00000CD4 64E3                   MOV         R14,R4
    00000CD6 6903                   MOV         R0,R9
    00000CD8 790C                   ADD         #12,R9
    00000CDA 68B3                   MOV         R11,R8
    00000CDC 2F92                   MOV.L       R9,@R15
    00000CDE 65B3                   MOV         R11,R5
    00000CE0 BF1E                   BSR         __$get__24List__tm__12_P9ComponentFi_Z1Z
    00000CE2 6493                   MOV         R9,R4
    00000CE4 6903                   MOV         R0,R9
    00000CE6 5A92                   MOV.L       @(8,R9),R10
    00000CE8 7A3C                   ADD         #60,R10
    00000CEA 52A2                   MOV.L       @(8,R10),R2
    00000CEC 64A2                   MOV.L       @R10,R4
    00000CEE 420B                   JSR         @R2
    00000CF0 349C                   ADD         R9,R4
    00000CF2 7B01                   ADD         #1,R11
    00000CF4              L1728:                            
    00000CF4 65C3                   MOV         R12,R5
    00000CF6 B110                   BSR         __$get__26List__tm__14_P10GameObjectFi_Z1Z
    00000CF8 64E3                   MOV         R14,R4
    00000CFA 5206                   MOV.L       @(24,R0),R2
    00000CFC 3B23                   CMP/GE      R2,R11
    00000CFE 8BE7                   BF          L1729
    00000D00              L1727:                            
    00000D00 7C01                   ADD         #1,R12
    00000D02              L1725:                            
    00000D02 52E3                   MOV.L       @(12,R14),R2
    00000D04 3C23                   CMP/GE      R2,R12
    00000D06 8BDA                   BF          L1726
    00000D08 9C31                   MOV.W       L1974,R12  ; H'0108
    00000D0A A022                   BRA         L1730
    00000D0C 6BD3                   MOV         R13,R11
    00000D0E              L1731:                            
    00000D0E 65B3                   MOV         R11,R5
    00000D10 B103                   BSR         __$get__26List__tm__14_P10GameObjectFi_Z1Z
    00000D12 64E3                   MOV         R14,R4
    00000D14 BE8E                   BSR         _IsActive__10GameObjectFv
    00000D16 6403                   MOV         R0,R4
    00000D18 2008                   TST         R0,R0
    00000D1A 8919                   BT          L1732
    00000D1C A012                   BRA         L1733
    00000D1E 6AD3                   MOV         R13,R10
    00000D20              L1734:                            
    00000D20 65B3                   MOV         R11,R5
    00000D22 B0FA                   BSR         __$get__26List__tm__14_P10GameObjectFi_Z1Z
    00000D24 64E3                   MOV         R14,R4
    00000D26 6803                   MOV         R0,R8
    00000D28 780C                   ADD         #12,R8
    00000D2A 65A3                   MOV         R10,R5
    00000D2C 1F81                   MOV.L       R8,@(4,R15)
    00000D2E 2FA2                   MOV.L       R10,@R15
    00000D30 BEF6                   BSR         __$get__24List__tm__12_P9ComponentFi_Z1Z
    00000D32 54F1                   MOV.L       @(4,R15),R4
    00000D34 6803                   MOV         R0,R8
    00000D36 5982                   MOV.L       @(8,R8),R9
    00000D38 39CC                   ADD         R12,R9




SH SERIES C/C++ Compiler (Ver. 6.0C)                                                                 18-Nov-2021 16:33:51  PAGE   48


SCT OFFSET   CODE       C LABEL     INSTRUCTION OPERAND    COMMENT

    00000D3A 5292                   MOV.L       @(8,R9),R2
    00000D3C 6492                   MOV.L       @R9,R4
    00000D3E 420B                   JSR         @R2
    00000D40 348C                   ADD         R8,R4
    00000D42 7A01                   ADD         #1,R10
    00000D44              L1733:                            
    00000D44 65B3                   MOV         R11,R5
    00000D46 B0E8                   BSR         __$get__26List__tm__14_P10GameObjectFi_Z1Z
    00000D48 64E3                   MOV         R14,R4
    00000D4A 5206                   MOV.L       @(24,R0),R2
    00000D4C 3A23                   CMP/GE      R2,R10
    00000D4E 8BE7                   BF          L1734
    00000D50              L1732:                            
    00000D50 7B01                   ADD         #1,R11
    00000D52              L1730:                            
    00000D52 52E3                   MOV.L       @(12,R14),R2
    00000D54 3B23                   CMP/GE      R2,R11
    00000D56 8BDA                   BF          L1731
    00000D58 A023                   BRA         L1735
    00000D5A 6BD3                   MOV         R13,R11
    00000D5C              L1736:                            
    00000D5C 65B3                   MOV         R11,R5
    00000D5E B0DC                   BSR         __$get__26List__tm__14_P10GameObjectFi_Z1Z
    00000D60 64E3                   MOV         R14,R4
    00000D62 BE67                   BSR         _IsActive__10GameObjectFv
    00000D64 6403                   MOV         R0,R4
    00000D66 2008                   TST         R0,R0
    00000D68 891A                   BT          L1737
    00000D6A A013                   BRA         L1738
    00000D6C 6AD3                   MOV         R13,R10
    00000D6E              L1974:                            
    00000D6E 0108                   .DATA.W     H'0108
    00000D70              L1739:                            
    00000D70 65B3                   MOV         R11,R5
    00000D72 B0D2                   BSR         __$get__26List__tm__14_P10GameObjectFi_Z1Z
    00000D74 64E3                   MOV         R14,R4
    00000D76 6803                   MOV         R0,R8
    00000D78 1FA1                   MOV.L       R10,@(4,R15)
    00000D7A 65A3                   MOV         R10,R5
    00000D7C 780C                   ADD         #12,R8
    00000D7E BECF                   BSR         __$get__24List__tm__12_P9ComponentFi_Z1Z
    00000D80 6483                   MOV         R8,R4
    00000D82 6403                   MOV         R0,R4
    00000D84 2F02                   MOV.L       R0,@R15
    00000D86 5902                   MOV.L       @(8,R0),R9
    00000D88 7948                   ADD         #72,R9
    00000D8A 5392                   MOV.L       @(8,R9),R3
    00000D8C 6292                   MOV.L       @R9,R2
    00000D8E 430B                   JSR         @R3
    00000D90 342C                   ADD         R2,R4
    00000D92 7A01                   ADD         #1,R10
    00000D94              L1738:                            
    00000D94 65B3                   MOV         R11,R5
    00000D96 B0C0                   BSR         __$get__26List__tm__14_P10GameObjectFi_Z1Z
    00000D98 64E3                   MOV         R14,R4
    00000D9A 5206                   MOV.L       @(24,R0),R2
    00000D9C 3A23                   CMP/GE      R2,R10




SH SERIES C/C++ Compiler (Ver. 6.0C)                                                                 18-Nov-2021 16:33:51  PAGE   49


SCT OFFSET   CODE       C LABEL     INSTRUCTION OPERAND    COMMENT

    00000D9E 8BE7                   BF          L1739
    00000DA0              L1737:                            
    00000DA0 7B01                   ADD         #1,R11
    00000DA2              L1735:                            
    00000DA2 52E3                   MOV.L       @(12,R14),R2
    00000DA4 3B23                   CMP/GE      R2,R11
    00000DA6 8BD9                   BF          L1736
    00000DA8 A012                   BRA         L1740
    00000DAA 6BD3                   MOV         R13,R11
    00000DAC              L1741:                            
    00000DAC 65B3                   MOV         R11,R5
    00000DAE B0B4                   BSR         __$get__26List__tm__14_P10GameObjectFi_Z1Z
    00000DB0 64E3                   MOV         R14,R4
    00000DB2 BE3F                   BSR         _IsActive__10GameObjectFv
    00000DB4 6403                   MOV         R0,R4
    00000DB6 2008                   TST         R0,R0
    00000DB8 8909                   BT          L1742
    00000DBA 65B3                   MOV         R11,R5
    00000DBC B0AD                   BSR         __$get__26List__tm__14_P10GameObjectFi_Z1Z
    00000DBE 64E3                   MOV         R14,R4
    00000DC0 590E                   MOV.L       @(56,R0),R9
    00000DC2 5A92                   MOV.L       @(8,R9),R10
    00000DC4 3ACC                   ADD         R12,R10
    00000DC6 53A2                   MOV.L       @(8,R10),R3
    00000DC8 64A2                   MOV.L       @R10,R4
    00000DCA 430B                   JSR         @R3
    00000DCC 349C                   ADD         R9,R4
    00000DCE              L1742:                            
    00000DCE 7B01                   ADD         #1,R11
    00000DD0              L1740:                            
    00000DD0 52E3                   MOV.L       @(12,R14),R2
    00000DD2 3B23                   CMP/GE      R2,R11
    00000DD4 8BEA                   BF          L1741
    00000DD6 A023                   BRA         L1743
    00000DD8 6CD3                   MOV         R13,R12
    00000DDA              L1744:                            
    00000DDA 65C3                   MOV         R12,R5
    00000DDC B09D                   BSR         __$get__26List__tm__14_P10GameObjectFi_Z1Z
    00000DDE 64E3                   MOV         R14,R4
    00000DE0 BE28                   BSR         _IsActive__10GameObjectFv
    00000DE2 6403                   MOV         R0,R4
    00000DE4 2008                   TST         R0,R0
    00000DE6 891A                   BT          L1745
    00000DE8 A013                   BRA         L1746
    00000DEA 6BD3                   MOV         R13,R11
    00000DEC              L1747:                            
    00000DEC 65C3                   MOV         R12,R5
    00000DEE B094                   BSR         __$get__26List__tm__14_P10GameObjectFi_Z1Z
    00000DF0 64E3                   MOV         R14,R4
    00000DF2 6803                   MOV         R0,R8
    00000DF4 780C                   ADD         #12,R8
    00000DF6 69B3                   MOV         R11,R9
    00000DF8 2F82                   MOV.L       R8,@R15
    00000DFA 65B3                   MOV         R11,R5
    00000DFC BE90                   BSR         __$get__24List__tm__12_P9ComponentFi_Z1Z
    00000DFE 6483                   MOV         R8,R4
    00000E00 9331                   MOV.W       L1975,R3   ; H'00B4




SH SERIES C/C++ Compiler (Ver. 6.0C)                                                                 18-Nov-2021 16:33:51  PAGE   50


SCT OFFSET   CODE       C LABEL     INSTRUCTION OPERAND    COMMENT

    00000E02 6803                   MOV         R0,R8
    00000E04 5A82                   MOV.L       @(8,R8),R10
    00000E06 3A3C                   ADD         R3,R10
    00000E08 52A2                   MOV.L       @(8,R10),R2
    00000E0A 64A2                   MOV.L       @R10,R4
    00000E0C 420B                   JSR         @R2
    00000E0E 348C                   ADD         R8,R4
    00000E10 7B01                   ADD         #1,R11
    00000E12              L1746:                            
    00000E12 65C3                   MOV         R12,R5
    00000E14 B081                   BSR         __$get__26List__tm__14_P10GameObjectFi_Z1Z
    00000E16 64E3                   MOV         R14,R4
    00000E18 5206                   MOV.L       @(24,R0),R2
    00000E1A 3B23                   CMP/GE      R2,R11
    00000E1C 8BE6                   BF          L1747
    00000E1E              L1745:                            
    00000E1E 7C01                   ADD         #1,R12
    00000E20              L1743:                            
    00000E20 52E3                   MOV.L       @(12,R14),R2
    00000E22 3C23                   CMP/GE      R2,R12
    00000E24 8BD9                   BF          L1744
    00000E26 7F08                   ADD         #8,R15
    00000E28 4F26                   LDS.L       @R15+,PR
    00000E2A 68F6                   MOV.L       @R15+,R8
    00000E2C 69F6                   MOV.L       @R15+,R9
    00000E2E 6AF6                   MOV.L       @R15+,R10
    00000E30 6BF6                   MOV.L       @R15+,R11
    00000E32 6CF6                   MOV.L       @R15+,R12
    00000E34 6DF6                   MOV.L       @R15+,R13
    00000E36 000B                   RTS
    00000E38 6EF6                   MOV.L       @R15+,R14
    00000E3A              _Start__5SceneFv:                ; function: Scene::Start()
                                                           ; frame size=36
    00000E3A 2FE6                   MOV.L       R14,@-R15
    00000E3C 2FD6                   MOV.L       R13,@-R15
    00000E3E 6E43                   MOV         R4,R14
    00000E40 2FC6                   MOV.L       R12,@-R15
    00000E42 2FB6                   MOV.L       R11,@-R15
    00000E44 2FA6                   MOV.L       R10,@-R15
    00000E46 EB00                   MOV         #0,R11
    00000E48 2F96                   MOV.L       R9,@-R15
    00000E4A 2F86                   MOV.L       R8,@-R15
    00000E4C 4F22                   STS.L       PR,@-R15
    00000E4E 7FFC                   ADD         #-4,R15
    00000E50 A024                   BRA         L1749
    00000E52 6DB3                   MOV         R11,R13
    00000E54              L1750:                            
    00000E54 65D3                   MOV         R13,R5
    00000E56 B060                   BSR         __$get__26List__tm__14_P10GameObjectFi_Z1Z
    00000E58 64E3                   MOV         R14,R4
    00000E5A BDEB                   BSR         _IsActive__10GameObjectFv
    00000E5C 6403                   MOV         R0,R4
    00000E5E 2008                   TST         R0,R0
    00000E60 891B                   BT          L1751
    00000E62 A014                   BRA         L1752
    00000E64 6CB3                   MOV         R11,R12
    00000E66              L1975:                            




SH SERIES C/C++ Compiler (Ver. 6.0C)                                                                 18-Nov-2021 16:33:51  PAGE   51


SCT OFFSET   CODE       C LABEL     INSTRUCTION OPERAND    COMMENT

    00000E66 00B4                   .DATA.W     H'00B4
    00000E68              L1753:                            
    00000E68 65D3                   MOV         R13,R5
    00000E6A B056                   BSR         __$get__26List__tm__14_P10GameObjectFi_Z1Z
    00000E6C 64E3                   MOV         R14,R4
    00000E6E 6903                   MOV         R0,R9
    00000E70 790C                   ADD         #12,R9
    00000E72 68C3                   MOV         R12,R8
    00000E74 65C3                   MOV         R12,R5
    00000E76 BE53                   BSR         __$get__24List__tm__12_P9ComponentFi_Z1Z
    00000E78 6493                   MOV         R9,R4
    00000E7A 6403                   MOV         R0,R4
    00000E7C 2F02                   MOV.L       R0,@R15
    00000E7E 9367                   MOV.W       L1976,R3   ; H'00FC
    00000E80 5A02                   MOV.L       @(8,R0),R10
    00000E82 3A3C                   ADD         R3,R10
    00000E84 52A2                   MOV.L       @(8,R10),R2
    00000E86 61A2                   MOV.L       @R10,R1
    00000E88 420B                   JSR         @R2
    00000E8A 341C                   ADD         R1,R4
    00000E8C 7C01                   ADD         #1,R12
    00000E8E              L1752:                            
    00000E8E 65D3                   MOV         R13,R5
    00000E90 B043                   BSR         __$get__26List__tm__14_P10GameObjectFi_Z1Z
    00000E92 64E3                   MOV         R14,R4
    00000E94 5206                   MOV.L       @(24,R0),R2
    00000E96 3C23                   CMP/GE      R2,R12
    00000E98 8BE6                   BF          L1753
    00000E9A              L1751:                            
    00000E9A 7D01                   ADD         #1,R13
    00000E9C              L1749:                            
    00000E9C 52E3                   MOV.L       @(12,R14),R2
    00000E9E 3D23                   CMP/GE      R2,R13
    00000EA0 8BD8                   BF          L1750
    00000EA2 A022                   BRA         L1754
    00000EA4 6DB3                   MOV         R11,R13
    00000EA6              L1755:                            
    00000EA6 65D3                   MOV         R13,R5
    00000EA8 B037                   BSR         __$get__26List__tm__14_P10GameObjectFi_Z1Z
    00000EAA 64E3                   MOV         R14,R4
    00000EAC BDC2                   BSR         _IsActive__10GameObjectFv
    00000EAE 6403                   MOV         R0,R4
    00000EB0 2008                   TST         R0,R0
    00000EB2 8919                   BT          L1756
    00000EB4 A012                   BRA         L1757
    00000EB6 6CB3                   MOV         R11,R12
    00000EB8              L1758:                            
    00000EB8 65D3                   MOV         R13,R5
    00000EBA B02E                   BSR         __$get__26List__tm__14_P10GameObjectFi_Z1Z
    00000EBC 64E3                   MOV         R14,R4
    00000EBE 6803                   MOV         R0,R8
    00000EC0 780C                   ADD         #12,R8
    00000EC2 69C3                   MOV         R12,R9
    00000EC4 65C3                   MOV         R12,R5
    00000EC6 BE2B                   BSR         __$get__24List__tm__12_P9ComponentFi_Z1Z
    00000EC8 6483                   MOV         R8,R4
    00000ECA 6403                   MOV         R0,R4




SH SERIES C/C++ Compiler (Ver. 6.0C)                                                                 18-Nov-2021 16:33:51  PAGE   52


SCT OFFSET   CODE       C LABEL     INSTRUCTION OPERAND    COMMENT

    00000ECC 2F02                   MOV.L       R0,@R15
    00000ECE 5A02                   MOV.L       @(8,R0),R10
    00000ED0 7A30                   ADD         #48,R10
    00000ED2 53A2                   MOV.L       @(8,R10),R3
    00000ED4 62A2                   MOV.L       @R10,R2
    00000ED6 430B                   JSR         @R3
    00000ED8 342C                   ADD         R2,R4
    00000EDA 7C01                   ADD         #1,R12
    00000EDC              L1757:                            
    00000EDC 65D3                   MOV         R13,R5
    00000EDE B01C                   BSR         __$get__26List__tm__14_P10GameObjectFi_Z1Z
    00000EE0 64E3                   MOV         R14,R4
    00000EE2 5206                   MOV.L       @(24,R0),R2
    00000EE4 3C23                   CMP/GE      R2,R12
    00000EE6 8BE7                   BF          L1758
    00000EE8              L1756:                            
    00000EE8 7D01                   ADD         #1,R13
    00000EEA              L1754:                            
    00000EEA 52E3                   MOV.L       @(12,R14),R2
    00000EEC 3D23                   CMP/GE      R2,R13
    00000EEE 8BDA                   BF          L1755
    00000EF0 7F04                   ADD         #4,R15
    00000EF2 4F26                   LDS.L       @R15+,PR
    00000EF4 68F6                   MOV.L       @R15+,R8
    00000EF6 69F6                   MOV.L       @R15+,R9
    00000EF8 6AF6                   MOV.L       @R15+,R10
    00000EFA 6BF6                   MOV.L       @R15+,R11
    00000EFC 6CF6                   MOV.L       @R15+,R12
    00000EFE 6DF6                   MOV.L       @R15+,R13
    00000F00 000B                   RTS
    00000F02 6EF6                   MOV.L       @R15+,R14
    00000F04              __$get_node__26List__tm__14_P10GameObjectFi_P15Node__tm__4_Z1Z:
                                                           ; function: Node<T1> *List<T1>::get_node(int) [with T1=GameObject *]
                                                           ; frame size=0
    00000F04 E700                   MOV         #0,R7
    00000F06 A002                   BRA         L1760
    00000F08 6642                   MOV.L       @R4,R6
    00000F0A              L1761:                            
    00000F0A 7701                   ADD         #1,R7
    00000F0C 5661                   MOV.L       @(4,R6),R6
    00000F0E              L1760:                            
    00000F0E 2668                   TST         R6,R6
    00000F10 8901                   BT          L1762
    00000F12 3750                   CMP/EQ      R5,R7
    00000F14 8BF9                   BF          L1761
    00000F16              L1762:                            
    00000F16 000B                   RTS
    00000F18 6063                   MOV         R6,R0
    00000F1A              __$get__26List__tm__14_P10GameObjectFi_Z1Z:
                                                           ; function: T1 List<T1>::get(int) [with T1=GameObject *]
                                                           ; frame size=4
    00000F1A E3FF                   MOV         #-1,R3
    00000F1C 4F22                   STS.L       PR,@-R15
    00000F1E 3533                   CMP/GE      R3,R5
    00000F20 8B04                   BF          L1388
    00000F22 BFEF                   BSR         __$get_node__26List__tm__14_P10GameObjectFi_P15Node__tm__4_Z1Z
    00000F24 0009                   NOP




SH SERIES C/C++ Compiler (Ver. 6.0C)                                                                 18-Nov-2021 16:33:51  PAGE   53


SCT OFFSET   CODE       C LABEL     INSTRUCTION OPERAND    COMMENT

    00000F26 6403                   MOV         R0,R4
    00000F28 2448                   TST         R4,R4
    00000F2A 8B02                   BF          L1766
    00000F2C              L1388:
    00000F2C 4F26                   LDS.L       @R15+,PR
    00000F2E 000B                   RTS
    00000F30 E000                   MOV         #0,R0
    00000F32              L1766:                            
    00000F32 6042                   MOV.L       @R4,R0
    00000F34              L1765:                            
    00000F34 4F26                   LDS.L       @R15+,PR
    00000F36 000B                   RTS
    00000F38 0009                   NOP
    00000F3A              __$get_node__20List__tm__9_P6CameraFi_P15Node__tm__4_Z1Z:
                                                           ; function: Node<T1> *List<T1>::get_node(int) [with T1=Camera *]
                                                           ; frame size=0
    00000F3A E700                   MOV         #0,R7
    00000F3C A002                   BRA         L1767
    00000F3E 6642                   MOV.L       @R4,R6
    00000F40              L1768:                            
    00000F40 5661                   MOV.L       @(4,R6),R6
    00000F42 7701                   ADD         #1,R7
    00000F44              L1767:                            
    00000F44 2668                   TST         R6,R6
    00000F46 8901                   BT          L1769
    00000F48 3750                   CMP/EQ      R5,R7
    00000F4A 8BF9                   BF          L1768
    00000F4C              L1769:                            
    00000F4C 000B                   RTS
    00000F4E 6063                   MOV         R6,R0
    00000F50              L1976:                            
    00000F50 00FC                   .DATA.W     H'00FC
    00000F52              __$get__20List__tm__9_P6CameraFi_Z1Z:
                                                           ; function: T1 List<T1>::get(int) [with T1=Camera *]
                                                           ; frame size=4
    00000F52 E3FF                   MOV         #-1,R3
    00000F54 4F22                   STS.L       PR,@-R15
    00000F56 3533                   CMP/GE      R3,R5
    00000F58 8B04                   BF          L1389
    00000F5A BFEE                   BSR         __$get_node__20List__tm__9_P6CameraFi_P15Node__tm__4_Z1Z
    00000F5C 0009                   NOP
    00000F5E 6403                   MOV         R0,R4
    00000F60 2448                   TST         R4,R4
    00000F62 8B02                   BF          L1773
    00000F64              L1389:
    00000F64 4F26                   LDS.L       @R15+,PR
    00000F66 000B                   RTS
    00000F68 E000                   MOV         #0,R0
    00000F6A              L1773:                            
    00000F6A 6042                   MOV.L       @R4,R0
    00000F6C              L1772:                            
    00000F6C 4F26                   LDS.L       @R15+,PR
    00000F6E 000B                   RTS
    00000F70 0009                   NOP
    00000F72              __$get_node__26List__tm__14_P10Collider2DFi_P15Node__tm__4_Z1Z:
                                                           ; function: Node<T1> *List<T1>::get_node(int) [with T1=Collider2D *]
                                                           ; frame size=0




SH SERIES C/C++ Compiler (Ver. 6.0C)                                                                 18-Nov-2021 16:33:51  PAGE   54


SCT OFFSET   CODE       C LABEL     INSTRUCTION OPERAND    COMMENT

    00000F72 E700                   MOV         #0,R7
    00000F74 A002                   BRA         L1774
    00000F76 6642                   MOV.L       @R4,R6
    00000F78              L1775:                            
    00000F78 5661                   MOV.L       @(4,R6),R6
    00000F7A 7701                   ADD         #1,R7
    00000F7C              L1774:                            
    00000F7C 2668                   TST         R6,R6
    00000F7E 8901                   BT          L1776
    00000F80 3750                   CMP/EQ      R5,R7
    00000F82 8BF9                   BF          L1775
    00000F84              L1776:                            
    00000F84 000B                   RTS
    00000F86 6063                   MOV         R6,R0
    00000F88              __$prepop__26List__tm__14_P10Collider2DFv_Z1Z:
                                                           ; function: T1 List<T1>::prepop() [with T1=Collider2D *]
                                                           ; frame size=0
    00000F88 6342                   MOV.L       @R4,R3
    00000F8A 2338                   TST         R3,R3
    00000F8C 8B01                   BF          L1778
    00000F8E 000B                   RTS
    00000F90 E000                   MOV         #0,R0
    00000F92              L1778:                            
    00000F92 6642                   MOV.L       @R4,R6
    00000F94 5341                   MOV.L       @(4,R4),R3
    00000F96 6762                   MOV.L       @R6,R7
    00000F98 3630                   CMP/EQ      R3,R6
    00000F9A 8F03                   BF/S        L1780
    00000F9C E500                   MOV         #0,R5
    00000F9E 2452                   MOV.L       R5,@R4
    00000FA0 A005                   BRA         L1781
    00000FA2 1451                   MOV.L       R5,@(4,R4)
    00000FA4              L1780:                            
    00000FA4 6242                   MOV.L       @R4,R2
    00000FA6 5321                   MOV.L       @(4,R2),R3
    00000FA8 2432                   MOV.L       R3,@R4
    00000FAA 6233                   MOV         R3,R2
    00000FAC 1252                   MOV.L       R5,@(8,R2)
    00000FAE              L1781:                            
    00000FAE 6073                   MOV         R7,R0
    00000FB0 5343                   MOV.L       @(12,R4),R3
    00000FB2 73FF                   ADD         #-1,R3
    00000FB4 1433                   MOV.L       R3,@(12,R4)
    00000FB6              L1779:                            
    00000FB6 000B                   RTS
    00000FB8 0009                   NOP
    00000FBA              __$get__26List__tm__14_P10Collider2DFi_Z1Z:
                                                           ; function: T1 List<T1>::get(int) [with T1=Collider2D *]
                                                           ; frame size=4
    00000FBA E3FF                   MOV         #-1,R3
    00000FBC 4F22                   STS.L       PR,@-R15
    00000FBE 3533                   CMP/GE      R3,R5
    00000FC0 8B04                   BF          L1390
    00000FC2 BFD6                   BSR         __$get_node__26List__tm__14_P10Collider2DFi_P15Node__tm__4_Z1Z
    00000FC4 0009                   NOP
    00000FC6 6403                   MOV         R0,R4
    00000FC8 2448                   TST         R4,R4




SH SERIES C/C++ Compiler (Ver. 6.0C)                                                                 18-Nov-2021 16:33:51  PAGE   55


SCT OFFSET   CODE       C LABEL     INSTRUCTION OPERAND    COMMENT

    00000FCA 8B02                   BF          L1784
    00000FCC              L1390:
    00000FCC 4F26                   LDS.L       @R15+,PR
    00000FCE 000B                   RTS
    00000FD0 E000                   MOV         #0,R0
    00000FD2              L1784:                            
    00000FD2 6042                   MOV.L       @R4,R0
    00000FD4              L1783:                            
    00000FD4 4F26                   LDS.L       @R15+,PR
    00000FD6 000B                   RTS
    00000FD8 0009                   NOP
    00000FDA              __$RemoveAt__26List__tm__14_P10Collider2DFi_Z1Z:
                                                           ; function: T1 List<T1>::RemoveAt(int) [with T1=Collider2D *]
                                                           ; frame size=12
    00000FDA 4511                   CMP/PZ      R5
    00000FDC 2FE6                   MOV.L       R14,@-R15
    00000FDE 4F22                   STS.L       PR,@-R15
    00000FE0 7FFC                   ADD         #-4,R15
    00000FE2 8F0C                   BF/S        L1391
    00000FE4 6E43                   MOV         R4,R14
    00000FE6 2558                   TST         R5,R5
    00000FE8 8B04                   BF          L1787
    00000FEA 64E3                   MOV         R14,R4
    00000FEC 7F04                   ADD         #4,R15
    00000FEE 4F26                   LDS.L       @R15+,PR
    00000FF0 AFCA                   BRA         __$prepop__26List__tm__14_P10Collider2DFv_Z1Z
    00000FF2 6EF6                   MOV.L       @R15+,R14
    00000FF4              L1787:                            
    00000FF4 BFBD                   BSR         __$get_node__26List__tm__14_P10Collider2DFi_P15Node__tm__4_Z1Z
    00000FF6 64E3                   MOV         R14,R4
    00000FF8 6403                   MOV         R0,R4
    00000FFA 2448                   TST         R4,R4
    00000FFC 8B04                   BF          L1788
    00000FFE              L1391:
    00000FFE E000                   MOV         #0,R0
    00001000 7F04                   ADD         #4,R15
    00001002 4F26                   LDS.L       @R15+,PR
    00001004 000B                   RTS
    00001006 6EF6                   MOV.L       @R15+,R14
    00001008              L1788:                            
    00001008 5341                   MOV.L       @(4,R4),R3
    0000100A 2338                   TST         R3,R3
    0000100C 8B15                   BF          L1789
    0000100E 55E1                   MOV.L       @(4,R14),R5
    00001010 63E2                   MOV.L       @R14,R3
    00001012 3350                   CMP/EQ      R5,R3
    00001014 8F04                   BF/S        L1790
    00001016 6452                   MOV.L       @R5,R4
    00001018 E000                   MOV         #0,R0
    0000101A 2E02                   MOV.L       R0,@R14
    0000101C A005                   BRA         L1791
    0000101E 1E01                   MOV.L       R0,@(4,R14)
    00001020              L1790:                            
    00001020 50E1                   MOV.L       @(4,R14),R0
    00001022 E300                   MOV         #0,R3
    00001024 5002                   MOV.L       @(8,R0),R0
    00001026 1E01                   MOV.L       R0,@(4,R14)




SH SERIES C/C++ Compiler (Ver. 6.0C)                                                                 18-Nov-2021 16:33:51  PAGE   56


SCT OFFSET   CODE       C LABEL     INSTRUCTION OPERAND    COMMENT

    00001028 1031                   MOV.L       R3,@(4,R0)
    0000102A              L1791:                            
    0000102A 50E3                   MOV.L       @(12,R14),R0
    0000102C 70FF                   ADD         #-1,R0
    0000102E 1E03                   MOV.L       R0,@(12,R14)
    00001030 6043                   MOV         R4,R0
    00001032 7F04                   ADD         #4,R15
    00001034 4F26                   LDS.L       @R15+,PR
    00001036 000B                   RTS
    00001038 6EF6                   MOV.L       @R15+,R14
    0000103A              L1789:                            
    0000103A 6342                   MOV.L       @R4,R3
    0000103C 2F32                   MOV.L       R3,@R15
    0000103E 5241                   MOV.L       @(4,R4),R2
    00001040 5342                   MOV.L       @(8,R4),R3
    00001042 1232                   MOV.L       R3,@(8,R2)
    00001044 5242                   MOV.L       @(8,R4),R2
    00001046 5341                   MOV.L       @(4,R4),R3
    00001048 1231                   MOV.L       R3,@(4,R2)
    0000104A 52E2                   MOV.L       @(8,R14),R2
    0000104C 2228                   TST         R2,R2
    0000104E 8902                   BT          L1792
    00001050 D33C                   MOV.L       L1977+2,R3 ; ___dl__FPv
    00001052 430B                   JSR         @R3
    00001054 0009                   NOP
    00001056              L1792:                            
    00001056 52E3                   MOV.L       @(12,R14),R2
    00001058 72FF                   ADD         #-1,R2
    0000105A 1E23                   MOV.L       R2,@(12,R14)
    0000105C 60F2                   MOV.L       @R15,R0
    0000105E              L1786:                            
    0000105E 7F04                   ADD         #4,R15
    00001060 4F26                   LDS.L       @R15+,PR
    00001062 000B                   RTS
    00001064 6EF6                   MOV.L       @R15+,R14
    00001066              ___ct__6CameraFP10GameObjectPCc: ; function: Camera::Camera(GameObject *, const char *)
                                                           ; frame size=24
    00001066 2FE6                   MOV.L       R14,@-R15
    00001068 2FD6                   MOV.L       R13,@-R15
    0000106A 4F22                   STS.L       PR,@-R15
    0000106C 7FF4                   ADD         #-12,R15
    0000106E 2F42                   MOV.L       R4,@R15
    00001070 1F51                   MOV.L       R5,@(4,R15)
    00001072 1F62                   MOV.L       R6,@(8,R15)
    00001074 63F2                   MOV.L       @R15,R3
    00001076 2338                   TST         R3,R3
    00001078 8B05                   BF          L1794
    0000107A D333                   MOV.L       L1977+6,R3 ; ___nw__FUl
    0000107C 430B                   JSR         @R3
    0000107E E418                   MOV         #24,R4
    00001080 2008                   TST         R0,R0
    00001082 8D27                   BT/S        L1793
    00001084 2F02                   MOV.L       R0,@R15
    00001086              L1794:                            
    00001086 57F2                   MOV.L       @(8,R15),R7
    00001088 56F1                   MOV.L       @(4,R15),R6
    0000108A D530                   MOV.L       L1977+10,R5; L427




SH SERIES C/C++ Compiler (Ver. 6.0C)                                                                 18-Nov-2021 16:33:51  PAGE   57


SCT OFFSET   CODE       C LABEL     INSTRUCTION OPERAND    COMMENT

    0000108C BB30                   BSR         ___ct__9BehaviourFPCcP10GameObjectT1
    0000108E 64F2                   MOV.L       @R15,R4
    00001090 62F2                   MOV.L       @R15,R2
    00001092 D32F                   MOV.L       L1977+14,R3; __$__vtbl__6Camera
    00001094 1232                   MOV.L       R3,@(8,R2)
    00001096 5EF1                   MOV.L       @(4,R15),R14
    00001098 D32B                   MOV.L       L1977+6,R3 ; ___nw__FUl
    0000109A 5EEB                   MOV.L       @(44,R14),R14
    0000109C 7E14                   ADD         #20,R14
    0000109E 430B                   JSR         @R3
    000010A0 E40C                   MOV         #12,R4
    000010A2 2008                   TST         R0,R0
    000010A4 8D06                   BT/S        L1795
    000010A6 6D03                   MOV         R0,R13
    000010A8 D32A                   MOV.L       L1977+18,R3; ___memzero
    000010AA E50C                   MOV         #12,R5
    000010AC 430B                   JSR         @R3
    000010AE 64D3                   MOV         R13,R4
    000010B0 A001                   BRA         L1796
    000010B2 64D3                   MOV         R13,R4
    000010B4              L1795:                            
    000010B4 E400                   MOV         #0,R4
    000010B6              L1796:                            
    000010B6 63F2                   MOV.L       @R15,R3
    000010B8 2432                   MOV.L       R3,@R4
    000010BA 52E3                   MOV.L       @(12,R14),R2
    000010BC 7201                   ADD         #1,R2
    000010BE 1E23                   MOV.L       R2,@(12,R14)
    000010C0 63E2                   MOV.L       @R14,R3
    000010C2 2338                   TST         R3,R3
    000010C4 8B01                   BF          L1797
    000010C6 A004                   BRA         L1392
    000010C8 2E42                   MOV.L       R4,@R14
    000010CA              L1797:                            
    000010CA 53E1                   MOV.L       @(4,R14),R3
    000010CC 1432                   MOV.L       R3,@(8,R4)
    000010CE 52E1                   MOV.L       @(4,R14),R2
    000010D0 1241                   MOV.L       R4,@(4,R2)
    000010D2              L1392:
    000010D2 1E41                   MOV.L       R4,@(4,R14)
    000010D4              L1793:                            
    000010D4 60F2                   MOV.L       @R15,R0
    000010D6 7F0C                   ADD         #12,R15
    000010D8 4F26                   LDS.L       @R15+,PR
    000010DA 6DF6                   MOV.L       @R15+,R13
    000010DC 000B                   RTS
    000010DE 6EF6                   MOV.L       @R15+,R14
    000010E0              __$__dt__6CameraFv:              ; function: Camera::~Camera()
                                                           ; frame size=4
    000010E0 2FE6                   MOV.L       R14,@-R15
    000010E2 6E43                   MOV         R4,R14
    000010E4 2EE8                   TST         R14,R14
    000010E6 890B                   BT          L1802
    000010E8 D219                   MOV.L       L1977+14,R2; __$__vtbl__6Camera
    000010EA D31B                   MOV.L       L1977+22,R3; __$__vtbl__9Behaviour
    000010EC D21B                   MOV.L       L1977+26,R2; __$__vtbl__9Component
    000010EE D31C                   MOV.L       L1977+30,R3; __$__vtbl__6Object




SH SERIES C/C++ Compiler (Ver. 6.0C)                                                                 18-Nov-2021 16:33:51  PAGE   58


SCT OFFSET   CODE       C LABEL     INSTRUCTION OPERAND    COMMENT

    000010F0 1E32                   MOV.L       R3,@(8,R14)
    000010F2 E201                   MOV         #1,R2
    000010F4 2528                   TST         R2,R5
    000010F6 8903                   BT          L1802
    000010F8 D112                   MOV.L       L1977+2,R1 ; ___dl__FPv
    000010FA 64E3                   MOV         R14,R4
    000010FC 412B                   JMP         @R1
    000010FE 6EF6                   MOV.L       @R15+,R14
    00001100              L1802:                            
    00001100 000B                   RTS
    00001102 6EF6                   MOV.L       @R15+,R14
    00001104              ___ct__5ImageFP10GameObjectP7TexturePCc:
                                                           ; function: Image::Image(GameObject *, Texture *, const char *)
                                                           ; frame size=20
    00001104 4F22                   STS.L       PR,@-R15
    00001106 7FF0                   ADD         #-16,R15
    00001108 2F42                   MOV.L       R4,@R15
    0000110A 1F52                   MOV.L       R5,@(8,R15)
    0000110C 1F61                   MOV.L       R6,@(4,R15)
    0000110E 1F73                   MOV.L       R7,@(12,R15)
    00001110 63F2                   MOV.L       @R15,R3
    00001112 2338                   TST         R3,R3
    00001114 8B05                   BF          L1804
    00001116 D30C                   MOV.L       L1977+6,R3 ; ___nw__FUl
    00001118 430B                   JSR         @R3
    0000111A E420                   MOV         #32,R4
    0000111C 2008                   TST         R0,R0
    0000111E 8D0B                   BT/S        L1803
    00001120 2F02                   MOV.L       R0,@R15
    00001122              L1804:                            
    00001122 57F3                   MOV.L       @(12,R15),R7
    00001124 56F2                   MOV.L       @(8,R15),R6
    00001126 D50F                   MOV.L       L1977+34,R5; L428
    00001128 BB78                   BSR         ___ct__13MonoBehaviourFPCcP10GameObjectT1
    0000112A 64F2                   MOV.L       @R15,R4
    0000112C 62F2                   MOV.L       @R15,R2
    0000112E D30E                   MOV.L       L1977+38,R3; ___vtbl__5Image
    00001130 1232                   MOV.L       R3,@(8,R2)
    00001132 62F2                   MOV.L       @R15,R2
    00001134 53F1                   MOV.L       @(4,R15),R3
    00001136 1237                   MOV.L       R3,@(28,R2)
    00001138              L1803:                            
    00001138 60F2                   MOV.L       @R15,R0
    0000113A 7F10                   ADD         #16,R15
    0000113C 4F26                   LDS.L       @R15+,PR
    0000113E 000B                   RTS
    00001140 0009                   NOP
    00001142              L1977:                            
    00001142 0000                   .DATA.W     0
    00001144 <00000000>             .DATA.L     ___dl__FPv
    00001148 <00000000>             .DATA.L     ___nw__FUl
    0000114C <00000000>             .DATA.L     L427
    00001150 <00000000>             .DATA.L     __$__vtbl__6Camera
    00001154 <00000000>             .DATA.L     ___memzero
    00001158 <00000000>             .DATA.L     __$__vtbl__9Behaviour
    0000115C <00000000>             .DATA.L     __$__vtbl__9Component
    00001160 <00000000>             .DATA.L     __$__vtbl__6Object




SH SERIES C/C++ Compiler (Ver. 6.0C)                                                                 18-Nov-2021 16:33:51  PAGE   59


SCT OFFSET   CODE       C LABEL     INSTRUCTION OPERAND    COMMENT

    00001164 <00000000>             .DATA.L     L428
    00001168 <00000000>             .DATA.L     ___vtbl__5Image
    0000116C              _OnRenderObject__5ImageFv:       ; function: Image::OnRenderObject()
                                                           ; frame size=44
                                                           ; used runtime library name:
                                                           ; __adds, __subs, __stoi, __itos, __gts, __lts
    0000116C 2FE6                   MOV.L       R14,@-R15
    0000116E E040                   MOV         #64,R0
    00001170 2FD6                   MOV.L       R13,@-R15
    00001172 6E43                   MOV         R4,R14
    00001174 2FC6                   MOV.L       R12,@-R15
    00001176 E500                   MOV         #0,R5
    00001178 2FB6                   MOV.L       R11,@-R15
    0000117A 2FA6                   MOV.L       R10,@-R15
    0000117C 4F22                   STS.L       PR,@-R15
    0000117E 7FF0                   ADD         #-16,R15
    00001180 54E3                   MOV.L       @(12,R14),R4
    00001182 1F41                   MOV.L       R4,@(4,R15)
    00001184 544E                   MOV.L       @(56,R4),R4
    00001186 1F42                   MOV.L       R4,@(8,R15)
    00001188 044E                   MOV.L       @(R0,R4),R4
    0000118A 6342                   MOV.L       @R4,R3
    0000118C 1F33                   MOV.L       R3,@(12,R15)
    0000118E 5C41                   MOV.L       @(4,R4),R12
    00001190 53F1                   MOV.L       @(4,R15),R3
    00001192 513B                   MOV.L       @(44,R3),R1
    00001194 7114                   ADD         #20,R1
    00001196 2F12                   MOV.L       R1,@R15
    00001198 BEDB                   BSR         __$get__20List__tm__9_P6CameraFi_Z1Z
    0000119A 6413                   MOV         R1,R4
    0000119C 5203                   MOV.L       @(12,R0),R2
    0000119E E500                   MOV         #0,R5
    000011A0 532E                   MOV.L       @(56,R2),R3
    000011A2 E040                   MOV         #64,R0
    000011A4 013E                   MOV.L       @(R0,R3),R1
    000011A6 6212                   MOV.L       @R1,R2
    000011A8 1F21                   MOV.L       R2,@(4,R15)
    000011AA 5DE3                   MOV.L       @(12,R14),R13
    000011AC 5DDB                   MOV.L       @(44,R13),R13
    000011AE 7D14                   ADD         #20,R13
    000011B0 2FD2                   MOV.L       R13,@R15
    000011B2 BECE                   BSR         __$get__20List__tm__9_P6CameraFi_Z1Z
    000011B4 64D3                   MOV         R13,R4
    000011B6 5D03                   MOV.L       @(12,R0),R13
    000011B8 51F3                   MOV.L       @(12,R15),R1
    000011BA E040                   MOV         #64,R0
    000011BC D38F                   MOV.L       L1978+2,R3 ; __subs
    000011BE 5DDE                   MOV.L       @(56,R13),R13
    000011C0 0DDE                   MOV.L       @(R0,R13),R13
    000011C2 5DD1                   MOV.L       @(4,R13),R13
    000011C4 430B                   JSR         @R3
    000011C6 50F1                   MOV.L       @(4,R15),R0
    000011C8 D38D                   MOV.L       L1978+6,R3 ; __itos
    000011CA 6B03                   MOV         R0,R11
    000011CC 50E7                   MOV.L       @(28,R14),R0
    000011CE 430B                   JSR         @R3
    000011D0 5006                   MOV.L       @(24,R0),R0




SH SERIES C/C++ Compiler (Ver. 6.0C)                                                                 18-Nov-2021 16:33:51  PAGE   60


SCT OFFSET   CODE       C LABEL     INSTRUCTION OPERAND    COMMENT

    000011D2 6403                   MOV         R0,R4
    000011D4 D28B                   MOV.L       L1978+10,R2; __adds
    000011D6 420B                   JSR         @R2
    000011D8 61B3                   MOV         R11,R1
    000011DA D38B                   MOV.L       L1978+14,R3; __lts
    000011DC 430B                   JSR         @R3
    000011DE E100                   MOV         #0,R1
    000011E0 8800                   CMP/EQ      #0,R0
    000011E2 8930                   BT          L1807
    000011E4 D089                   MOV.L       L1978+18,R0; H'43000000
    000011E6 D288                   MOV.L       L1978+14,R2; __lts
    000011E8 420B                   JSR         @R2
    000011EA 61B3                   MOV         R11,R1
    000011EC 8800                   CMP/EQ      #0,R0
    000011EE 892A                   BT          L1807
    000011F0 D384                   MOV.L       L1978+10,R3; __adds
    000011F2 6143                   MOV         R4,R1
    000011F4 430B                   JSR         @R3
    000011F6 60C3                   MOV         R12,R0
    000011F8 D280                   MOV.L       L1978+2,R2 ; __subs
    000011FA 6103                   MOV         R0,R1
    000011FC 420B                   JSR         @R2
    000011FE 60D3                   MOV         R13,R0
    00001200 D381                   MOV.L       L1978+14,R3; __lts
    00001202 430B                   JSR         @R3
    00001204 E100                   MOV         #0,R1
    00001206 8800                   CMP/EQ      #0,R0
    00001208 891D                   BT          L1807
    0000120A 61C3                   MOV         R12,R1
    0000120C D27B                   MOV.L       L1978+2,R2 ; __subs
    0000120E 420B                   JSR         @R2
    00001210 60D3                   MOV         R13,R0
    00001212 D17F                   MOV.L       L1978+22,R1; H'42800000
    00001214 D37F                   MOV.L       L1978+26,R3; __gts
    00001216 430B                   JSR         @R3
    00001218 0009                   NOP
    0000121A 8800                   CMP/EQ      #0,R0
    0000121C 8913                   BT          L1807
    0000121E 61C3                   MOV         R12,R1
    00001220 D376                   MOV.L       L1978+2,R3 ; __subs
    00001222 5AE7                   MOV.L       @(28,R14),R10
    00001224 52A6                   MOV.L       @(24,R10),R2
    00001226 2F26                   MOV.L       R2,@-R15
    00001228 57A8                   MOV.L       @(32,R10),R7
    0000122A 430B                   JSR         @R3
    0000122C 60D3                   MOV         R13,R0
    0000122E D27A                   MOV.L       L1978+30,R2; __stoi
    00001230 420B                   JSR         @R2
    00001232 0009                   NOP
    00001234 D378                   MOV.L       L1978+30,R3; __stoi
    00001236 6603                   MOV         R0,R6
    00001238 430B                   JSR         @R3
    0000123A 60B3                   MOV         R11,R0
    0000123C D277                   MOV.L       L1978+34,R2; _ML_bmp_or_cl
    0000123E 6503                   MOV         R0,R5
    00001240 420B                   JSR         @R2
    00001242 54A3                   MOV.L       @(12,R10),R4




SH SERIES C/C++ Compiler (Ver. 6.0C)                                                                 18-Nov-2021 16:33:51  PAGE   61


SCT OFFSET   CODE       C LABEL     INSTRUCTION OPERAND    COMMENT

    00001244 7F04                   ADD         #4,R15
    00001246              L1807:                            
    00001246 7F10                   ADD         #16,R15
    00001248 4F26                   LDS.L       @R15+,PR
    0000124A 6AF6                   MOV.L       @R15+,R10
    0000124C 6BF6                   MOV.L       @R15+,R11
    0000124E 6CF6                   MOV.L       @R15+,R12
    00001250 6DF6                   MOV.L       @R15+,R13
    00001252 000B                   RTS
    00001254 6EF6                   MOV.L       @R15+,R14
    00001256              __$__dt__5ImageFv:               ; function: Image::~Image()
                                                           ; frame size=4
    00001256 2FE6                   MOV.L       R14,@-R15
    00001258 6E43                   MOV         R4,R14
    0000125A 2EE8                   TST         R14,R14
    0000125C 890C                   BT          L1810
    0000125E D270                   MOV.L       L1978+38,R2; ___vtbl__5Image
    00001260 D370                   MOV.L       L1978+42,R3; __$__vtbl__13MonoBehaviour
    00001262 D271                   MOV.L       L1978+46,R2; __$__vtbl__9Behaviour
    00001264 D371                   MOV.L       L1978+50,R3; __$__vtbl__9Component
    00001266 D272                   MOV.L       L1978+54,R2; __$__vtbl__6Object
    00001268 1E22                   MOV.L       R2,@(8,R14)
    0000126A E301                   MOV         #1,R3
    0000126C 2538                   TST         R3,R5
    0000126E 8903                   BT          L1810
    00001270 D170                   MOV.L       L1978+58,R1; ___dl__FPv
    00001272 64E3                   MOV         R14,R4
    00001274 412B                   JMP         @R1
    00001276 6EF6                   MOV.L       @R15+,R14
    00001278              L1810:                            
    00001278 000B                   RTS
    0000127A 6EF6                   MOV.L       @R15+,R14
    0000127C              ___ct__6SpriteFP10GameObjectP7TexturebPCc:
                                                           ; function: Sprite::Sprite(GameObject *, Texture *, bool, const char *)
                                                           ; frame size=20
    0000127C 4F22                   STS.L       PR,@-R15
    0000127E 7FF0                   ADD         #-16,R15
    00001280 2F42                   MOV.L       R4,@R15
    00001282 1F53                   MOV.L       R5,@(12,R15)
    00001284 1F62                   MOV.L       R6,@(8,R15)
    00001286 1F71                   MOV.L       R7,@(4,R15)
    00001288 63F2                   MOV.L       @R15,R3
    0000128A 2338                   TST         R3,R3
    0000128C 8B05                   BF          L1812
    0000128E D36A                   MOV.L       L1978+62,R3; ___nw__FUl
    00001290 430B                   JSR         @R3
    00001292 E424                   MOV         #36,R4
    00001294 2008                   TST         R0,R0
    00001296 8D0E                   BT/S        L1811
    00001298 2F02                   MOV.L       R0,@R15
    0000129A              L1812:                            
    0000129A 57F5                   MOV.L       @(20,R15),R7
    0000129C 56F3                   MOV.L       @(12,R15),R6
    0000129E D567                   MOV.L       L1978+66,R5; L429
    000012A0 BABC                   BSR         ___ct__13MonoBehaviourFPCcP10GameObjectT1
    000012A2 64F2                   MOV.L       @R15,R4
    000012A4 62F2                   MOV.L       @R15,R2




SH SERIES C/C++ Compiler (Ver. 6.0C)                                                                 18-Nov-2021 16:33:51  PAGE   62


SCT OFFSET   CODE       C LABEL     INSTRUCTION OPERAND    COMMENT

    000012A6 D366                   MOV.L       L1978+70,R3; ___vtbl__6Sprite
    000012A8 1232                   MOV.L       R3,@(8,R2)
    000012AA 62F2                   MOV.L       @R15,R2
    000012AC 53F2                   MOV.L       @(8,R15),R3
    000012AE 1237                   MOV.L       R3,@(28,R2)
    000012B0 62F2                   MOV.L       @R15,R2
    000012B2 53F1                   MOV.L       @(4,R15),R3
    000012B4 1238                   MOV.L       R3,@(32,R2)
    000012B6              L1811:                            
    000012B6 60F2                   MOV.L       @R15,R0
    000012B8 7F10                   ADD         #16,R15
    000012BA 4F26                   LDS.L       @R15+,PR
    000012BC 000B                   RTS
    000012BE 0009                   NOP
    000012C0              _OnRenderObject__6SpriteFv:      ; function: Sprite::OnRenderObject()
                                                           ; frame size=48
                                                           ; used runtime library name:
                                                           ; __adds, __subs, __stoi, __itos, __gts, __lts
    000012C0 2FE6                   MOV.L       R14,@-R15
    000012C2 E040                   MOV         #64,R0
    000012C4 2FD6                   MOV.L       R13,@-R15
    000012C6 6E43                   MOV         R4,R14
    000012C8 2FC6                   MOV.L       R12,@-R15
    000012CA E500                   MOV         #0,R5
    000012CC 2FB6                   MOV.L       R11,@-R15
    000012CE 4F22                   STS.L       PR,@-R15
    000012D0 7FF0                   ADD         #-16,R15
    000012D2 54E3                   MOV.L       @(12,R14),R4
    000012D4 1F41                   MOV.L       R4,@(4,R15)
    000012D6 544E                   MOV.L       @(56,R4),R4
    000012D8 1F43                   MOV.L       R4,@(12,R15)
    000012DA 044E                   MOV.L       @(R0,R4),R4
    000012DC 6342                   MOV.L       @R4,R3
    000012DE 1F32                   MOV.L       R3,@(8,R15)
    000012E0 5D41                   MOV.L       @(4,R4),R13
    000012E2 53F1                   MOV.L       @(4,R15),R3
    000012E4 513B                   MOV.L       @(44,R3),R1
    000012E6 7114                   ADD         #20,R1
    000012E8 2F12                   MOV.L       R1,@R15
    000012EA BE32                   BSR         __$get__20List__tm__9_P6CameraFi_Z1Z
    000012EC 6413                   MOV         R1,R4
    000012EE E500                   MOV         #0,R5
    000012F0 5203                   MOV.L       @(12,R0),R2
    000012F2 E040                   MOV         #64,R0
    000012F4 532E                   MOV.L       @(56,R2),R3
    000012F6 013E                   MOV.L       @(R0,R3),R1
    000012F8 6212                   MOV.L       @R1,R2
    000012FA 2F22                   MOV.L       R2,@R15
    000012FC 53E3                   MOV.L       @(12,R14),R3
    000012FE 513B                   MOV.L       @(44,R3),R1
    00001300 7114                   ADD         #20,R1
    00001302 1F11                   MOV.L       R1,@(4,R15)
    00001304 BE25                   BSR         __$get__20List__tm__9_P6CameraFi_Z1Z
    00001306 6413                   MOV         R1,R4
    00001308 5203                   MOV.L       @(12,R0),R2
    0000130A E040                   MOV         #64,R0
    0000130C 532E                   MOV.L       @(56,R2),R3




SH SERIES C/C++ Compiler (Ver. 6.0C)                                                                 18-Nov-2021 16:33:51  PAGE   63


SCT OFFSET   CODE       C LABEL     INSTRUCTION OPERAND    COMMENT

    0000130E 013E                   MOV.L       @(R0,R3),R1
    00001310 D33A                   MOV.L       L1978+2,R3 ; __subs
    00001312 5411                   MOV.L       @(4,R1),R4
    00001314 51F2                   MOV.L       @(8,R15),R1
    00001316 430B                   JSR         @R3
    00001318 60F2                   MOV.L       @R15,R0
    0000131A 6C03                   MOV         R0,R12
    0000131C D337                   MOV.L       L1978+2,R3 ; __subs
    0000131E 61D3                   MOV         R13,R1
    00001320 430B                   JSR         @R3
    00001322 6043                   MOV         R4,R0
    00001324 D23C                   MOV.L       L1978+30,R2; __stoi
    00001326 420B                   JSR         @R2
    00001328 0009                   NOP
    0000132A 6B03                   MOV         R0,R11
    0000132C D334                   MOV.L       L1978+6,R3 ; __itos
    0000132E 50E7                   MOV.L       @(28,R14),R0
    00001330 430B                   JSR         @R3
    00001332 5006                   MOV.L       @(24,R0),R0
    00001334 D233                   MOV.L       L1978+10,R2; __adds
    00001336 6503                   MOV         R0,R5
    00001338 420B                   JSR         @R2
    0000133A 61C3                   MOV         R12,R1
    0000133C D332                   MOV.L       L1978+14,R3; __lts
    0000133E 430B                   JSR         @R3
    00001340 E100                   MOV         #0,R1
    00001342 8800                   CMP/EQ      #0,R0
    00001344 8933                   BT          L1814
    00001346 D031                   MOV.L       L1978+18,R0; H'43000000
    00001348 D22F                   MOV.L       L1978+14,R2; __lts
    0000134A 420B                   JSR         @R2
    0000134C 61C3                   MOV         R12,R1
    0000134E 8800                   CMP/EQ      #0,R0
    00001350 892D                   BT          L1814
    00001352 6153                   MOV         R5,R1
    00001354 D32B                   MOV.L       L1978+10,R3; __adds
    00001356 430B                   JSR         @R3
    00001358 60D3                   MOV         R13,R0
    0000135A 6103                   MOV         R0,R1
    0000135C D227                   MOV.L       L1978+2,R2 ; __subs
    0000135E 420B                   JSR         @R2
    00001360 6043                   MOV         R4,R0
    00001362 D329                   MOV.L       L1978+14,R3; __lts
    00001364 430B                   JSR         @R3
    00001366 E100                   MOV         #0,R1
    00001368 8800                   CMP/EQ      #0,R0
    0000136A 8920                   BT          L1814
    0000136C D223                   MOV.L       L1978+2,R2 ; __subs
    0000136E 61D3                   MOV         R13,R1
    00001370 420B                   JSR         @R2
    00001372 6043                   MOV         R4,R0
    00001374 D126                   MOV.L       L1978+22,R1; H'42800000
    00001376 D327                   MOV.L       L1978+26,R3; __gts
    00001378 430B                   JSR         @R3
    0000137A 0009                   NOP
    0000137C 8800                   CMP/EQ      #0,R0
    0000137E 8916                   BT          L1814




SH SERIES C/C++ Compiler (Ver. 6.0C)                                                                 18-Nov-2021 16:33:51  PAGE   64


SCT OFFSET   CODE       C LABEL     INSTRUCTION OPERAND    COMMENT

    00001380 52E8                   MOV.L       @(32,R14),R2
    00001382 2228                   TST         R2,R2
    00001384 8913                   BT          L1814
    00001386 ED00                   MOV         #0,R13
    00001388 D323                   MOV.L       L1978+30,R3; __stoi
    0000138A 2FD6                   MOV.L       R13,@-R15
    0000138C 2FD6                   MOV.L       R13,@-R15
    0000138E 2FD6                   MOV.L       R13,@-R15
    00001390 57E7                   MOV.L       @(28,R14),R7
    00001392 1F73                   MOV.L       R7,@(12,R15)
    00001394 5776                   MOV.L       @(24,R7),R7
    00001396 37BC                   ADD         R11,R7
    00001398 430B                   JSR         @R3
    0000139A 60C3                   MOV         R12,R0
    0000139C 1F05                   MOV.L       R0,@(20,R15)
    0000139E 65B3                   MOV         R11,R5
    000013A0 D328                   MOV.L       L1978+74,R3; _ML_rectangle
    000013A2 56F3                   MOV.L       @(12,R15),R6
    000013A4 5668                   MOV.L       @(32,R6),R6
    000013A6 360C                   ADD         R0,R6
    000013A8 430B                   JSR         @R3
    000013AA 6403                   MOV         R0,R4
    000013AC 7F0C                   ADD         #12,R15
    000013AE              L1814:                            
    000013AE 66B3                   MOV         R11,R6
    000013B0 D319                   MOV.L       L1978+30,R3; __stoi
    000013B2 5DE7                   MOV.L       @(28,R14),R13
    000013B4 52D6                   MOV.L       @(24,R13),R2
    000013B6 2F26                   MOV.L       R2,@-R15
    000013B8 57D8                   MOV.L       @(32,R13),R7
    000013BA 430B                   JSR         @R3
    000013BC 60C3                   MOV         R12,R0
    000013BE 6503                   MOV         R0,R5
    000013C0 D216                   MOV.L       L1978+34,R2; _ML_bmp_or_cl
    000013C2 420B                   JSR         @R2
    000013C4 54D3                   MOV.L       @(12,R13),R4
    000013C6 7F14                   ADD         #20,R15
    000013C8 4F26                   LDS.L       @R15+,PR
    000013CA 6BF6                   MOV.L       @R15+,R11
    000013CC 6CF6                   MOV.L       @R15+,R12
    000013CE 6DF6                   MOV.L       @R15+,R13
    000013D0 000B                   RTS
    000013D2 6EF6                   MOV.L       @R15+,R14
    000013D4              __$__dt__6SpriteFv:              ; function: Sprite::~Sprite()
                                                           ; frame size=4
    000013D4 2FE6                   MOV.L       R14,@-R15
    000013D6 6E43                   MOV         R4,R14
    000013D8 2EE8                   TST         R14,R14
    000013DA 890C                   BT          L1819
    000013DC D218                   MOV.L       L1978+70,R2; ___vtbl__6Sprite
    000013DE D311                   MOV.L       L1978+42,R3; __$__vtbl__13MonoBehaviour
    000013E0 D211                   MOV.L       L1978+46,R2; __$__vtbl__9Behaviour
    000013E2 D312                   MOV.L       L1978+50,R3; __$__vtbl__9Component
    000013E4 D212                   MOV.L       L1978+54,R2; __$__vtbl__6Object
    000013E6 E301                   MOV         #1,R3
    000013E8 1E22                   MOV.L       R2,@(8,R14)
    000013EA 2538                   TST         R3,R5




SH SERIES C/C++ Compiler (Ver. 6.0C)                                                                 18-Nov-2021 16:33:51  PAGE   65


SCT OFFSET   CODE       C LABEL     INSTRUCTION OPERAND    COMMENT

    000013EC 8903                   BT          L1819
    000013EE 64E3                   MOV         R14,R4
    000013F0 D110                   MOV.L       L1978+58,R1; ___dl__FPv
    000013F2 412B                   JMP         @R1
    000013F4 6EF6                   MOV.L       @R15+,R14
    000013F6              L1819:                            
    000013F6 000B                   RTS
    000013F8 6EF6                   MOV.L       @R15+,R14
    000013FA              L1978:                            
    000013FA 0000                   .DATA.W     0
    000013FC <00000000>             .DATA.L     __subs
    00001400 <00000000>             .DATA.L     __itos
    00001404 <00000000>             .DATA.L     __adds
    00001408 <00000000>             .DATA.L     __lts
    0000140C 43000000               .DATA.L     H'43000000
    00001410 42800000               .DATA.L     H'42800000
    00001414 <00000000>             .DATA.L     __gts
    00001418 <00000000>             .DATA.L     __stoi
    0000141C <00000000>             .DATA.L     _ML_bmp_or_cl
    00001420 <00000000>             .DATA.L     ___vtbl__5Image
    00001424 <00000000>             .DATA.L     __$__vtbl__13MonoBehaviour
    00001428 <00000000>             .DATA.L     __$__vtbl__9Behaviour
    0000142C <00000000>             .DATA.L     __$__vtbl__9Component
    00001430 <00000000>             .DATA.L     __$__vtbl__6Object
    00001434 <00000000>             .DATA.L     ___dl__FPv
    00001438 <00000000>             .DATA.L     ___nw__FUl
    0000143C <00000000>             .DATA.L     L429
    00001440 <00000000>             .DATA.L     ___vtbl__6Sprite
    00001444 <00000000>             .DATA.L     _ML_rectangle
    00001448              _Update__10Collider2DFv:         ; function: Collider2D::Update()
                                                           ; frame size=44
    00001448 2FE6                   MOV.L       R14,@-R15
    0000144A 6E43                   MOV         R4,R14
    0000144C 2FD6                   MOV.L       R13,@-R15
    0000144E 2FC6                   MOV.L       R12,@-R15
    00001450 2FB6                   MOV.L       R11,@-R15
    00001452 2FA6                   MOV.L       R10,@-R15
    00001454 2F96                   MOV.L       R9,@-R15
    00001456 2F86                   MOV.L       R8,@-R15
    00001458 4F22                   STS.L       PR,@-R15
    0000145A 7FF8                   ADD         #-8,R15
    0000145C 53E3                   MOV.L       @(12,R14),R3
    0000145E 5239                   MOV.L       @(36,R3),R2
    00001460 2228                   TST         R2,R2
    00001462 8D05                   BT/S        L1820
    00001464 EC00                   MOV         #0,R12
    00001466 52EB                   MOV.L       @(44,R14),R2
    00001468 2228                   TST         R2,R2
    0000146A 8B01                   BF          L1979
    0000146C A153                   BRA         L1821
    0000146E 0009                   NOP
    00001470              L1979:                            
    00001470              L1820:                            
    00001470 A14A                   BRA         L1822
    00001472 6DC3                   MOV         R12,R13
    00001474              L1823:                            
    00001474 5BE3                   MOV.L       @(12,R14),R11




SH SERIES C/C++ Compiler (Ver. 6.0C)                                                                 18-Nov-2021 16:33:51  PAGE   66


SCT OFFSET   CODE       C LABEL     INSTRUCTION OPERAND    COMMENT

    00001476 65D3                   MOV         R13,R5
    00001478 5BBB                   MOV.L       @(44,R11),R11
    0000147A 7B24                   ADD         #36,R11
    0000147C BD9D                   BSR         __$get__26List__tm__14_P10Collider2DFi_Z1Z
    0000147E 64B3                   MOV         R11,R4
    00001480 3E00                   CMP/EQ      R0,R14
    00001482 8B01                   BF          L1980
    00001484 A13F                   BRA         L1824
    00001486 0009                   NOP
    00001488              L1980:                            
    00001488 53E3                   MOV.L       @(12,R14),R3
    0000148A 65D3                   MOV         R13,R5
    0000148C 513B                   MOV.L       @(44,R3),R1
    0000148E 7124                   ADD         #36,R1
    00001490 1F11                   MOV.L       R1,@(4,R15)
    00001492 BD92                   BSR         __$get__26List__tm__14_P10Collider2DFi_Z1Z
    00001494 6413                   MOV         R1,R4
    00001496 BACD                   BSR         _IsActive__10GameObjectFv
    00001498 5403                   MOV.L       @(12,R0),R4
    0000149A 2008                   TST         R0,R0
    0000149C 8B01                   BF          L1981
    0000149E A132                   BRA         L1824
    000014A0 0009                   NOP
    000014A2              L1981:                            
    000014A2 65D3                   MOV         R13,R5
    000014A4 995E                   MOV.W       L1982,R9   ; H'0114
    000014A6 5BE2                   MOV.L       @(8,R14),R11
    000014A8 3B9C                   ADD         R9,R11
    000014AA 52B2                   MOV.L       @(8,R11),R2
    000014AC 2F26                   MOV.L       R2,@-R15
    000014AE 5AE3                   MOV.L       @(12,R14),R10
    000014B0 5AAB                   MOV.L       @(44,R10),R10
    000014B2 7A24                   ADD         #36,R10
    000014B4 BD81                   BSR         __$get__26List__tm__14_P10Collider2DFi_Z1Z
    000014B6 64A3                   MOV         R10,R4
    000014B8 64B2                   MOV.L       @R11,R4
    000014BA 6503                   MOV         R0,R5
    000014BC 61F6                   MOV.L       @R15+,R1
    000014BE 410B                   JSR         @R1
    000014C0 34EC                   ADD         R14,R4
    000014C2 2008                   TST         R0,R0
    000014C4 8B01                   BF          L1983
    000014C6 A0B4                   BRA         L1825
    000014C8 0009                   NOP
    000014CA              L1983:                            
    000014CA 65D3                   MOV         R13,R5
    000014CC 5BE3                   MOV.L       @(12,R14),R11
    000014CE 5BBB                   MOV.L       @(44,R11),R11
    000014D0 7B24                   ADD         #36,R11
    000014D2 BD72                   BSR         __$get__26List__tm__14_P10Collider2DFi_Z1Z
    000014D4 64B3                   MOV         R11,R4
    000014D6 6503                   MOV         R0,R5
    000014D8 B127                   BSR         __$Contains__10Collider2DFP10Collider2D
    000014DA 64E3                   MOV         R14,R4
    000014DC 2008                   TST         R0,R0
    000014DE 8943                   BT          L1826
    000014E0 A03A                   BRA         L1827




SH SERIES C/C++ Compiler (Ver. 6.0C)                                                                 18-Nov-2021 16:33:51  PAGE   67


SCT OFFSET   CODE       C LABEL     INSTRUCTION OPERAND    COMMENT

    000014E2 6BC3                   MOV         R12,R11
    000014E4              L1828:                            
    000014E4 5AE3                   MOV.L       @(12,R14),R10
    000014E6 65D3                   MOV         R13,R5
    000014E8 5AAB                   MOV.L       @(44,R10),R10
    000014EA 7A24                   ADD         #36,R10
    000014EC BD65                   BSR         __$get__26List__tm__14_P10Collider2DFi_Z1Z
    000014EE 64A3                   MOV         R10,R4
    000014F0 520B                   MOV.L       @(44,R0),R2
    000014F2 2228                   TST         R2,R2
    000014F4 8B02                   BF          L1830
    000014F6 53EB                   MOV.L       @(44,R14),R3
    000014F8 2338                   TST         R3,R3
    000014FA 8916                   BT          L1829
    000014FC              L1830:                            
    000014FC 59E3                   MOV.L       @(12,R14),R9
    000014FE 65B3                   MOV         R11,R5
    00001500 790C                   ADD         #12,R9
    00001502 2F92                   MOV.L       R9,@R15
    00001504 BB0C                   BSR         __$get__24List__tm__12_P9ComponentFi_Z1Z
    00001506 6493                   MOV         R9,R4
    00001508 932D                   MOV.W       L1982+2,R3 ; H'00D8
    0000150A 65D3                   MOV         R13,R5
    0000150C 6903                   MOV         R0,R9
    0000150E 5A92                   MOV.L       @(8,R9),R10
    00001510 3A3C                   ADD         R3,R10
    00001512 52A2                   MOV.L       @(8,R10),R2
    00001514 2F26                   MOV.L       R2,@-R15
    00001516 58E3                   MOV.L       @(12,R14),R8
    00001518 588B                   MOV.L       @(44,R8),R8
    0000151A 7824                   ADD         #36,R8
    0000151C BD4D                   BSR         __$get__26List__tm__14_P10Collider2DFi_Z1Z
    0000151E 6483                   MOV         R8,R4
    00001520 64A2                   MOV.L       @R10,R4
    00001522 6503                   MOV         R0,R5
    00001524 63F6                   MOV.L       @R15+,R3
    00001526 430B                   JSR         @R3
    00001528 349C                   ADD         R9,R4
    0000152A              L1829:                            
    0000152A 65B3                   MOV         R11,R5
    0000152C 58E3                   MOV.L       @(12,R14),R8
    0000152E 780C                   ADD         #12,R8
    00001530 2F82                   MOV.L       R8,@R15
    00001532 BAF5                   BSR         __$get__24List__tm__12_P9ComponentFi_Z1Z
    00001534 6483                   MOV         R8,R4
    00001536 6803                   MOV         R0,R8
    00001538 5A82                   MOV.L       @(8,R8),R10
    0000153A 65D3                   MOV         R13,R5
    0000153C 7A6C                   ADD         #108,R10
    0000153E 52A2                   MOV.L       @(8,R10),R2
    00001540 2F26                   MOV.L       R2,@-R15
    00001542 59E3                   MOV.L       @(12,R14),R9
    00001544 599B                   MOV.L       @(44,R9),R9
    00001546 7924                   ADD         #36,R9
    00001548 BD37                   BSR         __$get__26List__tm__14_P10Collider2DFi_Z1Z
    0000154A 6493                   MOV         R9,R4
    0000154C 64A2                   MOV.L       @R10,R4




SH SERIES C/C++ Compiler (Ver. 6.0C)                                                                 18-Nov-2021 16:33:51  PAGE   68


SCT OFFSET   CODE       C LABEL     INSTRUCTION OPERAND    COMMENT

    0000154E 6503                   MOV         R0,R5
    00001550 61F6                   MOV.L       @R15+,R1
    00001552 410B                   JSR         @R1
    00001554 348C                   ADD         R8,R4
    00001556 7B01                   ADD         #1,R11
    00001558              L1827:                            
    00001558 53E3                   MOV.L       @(12,R14),R3
    0000155A 5236                   MOV.L       @(24,R3),R2
    0000155C 3B23                   CMP/GE      R2,R11
    0000155E 8BC1                   BF          L1828
    00001560 A0D1                   BRA         L1824
    00001562 0009                   NOP
    00001564              L1982:                            
    00001564 0114                   .DATA.W     H'0114
    00001566 00D8                   .DATA.W     H'00D8
    00001568              L1826:                            
    00001568 5BE3                   MOV.L       @(12,R14),R11
    0000156A 65D3                   MOV         R13,R5
    0000156C 5BBB                   MOV.L       @(44,R11),R11
    0000156E 7B24                   ADD         #36,R11
    00001570 BD23                   BSR         __$get__26List__tm__14_P10Collider2DFi_Z1Z
    00001572 64B3                   MOV         R11,R4
    00001574 D936                   MOV.L       L1984+4,R9 ; ___nw__FUl
    00001576 6B03                   MOV         R0,R11
    00001578 490B                   JSR         @R9
    0000157A E40C                   MOV         #12,R4
    0000157C 2008                   TST         R0,R0
    0000157E 8D06                   BT/S        L1832
    00001580 6A03                   MOV         R0,R10
    00001582 E50C                   MOV         #12,R5
    00001584 D333                   MOV.L       L1984+8,R3 ; ___memzero
    00001586 430B                   JSR         @R3
    00001588 64A3                   MOV         R10,R4
    0000158A A001                   BRA         L1833
    0000158C 64A3                   MOV         R10,R4
    0000158E              L1832:                            
    0000158E E400                   MOV         #0,R4
    00001590              L1833:                            
    00001590 24B2                   MOV.L       R11,@R4
    00001592 53EA                   MOV.L       @(40,R14),R3
    00001594 7301                   ADD         #1,R3
    00001596 1E3A                   MOV.L       R3,@(40,R14)
    00001598 52E7                   MOV.L       @(28,R14),R2
    0000159A 2228                   TST         R2,R2
    0000159C 8B01                   BF          L1834
    0000159E A004                   BRA         L1393
    000015A0 1E47                   MOV.L       R4,@(28,R14)
    000015A2              L1834:                            
    000015A2 53E8                   MOV.L       @(32,R14),R3
    000015A4 1432                   MOV.L       R3,@(8,R4)
    000015A6 52E8                   MOV.L       @(32,R14),R2
    000015A8 1241                   MOV.L       R4,@(4,R2)
    000015AA              L1393:
    000015AA 1E48                   MOV.L       R4,@(32,R14)
    000015AC A03B                   BRA         L1836
    000015AE 6BC3                   MOV         R12,R11
    000015B0              L1837:                            




SH SERIES C/C++ Compiler (Ver. 6.0C)                                                                 18-Nov-2021 16:33:51  PAGE   69


SCT OFFSET   CODE       C LABEL     INSTRUCTION OPERAND    COMMENT

    000015B0 5AE3                   MOV.L       @(12,R14),R10
    000015B2 65D3                   MOV         R13,R5
    000015B4 5AAB                   MOV.L       @(44,R10),R10
    000015B6 7A24                   ADD         #36,R10
    000015B8 BCFF                   BSR         __$get__26List__tm__14_P10Collider2DFi_Z1Z
    000015BA 64A3                   MOV         R10,R4
    000015BC 520B                   MOV.L       @(44,R0),R2
    000015BE 2228                   TST         R2,R2
    000015C0 8B02                   BF          L1839
    000015C2 53EB                   MOV.L       @(44,R14),R3
    000015C4 2338                   TST         R3,R3
    000015C6 8917                   BT          L1838
    000015C8              L1839:                            
    000015C8 58E3                   MOV.L       @(12,R14),R8
    000015CA 65B3                   MOV         R11,R5
    000015CC 780C                   ADD         #12,R8
    000015CE BAA7                   BSR         __$get__24List__tm__12_P9ComponentFi_Z1Z
    000015D0 6483                   MOV         R8,R4
    000015D2 65D3                   MOV         R13,R5
    000015D4 2F02                   MOV.L       R0,@R15
    000015D6 9339                   MOV.W       L1984,R3   ; H'00C0
    000015D8 5A02                   MOV.L       @(8,R0),R10
    000015DA 3A3C                   ADD         R3,R10
    000015DC 52A2                   MOV.L       @(8,R10),R2
    000015DE 2F26                   MOV.L       R2,@-R15
    000015E0 59E3                   MOV.L       @(12,R14),R9
    000015E2 599B                   MOV.L       @(44,R9),R9
    000015E4 7924                   ADD         #36,R9
    000015E6 BCE8                   BSR         __$get__26List__tm__14_P10Collider2DFi_Z1Z
    000015E8 6493                   MOV         R9,R4
    000015EA 6503                   MOV         R0,R5
    000015EC 63A2                   MOV.L       @R10,R3
    000015EE 54F1                   MOV.L       @(4,R15),R4
    000015F0 343C                   ADD         R3,R4
    000015F2 63F6                   MOV.L       @R15+,R3
    000015F4 430B                   JSR         @R3
    000015F6 0009                   NOP
    000015F8              L1838:                            
    000015F8 59E3                   MOV.L       @(12,R14),R9
    000015FA 65B3                   MOV         R11,R5
    000015FC 790C                   ADD         #12,R9
    000015FE BA8F                   BSR         __$get__24List__tm__12_P9ComponentFi_Z1Z
    00001600 6493                   MOV         R9,R4
    00001602 65D3                   MOV         R13,R5
    00001604 2F02                   MOV.L       R0,@R15
    00001606 5A02                   MOV.L       @(8,R0),R10
    00001608 7A54                   ADD         #84,R10
    0000160A 53A2                   MOV.L       @(8,R10),R3
    0000160C 2F36                   MOV.L       R3,@-R15
    0000160E 58E3                   MOV.L       @(12,R14),R8
    00001610 588B                   MOV.L       @(44,R8),R8
    00001612 7824                   ADD         #36,R8
    00001614 BCD1                   BSR         __$get__26List__tm__14_P10Collider2DFi_Z1Z
    00001616 6483                   MOV         R8,R4
    00001618 63A2                   MOV.L       @R10,R3
    0000161A 6503                   MOV         R0,R5
    0000161C 54F1                   MOV.L       @(4,R15),R4




SH SERIES C/C++ Compiler (Ver. 6.0C)                                                                 18-Nov-2021 16:33:51  PAGE   70


SCT OFFSET   CODE       C LABEL     INSTRUCTION OPERAND    COMMENT

    0000161E 62F6                   MOV.L       @R15+,R2
    00001620 420B                   JSR         @R2
    00001622 343C                   ADD         R3,R4
    00001624 7B01                   ADD         #1,R11
    00001626              L1836:                            
    00001626 53E3                   MOV.L       @(12,R14),R3
    00001628 5236                   MOV.L       @(24,R3),R2
    0000162A 3B23                   CMP/GE      R2,R11
    0000162C 8BC0                   BF          L1837
    0000162E A06A                   BRA         L1824
    00001630 0009                   NOP
    00001632              L1825:                            
    00001632 65D3                   MOV         R13,R5
    00001634 5BE3                   MOV.L       @(12,R14),R11
    00001636 5BBB                   MOV.L       @(44,R11),R11
    00001638 7B24                   ADD         #36,R11
    0000163A BCBE                   BSR         __$get__26List__tm__14_P10Collider2DFi_Z1Z
    0000163C 64B3                   MOV         R11,R4
    0000163E 6503                   MOV         R0,R5
    00001640 B073                   BSR         __$Contains__10Collider2DFP10Collider2D
    00001642 64E3                   MOV         R14,R4
    00001644 2008                   TST         R0,R0
    00001646 895E                   BT          L1824
    00001648 A041                   BRA         L1842
    0000164A 6BC3                   MOV         R12,R11
    0000164C              L1984:                            
    0000164C 00C0                   .DATA.W     H'00C0
    0000164E 0000                   .DATA.W     0
    00001650 <00000000>             .DATA.L     ___nw__FUl
    00001654 <00000000>             .DATA.L     ___memzero
    00001658              L1843:                            
    00001658 5AE3                   MOV.L       @(12,R14),R10
    0000165A 65D3                   MOV         R13,R5
    0000165C 5AAB                   MOV.L       @(44,R10),R10
    0000165E 7A24                   ADD         #36,R10
    00001660 BCAB                   BSR         __$get__26List__tm__14_P10Collider2DFi_Z1Z
    00001662 64A3                   MOV         R10,R4
    00001664 520B                   MOV.L       @(44,R0),R2
    00001666 2228                   TST         R2,R2
    00001668 8B02                   BF          L1845
    0000166A 53EB                   MOV.L       @(44,R14),R3
    0000166C 2338                   TST         R3,R3
    0000166E 8917                   BT          L1844
    00001670              L1845:                            
    00001670 59E3                   MOV.L       @(12,R14),R9
    00001672 65B3                   MOV         R11,R5
    00001674 790C                   ADD         #12,R9
    00001676 BA53                   BSR         __$get__24List__tm__12_P9ComponentFi_Z1Z
    00001678 6493                   MOV         R9,R4
    0000167A 6803                   MOV         R0,R8
    0000167C 9372                   MOV.W       L1985,R3   ; H'00CC
    0000167E 65D3                   MOV         R13,R5
    00001680 5A82                   MOV.L       @(8,R8),R10
    00001682 3A3C                   ADD         R3,R10
    00001684 52A2                   MOV.L       @(8,R10),R2
    00001686 2F26                   MOV.L       R2,@-R15
    00001688 51E3                   MOV.L       @(12,R14),R1




SH SERIES C/C++ Compiler (Ver. 6.0C)                                                                 18-Nov-2021 16:33:51  PAGE   71


SCT OFFSET   CODE       C LABEL     INSTRUCTION OPERAND    COMMENT

    0000168A 501B                   MOV.L       @(44,R1),R0
    0000168C 6103                   MOV         R0,R1
    0000168E 7124                   ADD         #36,R1
    00001690 1F11                   MOV.L       R1,@(4,R15)
    00001692 BC92                   BSR         __$get__26List__tm__14_P10Collider2DFi_Z1Z
    00001694 6413                   MOV         R1,R4
    00001696 6503                   MOV         R0,R5
    00001698 64A2                   MOV.L       @R10,R4
    0000169A 63F6                   MOV.L       @R15+,R3
    0000169C 430B                   JSR         @R3
    0000169E 348C                   ADD         R8,R4
    000016A0              L1844:                            
    000016A0 59E3                   MOV.L       @(12,R14),R9
    000016A2 65B3                   MOV         R11,R5
    000016A4 790C                   ADD         #12,R9
    000016A6 2F92                   MOV.L       R9,@R15
    000016A8 BA3A                   BSR         __$get__24List__tm__12_P9ComponentFi_Z1Z
    000016AA 6493                   MOV         R9,R4
    000016AC 6903                   MOV         R0,R9
    000016AE 65D3                   MOV         R13,R5
    000016B0 5A92                   MOV.L       @(8,R9),R10
    000016B2 7A60                   ADD         #96,R10
    000016B4 52A2                   MOV.L       @(8,R10),R2
    000016B6 2F26                   MOV.L       R2,@-R15
    000016B8 58E3                   MOV.L       @(12,R14),R8
    000016BA 588B                   MOV.L       @(44,R8),R8
    000016BC 7824                   ADD         #36,R8
    000016BE BC7C                   BSR         __$get__26List__tm__14_P10Collider2DFi_Z1Z
    000016C0 6483                   MOV         R8,R4
    000016C2 6503                   MOV         R0,R5
    000016C4 64A2                   MOV.L       @R10,R4
    000016C6 61F6                   MOV.L       @R15+,R1
    000016C8 410B                   JSR         @R1
    000016CA 349C                   ADD         R9,R4
    000016CC 7B01                   ADD         #1,R11
    000016CE              L1842:                            
    000016CE 53E3                   MOV.L       @(12,R14),R3
    000016D0 5236                   MOV.L       @(24,R3),R2
    000016D2 3B23                   CMP/GE      R2,R11
    000016D4 8BC0                   BF          L1843
    000016D6 A013                   BRA         L1846
    000016D8 6BC3                   MOV         R12,R11
    000016DA              L1847:                            
    000016DA 65B3                   MOV         R11,R5
    000016DC 64E3                   MOV         R14,R4
    000016DE BC6C                   BSR         __$get__26List__tm__14_P10Collider2DFi_Z1Z
    000016E0 741C                   ADD         #28,R4
    000016E2 65D3                   MOV         R13,R5
    000016E4 2F06                   MOV.L       R0,@-R15
    000016E6 5AE3                   MOV.L       @(12,R14),R10
    000016E8 5AAB                   MOV.L       @(44,R10),R10
    000016EA 7A24                   ADD         #36,R10
    000016EC BC65                   BSR         __$get__26List__tm__14_P10Collider2DFi_Z1Z
    000016EE 64A3                   MOV         R10,R4
    000016F0 62F6                   MOV.L       @R15+,R2
    000016F2 3200                   CMP/EQ      R0,R2
    000016F4 8B03                   BF          L1848




SH SERIES C/C++ Compiler (Ver. 6.0C)                                                                 18-Nov-2021 16:33:51  PAGE   72


SCT OFFSET   CODE       C LABEL     INSTRUCTION OPERAND    COMMENT

    000016F6 65B3                   MOV         R11,R5
    000016F8 64E3                   MOV         R14,R4
    000016FA BC6E                   BSR         __$RemoveAt__26List__tm__14_P10Collider2DFi_Z1Z
    000016FC 741C                   ADD         #28,R4
    000016FE              L1848:                            
    000016FE 7B01                   ADD         #1,R11
    00001700              L1846:                            
    00001700 53EA                   MOV.L       @(40,R14),R3
    00001702 3B33                   CMP/GE      R3,R11
    00001704 8BE9                   BF          L1847
    00001706              L1824:                            
    00001706 7D01                   ADD         #1,R13
    00001708              L1822:                            
    00001708 53E3                   MOV.L       @(12,R14),R3
    0000170A 523B                   MOV.L       @(44,R3),R2
    0000170C 512C                   MOV.L       @(48,R2),R1
    0000170E 3D13                   CMP/GE      R1,R13
    00001710 8901                   BT          L1986
    00001712 AEAF                   BRA         L1823
    00001714 0009                   NOP
    00001716              L1986:                            
    00001716              L1821:                            
    00001716 7F08                   ADD         #8,R15
    00001718 4F26                   LDS.L       @R15+,PR
    0000171A 68F6                   MOV.L       @R15+,R8
    0000171C 69F6                   MOV.L       @R15+,R9
    0000171E 6AF6                   MOV.L       @R15+,R10
    00001720 6BF6                   MOV.L       @R15+,R11
    00001722 6CF6                   MOV.L       @R15+,R12
    00001724 6DF6                   MOV.L       @R15+,R13
    00001726 000B                   RTS
    00001728 6EF6                   MOV.L       @R15+,R14
    0000172A              __$Contains__10Collider2DFP10Collider2D:
                                                           ; function: Collider2D::Contains(Collider2D *)
                                                           ; frame size=16
    0000172A 2FE6                   MOV.L       R14,@-R15
    0000172C 2FD6                   MOV.L       R13,@-R15
    0000172E 6D43                   MOV         R4,R13
    00001730 4F22                   STS.L       PR,@-R15
    00001732 7FFC                   ADD         #-4,R15
    00001734 2F52                   MOV.L       R5,@R15
    00001736 A00A                   BRA         L1849
    00001738 EE00                   MOV         #0,R14
    0000173A              L1850:                            
    0000173A 65E3                   MOV         R14,R5
    0000173C 64D3                   MOV         R13,R4
    0000173E BC3C                   BSR         __$get__26List__tm__14_P10Collider2DFi_Z1Z
    00001740 741C                   ADD         #28,R4
    00001742 63F2                   MOV.L       @R15,R3
    00001744 3300                   CMP/EQ      R0,R3
    00001746 8B01                   BF          L1851
    00001748 A005                   BRA         L1852
    0000174A E001                   MOV         #1,R0
    0000174C              L1851:                            
    0000174C 7E01                   ADD         #1,R14
    0000174E              L1849:                            
    0000174E 53DA                   MOV.L       @(40,R13),R3




SH SERIES C/C++ Compiler (Ver. 6.0C)                                                                 18-Nov-2021 16:33:51  PAGE   73


SCT OFFSET   CODE       C LABEL     INSTRUCTION OPERAND    COMMENT

    00001750 3E33                   CMP/GE      R3,R14
    00001752 8BF2                   BF          L1850
    00001754 E000                   MOV         #0,R0
    00001756              L1852:                            
    00001756 7F04                   ADD         #4,R15
    00001758 4F26                   LDS.L       @R15+,PR
    0000175A 6DF6                   MOV.L       @R15+,R13
    0000175C 000B                   RTS
    0000175E 6EF6                   MOV.L       @R15+,R14
    00001760              __$AreTheyTouching__10Collider2DFP10Collider2D:
                                                           ; function: Collider2D::AreTheyTouching(Collider2D *)
                                                           ; frame size=0
    00001760 000B                   RTS
    00001762 0009                   NOP
    00001764              L1985:                            
    00001764 00CC                   .DATA.W     H'00CC
    00001766              __$__dt__10Collider2DFv:         ; function: Collider2D::~Collider2D()
                                                           ; frame size=4
    00001766 2FE6                   MOV.L       R14,@-R15
    00001768 6E43                   MOV         R4,R14
    0000176A 2EE8                   TST         R14,R14
    0000176C 890C                   BT          L1856
    0000176E D290                   MOV.L       L1987+2,R2 ; ___vtbl__10Collider2D
    00001770 D390                   MOV.L       L1987+6,R3 ; __$__vtbl__13MonoBehaviour
    00001772 D291                   MOV.L       L1987+10,R2; __$__vtbl__9Behaviour
    00001774 D391                   MOV.L       L1987+14,R3; __$__vtbl__9Component
    00001776 D292                   MOV.L       L1987+18,R2; __$__vtbl__6Object
    00001778 1E22                   MOV.L       R2,@(8,R14)
    0000177A E301                   MOV         #1,R3
    0000177C 2538                   TST         R3,R5
    0000177E 8903                   BT          L1856
    00001780 D190                   MOV.L       L1987+22,R1; ___dl__FPv
    00001782 64E3                   MOV         R14,R4
    00001784 412B                   JMP         @R1
    00001786 6EF6                   MOV.L       @R15+,R14
    00001788              L1856:                            
    00001788 000B                   RTS
    0000178A 6EF6                   MOV.L       @R15+,R14
    0000178C              ___ct__13BoxCollider2DFP10GameObjectbP7Vector2T3PCc:
                                                           ; function: BoxCollider2D::BoxCollider2D(GameObject *, bool, Vector2 *, V
                        +                                  ector2 *, const char *)
                                                           ; frame size=32
    0000178C 2FE6                   MOV.L       R14,@-R15
    0000178E 2FD6                   MOV.L       R13,@-R15
    00001790 2FC6                   MOV.L       R12,@-R15
    00001792 4F22                   STS.L       PR,@-R15
    00001794 7FF0                   ADD         #-16,R15
    00001796 2F42                   MOV.L       R4,@R15
    00001798 1F51                   MOV.L       R5,@(4,R15)
    0000179A 1F63                   MOV.L       R6,@(12,R15)
    0000179C 1F72                   MOV.L       R7,@(8,R15)
    0000179E 63F2                   MOV.L       @R15,R3
    000017A0 2338                   TST         R3,R3
    000017A2 8B05                   BF          L1858
    000017A4 D388                   MOV.L       L1987+26,R3; ___nw__FUl
    000017A6 430B                   JSR         @R3
    000017A8 E438                   MOV         #56,R4




SH SERIES C/C++ Compiler (Ver. 6.0C)                                                                 18-Nov-2021 16:33:51  PAGE   74


SCT OFFSET   CODE       C LABEL     INSTRUCTION OPERAND    COMMENT

    000017AA 2008                   TST         R0,R0
    000017AC 8D41                   BT/S        L1857
    000017AE 2F02                   MOV.L       R0,@R15
    000017B0              L1858:                            
    000017B0 D286                   MOV.L       L1987+30,R2; ___ct__13MonoBehaviourFPCcP10GameObjectT1
    000017B2 57F9                   MOV.L       @(36,R15),R7
    000017B4 56F1                   MOV.L       @(4,R15),R6
    000017B6 D586                   MOV.L       L1987+34,R5; L430
    000017B8 420B                   JSR         @R2
    000017BA 64F2                   MOV.L       @R15,R4
    000017BC 63F2                   MOV.L       @R15,R3
    000017BE ED00                   MOV         #0,R13
    000017C0 D27B                   MOV.L       L1987+2,R2 ; ___vtbl__10Collider2D
    000017C2 1322                   MOV.L       R2,@(8,R3)
    000017C4 63F2                   MOV.L       @R15,R3
    000017C6 E201                   MOV         #1,R2
    000017C8 1329                   MOV.L       R2,@(36,R3)
    000017CA 63F2                   MOV.L       @R15,R3
    000017CC 13DA                   MOV.L       R13,@(40,R3)
    000017CE 63F2                   MOV.L       @R15,R3
    000017D0 13D7                   MOV.L       R13,@(28,R3)
    000017D2 63F2                   MOV.L       @R15,R3
    000017D4 13D8                   MOV.L       R13,@(32,R3)
    000017D6 5EF1                   MOV.L       @(4,R15),R14
    000017D8 D37B                   MOV.L       L1987+26,R3; ___nw__FUl
    000017DA 5EEB                   MOV.L       @(44,R14),R14
    000017DC 7E24                   ADD         #36,R14
    000017DE 430B                   JSR         @R3
    000017E0 E40C                   MOV         #12,R4
    000017E2 2008                   TST         R0,R0
    000017E4 8D06                   BT/S        L1859
    000017E6 6C03                   MOV         R0,R12
    000017E8 D37A                   MOV.L       L1987+38,R3; ___memzero
    000017EA E50C                   MOV         #12,R5
    000017EC 430B                   JSR         @R3
    000017EE 64C3                   MOV         R12,R4
    000017F0 A001                   BRA         L1860
    000017F2 64C3                   MOV         R12,R4
    000017F4              L1859:                            
    000017F4 64D3                   MOV         R13,R4
    000017F6              L1860:                            
    000017F6 63F2                   MOV.L       @R15,R3
    000017F8 2432                   MOV.L       R3,@R4
    000017FA 52E3                   MOV.L       @(12,R14),R2
    000017FC 7201                   ADD         #1,R2
    000017FE 1E23                   MOV.L       R2,@(12,R14)
    00001800 63E2                   MOV.L       @R14,R3
    00001802 2338                   TST         R3,R3
    00001804 8B01                   BF          L1861
    00001806 A004                   BRA         L1394
    00001808 2E42                   MOV.L       R4,@R14
    0000180A              L1861:                            
    0000180A 53E1                   MOV.L       @(4,R14),R3
    0000180C 1432                   MOV.L       R3,@(8,R4)
    0000180E 52E1                   MOV.L       @(4,R14),R2
    00001810 1241                   MOV.L       R4,@(4,R2)
    00001812              L1394:




SH SERIES C/C++ Compiler (Ver. 6.0C)                                                                 18-Nov-2021 16:33:51  PAGE   75


SCT OFFSET   CODE       C LABEL     INSTRUCTION OPERAND    COMMENT

    00001812 1E41                   MOV.L       R4,@(4,R14)
    00001814 63F2                   MOV.L       @R15,R3
    00001816 52F3                   MOV.L       @(12,R15),R2
    00001818 132B                   MOV.L       R2,@(44,R3)
    0000181A 63F2                   MOV.L       @R15,R3
    0000181C D26E                   MOV.L       L1987+42,R2; ___vtbl__13BoxCollider2D
    0000181E 1322                   MOV.L       R2,@(8,R3)
    00001820 63F2                   MOV.L       @R15,R3
    00001822 D26E                   MOV.L       L1987+46,R2; L431
    00001824 2322                   MOV.L       R2,@R3
    00001826 63F2                   MOV.L       @R15,R3
    00001828 52F2                   MOV.L       @(8,R15),R2
    0000182A 132C                   MOV.L       R2,@(48,R3)
    0000182C 63F2                   MOV.L       @R15,R3
    0000182E 52F8                   MOV.L       @(32,R15),R2
    00001830 132D                   MOV.L       R2,@(52,R3)
    00001832              L1857:                            
    00001832 60F2                   MOV.L       @R15,R0
    00001834 7F10                   ADD         #16,R15
    00001836 4F26                   LDS.L       @R15+,PR
    00001838 6CF6                   MOV.L       @R15+,R12
    0000183A 6DF6                   MOV.L       @R15+,R13
    0000183C 000B                   RTS
    0000183E 6EF6                   MOV.L       @R15+,R14
    00001840              _AreTheyTouching__13BoxCollider2DFP10Collider2D:
                                                           ; function: BoxCollider2D::AreTheyTouching(Collider2D *)
                                                           ; frame size=48
                                                           ; used runtime library name:
                                                           ; __adds, __subs, __divs, __stoi
    00001840 4F22                   STS.L       PR,@-R15
    00001842 E040                   MOV         #64,R0
    00001844 D366                   MOV.L       L1987+50,R3; __adds
    00001846 7FD4                   ADD         #-44,R15
    00001848 5753                   MOV.L       @(12,R5),R7
    0000184A 1F76                   MOV.L       R7,@(24,R15)
    0000184C 577E                   MOV.L       @(56,R7),R7
    0000184E 1F75                   MOV.L       R7,@(20,R15)
    00001850 077E                   MOV.L       @(R0,R7),R7
    00001852 515C                   MOV.L       @(48,R5),R1
    00001854 1F12                   MOV.L       R1,@(8,R15)
    00001856 6072                   MOV.L       @R7,R0
    00001858 430B                   JSR         @R3
    0000185A 6112                   MOV.L       @R1,R1
    0000185C 2F02                   MOV.L       R0,@R15
    0000185E 6203                   MOV         R0,R2
    00001860 D361                   MOV.L       L1987+58,R3; __divs
    00001862 515D                   MOV.L       @(52,R5),R1
    00001864 D05F                   MOV.L       L1987+54,R0; H'40000000
    00001866 1F11                   MOV.L       R1,@(4,R15)
    00001868 430B                   JSR         @R3
    0000186A 6112                   MOV.L       @R1,R1
    0000186C D35F                   MOV.L       L1987+62,R3; __subs
    0000186E 6603                   MOV         R0,R6
    00001870 430B                   JSR         @R3
    00001872 6123                   MOV         R2,R1
    00001874 D25E                   MOV.L       L1987+66,R2; __stoi
    00001876 420B                   JSR         @R2




SH SERIES C/C++ Compiler (Ver. 6.0C)                                                                 18-Nov-2021 16:33:51  PAGE   76


SCT OFFSET   CODE       C LABEL     INSTRUCTION OPERAND    COMMENT

    00001878 0009                   NOP
    0000187A 6163                   MOV         R6,R1
    0000187C D358                   MOV.L       L1987+50,R3; __adds
    0000187E 1F0A                   MOV.L       R0,@(40,R15)
    00001880 430B                   JSR         @R3
    00001882 60F2                   MOV.L       @R15,R0
    00001884 D25A                   MOV.L       L1987+66,R2; __stoi
    00001886 420B                   JSR         @R2
    00001888 0009                   NOP
    0000188A 2F02                   MOV.L       R0,@R15
    0000188C 51F2                   MOV.L       @(8,R15),R1
    0000188E 5071                   MOV.L       @(4,R7),R0
    00001890 D353                   MOV.L       L1987+50,R3; __adds
    00001892 430B                   JSR         @R3
    00001894 5111                   MOV.L       @(4,R1),R1
    00001896 6603                   MOV         R0,R6
    00001898 51F1                   MOV.L       @(4,R15),R1
    0000189A 6203                   MOV         R0,R2
    0000189C D352                   MOV.L       L1987+58,R3; __divs
    0000189E D051                   MOV.L       L1987+54,R0; H'40000000
    000018A0 430B                   JSR         @R3
    000018A2 5111                   MOV.L       @(4,R1),R1
    000018A4 D351                   MOV.L       L1987+62,R3; __subs
    000018A6 6503                   MOV         R0,R5
    000018A8 430B                   JSR         @R3
    000018AA 6123                   MOV         R2,R1
    000018AC D250                   MOV.L       L1987+66,R2; __stoi
    000018AE 420B                   JSR         @R2
    000018B0 0009                   NOP
    000018B2 6153                   MOV         R5,R1
    000018B4 D34A                   MOV.L       L1987+50,R3; __adds
    000018B6 1F08                   MOV.L       R0,@(32,R15)
    000018B8 430B                   JSR         @R3
    000018BA 6063                   MOV         R6,R0
    000018BC D24C                   MOV.L       L1987+66,R2; __stoi
    000018BE 420B                   JSR         @R2
    000018C0 0009                   NOP
    000018C2 1F07                   MOV.L       R0,@(28,R15)
    000018C4 5743                   MOV.L       @(12,R4),R7
    000018C6 E040                   MOV         #64,R0
    000018C8 D345                   MOV.L       L1987+50,R3; __adds
    000018CA 1F74                   MOV.L       R7,@(16,R15)
    000018CC 577E                   MOV.L       @(56,R7),R7
    000018CE 1F73                   MOV.L       R7,@(12,R15)
    000018D0 077E                   MOV.L       @(R0,R7),R7
    000018D2 514C                   MOV.L       @(48,R4),R1
    000018D4 1F12                   MOV.L       R1,@(8,R15)
    000018D6 6072                   MOV.L       @R7,R0
    000018D8 430B                   JSR         @R3
    000018DA 6112                   MOV.L       @R1,R1
    000018DC 514D                   MOV.L       @(52,R4),R1
    000018DE 6603                   MOV         R0,R6
    000018E0 D341                   MOV.L       L1987+58,R3; __divs
    000018E2 6203                   MOV         R0,R2
    000018E4 1F11                   MOV.L       R1,@(4,R15)
    000018E6 D03F                   MOV.L       L1987+54,R0; H'40000000
    000018E8 430B                   JSR         @R3




SH SERIES C/C++ Compiler (Ver. 6.0C)                                                                 18-Nov-2021 16:33:51  PAGE   77


SCT OFFSET   CODE       C LABEL     INSTRUCTION OPERAND    COMMENT

    000018EA 6112                   MOV.L       @R1,R1
    000018EC D33F                   MOV.L       L1987+62,R3; __subs
    000018EE 6503                   MOV         R0,R5
    000018F0 430B                   JSR         @R3
    000018F2 6123                   MOV         R2,R1
    000018F4 D23E                   MOV.L       L1987+66,R2; __stoi
    000018F6 420B                   JSR         @R2
    000018F8 0009                   NOP
    000018FA 6153                   MOV         R5,R1
    000018FC D338                   MOV.L       L1987+50,R3; __adds
    000018FE 1F09                   MOV.L       R0,@(36,R15)
    00001900 430B                   JSR         @R3
    00001902 6063                   MOV         R6,R0
    00001904 D23A                   MOV.L       L1987+66,R2; __stoi
    00001906 420B                   JSR         @R2
    00001908 0009                   NOP
    0000190A 6603                   MOV         R0,R6
    0000190C 51F2                   MOV.L       @(8,R15),R1
    0000190E 5071                   MOV.L       @(4,R7),R0
    00001910 D333                   MOV.L       L1987+50,R3; __adds
    00001912 430B                   JSR         @R3
    00001914 5111                   MOV.L       @(4,R1),R1
    00001916 6503                   MOV         R0,R5
    00001918 51F1                   MOV.L       @(4,R15),R1
    0000191A 6203                   MOV         R0,R2
    0000191C D332                   MOV.L       L1987+58,R3; __divs
    0000191E D031                   MOV.L       L1987+54,R0; H'40000000
    00001920 430B                   JSR         @R3
    00001922 5111                   MOV.L       @(4,R1),R1
    00001924 D331                   MOV.L       L1987+62,R3; __subs
    00001926 6403                   MOV         R0,R4
    00001928 430B                   JSR         @R3
    0000192A 6123                   MOV         R2,R1
    0000192C D230                   MOV.L       L1987+66,R2; __stoi
    0000192E 420B                   JSR         @R2
    00001930 0009                   NOP
    00001932 6703                   MOV         R0,R7
    00001934 D32A                   MOV.L       L1987+50,R3; __adds
    00001936 6143                   MOV         R4,R1
    00001938 430B                   JSR         @R3
    0000193A 6053                   MOV         R5,R0
    0000193C D22C                   MOV.L       L1987+66,R2; __stoi
    0000193E 420B                   JSR         @R2
    00001940 0009                   NOP
    00001942 6403                   MOV         R0,R4
    00001944 53FA                   MOV.L       @(40,R15),R3
    00001946 3363                   CMP/GE      R6,R3
    00001948 890D                   BT          L1864
    0000194A 52F9                   MOV.L       @(36,R15),R2
    0000194C 61F2                   MOV.L       @R15,R1
    0000194E 3127                   CMP/GT      R2,R1
    00001950 8B09                   BF          L1864
    00001952 53F8                   MOV.L       @(32,R15),R3
    00001954 3343                   CMP/GE      R4,R3
    00001956 8906                   BT          L1864
    00001958 51F7                   MOV.L       @(28,R15),R1
    0000195A 3177                   CMP/GT      R7,R1




SH SERIES C/C++ Compiler (Ver. 6.0C)                                                                 18-Nov-2021 16:33:51  PAGE   78


SCT OFFSET   CODE       C LABEL     INSTRUCTION OPERAND    COMMENT

    0000195C 8B03                   BF          L1864
    0000195E 7F2C                   ADD         #44,R15
    00001960 4F26                   LDS.L       @R15+,PR
    00001962 000B                   RTS
    00001964 E001                   MOV         #1,R0
    00001966              L1864:                            
    00001966 E000                   MOV         #0,R0
    00001968              L1866:                            
    00001968 7F2C                   ADD         #44,R15
    0000196A 4F26                   LDS.L       @R15+,PR
    0000196C 000B                   RTS
    0000196E 0009                   NOP
    00001970              __$__dt__13BoxCollider2DFv:      ; function: BoxCollider2D::~BoxCollider2D()
                                                           ; frame size=16
    00001970 2FE6                   MOV.L       R14,@-R15
    00001972 6E43                   MOV         R4,R14
    00001974 2FD6                   MOV.L       R13,@-R15
    00001976 2EE8                   TST         R14,R14
    00001978 4F22                   STS.L       PR,@-R15
    0000197A 7FFC                   ADD         #-4,R15
    0000197C 8D12                   BT/S        L1869
    0000197E 2F52                   MOV.L       R5,@R15
    00001980 D215                   MOV.L       L1987+42,R2; ___vtbl__13BoxCollider2D
    00001982 1E22                   MOV.L       R2,@(8,R14)
    00001984 DD0F                   MOV.L       L1987+22,R13; ___dl__FPv
    00001986 4D0B                   JSR         @R13
    00001988 54EC                   MOV.L       @(48,R14),R4
    0000198A 4D0B                   JSR         @R13
    0000198C 54ED                   MOV.L       @(52,R14),R4
    0000198E D308                   MOV.L       L1987+2,R3 ; ___vtbl__10Collider2D
    00001990 D208                   MOV.L       L1987+6,R2 ; __$__vtbl__13MonoBehaviour
    00001992 D309                   MOV.L       L1987+10,R3; __$__vtbl__9Behaviour
    00001994 D209                   MOV.L       L1987+14,R2; __$__vtbl__9Component
    00001996 D30A                   MOV.L       L1987+18,R3; __$__vtbl__6Object
    00001998 1E32                   MOV.L       R3,@(8,R14)
    0000199A 60F2                   MOV.L       @R15,R0
    0000199C C801                   TST         #1,R0
    0000199E 8901                   BT          L1869
    000019A0 4D0B                   JSR         @R13
    000019A2 64E3                   MOV         R14,R4
    000019A4              L1869:                            
    000019A4 7F04                   ADD         #4,R15
    000019A6 4F26                   LDS.L       @R15+,PR
    000019A8 6DF6                   MOV.L       @R15+,R13
    000019AA 000B                   RTS
    000019AC 6EF6                   MOV.L       @R15+,R14
    000019AE              L1987:                            
    000019AE 0000                   .DATA.W     0
    000019B0 <00000000>             .DATA.L     ___vtbl__10Collider2D
    000019B4 <00000000>             .DATA.L     __$__vtbl__13MonoBehaviour
    000019B8 <00000000>             .DATA.L     __$__vtbl__9Behaviour
    000019BC <00000000>             .DATA.L     __$__vtbl__9Component
    000019C0 <00000000>             .DATA.L     __$__vtbl__6Object
    000019C4 <00000000>             .DATA.L     ___dl__FPv
    000019C8 <00000000>             .DATA.L     ___nw__FUl
    000019CC <00000000>             .DATA.L     ___ct__13MonoBehaviourFPCcP10GameObjectT1
    000019D0 <00000000>             .DATA.L     L430




SH SERIES C/C++ Compiler (Ver. 6.0C)                                                                 18-Nov-2021 16:33:51  PAGE   79


SCT OFFSET   CODE       C LABEL     INSTRUCTION OPERAND    COMMENT

    000019D4 <00000000>             .DATA.L     ___memzero
    000019D8 <00000000>             .DATA.L     ___vtbl__13BoxCollider2D
    000019DC <00000000>             .DATA.L     L431
    000019E0 <00000000>             .DATA.L     __adds
    000019E4 40000000               .DATA.L     H'40000000
    000019E8 <00000000>             .DATA.L     __divs
    000019EC <00000000>             .DATA.L     __subs
    000019F0 <00000000>             .DATA.L     __stoi
    000019F4              _CheckCollider__9RigidbodyFv:    ; function: Rigidbody::CheckCollider()
                                                           ; frame size=32
    000019F4 2FE6                   MOV.L       R14,@-R15
    000019F6 6E43                   MOV         R4,R14
    000019F8 2FD6                   MOV.L       R13,@-R15
    000019FA 2FC6                   MOV.L       R12,@-R15
    000019FC 2FB6                   MOV.L       R11,@-R15
    000019FE 2FA6                   MOV.L       R10,@-R15
    00001A00 2F86                   MOV.L       R8,@-R15
    00001A02 4F22                   STS.L       PR,@-R15
    00001A04 7FFC                   ADD         #-4,R15
    00001A06 54E7                   MOV.L       @(28,R14),R4
    00001A08 2448                   TST         R4,R4
    00001A0A 8906                   BT          L1870
    00001A0C 52E3                   MOV.L       @(12,R14),R2
    00001A0E 5329                   MOV.L       @(36,R2),R3
    00001A10 2338                   TST         R3,R3
    00001A12 8902                   BT          L1870
    00001A14 534B                   MOV.L       @(44,R4),R3
    00001A16 2338                   TST         R3,R3
    00001A18 8930                   BT          L1395
    00001A1A              L1870:                            
    00001A1A 9B39                   MOV.W       L1988,R11  ; H'0114
    00001A1C A029                   BRA         L1872
    00001A1E ED00                   MOV         #0,R13
    00001A20              L1873:                            
    00001A20 5CE3                   MOV.L       @(12,R14),R12
    00001A22 65D3                   MOV         R13,R5
    00001A24 5CCB                   MOV.L       @(44,R12),R12
    00001A26 7C24                   ADD         #36,R12
    00001A28 BAC7                   BSR         __$get__26List__tm__14_P10Collider2DFi_Z1Z
    00001A2A 64C3                   MOV         R12,R4
    00001A2C 52E7                   MOV.L       @(28,R14),R2
    00001A2E 3200                   CMP/EQ      R0,R2
    00001A30 891E                   BT          L1874
    00001A32 65D3                   MOV         R13,R5
    00001A34 51E3                   MOV.L       @(12,R14),R1
    00001A36 521B                   MOV.L       @(44,R1),R2
    00001A38 7224                   ADD         #36,R2
    00001A3A 2F22                   MOV.L       R2,@R15
    00001A3C BABD                   BSR         __$get__26List__tm__14_P10Collider2DFi_Z1Z
    00001A3E 6423                   MOV         R2,R4
    00001A40 D214                   MOV.L       L1988+4,R2 ; _IsActive__10GameObjectFv
    00001A42 420B                   JSR         @R2
    00001A44 5403                   MOV.L       @(12,R0),R4
    00001A46 2008                   TST         R0,R0
    00001A48 8912                   BT          L1874
    00001A4A 65D3                   MOV         R13,R5
    00001A4C 5CE7                   MOV.L       @(28,R14),R12




SH SERIES C/C++ Compiler (Ver. 6.0C)                                                                 18-Nov-2021 16:33:51  PAGE   80


SCT OFFSET   CODE       C LABEL     INSTRUCTION OPERAND    COMMENT

    00001A4E 5CC2                   MOV.L       @(8,R12),R12
    00001A50 5AE3                   MOV.L       @(12,R14),R10
    00001A52 3CBC                   ADD         R11,R12
    00001A54 5AAB                   MOV.L       @(44,R10),R10
    00001A56 58C2                   MOV.L       @(8,R12),R8
    00001A58 7A24                   ADD         #36,R10
    00001A5A BAAE                   BSR         __$get__26List__tm__14_P10Collider2DFi_Z1Z
    00001A5C 64A3                   MOV         R10,R4
    00001A5E 6503                   MOV         R0,R5
    00001A60 63C2                   MOV.L       @R12,R3
    00001A62 54E7                   MOV.L       @(28,R14),R4
    00001A64 480B                   JSR         @R8
    00001A66 343C                   ADD         R3,R4
    00001A68 2008                   TST         R0,R0
    00001A6A 8901                   BT          L1874
    00001A6C A007                   BRA         L1871
    00001A6E E001                   MOV         #1,R0
    00001A70              L1874:                            
    00001A70 7D01                   ADD         #1,R13
    00001A72              L1872:                            
    00001A72 53E3                   MOV.L       @(12,R14),R3
    00001A74 523B                   MOV.L       @(44,R3),R2
    00001A76 512C                   MOV.L       @(48,R2),R1
    00001A78 3D13                   CMP/GE      R1,R13
    00001A7A 8BD1                   BF          L1873
    00001A7C              L1395:
    00001A7C E000                   MOV         #0,R0
    00001A7E              L1871:                            
    00001A7E 7F04                   ADD         #4,R15
    00001A80 4F26                   LDS.L       @R15+,PR
    00001A82 68F6                   MOV.L       @R15+,R8
    00001A84 6AF6                   MOV.L       @R15+,R10
    00001A86 6BF6                   MOV.L       @R15+,R11
    00001A88 6CF6                   MOV.L       @R15+,R12
    00001A8A 6DF6                   MOV.L       @R15+,R13
    00001A8C 000B                   RTS
    00001A8E 6EF6                   MOV.L       @R15+,R14
    00001A90              L1988:                            
    00001A90 0114                   .DATA.W     H'0114
    00001A92 0000                   .DATA.W     0
    00001A94 <00000000>             .DATA.L     _IsActive__10GameObjectFv
    00001A98              _IsVisible__9RigidbodyFv:        ; function: Rigidbody::IsVisible()
                                                           ; frame size=28
                                                           ; used runtime library name:
                                                           ; __adds, __subs, __gts, __lts
    00001A98 2FE6                   MOV.L       R14,@-R15
    00001A9A E040                   MOV         #64,R0
    00001A9C 4F22                   STS.L       PR,@-R15
    00001A9E E500                   MOV         #0,R5
    00001AA0 7FEC                   ADD         #-20,R15
    00001AA2 1F42                   MOV.L       R4,@(8,R15)
    00001AA4 5443                   MOV.L       @(12,R4),R4
    00001AA6 2F42                   MOV.L       R4,@R15
    00001AA8 544E                   MOV.L       @(56,R4),R4
    00001AAA 1F43                   MOV.L       R4,@(12,R15)
    00001AAC 044E                   MOV.L       @(R0,R4),R4
    00001AAE 6342                   MOV.L       @R4,R3




SH SERIES C/C++ Compiler (Ver. 6.0C)                                                                 18-Nov-2021 16:33:51  PAGE   81


SCT OFFSET   CODE       C LABEL     INSTRUCTION OPERAND    COMMENT

    00001AB0 1F34                   MOV.L       R3,@(16,R15)
    00001AB2 5E41                   MOV.L       @(4,R4),R14
    00001AB4 63F2                   MOV.L       @R15,R3
    00001AB6 513B                   MOV.L       @(44,R3),R1
    00001AB8 7114                   ADD         #20,R1
    00001ABA 1F11                   MOV.L       R1,@(4,R15)
    00001ABC BA49                   BSR         __$get__20List__tm__9_P6CameraFi_Z1Z
    00001ABE 6413                   MOV         R1,R4
    00001AC0 5203                   MOV.L       @(12,R0),R2
    00001AC2 E500                   MOV         #0,R5
    00001AC4 532E                   MOV.L       @(56,R2),R3
    00001AC6 E040                   MOV         #64,R0
    00001AC8 013E                   MOV.L       @(R0,R3),R1
    00001ACA 6212                   MOV.L       @R1,R2
    00001ACC 2F22                   MOV.L       R2,@R15
    00001ACE 53F2                   MOV.L       @(8,R15),R3
    00001AD0 5233                   MOV.L       @(12,R3),R2
    00001AD2 532B                   MOV.L       @(44,R2),R3
    00001AD4 7314                   ADD         #20,R3
    00001AD6 1F31                   MOV.L       R3,@(4,R15)
    00001AD8 BA3B                   BSR         __$get__20List__tm__9_P6CameraFi_Z1Z
    00001ADA 6433                   MOV         R3,R4
    00001ADC 5103                   MOV.L       @(12,R0),R1
    00001ADE E040                   MOV         #64,R0
    00001AE0 531E                   MOV.L       @(56,R1),R3
    00001AE2 023E                   MOV.L       @(R0,R3),R2
    00001AE4 51F4                   MOV.L       @(16,R15),R1
    00001AE6 5421                   MOV.L       @(4,R2),R4
    00001AE8 D35E                   MOV.L       L1989,R3   ; __subs
    00001AEA 430B                   JSR         @R3
    00001AEC 60F2                   MOV.L       @R15,R0
    00001AEE D15E                   MOV.L       L1989+4,R1 ; H'437E0000
    00001AF0 D35E                   MOV.L       L1989+8,R3 ; __adds
    00001AF2 430B                   JSR         @R3
    00001AF4 6503                   MOV         R0,R5
    00001AF6 D25E                   MOV.L       L1989+12,R2; __lts
    00001AF8 420B                   JSR         @R2
    00001AFA E100                   MOV         #0,R1
    00001AFC 8800                   CMP/EQ      #0,R0
    00001AFE 8921                   BT          L1876
    00001B00 D05C                   MOV.L       L1989+16,R0; H'43800000
    00001B02 D35B                   MOV.L       L1989+12,R3; __lts
    00001B04 430B                   JSR         @R3
    00001B06 6153                   MOV         R5,R1
    00001B08 8800                   CMP/EQ      #0,R0
    00001B0A 891B                   BT          L1876
    00001B0C D255                   MOV.L       L1989,R2   ; __subs
    00001B0E 61E3                   MOV         R14,R1
    00001B10 420B                   JSR         @R2
    00001B12 6043                   MOV         R4,R0
    00001B14 D158                   MOV.L       L1989+20,R1; H'42FC0000
    00001B16 D355                   MOV.L       L1989+8,R3 ; __adds
    00001B18 430B                   JSR         @R3
    00001B1A 0009                   NOP
    00001B1C D254                   MOV.L       L1989+12,R2; __lts
    00001B1E 420B                   JSR         @R2
    00001B20 E100                   MOV         #0,R1




SH SERIES C/C++ Compiler (Ver. 6.0C)                                                                 18-Nov-2021 16:33:51  PAGE   82


SCT OFFSET   CODE       C LABEL     INSTRUCTION OPERAND    COMMENT

    00001B22 8800                   CMP/EQ      #0,R0
    00001B24 890E                   BT          L1876
    00001B26 61E3                   MOV         R14,R1
    00001B28 D34E                   MOV.L       L1989,R3   ; __subs
    00001B2A 430B                   JSR         @R3
    00001B2C 6043                   MOV         R4,R0
    00001B2E D153                   MOV.L       L1989+24,R1; H'43000000
    00001B30 D253                   MOV.L       L1989+28,R2; __gts
    00001B32 420B                   JSR         @R2
    00001B34 0009                   NOP
    00001B36 8800                   CMP/EQ      #0,R0
    00001B38 8904                   BT          L1876
    00001B3A E001                   MOV         #1,R0
    00001B3C 7F14                   ADD         #20,R15
    00001B3E 4F26                   LDS.L       @R15+,PR
    00001B40 000B                   RTS
    00001B42 6EF6                   MOV.L       @R15+,R14
    00001B44              L1876:                            
    00001B44 E000                   MOV         #0,R0
    00001B46              L1878:                            
    00001B46 7F14                   ADD         #20,R15
    00001B48 4F26                   LDS.L       @R15+,PR
    00001B4A 000B                   RTS
    00001B4C 6EF6                   MOV.L       @R15+,R14
    00001B4E              ___ct__9RigidbodyFP10GameObjectfbT3PCc:
                                                           ; function: Rigidbody::Rigidbody(GameObject *, float, bool, bool, const c
                        +                                  har *)
                                                           ; frame size=24
    00001B4E 2F86                   MOV.L       R8,@-R15
    00001B50 4F22                   STS.L       PR,@-R15
    00001B52 7FF0                   ADD         #-16,R15
    00001B54 2F42                   MOV.L       R4,@R15
    00001B56 1F53                   MOV.L       R5,@(12,R15)
    00001B58 1F62                   MOV.L       R6,@(8,R15)
    00001B5A 1F71                   MOV.L       R7,@(4,R15)
    00001B5C 63F2                   MOV.L       @R15,R3
    00001B5E 2338                   TST         R3,R3
    00001B60 8B05                   BF          L1880
    00001B62 D348                   MOV.L       L1989+32,R3; ___nw__FUl
    00001B64 430B                   JSR         @R3
    00001B66 E434                   MOV         #52,R4
    00001B68 2008                   TST         R0,R0
    00001B6A 8D1E                   BT/S        L1879
    00001B6C 2F02                   MOV.L       R0,@R15
    00001B6E              L1880:                            
    00001B6E 57F7                   MOV.L       @(28,R15),R7
    00001B70 56F3                   MOV.L       @(12,R15),R6
    00001B72 D545                   MOV.L       L1989+36,R5; L432
    00001B74 D345                   MOV.L       L1989+40,R3; ___ct__13MonoBehaviourFPCcP10GameObjectT1
    00001B76 430B                   JSR         @R3
    00001B78 64F2                   MOV.L       @R15,R4
    00001B7A 62F2                   MOV.L       @R15,R2
    00001B7C D344                   MOV.L       L1989+44,R3; ___vtbl__9Rigidbody
    00001B7E 1232                   MOV.L       R3,@(8,R2)
    00001B80 62F2                   MOV.L       @R15,R2
    00001B82 53F2                   MOV.L       @(8,R15),R3
    00001B84 1239                   MOV.L       R3,@(36,R2)




SH SERIES C/C++ Compiler (Ver. 6.0C)                                                                 18-Nov-2021 16:33:51  PAGE   83


SCT OFFSET   CODE       C LABEL     INSTRUCTION OPERAND    COMMENT

    00001B86 62F2                   MOV.L       @R15,R2
    00001B88 53F1                   MOV.L       @(4,R15),R3
    00001B8A 123A                   MOV.L       R3,@(40,R2)
    00001B8C 62F2                   MOV.L       @R15,R2
    00001B8E 53F6                   MOV.L       @(24,R15),R3
    00001B90 123B                   MOV.L       R3,@(44,R2)
    00001B92 68F2                   MOV.L       @R15,R8
    00001B94 D33F                   MOV.L       L1989+48,R3; ___ct__7Vector2Fv
    00001B96 7830                   ADD         #48,R8
    00001B98 430B                   JSR         @R3
    00001B9A E400                   MOV         #0,R4
    00001B9C 2802                   MOV.L       R0,@R8
    00001B9E 68F2                   MOV.L       @R15,R8
    00001BA0 D33C                   MOV.L       L1989+48,R3; ___ct__7Vector2Fv
    00001BA2 7820                   ADD         #32,R8
    00001BA4 430B                   JSR         @R3
    00001BA6 E400                   MOV         #0,R4
    00001BA8 2802                   MOV.L       R0,@R8
    00001BAA              L1879:                            
    00001BAA 60F2                   MOV.L       @R15,R0
    00001BAC 7F10                   ADD         #16,R15
    00001BAE 4F26                   LDS.L       @R15+,PR
    00001BB0 000B                   RTS
    00001BB2 68F6                   MOV.L       @R15+,R8
    00001BB4              _PhysicsCalculator__9RigidbodyFv:
                                                           ; function: Rigidbody::PhysicsCalculator()
                                                           ; frame size=44
                                                           ; used runtime library name:
                                                           ; __subs, __muls, __divs, __negs, __stoi, __itos
    00001BB4 2FE6                   MOV.L       R14,@-R15
    00001BB6 6E43                   MOV         R4,R14
    00001BB8 2FD6                   MOV.L       R13,@-R15
    00001BBA 2FC6                   MOV.L       R12,@-R15
    00001BBC 2FB6                   MOV.L       R11,@-R15
    00001BBE 4F22                   STS.L       PR,@-R15
    00001BC0 7FE8                   ADD         #-24,R15
    00001BC2 53EA                   MOV.L       @(40,R14),R3
    00001BC4 2338                   TST         R3,R3
    00001BC6 8B01                   BF          L1990
    00001BC8 A0E1                   BRA         L1884
    00001BCA 0009                   NOP
    00001BCC              L1990:                            
    00001BCC BF64                   BSR         _IsVisible__9RigidbodyFv
    00001BCE 64E3                   MOV         R14,R4
    00001BD0 2008                   TST         R0,R0
    00001BD2 8B01                   BF          L1991
    00001BD4 A0DB                   BRA         L1884
    00001BD6 0009                   NOP
    00001BD8              L1991:                            
    00001BD8 BF0C                   BSR         _CheckCollider__9RigidbodyFv
    00001BDA 64E3                   MOV         R14,R4
    00001BDC 2008                   TST         R0,R0
    00001BDE 8908                   BT          L1885
    00001BE0 55E8                   MOV.L       @(32,R14),R5
    00001BE2 E040                   MOV         #64,R0
    00001BE4 D32C                   MOV.L       L1989+52,R3; _Set__7Vector2FP7Vector2
    00001BE6 54E3                   MOV.L       @(12,R14),R4




SH SERIES C/C++ Compiler (Ver. 6.0C)                                                                 18-Nov-2021 16:33:51  PAGE   84


SCT OFFSET   CODE       C LABEL     INSTRUCTION OPERAND    COMMENT

    00001BE8 544E                   MOV.L       @(56,R4),R4
    00001BEA 430B                   JSR         @R3
    00001BEC 044E                   MOV.L       @(R0,R4),R4
    00001BEE A020                   BRA         L1886
    00001BF0 0009                   NOP
    00001BF2              L1885:                            
    00001BF2 5DEC                   MOV.L       @(48,R14),R13
    00001BF4 51E3                   MOV.L       @(12,R14),R1
    00001BF6 1F14                   MOV.L       R1,@(16,R15)
    00001BF8 511B                   MOV.L       @(44,R1),R1
    00001BFA 1F13                   MOV.L       R1,@(12,R15)
    00001BFC 5114                   MOV.L       @(16,R1),R1
    00001BFE 1F12                   MOV.L       R1,@(8,R15)
    00001C00 5113                   MOV.L       @(12,R1),R1
    00001C02 1F11                   MOV.L       R1,@(4,R15)
    00001C04 6112                   MOV.L       @R1,R1
    00001C06 2F12                   MOV.L       R1,@R15
    00001C08 50E9                   MOV.L       @(36,R14),R0
    00001C0A 1F05                   MOV.L       R0,@(20,R15)
    00001C0C D323                   MOV.L       L1989+56,R3; __muls
    00001C0E 430B                   JSR         @R3
    00001C10 5111                   MOV.L       @(4,R1),R1
    00001C12 D214                   MOV.L       L1989,R2   ; __subs
    00001C14 420B                   JSR         @R2
    00001C16 51D1                   MOV.L       @(4,R13),R1
    00001C18 61F2                   MOV.L       @R15,R1
    00001C1A 6603                   MOV         R0,R6
    00001C1C D31F                   MOV.L       L1989+56,R3; __muls
    00001C1E 6112                   MOV.L       @R1,R1
    00001C20 430B                   JSR         @R3
    00001C22 50F5                   MOV.L       @(20,R15),R0
    00001C24 D20F                   MOV.L       L1989,R2   ; __subs
    00001C26 420B                   JSR         @R2
    00001C28 61D2                   MOV.L       @R13,R1
    00001C2A 6503                   MOV         R0,R5
    00001C2C D31C                   MOV.L       L1989+60,R3; _Set__7Vector2FfT1
    00001C2E 430B                   JSR         @R3
    00001C30 64D3                   MOV         R13,R4
    00001C32              L1886:                            
    00001C32 50EC                   MOV.L       @(48,R14),R0
    00001C34 D31B                   MOV.L       L1989+64,R3; __negs
    00001C36 2F02                   MOV.L       R0,@R15
    00001C38 430B                   JSR         @R3
    00001C3A 5001                   MOV.L       @(4,R0),R0
    00001C3C 65F2                   MOV.L       @R15,R5
    00001C3E 6603                   MOV         R0,R6
    00001C40 54E3                   MOV.L       @(12,R14),R4
    00001C42 E040                   MOV         #64,R0
    00001C44 D318                   MOV.L       L1989+68,R3; _Add__7Vector2FfT1
    00001C46 6552                   MOV.L       @R5,R5
    00001C48 544E                   MOV.L       @(56,R4),R4
    00001C4A 430B                   JSR         @R3
    00001C4C 044E                   MOV.L       @(R0,R4),R4
    00001C4E BED1                   BSR         _CheckCollider__9RigidbodyFv
    00001C50 64E3                   MOV         R14,R4
    00001C52 2008                   TST         R0,R0
    00001C54 8B01                   BF          L1992




SH SERIES C/C++ Compiler (Ver. 6.0C)                                                                 18-Nov-2021 16:33:51  PAGE   85


SCT OFFSET   CODE       C LABEL     INSTRUCTION OPERAND    COMMENT

    00001C56 A08D                   BRA         L1887
    00001C58 0009                   NOP
    00001C5A              L1992:                            
    00001C5A E400                   MOV         #0,R4
    00001C5C DD13                   MOV.L       L1989+72,R13; _abs
    00001C5E 6B43                   MOV         R4,R11
    00001C60 A073                   BRA         L1888
    00001C62 6C43                   MOV         R4,R12
    00001C64              L1989:                            
    00001C64 <00000000>             .DATA.L     __subs
    00001C68 437E0000               .DATA.L     H'437E0000
    00001C6C <00000000>             .DATA.L     __adds
    00001C70 <00000000>             .DATA.L     __lts
    00001C74 43800000               .DATA.L     H'43800000
    00001C78 42FC0000               .DATA.L     H'42FC0000
    00001C7C 43000000               .DATA.L     H'43000000
    00001C80 <00000000>             .DATA.L     __gts
    00001C84 <00000000>             .DATA.L     ___nw__FUl
    00001C88 <00000000>             .DATA.L     L432
    00001C8C <00000000>             .DATA.L     ___ct__13MonoBehaviourFPCcP10GameObjectT1
    00001C90 <00000000>             .DATA.L     ___vtbl__9Rigidbody
    00001C94 <00000000>             .DATA.L     ___ct__7Vector2Fv
    00001C98 <00000000>             .DATA.L     _Set__7Vector2FP7Vector2
    00001C9C <00000000>             .DATA.L     __muls
    00001CA0 <00000000>             .DATA.L     _Set__7Vector2FfT1
    00001CA4 <00000000>             .DATA.L     __negs
    00001CA8 <00000000>             .DATA.L     _Add__7Vector2FfT1
    00001CAC <00000000>             .DATA.L     _abs
    00001CB0              L1889:                            
    00001CB0 BEA0                   BSR         _CheckCollider__9RigidbodyFv
    00001CB2 64E3                   MOV         R14,R4
    00001CB4 2008                   TST         R0,R0
    00001CB6 8946                   BT          L1890
    00001CB8 50EC                   MOV.L       @(48,R14),R0
    00001CBA D39D                   MOV.L       L1993,R3   ; __stoi
    00001CBC 430B                   JSR         @R3
    00001CBE 5001                   MOV.L       @(4,R0),R0
    00001CC0 4D0B                   JSR         @R13
    00001CC2 6403                   MOV         R0,R4
    00001CC4 3C03                   CMP/GE      R0,R12
    00001CC6 8919                   BT          L1891
    00001CC8 50EC                   MOV.L       @(48,R14),R0
    00001CCA D399                   MOV.L       L1993,R3   ; __stoi
    00001CCC 430B                   JSR         @R3
    00001CCE 5001                   MOV.L       @(4,R0),R0
    00001CD0 4D0B                   JSR         @R13
    00001CD2 6403                   MOV         R0,R4
    00001CD4 D297                   MOV.L       L1993+4,R2 ; __itos
    00001CD6 420B                   JSR         @R2
    00001CD8 0009                   NOP
    00001CDA 6103                   MOV         R0,R1
    00001CDC D296                   MOV.L       L1993+8,R2 ; __divs
    00001CDE 53EC                   MOV.L       @(48,R14),R3
    00001CE0 420B                   JSR         @R2
    00001CE2 5031                   MOV.L       @(4,R3),R0
    00001CE4 D195                   MOV.L       L1993+12,R1; H'3F800000
    00001CE6 D396                   MOV.L       L1993+16,R3; __muls




SH SERIES C/C++ Compiler (Ver. 6.0C)                                                                 18-Nov-2021 16:33:51  PAGE   86


SCT OFFSET   CODE       C LABEL     INSTRUCTION OPERAND    COMMENT

    00001CE8 430B                   JSR         @R3
    00001CEA 0009                   NOP
    00001CEC 54E3                   MOV.L       @(12,R14),R4
    00001CEE 6603                   MOV         R0,R6
    00001CF0 D394                   MOV.L       L1993+20,R3; _Add__7Vector2FfT1
    00001CF2 E500                   MOV         #0,R5
    00001CF4 544E                   MOV.L       @(56,R4),R4
    00001CF6 E040                   MOV         #64,R0
    00001CF8 430B                   JSR         @R3
    00001CFA 044E                   MOV.L       @(R0,R4),R4
    00001CFC              L1891:                            
    00001CFC 50EC                   MOV.L       @(48,R14),R0
    00001CFE D38C                   MOV.L       L1993,R3   ; __stoi
    00001D00 430B                   JSR         @R3
    00001D02 6002                   MOV.L       @R0,R0
    00001D04 4D0B                   JSR         @R13
    00001D06 6403                   MOV         R0,R4
    00001D08 3B03                   CMP/GE      R0,R11
    00001D0A 891C                   BT          L1890
    00001D0C 50EC                   MOV.L       @(48,R14),R0
    00001D0E D388                   MOV.L       L1993,R3   ; __stoi
    00001D10 430B                   JSR         @R3
    00001D12 6002                   MOV.L       @R0,R0
    00001D14 4D0B                   JSR         @R13
    00001D16 6403                   MOV         R0,R4
    00001D18 D286                   MOV.L       L1993+4,R2 ; __itos
    00001D1A 420B                   JSR         @R2
    00001D1C 0009                   NOP
    00001D1E 6103                   MOV         R0,R1
    00001D20 D285                   MOV.L       L1993+8,R2 ; __divs
    00001D22 53EC                   MOV.L       @(48,R14),R3
    00001D24 420B                   JSR         @R2
    00001D26 6032                   MOV.L       @R3,R0
    00001D28 D184                   MOV.L       L1993+12,R1; H'3F800000
    00001D2A D385                   MOV.L       L1993+16,R3; __muls
    00001D2C 430B                   JSR         @R3
    00001D2E 0009                   NOP
    00001D30 D285                   MOV.L       L1993+24,R2; __negs
    00001D32 420B                   JSR         @R2
    00001D34 0009                   NOP
    00001D36 6503                   MOV         R0,R5
    00001D38 54E3                   MOV.L       @(12,R14),R4
    00001D3A E040                   MOV         #64,R0
    00001D3C D381                   MOV.L       L1993+20,R3; _Add__7Vector2FfT1
    00001D3E 544E                   MOV.L       @(56,R4),R4
    00001D40 044E                   MOV.L       @(R0,R4),R4
    00001D42 430B                   JSR         @R3
    00001D44 E600                   MOV         #0,R6
    00001D46              L1890:                            
    00001D46 7C01                   ADD         #1,R12
    00001D48 7B01                   ADD         #1,R11
    00001D4A              L1888:                            
    00001D4A 50EC                   MOV.L       @(48,R14),R0
    00001D4C D378                   MOV.L       L1993,R3   ; __stoi
    00001D4E 430B                   JSR         @R3
    00001D50 5001                   MOV.L       @(4,R0),R0
    00001D52 4D0B                   JSR         @R13




SH SERIES C/C++ Compiler (Ver. 6.0C)                                                                 18-Nov-2021 16:33:51  PAGE   87


SCT OFFSET   CODE       C LABEL     INSTRUCTION OPERAND    COMMENT

    00001D54 6403                   MOV         R0,R4
    00001D56 3C03                   CMP/GE      R0,R12
    00001D58 8BAA                   BF          L1889
    00001D5A 50EC                   MOV.L       @(48,R14),R0
    00001D5C D374                   MOV.L       L1993,R3   ; __stoi
    00001D5E 430B                   JSR         @R3
    00001D60 6002                   MOV.L       @R0,R0
    00001D62 4D0B                   JSR         @R13
    00001D64 6403                   MOV         R0,R4
    00001D66 3B03                   CMP/GE      R0,R11
    00001D68 8BA2                   BF          L1889
    00001D6A E600                   MOV         #0,R6
    00001D6C D377                   MOV.L       L1993+28,R3; _Set__7Vector2FfT1
    00001D6E 6563                   MOV         R6,R5
    00001D70 430B                   JSR         @R3
    00001D72 54EC                   MOV.L       @(48,R14),R4
    00001D74              L1887:                            
    00001D74 55E3                   MOV.L       @(12,R14),R5
    00001D76 E040                   MOV         #64,R0
    00001D78 54E8                   MOV.L       @(32,R14),R4
    00001D7A 555E                   MOV.L       @(56,R5),R5
    00001D7C D374                   MOV.L       L1993+32,R3; _Set__7Vector2FP7Vector2
    00001D7E 055E                   MOV.L       @(R0,R5),R5
    00001D80 7F18                   ADD         #24,R15
    00001D82 4F26                   LDS.L       @R15+,PR
    00001D84 6BF6                   MOV.L       @R15+,R11
    00001D86 6CF6                   MOV.L       @R15+,R12
    00001D88 6DF6                   MOV.L       @R15+,R13
    00001D8A 432B                   JMP         @R3
    00001D8C 6EF6                   MOV.L       @R15+,R14
    00001D8E              L1884:                            
    00001D8E 7F18                   ADD         #24,R15
    00001D90 4F26                   LDS.L       @R15+,PR
    00001D92 6BF6                   MOV.L       @R15+,R11
    00001D94 6CF6                   MOV.L       @R15+,R12
    00001D96 6DF6                   MOV.L       @R15+,R13
    00001D98 000B                   RTS
    00001D9A 6EF6                   MOV.L       @R15+,R14
    00001D9C              __$__dt__9RigidbodyFv:           ; function: Rigidbody::~Rigidbody()
                                                           ; frame size=16
    00001D9C 2FE6                   MOV.L       R14,@-R15
    00001D9E 6E43                   MOV         R4,R14
    00001DA0 2FD6                   MOV.L       R13,@-R15
    00001DA2 2EE8                   TST         R14,R14
    00001DA4 4F22                   STS.L       PR,@-R15
    00001DA6 7FFC                   ADD         #-4,R15
    00001DA8 8D11                   BT/S        L1895
    00001DAA 2F52                   MOV.L       R5,@R15
    00001DAC D269                   MOV.L       L1993+36,R2; ___vtbl__9Rigidbody
    00001DAE 1E22                   MOV.L       R2,@(8,R14)
    00001DB0 DD69                   MOV.L       L1993+40,R13; ___dl__FPv
    00001DB2 4D0B                   JSR         @R13
    00001DB4 54EC                   MOV.L       @(48,R14),R4
    00001DB6 4D0B                   JSR         @R13
    00001DB8 54E8                   MOV.L       @(32,R14),R4
    00001DBA D368                   MOV.L       L1993+44,R3; __$__vtbl__13MonoBehaviour
    00001DBC D268                   MOV.L       L1993+48,R2; __$__vtbl__9Behaviour




SH SERIES C/C++ Compiler (Ver. 6.0C)                                                                 18-Nov-2021 16:33:51  PAGE   88


SCT OFFSET   CODE       C LABEL     INSTRUCTION OPERAND    COMMENT

    00001DBE D369                   MOV.L       L1993+52,R3; __$__vtbl__9Component
    00001DC0 D269                   MOV.L       L1993+56,R2; __$__vtbl__6Object
    00001DC2 1E22                   MOV.L       R2,@(8,R14)
    00001DC4 60F2                   MOV.L       @R15,R0
    00001DC6 C801                   TST         #1,R0
    00001DC8 8901                   BT          L1895
    00001DCA 4D0B                   JSR         @R13
    00001DCC 64E3                   MOV         R14,R4
    00001DCE              L1895:                            
    00001DCE 7F04                   ADD         #4,R15
    00001DD0 4F26                   LDS.L       @R15+,PR
    00001DD2 6DF6                   MOV.L       @R15+,R13
    00001DD4 000B                   RTS
    00001DD6 6EF6                   MOV.L       @R15+,R14
    00001DD8              _Start__9RigidbodyFv:            ; function: Rigidbody::Start()
                                                           ; frame size=8
    00001DD8 2FE6                   MOV.L       R14,@-R15
    00001DDA E600                   MOV         #0,R6
    00001DDC D35B                   MOV.L       L1993+28,R3; _Set__7Vector2FfT1
    00001DDE 6E43                   MOV         R4,R14
    00001DE0 4F22                   STS.L       PR,@-R15
    00001DE2 6563                   MOV         R6,R5
    00001DE4 430B                   JSR         @R3
    00001DE6 54EC                   MOV.L       @(48,R14),R4
    00001DE8 55E3                   MOV.L       @(12,R14),R5
    00001DEA E040                   MOV         #64,R0
    00001DEC D358                   MOV.L       L1993+32,R3; _Set__7Vector2FP7Vector2
    00001DEE 555E                   MOV.L       @(56,R5),R5
    00001DF0 055E                   MOV.L       @(R0,R5),R5
    00001DF2 430B                   JSR         @R3
    00001DF4 54E8                   MOV.L       @(32,R14),R4
    00001DF6 D55D                   MOV.L       L1993+60,R5; L431
    00001DF8 D25D                   MOV.L       L1993+64,R2; _GetComponent__10GameObjectFPCc
    00001DFA 420B                   JSR         @R2
    00001DFC 54E3                   MOV.L       @(12,R14),R4
    00001DFE 1E07                   MOV.L       R0,@(28,R14)
    00001E00 4F26                   LDS.L       @R15+,PR
    00001E02 000B                   RTS
    00001E04 6EF6                   MOV.L       @R15+,R14
    00001E06              ___ct__4TextFP10GameObjectPUcPCc:
                                                           ; function: Text::Text(GameObject *, unsigned char *, const char *)
                                                           ; frame size=20
    00001E06 4F22                   STS.L       PR,@-R15
    00001E08 7FF0                   ADD         #-16,R15
    00001E0A 2F42                   MOV.L       R4,@R15
    00001E0C 1F52                   MOV.L       R5,@(8,R15)
    00001E0E 1F61                   MOV.L       R6,@(4,R15)
    00001E10 1F73                   MOV.L       R7,@(12,R15)
    00001E12 63F2                   MOV.L       @R15,R3
    00001E14 2338                   TST         R3,R3
    00001E16 8B05                   BF          L1898
    00001E18 D356                   MOV.L       L1993+68,R3; ___nw__FUl
    00001E1A 430B                   JSR         @R3
    00001E1C E420                   MOV         #32,R4
    00001E1E 2008                   TST         R0,R0
    00001E20 8D0C                   BT/S        L1897
    00001E22 2F02                   MOV.L       R0,@R15




SH SERIES C/C++ Compiler (Ver. 6.0C)                                                                 18-Nov-2021 16:33:51  PAGE   89


SCT OFFSET   CODE       C LABEL     INSTRUCTION OPERAND    COMMENT

    00001E24              L1898:                            
    00001E24 57F3                   MOV.L       @(12,R15),R7
    00001E26 56F2                   MOV.L       @(8,R15),R6
    00001E28 D553                   MOV.L       L1993+72,R5; L433
    00001E2A D354                   MOV.L       L1993+76,R3; ___ct__13MonoBehaviourFPCcP10GameObjectT1
    00001E2C 430B                   JSR         @R3
    00001E2E 64F2                   MOV.L       @R15,R4
    00001E30 62F2                   MOV.L       @R15,R2
    00001E32 D353                   MOV.L       L1993+80,R3; ___vtbl__4Text
    00001E34 1232                   MOV.L       R3,@(8,R2)
    00001E36 62F2                   MOV.L       @R15,R2
    00001E38 53F1                   MOV.L       @(4,R15),R3
    00001E3A 1237                   MOV.L       R3,@(28,R2)
    00001E3C              L1897:                            
    00001E3C 60F2                   MOV.L       @R15,R0
    00001E3E 7F10                   ADD         #16,R15
    00001E40 4F26                   LDS.L       @R15+,PR
    00001E42 000B                   RTS
    00001E44 0009                   NOP
    00001E46              _OnRenderObject__4TextFv:        ; function: Text::OnRenderObject()
                                                           ; frame size=28
                                                           ; used runtime library name:
                                                           ; __subs, __stoi
    00001E46 E040                   MOV         #64,R0
    00001E48 2FE6                   MOV.L       R14,@-R15
    00001E4A E500                   MOV         #0,R5
    00001E4C 4F22                   STS.L       PR,@-R15
    00001E4E 6E43                   MOV         R4,R14
    00001E50 7FEC                   ADD         #-20,R15
    00001E52 54E3                   MOV.L       @(12,R14),R4
    00001E54 2F42                   MOV.L       R4,@R15
    00001E56 544E                   MOV.L       @(56,R4),R4
    00001E58 1F42                   MOV.L       R4,@(8,R15)
    00001E5A 044E                   MOV.L       @(R0,R4),R4
    00001E5C 6342                   MOV.L       @R4,R3
    00001E5E 1F33                   MOV.L       R3,@(12,R15)
    00001E60 5241                   MOV.L       @(4,R4),R2
    00001E62 1F24                   MOV.L       R2,@(16,R15)
    00001E64 63F2                   MOV.L       @R15,R3
    00001E66 513B                   MOV.L       @(44,R3),R1
    00001E68 7114                   ADD         #20,R1
    00001E6A 1F11                   MOV.L       R1,@(4,R15)
    00001E6C B871                   BSR         __$get__20List__tm__9_P6CameraFi_Z1Z
    00001E6E 6413                   MOV         R1,R4
    00001E70 5203                   MOV.L       @(12,R0),R2
    00001E72 E500                   MOV         #0,R5
    00001E74 532E                   MOV.L       @(56,R2),R3
    00001E76 E040                   MOV         #64,R0
    00001E78 013E                   MOV.L       @(R0,R3),R1
    00001E7A 6212                   MOV.L       @R1,R2
    00001E7C 1F21                   MOV.L       R2,@(4,R15)
    00001E7E 53E3                   MOV.L       @(12,R14),R3
    00001E80 513B                   MOV.L       @(44,R3),R1
    00001E82 7114                   ADD         #20,R1
    00001E84 2F12                   MOV.L       R1,@R15
    00001E86 B864                   BSR         __$get__20List__tm__9_P6CameraFi_Z1Z
    00001E88 6413                   MOV         R1,R4




SH SERIES C/C++ Compiler (Ver. 6.0C)                                                                 18-Nov-2021 16:33:51  PAGE   90


SCT OFFSET   CODE       C LABEL     INSTRUCTION OPERAND    COMMENT

    00001E8A E710                   MOV         #16,R7
    00001E8C 5203                   MOV.L       @(12,R0),R2
    00001E8E E040                   MOV         #64,R0
    00001E90 532E                   MOV.L       @(56,R2),R3
    00001E92 013E                   MOV.L       @(R0,R3),R1
    00001E94 D33B                   MOV.L       L1993+84,R3; __subs
    00001E96 5211                   MOV.L       @(4,R1),R2
    00001E98 2F22                   MOV.L       R2,@R15
    00001E9A 56E7                   MOV.L       @(28,R14),R6
    00001E9C 51F4                   MOV.L       @(16,R15),R1
    00001E9E 430B                   JSR         @R3
    00001EA0 6023                   MOV         R2,R0
    00001EA2 D223                   MOV.L       L1993,R2   ; __stoi
    00001EA4 420B                   JSR         @R2
    00001EA6 0009                   NOP
    00001EA8 51F3                   MOV.L       @(12,R15),R1
    00001EAA 6503                   MOV         R0,R5
    00001EAC D335                   MOV.L       L1993+84,R3; __subs
    00001EAE 430B                   JSR         @R3
    00001EB0 50F1                   MOV.L       @(4,R15),R0
    00001EB2 D21F                   MOV.L       L1993,R2   ; __stoi
    00001EB4 420B                   JSR         @R2
    00001EB6 0009                   NOP
    00001EB8 D333                   MOV.L       L1993+88,R3; _PrintMini
    00001EBA 6403                   MOV         R0,R4
    00001EBC 7F14                   ADD         #20,R15
    00001EBE 4F26                   LDS.L       @R15+,PR
    00001EC0 432B                   JMP         @R3
    00001EC2 6EF6                   MOV.L       @R15+,R14
    00001EC4              __$__dt__4TextFv:                ; function: Text::~Text()
                                                           ; frame size=4
    00001EC4 2FE6                   MOV.L       R14,@-R15
    00001EC6 6E43                   MOV         R4,R14
    00001EC8 2EE8                   TST         R14,R14
    00001ECA 890C                   BT          L1903
    00001ECC D22C                   MOV.L       L1993+80,R2; ___vtbl__4Text
    00001ECE D323                   MOV.L       L1993+44,R3; __$__vtbl__13MonoBehaviour
    00001ED0 D223                   MOV.L       L1993+48,R2; __$__vtbl__9Behaviour
    00001ED2 D324                   MOV.L       L1993+52,R3; __$__vtbl__9Component
    00001ED4 D224                   MOV.L       L1993+56,R2; __$__vtbl__6Object
    00001ED6 E301                   MOV         #1,R3
    00001ED8 1E22                   MOV.L       R2,@(8,R14)
    00001EDA 2538                   TST         R3,R5
    00001EDC 8903                   BT          L1903
    00001EDE 64E3                   MOV         R14,R4
    00001EE0 D11D                   MOV.L       L1993+40,R1; ___dl__FPv
    00001EE2 412B                   JMP         @R1
    00001EE4 6EF6                   MOV.L       @R15+,R14
    00001EE6              L1903:                            
    00001EE6 000B                   RTS
    00001EE8 6EF6                   MOV.L       @R15+,R14
    00001EEA              ___ct__7TilemapFP10GameObjectP7Vector2T2PCc:
                                                           ; function: Tilemap::Tilemap(GameObject *, Vector2 *, Vector2 *, const ch
                        +                                  ar *)
                                                           ; frame size=20
    00001EEA 4F22                   STS.L       PR,@-R15
    00001EEC 7FF0                   ADD         #-16,R15




SH SERIES C/C++ Compiler (Ver. 6.0C)                                                                 18-Nov-2021 16:33:51  PAGE   91


SCT OFFSET   CODE       C LABEL     INSTRUCTION OPERAND    COMMENT

    00001EEE 2F42                   MOV.L       R4,@R15
    00001EF0 1F53                   MOV.L       R5,@(12,R15)
    00001EF2 1F62                   MOV.L       R6,@(8,R15)
    00001EF4 1F71                   MOV.L       R7,@(4,R15)
    00001EF6 63F2                   MOV.L       @R15,R3
    00001EF8 2338                   TST         R3,R3
    00001EFA 8B05                   BF          L1905
    00001EFC D31D                   MOV.L       L1993+68,R3; ___nw__FUl
    00001EFE 430B                   JSR         @R3
    00001F00 E42C                   MOV         #44,R4
    00001F02 2008                   TST         R0,R0
    00001F04 8D0F                   BT/S        L1904
    00001F06 2F02                   MOV.L       R0,@R15
    00001F08              L1905:                            
    00001F08 57F5                   MOV.L       @(20,R15),R7
    00001F0A 56F3                   MOV.L       @(12,R15),R6
    00001F0C D51F                   MOV.L       L1993+92,R5; L434
    00001F0E D31B                   MOV.L       L1993+76,R3; ___ct__13MonoBehaviourFPCcP10GameObjectT1
    00001F10 430B                   JSR         @R3
    00001F12 64F2                   MOV.L       @R15,R4
    00001F14 62F2                   MOV.L       @R15,R2
    00001F16 D31E                   MOV.L       L1993+96,R3; ___vtbl__7Tilemap
    00001F18 1232                   MOV.L       R3,@(8,R2)
    00001F1A 62F2                   MOV.L       @R15,R2
    00001F1C 53F2                   MOV.L       @(8,R15),R3
    00001F1E 1239                   MOV.L       R3,@(36,R2)
    00001F20 62F2                   MOV.L       @R15,R2
    00001F22 53F1                   MOV.L       @(4,R15),R3
    00001F24 123A                   MOV.L       R3,@(40,R2)
    00001F26              L1904:                            
    00001F26 60F2                   MOV.L       @R15,R0
    00001F28 7F10                   ADD         #16,R15
    00001F2A 4F26                   LDS.L       @R15+,PR
    00001F2C 000B                   RTS
    00001F2E 0009                   NOP
    00001F30              L1993:                            
    00001F30 <00000000>             .DATA.L     __stoi
    00001F34 <00000000>             .DATA.L     __itos
    00001F38 <00000000>             .DATA.L     __divs
    00001F3C 3F800000               .DATA.L     H'3F800000
    00001F40 <00000000>             .DATA.L     __muls
    00001F44 <00000000>             .DATA.L     _Add__7Vector2FfT1
    00001F48 <00000000>             .DATA.L     __negs
    00001F4C <00000000>             .DATA.L     _Set__7Vector2FfT1
    00001F50 <00000000>             .DATA.L     _Set__7Vector2FP7Vector2
    00001F54 <00000000>             .DATA.L     ___vtbl__9Rigidbody
    00001F58 <00000000>             .DATA.L     ___dl__FPv
    00001F5C <00000000>             .DATA.L     __$__vtbl__13MonoBehaviour
    00001F60 <00000000>             .DATA.L     __$__vtbl__9Behaviour
    00001F64 <00000000>             .DATA.L     __$__vtbl__9Component
    00001F68 <00000000>             .DATA.L     __$__vtbl__6Object
    00001F6C <00000000>             .DATA.L     L431
    00001F70 <00000000>             .DATA.L     _GetComponent__10GameObjectFPCc
    00001F74 <00000000>             .DATA.L     ___nw__FUl
    00001F78 <00000000>             .DATA.L     L433
    00001F7C <00000000>             .DATA.L     ___ct__13MonoBehaviourFPCcP10GameObjectT1
    00001F80 <00000000>             .DATA.L     ___vtbl__4Text




SH SERIES C/C++ Compiler (Ver. 6.0C)                                                                 18-Nov-2021 16:33:51  PAGE   92


SCT OFFSET   CODE       C LABEL     INSTRUCTION OPERAND    COMMENT

    00001F84 <00000000>             .DATA.L     __subs
    00001F88 <00000000>             .DATA.L     _PrintMini
    00001F8C <00000000>             .DATA.L     L434
    00001F90 <00000000>             .DATA.L     ___vtbl__7Tilemap
    00001F94              __$__dt__7TilemapFv:             ; function: Tilemap::~Tilemap()
                                                           ; frame size=16
    00001F94 2FE6                   MOV.L       R14,@-R15
    00001F96 6E43                   MOV         R4,R14
    00001F98 2FD6                   MOV.L       R13,@-R15
    00001F9A 2EE8                   TST         R14,R14
    00001F9C 4F22                   STS.L       PR,@-R15
    00001F9E 7FFC                   ADD         #-4,R15
    00001FA0 8D11                   BT/S        L1909
    00001FA2 2F52                   MOV.L       R5,@R15
    00001FA4 D231                   MOV.L       L1994,R2   ; ___vtbl__7Tilemap
    00001FA6 1E22                   MOV.L       R2,@(8,R14)
    00001FA8 DD31                   MOV.L       L1994+4,R13; ___dl__FPv
    00001FAA 4D0B                   JSR         @R13
    00001FAC 54E7                   MOV.L       @(28,R14),R4
    00001FAE 4D0B                   JSR         @R13
    00001FB0 54E8                   MOV.L       @(32,R14),R4
    00001FB2 D330                   MOV.L       L1994+8,R3 ; __$__vtbl__13MonoBehaviour
    00001FB4 D230                   MOV.L       L1994+12,R2; __$__vtbl__9Behaviour
    00001FB6 D331                   MOV.L       L1994+16,R3; __$__vtbl__9Component
    00001FB8 D231                   MOV.L       L1994+20,R2; __$__vtbl__6Object
    00001FBA 1E22                   MOV.L       R2,@(8,R14)
    00001FBC 60F2                   MOV.L       @R15,R0
    00001FBE C801                   TST         #1,R0
    00001FC0 8901                   BT          L1909
    00001FC2 4D0B                   JSR         @R13
    00001FC4 64E3                   MOV         R14,R4
    00001FC6              L1909:                            
    00001FC6 7F04                   ADD         #4,R15
    00001FC8 4F26                   LDS.L       @R15+,PR
    00001FCA 6DF6                   MOV.L       @R15+,R13
    00001FCC 000B                   RTS
    00001FCE 6EF6                   MOV.L       @R15+,R14
    00001FD0              _OnRenderObject__7TilemapFv:     ; function: Tilemap::OnRenderObject()
                                                           ; frame size=56
                                                           ; used runtime library name:
                                                           ; __adds, __subs, __muls, __stoi, __itos, __gts, __lts
    00001FD0 2FE6                   MOV.L       R14,@-R15
    00001FD2 E040                   MOV         #64,R0
    00001FD4 2FD6                   MOV.L       R13,@-R15
    00001FD6 6E43                   MOV         R4,R14
    00001FD8 2FC6                   MOV.L       R12,@-R15
    00001FDA E500                   MOV         #0,R5
    00001FDC 2FB6                   MOV.L       R11,@-R15
    00001FDE 2FA6                   MOV.L       R10,@-R15
    00001FE0 2F96                   MOV.L       R9,@-R15
    00001FE2 2F86                   MOV.L       R8,@-R15
    00001FE4 4F22                   STS.L       PR,@-R15
    00001FE6 7FEC                   ADD         #-20,R15
    00001FE8 54E3                   MOV.L       @(12,R14),R4
    00001FEA 2F42                   MOV.L       R4,@R15
    00001FEC 544E                   MOV.L       @(56,R4),R4
    00001FEE 1F43                   MOV.L       R4,@(12,R15)




SH SERIES C/C++ Compiler (Ver. 6.0C)                                                                 18-Nov-2021 16:33:51  PAGE   93


SCT OFFSET   CODE       C LABEL     INSTRUCTION OPERAND    COMMENT

    00001FF0 044E                   MOV.L       @(R0,R4),R4
    00001FF2 6342                   MOV.L       @R4,R3
    00001FF4 1F31                   MOV.L       R3,@(4,R15)
    00001FF6 5241                   MOV.L       @(4,R4),R2
    00001FF8 1F24                   MOV.L       R2,@(16,R15)
    00001FFA 63F2                   MOV.L       @R15,R3
    00001FFC 513B                   MOV.L       @(44,R3),R1
    00001FFE 7114                   ADD         #20,R1
    00002000 1F12                   MOV.L       R1,@(8,R15)
    00002002 D320                   MOV.L       L1994+24,R3; __$get__20List__tm__9_P6CameraFi_Z1Z
    00002004 430B                   JSR         @R3
    00002006 6413                   MOV         R1,R4
    00002008 5203                   MOV.L       @(12,R0),R2
    0000200A E500                   MOV         #0,R5
    0000200C 532E                   MOV.L       @(56,R2),R3
    0000200E E040                   MOV         #64,R0
    00002010 013E                   MOV.L       @(R0,R3),R1
    00002012 6212                   MOV.L       @R1,R2
    00002014 2F22                   MOV.L       R2,@R15
    00002016 53E3                   MOV.L       @(12,R14),R3
    00002018 513B                   MOV.L       @(44,R3),R1
    0000201A 7114                   ADD         #20,R1
    0000201C 1F12                   MOV.L       R1,@(8,R15)
    0000201E D319                   MOV.L       L1994+24,R3; __$get__20List__tm__9_P6CameraFi_Z1Z
    00002020 430B                   JSR         @R3
    00002022 6413                   MOV         R1,R4
    00002024 5203                   MOV.L       @(12,R0),R2
    00002026 EC00                   MOV         #0,R12
    00002028 532E                   MOV.L       @(56,R2),R3
    0000202A E040                   MOV         #64,R0
    0000202C 013E                   MOV.L       @(R0,R3),R1
    0000202E 5411                   MOV.L       @(4,R1),R4
    00002030 51F1                   MOV.L       @(4,R15),R1
    00002032 D315                   MOV.L       L1994+28,R3; __subs
    00002034 430B                   JSR         @R3
    00002036 60F2                   MOV.L       @R15,R0
    00002038 2F02                   MOV.L       R0,@R15
    0000203A 51F4                   MOV.L       @(16,R15),R1
    0000203C D312                   MOV.L       L1994+28,R3; __subs
    0000203E 430B                   JSR         @R3
    00002040 6043                   MOV         R4,R0
    00002042 A081                   BRA         L1910
    00002044 1F01                   MOV.L       R0,@(4,R15)
    00002046              L1911:                            
    00002046 EA00                   MOV         #0,R10
    00002048 D210                   MOV.L       L1994+32,R2; __itos
    0000204A 420B                   JSR         @R2
    0000204C 60C3                   MOV         R12,R0
    0000204E 6903                   MOV         R0,R9
    00002050 51E9                   MOV.L       @(36,R14),R1
    00002052 D30F                   MOV.L       L1994+36,R3; __muls
    00002054 430B                   JSR         @R3
    00002056 6112                   MOV.L       @R1,R1
    00002058 D20E                   MOV.L       L1994+40,R2; __stoi
    0000205A 420B                   JSR         @R2
    0000205C 0009                   NOP
    0000205E 6D03                   MOV         R0,R13




SH SERIES C/C++ Compiler (Ver. 6.0C)                                                                 18-Nov-2021 16:33:51  PAGE   94


SCT OFFSET   CODE       C LABEL     INSTRUCTION OPERAND    COMMENT

    00002060 D30A                   MOV.L       L1994+32,R3; __itos
    00002062 60C3                   MOV         R12,R0
    00002064 430B                   JSR         @R3
    00002066 7001                   ADD         #1,R0
    00002068 A05F                   BRA         L1912
    0000206A 6803                   MOV         R0,R8
    0000206C              L1994:                            
    0000206C <00000000>             .DATA.L     ___vtbl__7Tilemap
    00002070 <00000000>             .DATA.L     ___dl__FPv
    00002074 <00000000>             .DATA.L     __$__vtbl__13MonoBehaviour
    00002078 <00000000>             .DATA.L     __$__vtbl__9Behaviour
    0000207C <00000000>             .DATA.L     __$__vtbl__9Component
    00002080 <00000000>             .DATA.L     __$__vtbl__6Object
    00002084 <00000000>             .DATA.L     __$get__20List__tm__9_P6CameraFi_Z1Z
    00002088 <00000000>             .DATA.L     __subs
    0000208C <00000000>             .DATA.L     __itos
    00002090 <00000000>             .DATA.L     __muls
    00002094 <00000000>             .DATA.L     __stoi
    00002098              L1913:                            
    00002098 D34D                   MOV.L       L1995+2,R3 ; __itos
    0000209A 430B                   JSR         @R3
    0000209C 60A3                   MOV         R10,R0
    0000209E 56EA                   MOV.L       @(40,R14),R6
    000020A0 D24C                   MOV.L       L1995+6,R2 ; __muls
    000020A2 6762                   MOV.L       @R6,R7
    000020A4 420B                   JSR         @R2
    000020A6 6173                   MOV         R7,R1
    000020A8 61F2                   MOV.L       @R15,R1
    000020AA D34B                   MOV.L       L1995+10,R3; __adds
    000020AC 430B                   JSR         @R3
    000020AE 0009                   NOP
    000020B0 D24A                   MOV.L       L1995+14,R2; __stoi
    000020B2 420B                   JSR         @R2
    000020B4 0009                   NOP
    000020B6 6503                   MOV         R0,R5
    000020B8 5461                   MOV.L       @(4,R6),R4
    000020BA 6193                   MOV         R9,R1
    000020BC D345                   MOV.L       L1995+6,R3 ; __muls
    000020BE 430B                   JSR         @R3
    000020C0 6043                   MOV         R4,R0
    000020C2 51F1                   MOV.L       @(4,R15),R1
    000020C4 D244                   MOV.L       L1995+10,R2; __adds
    000020C6 420B                   JSR         @R2
    000020C8 0009                   NOP
    000020CA D344                   MOV.L       L1995+14,R3; __stoi
    000020CC 430B                   JSR         @R3
    000020CE 0009                   NOP
    000020D0 D23F                   MOV.L       L1995+2,R2 ; __itos
    000020D2 6603                   MOV         R0,R6
    000020D4 420B                   JSR         @R2
    000020D6 6053                   MOV         R5,R0
    000020D8 D33F                   MOV.L       L1995+10,R3; __adds
    000020DA 430B                   JSR         @R3
    000020DC 6173                   MOV         R7,R1
    000020DE D240                   MOV.L       L1995+18,R2; __lts
    000020E0 420B                   JSR         @R2
    000020E2 E100                   MOV         #0,R1




SH SERIES C/C++ Compiler (Ver. 6.0C)                                                                 18-Nov-2021 16:33:51  PAGE   95


SCT OFFSET   CODE       C LABEL     INSTRUCTION OPERAND    COMMENT

    000020E4 8800                   CMP/EQ      #0,R0
    000020E6 891E                   BT          L1914
    000020E8 9371                   MOV.W       L1995,R3   ; H'0080
    000020EA 3533                   CMP/GE      R3,R5
    000020EC 891B                   BT          L1914
    000020EE D138                   MOV.L       L1995+2,R1 ; __itos
    000020F0 410B                   JSR         @R1
    000020F2 6063                   MOV         R6,R0
    000020F4 D238                   MOV.L       L1995+10,R2; __adds
    000020F6 420B                   JSR         @R2
    000020F8 6143                   MOV         R4,R1
    000020FA D239                   MOV.L       L1995+18,R2; __lts
    000020FC 420B                   JSR         @R2
    000020FE E100                   MOV         #0,R1
    00002100 8800                   CMP/EQ      #0,R0
    00002102 8910                   BT          L1914
    00002104 E240                   MOV         #64,R2
    00002106 3623                   CMP/GE      R2,R6
    00002108 890D                   BT          L1914
    0000210A 6BD3                   MOV         R13,R11
    0000210C 50E8                   MOV.L       @(32,R14),R0
    0000210E 4B08                   SHLL2       R11
    00002110 D234                   MOV.L       L1995+22,R2; _ML_bmp_or_cl
    00002112 0BBE                   MOV.L       @(R0,R11),R11
    00002114 50E7                   MOV.L       @(28,R14),R0
    00002116 4B08                   SHLL2       R11
    00002118 0BBE                   MOV.L       @(R0,R11),R11
    0000211A 53B6                   MOV.L       @(24,R11),R3
    0000211C 2F36                   MOV.L       R3,@-R15
    0000211E 57B8                   MOV.L       @(32,R11),R7
    00002120 420B                   JSR         @R2
    00002122 54B3                   MOV.L       @(12,R11),R4
    00002124 7F04                   ADD         #4,R15
    00002126              L1914:                            
    00002126 7A01                   ADD         #1,R10
    00002128 7D01                   ADD         #1,R13
    0000212A              L1912:                            
    0000212A D329                   MOV.L       L1995+2,R3 ; __itos
    0000212C 430B                   JSR         @R3
    0000212E 60D3                   MOV         R13,R0
    00002130 51E9                   MOV.L       @(36,R14),R1
    00002132 6203                   MOV         R0,R2
    00002134 D327                   MOV.L       L1995+6,R3 ; __muls
    00002136 6083                   MOV         R8,R0
    00002138 430B                   JSR         @R3
    0000213A 6112                   MOV.L       @R1,R1
    0000213C D328                   MOV.L       L1995+18,R3; __lts
    0000213E 430B                   JSR         @R3
    00002140 6123                   MOV         R2,R1
    00002142 8800                   CMP/EQ      #0,R0
    00002144 8BA8                   BF          L1913
    00002146 7C01                   ADD         #1,R12
    00002148              L1910:                            
    00002148 D221                   MOV.L       L1995+2,R2 ; __itos
    0000214A 420B                   JSR         @R2
    0000214C 60C3                   MOV         R12,R0
    0000214E 51E9                   MOV.L       @(36,R14),R1




SH SERIES C/C++ Compiler (Ver. 6.0C)                                                                 18-Nov-2021 16:33:51  PAGE   96


SCT OFFSET   CODE       C LABEL     INSTRUCTION OPERAND    COMMENT

    00002150 D325                   MOV.L       L1995+26,R3; __gts
    00002152 430B                   JSR         @R3
    00002154 5111                   MOV.L       @(4,R1),R1
    00002156 8800                   CMP/EQ      #0,R0
    00002158 8901                   BT          L1996
    0000215A AF74                   BRA         L1911
    0000215C 0009                   NOP
    0000215E              L1996:                            
    0000215E 7F14                   ADD         #20,R15
    00002160 4F26                   LDS.L       @R15+,PR
    00002162 68F6                   MOV.L       @R15+,R8
    00002164 69F6                   MOV.L       @R15+,R9
    00002166 6AF6                   MOV.L       @R15+,R10
    00002168 6BF6                   MOV.L       @R15+,R11
    0000216A 6CF6                   MOV.L       @R15+,R12
    0000216C 6DF6                   MOV.L       @R15+,R13
    0000216E 000B                   RTS
    00002170 6EF6                   MOV.L       @R15+,R14
    00002172              _LoadScene__12SceneManagerFi:    ; function: SceneManager::LoadScene(int)
                                                           ; frame size=32
    00002172 2FE6                   MOV.L       R14,@-R15
    00002174 2FD6                   MOV.L       R13,@-R15
    00002176 6E43                   MOV         R4,R14
    00002178 2FC6                   MOV.L       R12,@-R15
    0000217A ED00                   MOV         #0,R13
    0000217C 2FB6                   MOV.L       R11,@-R15
    0000217E 2FA6                   MOV.L       R10,@-R15
    00002180 4F22                   STS.L       PR,@-R15
    00002182 7FF8                   ADD         #-8,R15
    00002184 A016                   BRA         L1916
    00002186 6CD3                   MOV         R13,R12
    00002188              L1917:                            
    00002188 5AE5                   MOV.L       @(20,R14),R10
    0000218A E503                   MOV         #3,R5
    0000218C 52E4                   MOV.L       @(16,R14),R2
    0000218E 32A0                   CMP/EQ      R10,R2
    00002190 8F04                   BF/S        L1918
    00002192 6BA2                   MOV.L       @R10,R11
    00002194 E400                   MOV         #0,R4
    00002196 1E44                   MOV.L       R4,@(16,R14)
    00002198 A005                   BRA         L1919
    0000219A 1E45                   MOV.L       R4,@(20,R14)
    0000219C              L1918:                            
    0000219C 54E5                   MOV.L       @(20,R14),R4
    0000219E E300                   MOV         #0,R3
    000021A0 5442                   MOV.L       @(8,R4),R4
    000021A2 1E45                   MOV.L       R4,@(20,R14)
    000021A4 1431                   MOV.L       R3,@(4,R4)
    000021A6              L1919:                            
    000021A6 54E7                   MOV.L       @(28,R14),R4
    000021A8 D310                   MOV.L       L1995+30,R3; __$__dt__5SceneFv
    000021AA 74FF                   ADD         #-1,R4
    000021AC 1E47                   MOV.L       R4,@(28,R14)
    000021AE 430B                   JSR         @R3
    000021B0 64B3                   MOV         R11,R4
    000021B2 7C01                   ADD         #1,R12
    000021B4              L1916:                            




SH SERIES C/C++ Compiler (Ver. 6.0C)                                                                 18-Nov-2021 16:33:51  PAGE   97


SCT OFFSET   CODE       C LABEL     INSTRUCTION OPERAND    COMMENT

    000021B4 52E7                   MOV.L       @(28,R14),R2
    000021B6 3C23                   CMP/GE      R2,R12
    000021B8 8BE6                   BF          L1917
    000021BA A021                   BRA         L1920
    000021BC 0009                   NOP
    000021BE              L1921:                            
    000021BE 54E5                   MOV.L       @(20,R14),R4
    000021C0 52E4                   MOV.L       @(16,R14),R2
    000021C2 6342                   MOV.L       @R4,R3
    000021C4 3240                   CMP/EQ      R4,R2
    000021C6 8B13                   BF          L1922
    000021C8 1ED4                   MOV.L       R13,@(16,R14)
    000021CA A016                   BRA         L1923
    000021CC 1ED5                   MOV.L       R13,@(20,R14)
    000021CE              L1995:                            
    000021CE 0080                   .DATA.W     H'0080
    000021D0 <00000000>             .DATA.L     __itos
    000021D4 <00000000>             .DATA.L     __muls
    000021D8 <00000000>             .DATA.L     __adds
    000021DC <00000000>             .DATA.L     __stoi
    000021E0 <00000000>             .DATA.L     __lts
    000021E4 <00000000>             .DATA.L     _ML_bmp_or_cl
    000021E8 <00000000>             .DATA.L     __gts
    000021EC <00000000>             .DATA.L     __$__dt__5SceneFv
    000021F0              L1922:                            
    000021F0 53E5                   MOV.L       @(20,R14),R3
    000021F2 5232                   MOV.L       @(8,R3),R2
    000021F4 1E25                   MOV.L       R2,@(20,R14)
    000021F6 6323                   MOV         R2,R3
    000021F8 13D1                   MOV.L       R13,@(4,R3)
    000021FA              L1923:                            
    000021FA 52E7                   MOV.L       @(28,R14),R2
    000021FC 72FF                   ADD         #-1,R2
    000021FE 1E27                   MOV.L       R2,@(28,R14)
    00002200              L1920:                            
    00002200 53E7                   MOV.L       @(28,R14),R3
    00002202 4315                   CMP/PL      R3
    00002204 89DB                   BT          L1921
    00002206 63D3                   MOV         R13,R3
    00002208 2338                   TST         R3,R3
    0000220A 8F06                   BF/S        L1925
    0000220C 2FD2                   MOV.L       R13,@R15
    0000220E D37E                   MOV.L       L1997+2,R3 ; ___nw__FUl
    00002210 430B                   JSR         @R3
    00002212 E43C                   MOV         #60,R4
    00002214 2008                   TST         R0,R0
    00002216 8D1E                   BT/S        L1926
    00002218 2F02                   MOV.L       R0,@R15
    0000221A              L1925:                            
    0000221A E301                   MOV         #1,R3
    0000221C 62F2                   MOV.L       @R15,R2
    0000221E 1232                   MOV.L       R3,@(8,R2)
    00002220 62F2                   MOV.L       @R15,R2
    00002222 E300                   MOV         #0,R3
    00002224 1233                   MOV.L       R3,@(12,R2)
    00002226 62F2                   MOV.L       @R15,R2
    00002228 22D2                   MOV.L       R13,@R2




SH SERIES C/C++ Compiler (Ver. 6.0C)                                                                 18-Nov-2021 16:33:51  PAGE   98


SCT OFFSET   CODE       C LABEL     INSTRUCTION OPERAND    COMMENT

    0000222A E201                   MOV         #1,R2
    0000222C 63F2                   MOV.L       @R15,R3
    0000222E 13D1                   MOV.L       R13,@(4,R3)
    00002230 63F2                   MOV.L       @R15,R3
    00002232 1327                   MOV.L       R2,@(28,R3)
    00002234 63F2                   MOV.L       @R15,R3
    00002236 E200                   MOV         #0,R2
    00002238 1328                   MOV.L       R2,@(32,R3)
    0000223A E201                   MOV         #1,R2
    0000223C 63F2                   MOV.L       @R15,R3
    0000223E 13D5                   MOV.L       R13,@(20,R3)
    00002240 63F2                   MOV.L       @R15,R3
    00002242 13D6                   MOV.L       R13,@(24,R3)
    00002244 63F2                   MOV.L       @R15,R3
    00002246 132B                   MOV.L       R2,@(44,R3)
    00002248 63F2                   MOV.L       @R15,R3
    0000224A E200                   MOV         #0,R2
    0000224C 132C                   MOV.L       R2,@(48,R3)
    0000224E 63F2                   MOV.L       @R15,R3
    00002250 13D9                   MOV.L       R13,@(36,R3)
    00002252 63F2                   MOV.L       @R15,R3
    00002254 13DA                   MOV.L       R13,@(40,R3)
    00002256              L1926:                            
    00002256 64F2                   MOV.L       @R15,R4
    00002258 D36B                   MOV.L       L1997+2,R3 ; ___nw__FUl
    0000225A 14E4                   MOV.L       R14,@(16,R4)
    0000225C 1F41                   MOV.L       R4,@(4,R15)
    0000225E 430B                   JSR         @R3
    00002260 E40C                   MOV         #12,R4
    00002262 2008                   TST         R0,R0
    00002264 8D06                   BT/S        L1927
    00002266 6C03                   MOV         R0,R12
    00002268 D368                   MOV.L       L1997+6,R3 ; ___memzero
    0000226A E50C                   MOV         #12,R5
    0000226C 430B                   JSR         @R3
    0000226E 64C3                   MOV         R12,R4
    00002270 A001                   BRA         L1928
    00002272 64C3                   MOV         R12,R4
    00002274              L1927:                            
    00002274 64D3                   MOV         R13,R4
    00002276              L1928:                            
    00002276 53F1                   MOV.L       @(4,R15),R3
    00002278 2432                   MOV.L       R3,@R4
    0000227A 52E7                   MOV.L       @(28,R14),R2
    0000227C 7201                   ADD         #1,R2
    0000227E 1E27                   MOV.L       R2,@(28,R14)
    00002280 53E4                   MOV.L       @(16,R14),R3
    00002282 2338                   TST         R3,R3
    00002284 8B01                   BF          L1929
    00002286 A004                   BRA         L1396
    00002288 1E44                   MOV.L       R4,@(16,R14)
    0000228A              L1929:                            
    0000228A 53E5                   MOV.L       @(20,R14),R3
    0000228C 1432                   MOV.L       R3,@(8,R4)
    0000228E 52E5                   MOV.L       @(20,R14),R2
    00002290 1241                   MOV.L       R4,@(4,R2)
    00002292              L1396:




SH SERIES C/C++ Compiler (Ver. 6.0C)                                                                 18-Nov-2021 16:33:51  PAGE   99


SCT OFFSET   CODE       C LABEL     INSTRUCTION OPERAND    COMMENT

    00002292 1E45                   MOV.L       R4,@(20,R14)
    00002294 7F08                   ADD         #8,R15
    00002296 4F26                   LDS.L       @R15+,PR
    00002298 6AF6                   MOV.L       @R15+,R10
    0000229A 6BF6                   MOV.L       @R15+,R11
    0000229C 6CF6                   MOV.L       @R15+,R12
    0000229E 6DF6                   MOV.L       @R15+,R13
    000022A0 000B                   RTS
    000022A2 6EF6                   MOV.L       @R15+,R14
    000022A4              _LoadScene__12SceneManagerFPUc:  ; function: SceneManager::LoadScene(unsigned char *)
                                                           ; frame size=16
    000022A4 2FE6                   MOV.L       R14,@-R15
    000022A6 6E43                   MOV         R4,R14
    000022A8 2FD6                   MOV.L       R13,@-R15
    000022AA 4F22                   STS.L       PR,@-R15
    000022AC 7FFC                   ADD         #-4,R15
    000022AE A010                   BRA         L1932
    000022B0 E400                   MOV         #0,R4
    000022B2              L1933:                            
    000022B2 56E5                   MOV.L       @(20,R14),R6
    000022B4 53E4                   MOV.L       @(16,R14),R3
    000022B6 6262                   MOV.L       @R6,R2
    000022B8 3360                   CMP/EQ      R6,R3
    000022BA 8B02                   BF          L1934
    000022BC 1E44                   MOV.L       R4,@(16,R14)
    000022BE A005                   BRA         L1935
    000022C0 1E45                   MOV.L       R4,@(20,R14)
    000022C2              L1934:                            
    000022C2 52E5                   MOV.L       @(20,R14),R2
    000022C4 5322                   MOV.L       @(8,R2),R3
    000022C6 1E35                   MOV.L       R3,@(20,R14)
    000022C8 6233                   MOV         R3,R2
    000022CA 1241                   MOV.L       R4,@(4,R2)
    000022CC              L1935:                            
    000022CC 53E7                   MOV.L       @(28,R14),R3
    000022CE 73FF                   ADD         #-1,R3
    000022D0 1E37                   MOV.L       R3,@(28,R14)
    000022D2              L1932:                            
    000022D2 52E7                   MOV.L       @(28,R14),R2
    000022D4 4215                   CMP/PL      R2
    000022D6 89EC                   BT          L1933
    000022D8 B0A2                   BSR         __$GetSceneInBuild__12SceneManagerFPUc
    000022DA 64E3                   MOV         R14,R4
    000022DC 2F02                   MOV.L       R0,@R15
    000022DE D34A                   MOV.L       L1997+2,R3 ; ___nw__FUl
    000022E0 430B                   JSR         @R3
    000022E2 E40C                   MOV         #12,R4
    000022E4 2008                   TST         R0,R0
    000022E6 8D06                   BT/S        L1936
    000022E8 6D03                   MOV         R0,R13
    000022EA E50C                   MOV         #12,R5
    000022EC D347                   MOV.L       L1997+6,R3 ; ___memzero
    000022EE 430B                   JSR         @R3
    000022F0 64D3                   MOV         R13,R4
    000022F2 A001                   BRA         L1937
    000022F4 64D3                   MOV         R13,R4
    000022F6              L1936:                            




SH SERIES C/C++ Compiler (Ver. 6.0C)                                                                 18-Nov-2021 16:33:51  PAGE  100


SCT OFFSET   CODE       C LABEL     INSTRUCTION OPERAND    COMMENT

    000022F6 E400                   MOV         #0,R4
    000022F8              L1937:                            
    000022F8 63F2                   MOV.L       @R15,R3
    000022FA 2432                   MOV.L       R3,@R4
    000022FC 52E7                   MOV.L       @(28,R14),R2
    000022FE 7201                   ADD         #1,R2
    00002300 1E27                   MOV.L       R2,@(28,R14)
    00002302 53E4                   MOV.L       @(16,R14),R3
    00002304 2338                   TST         R3,R3
    00002306 8B01                   BF          L1938
    00002308 A004                   BRA         L1397
    0000230A 1E44                   MOV.L       R4,@(16,R14)
    0000230C              L1938:                            
    0000230C 53E5                   MOV.L       @(20,R14),R3
    0000230E 1432                   MOV.L       R3,@(8,R4)
    00002310 52E5                   MOV.L       @(20,R14),R2
    00002312 1241                   MOV.L       R4,@(4,R2)
    00002314              L1397:
    00002314 1E45                   MOV.L       R4,@(20,R14)
    00002316 7F04                   ADD         #4,R15
    00002318 4F26                   LDS.L       @R15+,PR
    0000231A 6DF6                   MOV.L       @R15+,R13
    0000231C 000B                   RTS
    0000231E 6EF6                   MOV.L       @R15+,R14
    00002320              _FindWithName__12SceneManagerFPUc:
                                                           ; function: SceneManager::FindWithName(unsigned char *)
                                                           ; frame size=32
    00002320 2FE6                   MOV.L       R14,@-R15
    00002322 2FD6                   MOV.L       R13,@-R15
    00002324 2FC6                   MOV.L       R12,@-R15
    00002326 6C43                   MOV         R4,R12
    00002328 2FB6                   MOV.L       R11,@-R15
    0000232A 2FA6                   MOV.L       R10,@-R15
    0000232C 2F96                   MOV.L       R9,@-R15
    0000232E E900                   MOV         #0,R9
    00002330 2F86                   MOV.L       R8,@-R15
    00002332 6853                   MOV         R5,R8
    00002334 4F22                   STS.L       PR,@-R15
    00002336 A022                   BRA         L1941
    00002338 6E93                   MOV         R9,R14
    0000233A              L1942:                            
    0000233A A018                   BRA         L1943
    0000233C 6D93                   MOV         R9,R13
    0000233E              L1944:                            
    0000233E 65E3                   MOV         R14,R5
    00002340 64C3                   MOV         R12,R4
    00002342 B0C0                   BSR         __$get__19List__tm__8_P5SceneFi_Z1Z
    00002344 7410                   ADD         #16,R4
    00002346 6A03                   MOV         R0,R10
    00002348 D231                   MOV.L       L1997+10,R2; __$get__26List__tm__14_P10GameObjectFi_Z1Z
    0000234A 6BD3                   MOV         R13,R11
    0000234C 65D3                   MOV         R13,R5
    0000234E 420B                   JSR         @R2
    00002350 6403                   MOV         R0,R4
    00002352 6302                   MOV.L       @R0,R3
    00002354 3380                   CMP/EQ      R8,R3
    00002356 8B09                   BF          L1945




SH SERIES C/C++ Compiler (Ver. 6.0C)                                                                 18-Nov-2021 16:33:51  PAGE  101


SCT OFFSET   CODE       C LABEL     INSTRUCTION OPERAND    COMMENT

    00002358 65E3                   MOV         R14,R5
    0000235A 64C3                   MOV         R12,R4
    0000235C B0B3                   BSR         __$get__19List__tm__8_P5SceneFi_Z1Z
    0000235E 7410                   ADD         #16,R4
    00002360 D22B                   MOV.L       L1997+10,R2; __$get__26List__tm__14_P10GameObjectFi_Z1Z
    00002362 6403                   MOV         R0,R4
    00002364 420B                   JSR         @R2
    00002366 65D3                   MOV         R13,R5
    00002368 A00D                   BRA         L1946
    0000236A 0009                   NOP
    0000236C              L1945:                            
    0000236C 7D01                   ADD         #1,R13
    0000236E              L1943:                            
    0000236E 65E3                   MOV         R14,R5
    00002370 64C3                   MOV         R12,R4
    00002372 B0A8                   BSR         __$get__19List__tm__8_P5SceneFi_Z1Z
    00002374 7410                   ADD         #16,R4
    00002376 5203                   MOV.L       @(12,R0),R2
    00002378 3D23                   CMP/GE      R2,R13
    0000237A 8BE0                   BF          L1944
    0000237C 7E01                   ADD         #1,R14
    0000237E              L1941:                            
    0000237E 52C7                   MOV.L       @(28,R12),R2
    00002380 3E23                   CMP/GE      R2,R14
    00002382 8BDA                   BF          L1942
    00002384 E000                   MOV         #0,R0
    00002386              L1946:                            
    00002386 4F26                   LDS.L       @R15+,PR
    00002388 68F6                   MOV.L       @R15+,R8
    0000238A 69F6                   MOV.L       @R15+,R9
    0000238C 6AF6                   MOV.L       @R15+,R10
    0000238E 6BF6                   MOV.L       @R15+,R11
    00002390 6CF6                   MOV.L       @R15+,R12
    00002392 6DF6                   MOV.L       @R15+,R13
    00002394 000B                   RTS
    00002396 6EF6                   MOV.L       @R15+,R14
    00002398              _UpdateScene__12SceneManagerFv:  ; function: SceneManager::UpdateScene()
                                                           ; frame size=12
    00002398 2FE6                   MOV.L       R14,@-R15
    0000239A E3FF                   MOV         #-1,R3
    0000239C 2FD6                   MOV.L       R13,@-R15
    0000239E 6E43                   MOV         R4,R14
    000023A0 4F22                   STS.L       PR,@-R15
    000023A2 52E1                   MOV.L       @(4,R14),R2
    000023A4 3237                   CMP/GT      R3,R2
    000023A6 8B08                   BF          L1947
    000023A8 55E1                   MOV.L       @(4,R14),R5
    000023AA BEE2                   BSR         _LoadScene__12SceneManagerFi
    000023AC 64E3                   MOV         R14,R4
    000023AE D319                   MOV.L       L1997+14,R3; _StartScene__12SceneManagerFv
    000023B0 430B                   JSR         @R3
    000023B2 64E3                   MOV         R14,R4
    000023B4 E2FF                   MOV         #-1,R2
    000023B6 A00D                   BRA         L1948
    000023B8 1E21                   MOV.L       R2,@(4,R14)
    000023BA              L1947:                            
    000023BA A008                   BRA         L1949




SH SERIES C/C++ Compiler (Ver. 6.0C)                                                                 18-Nov-2021 16:33:51  PAGE  102


SCT OFFSET   CODE       C LABEL     INSTRUCTION OPERAND    COMMENT

    000023BC ED00                   MOV         #0,R13
    000023BE              L1950:                            
    000023BE 65D3                   MOV         R13,R5
    000023C0 64E3                   MOV         R14,R4
    000023C2 B080                   BSR         __$get__19List__tm__8_P5SceneFi_Z1Z
    000023C4 7410                   ADD         #16,R4
    000023C6 D314                   MOV.L       L1997+18,R3; _Update__5SceneFv
    000023C8 430B                   JSR         @R3
    000023CA 6403                   MOV         R0,R4
    000023CC 7D01                   ADD         #1,R13
    000023CE              L1949:                            
    000023CE 52E7                   MOV.L       @(28,R14),R2
    000023D0 3D23                   CMP/GE      R2,R13
    000023D2 8BF4                   BF          L1950
    000023D4              L1948:                            
    000023D4 4F26                   LDS.L       @R15+,PR
    000023D6 6DF6                   MOV.L       @R15+,R13
    000023D8 000B                   RTS
    000023DA 6EF6                   MOV.L       @R15+,R14
    000023DC              _StartScene__12SceneManagerFv:   ; function: SceneManager::StartScene()
                                                           ; frame size=12
    000023DC 2FE6                   MOV.L       R14,@-R15
    000023DE 2FD6                   MOV.L       R13,@-R15
    000023E0 4F22                   STS.L       PR,@-R15
    000023E2 6D43                   MOV         R4,R13
    000023E4 A008                   BRA         L1951
    000023E6 EE00                   MOV         #0,R14
    000023E8              L1952:                            
    000023E8 65E3                   MOV         R14,R5
    000023EA 64D3                   MOV         R13,R4
    000023EC B06B                   BSR         __$get__19List__tm__8_P5SceneFi_Z1Z
    000023EE 7410                   ADD         #16,R4
    000023F0 D30A                   MOV.L       L1997+22,R3; _Start__5SceneFv
    000023F2 430B                   JSR         @R3
    000023F4 6403                   MOV         R0,R4
    000023F6 7E01                   ADD         #1,R14
    000023F8              L1951:                            
    000023F8 52D7                   MOV.L       @(28,R13),R2
    000023FA 3E23                   CMP/GE      R2,R14
    000023FC 8BF4                   BF          L1952
    000023FE 4F26                   LDS.L       @R15+,PR
    00002400 6DF6                   MOV.L       @R15+,R13
    00002402 000B                   RTS
    00002404 6EF6                   MOV.L       @R15+,R14
    00002406              L1997:                            
    00002406 0000                   .DATA.W     0
    00002408 <00000000>             .DATA.L     ___nw__FUl
    0000240C <00000000>             .DATA.L     ___memzero
    00002410 <00000000>             .DATA.L     __$get__26List__tm__14_P10GameObjectFi_Z1Z
    00002414 <00000000>             .DATA.L     _StartScene__12SceneManagerFv
    00002418 <00000000>             .DATA.L     _Update__5SceneFv
    0000241C <00000000>             .DATA.L     _Start__5SceneFv
    00002420              __$GetSceneInBuild__12SceneManagerFPUc:
                                                           ; function: SceneManager::GetSceneInBuild(unsigned char *)
                                                           ; frame size=20
    00002420 2FE6                   MOV.L       R14,@-R15
    00002422 4F22                   STS.L       PR,@-R15




SH SERIES C/C++ Compiler (Ver. 6.0C)                                                                 18-Nov-2021 16:33:51  PAGE  103


SCT OFFSET   CODE       C LABEL     INSTRUCTION OPERAND    COMMENT

    00002424 D230                   MOV.L       L1998+2,R2 ; L1359
    00002426 7FF4                   ADD         #-12,R15
    00002428 1F41                   MOV.L       R4,@(4,R15)
    0000242A 64F3                   MOV         R15,R4
    0000242C 6322                   MOV.L       @R2,R3
    0000242E 7408                   ADD         #8,R4
    00002430 1F32                   MOV.L       R3,@(8,R15)
    00002432 6043                   MOV         R4,R0
    00002434 3402                   CMP/HS      R0,R4
    00002436 8D36                   BT/S        L1954
    00002438 EE00                   MOV         #0,R14
    0000243A              L1955:                            
    0000243A 6242                   MOV.L       @R4,R2
    0000243C 3520                   CMP/EQ      R2,R5
    0000243E 8B2F                   BF          L1956
    00002440 63E3                   MOV         R14,R3
    00002442 2338                   TST         R3,R3
    00002444 8F06                   BF/S        L1958
    00002446 2FE2                   MOV.L       R14,@R15
    00002448 D328                   MOV.L       L1998+6,R3 ; ___nw__FUl
    0000244A 430B                   JSR         @R3
    0000244C E43C                   MOV         #60,R4
    0000244E 2008                   TST         R0,R0
    00002450 8D1E                   BT/S        L1959
    00002452 2F02                   MOV.L       R0,@R15
    00002454              L1958:                            
    00002454 60F2                   MOV.L       @R15,R0
    00002456 E301                   MOV         #1,R3
    00002458 1032                   MOV.L       R3,@(8,R0)
    0000245A E300                   MOV         #0,R3
    0000245C 60F2                   MOV.L       @R15,R0
    0000245E 1033                   MOV.L       R3,@(12,R0)
    00002460 60F2                   MOV.L       @R15,R0
    00002462 E301                   MOV         #1,R3
    00002464 20E2                   MOV.L       R14,@R0
    00002466 60F2                   MOV.L       @R15,R0
    00002468 10E1                   MOV.L       R14,@(4,R0)
    0000246A 60F2                   MOV.L       @R15,R0
    0000246C 1037                   MOV.L       R3,@(28,R0)
    0000246E E300                   MOV         #0,R3
    00002470 60F2                   MOV.L       @R15,R0
    00002472 1038                   MOV.L       R3,@(32,R0)
    00002474 60F2                   MOV.L       @R15,R0
    00002476 E301                   MOV         #1,R3
    00002478 10E5                   MOV.L       R14,@(20,R0)
    0000247A 60F2                   MOV.L       @R15,R0
    0000247C 10E6                   MOV.L       R14,@(24,R0)
    0000247E 60F2                   MOV.L       @R15,R0
    00002480 103B                   MOV.L       R3,@(44,R0)
    00002482 E300                   MOV         #0,R3
    00002484 60F2                   MOV.L       @R15,R0
    00002486 103C                   MOV.L       R3,@(48,R0)
    00002488 60F2                   MOV.L       @R15,R0
    0000248A 10E9                   MOV.L       R14,@(36,R0)
    0000248C 60F2                   MOV.L       @R15,R0
    0000248E 10EA                   MOV.L       R14,@(40,R0)
    00002490              L1959:                            




SH SERIES C/C++ Compiler (Ver. 6.0C)                                                                 18-Nov-2021 16:33:51  PAGE  104


SCT OFFSET   CODE       C LABEL     INSTRUCTION OPERAND    COMMENT

    00002490 64F2                   MOV.L       @R15,R4
    00002492 50F1                   MOV.L       @(4,R15),R0
    00002494 1404                   MOV.L       R0,@(16,R4)
    00002496 6043                   MOV         R4,R0
    00002498 7F0C                   ADD         #12,R15
    0000249A 4F26                   LDS.L       @R15+,PR
    0000249C 000B                   RTS
    0000249E 6EF6                   MOV.L       @R15+,R14
    000024A0              L1956:                            
    000024A0 7404                   ADD         #4,R4
    000024A2 3402                   CMP/HS      R0,R4
    000024A4 8BC9                   BF          L1955
    000024A6              L1954:                            
    000024A6 E000                   MOV         #0,R0
    000024A8              L1960:                            
    000024A8 7F0C                   ADD         #12,R15
    000024AA 4F26                   LDS.L       @R15+,PR
    000024AC 000B                   RTS
    000024AE 6EF6                   MOV.L       @R15+,R14
    000024B0              __$get_node__19List__tm__8_P5SceneFi_P15Node__tm__4_Z1Z:
                                                           ; function: Node<T1> *List<T1>::get_node(int) [with T1=Scene *]
                                                           ; frame size=0
    000024B0 E700                   MOV         #0,R7
    000024B2 A002                   BRA         L1961
    000024B4 6642                   MOV.L       @R4,R6
    000024B6              L1962:                            
    000024B6 7701                   ADD         #1,R7
    000024B8 5661                   MOV.L       @(4,R6),R6
    000024BA              L1961:                            
    000024BA 2668                   TST         R6,R6
    000024BC 8901                   BT          L1963
    000024BE 3750                   CMP/EQ      R5,R7
    000024C0 8BF9                   BF          L1962
    000024C2              L1963:                            
    000024C2 000B                   RTS
    000024C4 6063                   MOV         R6,R0
    000024C6              __$get__19List__tm__8_P5SceneFi_Z1Z:
                                                           ; function: T1 List<T1>::get(int) [with T1=Scene *]
                                                           ; frame size=4
    000024C6 E3FF                   MOV         #-1,R3
    000024C8 4F22                   STS.L       PR,@-R15
    000024CA 3533                   CMP/GE      R3,R5
    000024CC 8B04                   BF          L1398
    000024CE BFEF                   BSR         __$get_node__19List__tm__8_P5SceneFi_P15Node__tm__4_Z1Z
    000024D0 0009                   NOP
    000024D2 6403                   MOV         R0,R4
    000024D4 2448                   TST         R4,R4
    000024D6 8B02                   BF          L1967
    000024D8              L1398:
    000024D8 4F26                   LDS.L       @R15+,PR
    000024DA 000B                   RTS
    000024DC E000                   MOV         #0,R0
    000024DE              L1967:                            
    000024DE 6042                   MOV.L       @R4,R0
    000024E0              L1966:                            
    000024E0 4F26                   LDS.L       @R15+,PR
    000024E2 000B                   RTS




SH SERIES C/C++ Compiler (Ver. 6.0C)                                                                 18-Nov-2021 16:33:51  PAGE  105


SCT OFFSET   CODE       C LABEL     INSTRUCTION OPERAND    COMMENT

    000024E4 0009                   NOP
    000024E6              L1998:                            
    000024E6 0000                   .DATA.W     0
    000024E8 <00000000>             .DATA.L     L1359
    000024EC <00000000>             .DATA.L     ___nw__FUl
D   00000000              __$__T30793072:                  ; static: __T30793072
    00000000 <00000000>             .DATA.L     __$__T_6Object
    00000004 00000000               .DATA.L     H'00000000
    00000008 16                     .DATA.B     H'16
    00000009 0000000301             .DATAB.B    3,0
             00           
    0000000C              __$__T30794544:                  ; static: __T30794544
    0000000C <00000000>             .DATA.L     __$__T_9Component
    00000010 00000000               .DATA.L     H'00000000
    00000014 16                     .DATA.B     H'16
    00000015 0000000301             .DATAB.B    3,0
             00           
    00000018              __$__T30796100:                  ; static: __T30796100
    00000018 <00000000>             .DATA.L     __$__T_9Component
    0000001C 00000000               .DATA.L     H'00000000
    00000020 16                     .DATA.B     H'16
    00000021 0000000301             .DATAB.B    3,0
             00           
    00000024              __$__T30797648:                  ; static: __T30797648
    00000024 <00000000>             .DATA.L     __$__T_6Object
    00000028 00000000               .DATA.L     H'00000000
    0000002C 16                     .DATA.B     H'16
    0000002D 0000000301             .DATAB.B    3,0
             00           
    00000030              __$__T30799212:                  ; static: __T30799212
    00000030 <00000000>             .DATA.L     __$__T_9Behaviour
    00000034 00000000               .DATA.L     H'00000000
    00000038 16                     .DATA.B     H'16
    00000039 0000000301             .DATAB.B    3,0
             00           
    0000003C              __$__T30800768:                  ; static: __T30800768
    0000003C <00000000>             .DATA.L     __$__T_6Object
    00000040 00000000               .DATA.L     H'00000000
    00000044 16                     .DATA.B     H'16
    00000045 0000000301             .DATAB.B    3,0
             00           
    00000048              __$__T30802328:                  ; static: __T30802328
    00000048 <00000000>             .DATA.L     __$__T_9Behaviour
    0000004C 00000000               .DATA.L     H'00000000
    00000050 16                     .DATA.B     H'16
    00000051 0000000301             .DATAB.B    3,0
             00           
    00000054              __$__T30803792:                  ; static: __T30803792
    00000054 <00000000>             .DATA.L     __$__T_13MonoBehaviour
    00000058 00000000               .DATA.L     H'00000000
    0000005C 12                     .DATA.B     H'12
    0000005D 0000000301             .DATAB.B    3,0
             00           
    00000060              __$__T30805256:                  ; static: __T30805256
    00000060 <00000000>             .DATA.L     __$__T_13MonoBehaviour
    00000064 00000000               .DATA.L     H'00000000
    00000068 12                     .DATA.B     H'12




SH SERIES C/C++ Compiler (Ver. 6.0C)                                                                 18-Nov-2021 16:33:51  PAGE  106


SCT OFFSET   CODE       C LABEL     INSTRUCTION OPERAND    COMMENT

    00000069 0000000301             .DATAB.B    3,0
             00           
    0000006C              __$__T30806728:                  ; static: __T30806728
    0000006C <00000000>             .DATA.L     __$__T_13MonoBehaviour
    00000070 00000000               .DATA.L     H'00000000
    00000074 12                     .DATA.B     H'12
    00000075 0000000301             .DATAB.B    3,0
             00           
    00000078              __$__T30808208:                  ; static: __T30808208
    00000078 <00000000>             .DATA.L     ___T_10Collider2D
    0000007C 00000000               .DATA.L     H'00000000
    00000080 12                     .DATA.B     H'12
    00000081 0000000301             .DATAB.B    3,0
             00           
    00000084              __$__T30809680:                  ; static: __T30809680
    00000084 <00000000>             .DATA.L     __$__T_13MonoBehaviour
    00000088 00000000               .DATA.L     H'00000000
    0000008C 12                     .DATA.B     H'12
    0000008D 0000000301             .DATAB.B    3,0
             00           
    00000090              __$__T30811140:                  ; static: __T30811140
    00000090 <00000000>             .DATA.L     __$__T_13MonoBehaviour
    00000094 00000000               .DATA.L     H'00000000
    00000098 12                     .DATA.B     H'12
    00000099 0000000301             .DATAB.B    3,0
             00           
    0000009C              __$__T30812604:                  ; static: __T30812604
    0000009C <00000000>             .DATA.L     __$__T_13MonoBehaviour
    000000A0 00000000               .DATA.L     H'00000000
    000000A4 12                     .DATA.B     H'12
    000000A5 0000000301             .DATAB.B    3,0
             00           
C$V 00000000              __$__vtbl__6Object:              ; static: virtual function table for Object
    00000000 0000000000             .DATA.L     H'00000000,H'00000000
             000000       
    00000008 <00000000>             .DATA.L     __$__T_6Object
    0000000C 0000000000             .DATA.L     H'00000000,H'00000000
             000000       
    00000014 <00000000>             .DATA.L     __$__dt__6ObjectFv
    00000018 0000000000             .DATA.L     H'00000000,H'00000000
             000000       
    00000020 <00000000>             .DATA.L     __$Destroy__6ObjectFv
    00000024              __$__vtbl__9Component:           ; static: virtual function table for Component
    00000024 0000000000             .DATA.L     H'00000000,H'00000000
             000000       
    0000002C <00000000>             .DATA.L     __$__T_9Component
    00000030 0000000000             .DATA.L     H'00000000,H'00000000
             000000       
    00000038 <00000000>             .DATA.L     __$__dt__9ComponentFv
    0000003C 0000000000             .DATA.L     H'00000000,H'00000000
             000000       
    00000044 <00000000>             .DATA.L     __$Destroy__6ObjectFv
    00000048 0000000000             .DATA.L     H'00000000,H'00000000
             000000       
    00000050 <00000000>             .DATA.L     __$PhysicsCalculator__9ComponentFv
    00000054 0000000000             .DATA.L     H'00000000,H'00000000
             000000       




SH SERIES C/C++ Compiler (Ver. 6.0C)                                                                 18-Nov-2021 16:33:51  PAGE  107


SCT OFFSET   CODE       C LABEL     INSTRUCTION OPERAND    COMMENT

    0000005C <00000000>             .DATA.L     __$Awake__9ComponentFv
    00000060 0000000000             .DATA.L     H'00000000,H'00000000
             000000       
    00000068 <00000000>             .DATA.L     __$FixedUpdate__9ComponentFv
    0000006C 0000000000             .DATA.L     H'00000000,H'00000000
             000000       
    00000074 <00000000>             .DATA.L     __$LateUpdate__9ComponentFv
    00000078 0000000000             .DATA.L     H'00000000,H'00000000
             000000       
    00000080 <00000000>             .DATA.L     __$OnCollisionEnter2D__9ComponentFP10Collider2D
    00000084 0000000000             .DATA.L     H'00000000,H'00000000
             000000       
    0000008C <00000000>             .DATA.L     __$OnCollisionExit2D__9ComponentFP10Collider2D
    00000090 0000000000             .DATA.L     H'00000000,H'00000000
             000000       
    00000098 <00000000>             .DATA.L     __$OnCollisionStay2D__9ComponentFP10Collider2D
    0000009C 0000000000             .DATA.L     H'00000000,H'00000000
             000000       
    000000A4 <00000000>             .DATA.L     __$OnControllerColliderHit__9ComponentFv
    000000A8 0000000000             .DATA.L     H'00000000,H'00000000
             000000       
    000000B0 <00000000>             .DATA.L     __$OnDestroy__9ComponentFv
    000000B4 0000000000             .DATA.L     H'00000000,H'00000000
             000000       
    000000BC <00000000>             .DATA.L     __$OnDisable__9ComponentFv
    000000C0 0000000000             .DATA.L     H'00000000,H'00000000
             000000       
    000000C8 <00000000>             .DATA.L     __$OnEnable__9ComponentFv
    000000CC 0000000000             .DATA.L     H'00000000,H'00000000
             000000       
    000000D4 <00000000>             .DATA.L     __$OnGUI__9ComponentFv
    000000D8 0000000000             .DATA.L     H'00000000,H'00000000
             000000       
    000000E0 <00000000>             .DATA.L     __$OnRenderObject__9ComponentFv
    000000E4 0000000000             .DATA.L     H'00000000,H'00000000
             000000       
    000000EC <00000000>             .DATA.L     __$OnTriggerEnter2D__9ComponentFP10Collider2D
    000000F0 0000000000             .DATA.L     H'00000000,H'00000000
             000000       
    000000F8 <00000000>             .DATA.L     __$OnTriggerExit2D__9ComponentFP10Collider2D
    000000FC 0000000000             .DATA.L     H'00000000,H'00000000
             000000       
    00000104 <00000000>             .DATA.L     __$OnTriggerStay2D__9ComponentFP10Collider2D
    00000108 0000000000             .DATA.L     H'00000000,H'00000000
             000000       
    00000110 <00000000>             .DATA.L     __$OnValidate__9ComponentFv
    00000114 0000000000             .DATA.L     H'00000000,H'00000000
             000000       
    0000011C <00000000>             .DATA.L     __$Reset__9ComponentFv
    00000120 0000000000             .DATA.L     H'00000000,H'00000000
             000000       
    00000128 <00000000>             .DATA.L     __$Start__9ComponentFv
    0000012C 0000000000             .DATA.L     H'00000000,H'00000000
             000000       
    00000134 <00000000>             .DATA.L     __$Update__9ComponentFv
    00000138              ___vtbl__9Transform:             ; static: virtual function table for Transform
    00000138 0000000000             .DATA.L     H'00000000,H'00000000




SH SERIES C/C++ Compiler (Ver. 6.0C)                                                                 18-Nov-2021 16:33:51  PAGE  108


SCT OFFSET   CODE       C LABEL     INSTRUCTION OPERAND    COMMENT

             000000       
    00000140 <00000000>             .DATA.L     ___T_9Transform
    00000144 0000000000             .DATA.L     H'00000000,H'00000000
             000000       
    0000014C <00000000>             .DATA.L     __$__dt__9TransformFv
    00000150 0000000000             .DATA.L     H'00000000,H'00000000
             000000       
    00000158 <00000000>             .DATA.L     __$Destroy__6ObjectFv
    0000015C 0000000000             .DATA.L     H'00000000,H'00000000
             000000       
    00000164 <00000000>             .DATA.L     __$PhysicsCalculator__9ComponentFv
    00000168 0000000000             .DATA.L     H'00000000,H'00000000
             000000       
    00000170 <00000000>             .DATA.L     __$Awake__9ComponentFv
    00000174 0000000000             .DATA.L     H'00000000,H'00000000
             000000       
    0000017C <00000000>             .DATA.L     __$FixedUpdate__9ComponentFv
    00000180 0000000000             .DATA.L     H'00000000,H'00000000
             000000       
    00000188 <00000000>             .DATA.L     __$LateUpdate__9ComponentFv
    0000018C 0000000000             .DATA.L     H'00000000,H'00000000
             000000       
    00000194 <00000000>             .DATA.L     __$OnCollisionEnter2D__9ComponentFP10Collider2D
    00000198 0000000000             .DATA.L     H'00000000,H'00000000
             000000       
    000001A0 <00000000>             .DATA.L     __$OnCollisionExit2D__9ComponentFP10Collider2D
    000001A4 0000000000             .DATA.L     H'00000000,H'00000000
             000000       
    000001AC <00000000>             .DATA.L     __$OnCollisionStay2D__9ComponentFP10Collider2D
    000001B0 0000000000             .DATA.L     H'00000000,H'00000000
             000000       
    000001B8 <00000000>             .DATA.L     __$OnControllerColliderHit__9ComponentFv
    000001BC 0000000000             .DATA.L     H'00000000,H'00000000
             000000       
    000001C4 <00000000>             .DATA.L     __$OnDestroy__9ComponentFv
    000001C8 0000000000             .DATA.L     H'00000000,H'00000000
             000000       
    000001D0 <00000000>             .DATA.L     __$OnDisable__9ComponentFv
    000001D4 0000000000             .DATA.L     H'00000000,H'00000000
             000000       
    000001DC <00000000>             .DATA.L     __$OnEnable__9ComponentFv
    000001E0 0000000000             .DATA.L     H'00000000,H'00000000
             000000       
    000001E8 <00000000>             .DATA.L     __$OnGUI__9ComponentFv
    000001EC 0000000000             .DATA.L     H'00000000,H'00000000
             000000       
    000001F4 <00000000>             .DATA.L     __$OnRenderObject__9ComponentFv
    000001F8 0000000000             .DATA.L     H'00000000,H'00000000
             000000       
    00000200 <00000000>             .DATA.L     __$OnTriggerEnter2D__9ComponentFP10Collider2D
    00000204 0000000000             .DATA.L     H'00000000,H'00000000
             000000       
    0000020C <00000000>             .DATA.L     __$OnTriggerExit2D__9ComponentFP10Collider2D
    00000210 0000000000             .DATA.L     H'00000000,H'00000000
             000000       
    00000218 <00000000>             .DATA.L     __$OnTriggerStay2D__9ComponentFP10Collider2D
    0000021C 0000000000             .DATA.L     H'00000000,H'00000000




SH SERIES C/C++ Compiler (Ver. 6.0C)                                                                 18-Nov-2021 16:33:51  PAGE  109


SCT OFFSET   CODE       C LABEL     INSTRUCTION OPERAND    COMMENT

             000000       
    00000224 <00000000>             .DATA.L     __$OnValidate__9ComponentFv
    00000228 0000000000             .DATA.L     H'00000000,H'00000000
             000000       
    00000230 <00000000>             .DATA.L     __$Reset__9ComponentFv
    00000234 0000000000             .DATA.L     H'00000000,H'00000000
             000000       
    0000023C <00000000>             .DATA.L     _Start__9TransformFv
    00000240 0000000000             .DATA.L     H'00000000,H'00000000
             000000       
    00000248 <00000000>             .DATA.L     _Update__9TransformFv
    0000024C              __$__vtbl__9Behaviour:           ; static: virtual function table for Behaviour
    0000024C 0000000000             .DATA.L     H'00000000,H'00000000
             000000       
    00000254 <00000000>             .DATA.L     __$__T_9Behaviour
    00000258 0000000000             .DATA.L     H'00000000,H'00000000
             000000       
    00000260 <00000000>             .DATA.L     __$__dt__9BehaviourFv
    00000264 0000000000             .DATA.L     H'00000000,H'00000000
             000000       
    0000026C <00000000>             .DATA.L     __$Destroy__6ObjectFv
    00000270 0000000000             .DATA.L     H'00000000,H'00000000
             000000       
    00000278 <00000000>             .DATA.L     __$PhysicsCalculator__9ComponentFv
    0000027C 0000000000             .DATA.L     H'00000000,H'00000000
             000000       
    00000284 <00000000>             .DATA.L     __$Awake__9ComponentFv
    00000288 0000000000             .DATA.L     H'00000000,H'00000000
             000000       
    00000290 <00000000>             .DATA.L     __$FixedUpdate__9ComponentFv
    00000294 0000000000             .DATA.L     H'00000000,H'00000000
             000000       
    0000029C <00000000>             .DATA.L     __$LateUpdate__9ComponentFv
    000002A0 0000000000             .DATA.L     H'00000000,H'00000000
             000000       
    000002A8 <00000000>             .DATA.L     __$OnCollisionEnter2D__9ComponentFP10Collider2D
    000002AC 0000000000             .DATA.L     H'00000000,H'00000000
             000000       
    000002B4 <00000000>             .DATA.L     __$OnCollisionExit2D__9ComponentFP10Collider2D
    000002B8 0000000000             .DATA.L     H'00000000,H'00000000
             000000       
    000002C0 <00000000>             .DATA.L     __$OnCollisionStay2D__9ComponentFP10Collider2D
    000002C4 0000000000             .DATA.L     H'00000000,H'00000000
             000000       
    000002CC <00000000>             .DATA.L     __$OnControllerColliderHit__9ComponentFv
    000002D0 0000000000             .DATA.L     H'00000000,H'00000000
             000000       
    000002D8 <00000000>             .DATA.L     __$OnDestroy__9ComponentFv
    000002DC 0000000000             .DATA.L     H'00000000,H'00000000
             000000       
    000002E4 <00000000>             .DATA.L     __$OnDisable__9ComponentFv
    000002E8 0000000000             .DATA.L     H'00000000,H'00000000
             000000       
    000002F0 <00000000>             .DATA.L     __$OnEnable__9ComponentFv
    000002F4 0000000000             .DATA.L     H'00000000,H'00000000
             000000       
    000002FC <00000000>             .DATA.L     __$OnGUI__9ComponentFv




SH SERIES C/C++ Compiler (Ver. 6.0C)                                                                 18-Nov-2021 16:33:51  PAGE  110


SCT OFFSET   CODE       C LABEL     INSTRUCTION OPERAND    COMMENT

    00000300 0000000000             .DATA.L     H'00000000,H'00000000
             000000       
    00000308 <00000000>             .DATA.L     __$OnRenderObject__9ComponentFv
    0000030C 0000000000             .DATA.L     H'00000000,H'00000000
             000000       
    00000314 <00000000>             .DATA.L     __$OnTriggerEnter2D__9ComponentFP10Collider2D
    00000318 0000000000             .DATA.L     H'00000000,H'00000000
             000000       
    00000320 <00000000>             .DATA.L     __$OnTriggerExit2D__9ComponentFP10Collider2D
    00000324 0000000000             .DATA.L     H'00000000,H'00000000
             000000       
    0000032C <00000000>             .DATA.L     __$OnTriggerStay2D__9ComponentFP10Collider2D
    00000330 0000000000             .DATA.L     H'00000000,H'00000000
             000000       
    00000338 <00000000>             .DATA.L     __$OnValidate__9ComponentFv
    0000033C 0000000000             .DATA.L     H'00000000,H'00000000
             000000       
    00000344 <00000000>             .DATA.L     __$Reset__9ComponentFv
    00000348 0000000000             .DATA.L     H'00000000,H'00000000
             000000       
    00000350 <00000000>             .DATA.L     __$Start__9ComponentFv
    00000354 0000000000             .DATA.L     H'00000000,H'00000000
             000000       
    0000035C <00000000>             .DATA.L     __$Update__9ComponentFv
    00000360              __$__vtbl__13MonoBehaviour:      ; static: virtual function table for MonoBehaviour
    00000360 0000000000             .DATA.L     H'00000000,H'00000000
             000000       
    00000368 <00000000>             .DATA.L     __$__T_13MonoBehaviour
    0000036C 0000000000             .DATA.L     H'00000000,H'00000000
             000000       
    00000374 <00000000>             .DATA.L     __$__dt__13MonoBehaviourFv
    00000378 0000000000             .DATA.L     H'00000000,H'00000000
             000000       
    00000380 <00000000>             .DATA.L     __$Destroy__6ObjectFv
    00000384 0000000000             .DATA.L     H'00000000,H'00000000
             000000       
    0000038C <00000000>             .DATA.L     __$PhysicsCalculator__9ComponentFv
    00000390 0000000000             .DATA.L     H'00000000,H'00000000
             000000       
    00000398 <00000000>             .DATA.L     __$Awake__9ComponentFv
    0000039C 0000000000             .DATA.L     H'00000000,H'00000000
             000000       
    000003A4 <00000000>             .DATA.L     __$FixedUpdate__9ComponentFv
    000003A8 0000000000             .DATA.L     H'00000000,H'00000000
             000000       
    000003B0 <00000000>             .DATA.L     __$LateUpdate__9ComponentFv
    000003B4 0000000000             .DATA.L     H'00000000,H'00000000
             000000       
    000003BC <00000000>             .DATA.L     __$OnCollisionEnter2D__9ComponentFP10Collider2D
    000003C0 0000000000             .DATA.L     H'00000000,H'00000000
             000000       
    000003C8 <00000000>             .DATA.L     __$OnCollisionExit2D__9ComponentFP10Collider2D
    000003CC 0000000000             .DATA.L     H'00000000,H'00000000
             000000       
    000003D4 <00000000>             .DATA.L     __$OnCollisionStay2D__9ComponentFP10Collider2D
    000003D8 0000000000             .DATA.L     H'00000000,H'00000000
             000000       




SH SERIES C/C++ Compiler (Ver. 6.0C)                                                                 18-Nov-2021 16:33:51  PAGE  111


SCT OFFSET   CODE       C LABEL     INSTRUCTION OPERAND    COMMENT

    000003E0 <00000000>             .DATA.L     __$OnControllerColliderHit__9ComponentFv
    000003E4 0000000000             .DATA.L     H'00000000,H'00000000
             000000       
    000003EC <00000000>             .DATA.L     __$OnDestroy__9ComponentFv
    000003F0 0000000000             .DATA.L     H'00000000,H'00000000
             000000       
    000003F8 <00000000>             .DATA.L     __$OnDisable__9ComponentFv
    000003FC 0000000000             .DATA.L     H'00000000,H'00000000
             000000       
    00000404 <00000000>             .DATA.L     __$OnEnable__9ComponentFv
    00000408 0000000000             .DATA.L     H'00000000,H'00000000
             000000       
    00000410 <00000000>             .DATA.L     __$OnGUI__9ComponentFv
    00000414 0000000000             .DATA.L     H'00000000,H'00000000
             000000       
    0000041C <00000000>             .DATA.L     __$OnRenderObject__9ComponentFv
    00000420 0000000000             .DATA.L     H'00000000,H'00000000
             000000       
    00000428 <00000000>             .DATA.L     __$OnTriggerEnter2D__9ComponentFP10Collider2D
    0000042C 0000000000             .DATA.L     H'00000000,H'00000000
             000000       
    00000434 <00000000>             .DATA.L     __$OnTriggerExit2D__9ComponentFP10Collider2D
    00000438 0000000000             .DATA.L     H'00000000,H'00000000
             000000       
    00000440 <00000000>             .DATA.L     __$OnTriggerStay2D__9ComponentFP10Collider2D
    00000444 0000000000             .DATA.L     H'00000000,H'00000000
             000000       
    0000044C <00000000>             .DATA.L     __$OnValidate__9ComponentFv
    00000450 0000000000             .DATA.L     H'00000000,H'00000000
             000000       
    00000458 <00000000>             .DATA.L     __$Reset__9ComponentFv
    0000045C 0000000000             .DATA.L     H'00000000,H'00000000
             000000       
    00000464 <00000000>             .DATA.L     __$Start__9ComponentFv
    00000468 0000000000             .DATA.L     H'00000000,H'00000000
             000000       
    00000470 <00000000>             .DATA.L     __$Update__9ComponentFv
    00000474              __$__vtbl__10GameObject:         ; static: virtual function table for GameObject
    00000474 0000000000             .DATA.L     H'00000000,H'00000000
             000000       
    0000047C <00000000>             .DATA.L     __$__T_10GameObject
    00000480 0000000000             .DATA.L     H'00000000,H'00000000
             000000       
    00000488 <00000000>             .DATA.L     __$__dt__10GameObjectFv
    0000048C 0000000000             .DATA.L     H'00000000,H'00000000
             000000       
    00000494 <00000000>             .DATA.L     __$Destroy__6ObjectFv
    00000498              ___vtbl__10Collider2D:           ; static: virtual function table for Collider2D
    00000498 0000000000             .DATA.L     H'00000000,H'00000000
             000000       
    000004A0 <00000000>             .DATA.L     ___T_10Collider2D
    000004A4 0000000000             .DATA.L     H'00000000,H'00000000
             000000       
    000004AC <00000000>             .DATA.L     __$__dt__10Collider2DFv
    000004B0 0000000000             .DATA.L     H'00000000,H'00000000
             000000       
    000004B8 <00000000>             .DATA.L     __$Destroy__6ObjectFv




SH SERIES C/C++ Compiler (Ver. 6.0C)                                                                 18-Nov-2021 16:33:51  PAGE  112


SCT OFFSET   CODE       C LABEL     INSTRUCTION OPERAND    COMMENT

    000004BC 0000000000             .DATA.L     H'00000000,H'00000000
             000000       
    000004C4 <00000000>             .DATA.L     __$PhysicsCalculator__9ComponentFv
    000004C8 0000000000             .DATA.L     H'00000000,H'00000000
             000000       
    000004D0 <00000000>             .DATA.L     __$Awake__9ComponentFv
    000004D4 0000000000             .DATA.L     H'00000000,H'00000000
             000000       
    000004DC <00000000>             .DATA.L     __$FixedUpdate__9ComponentFv
    000004E0 0000000000             .DATA.L     H'00000000,H'00000000
             000000       
    000004E8 <00000000>             .DATA.L     __$LateUpdate__9ComponentFv
    000004EC 0000000000             .DATA.L     H'00000000,H'00000000
             000000       
    000004F4 <00000000>             .DATA.L     __$OnCollisionEnter2D__9ComponentFP10Collider2D
    000004F8 0000000000             .DATA.L     H'00000000,H'00000000
             000000       
    00000500 <00000000>             .DATA.L     __$OnCollisionExit2D__9ComponentFP10Collider2D
    00000504 0000000000             .DATA.L     H'00000000,H'00000000
             000000       
    0000050C <00000000>             .DATA.L     __$OnCollisionStay2D__9ComponentFP10Collider2D
    00000510 0000000000             .DATA.L     H'00000000,H'00000000
             000000       
    00000518 <00000000>             .DATA.L     __$OnControllerColliderHit__9ComponentFv
    0000051C 0000000000             .DATA.L     H'00000000,H'00000000
             000000       
    00000524 <00000000>             .DATA.L     __$OnDestroy__9ComponentFv
    00000528 0000000000             .DATA.L     H'00000000,H'00000000
             000000       
    00000530 <00000000>             .DATA.L     __$OnDisable__9ComponentFv
    00000534 0000000000             .DATA.L     H'00000000,H'00000000
             000000       
    0000053C <00000000>             .DATA.L     __$OnEnable__9ComponentFv
    00000540 0000000000             .DATA.L     H'00000000,H'00000000
             000000       
    00000548 <00000000>             .DATA.L     __$OnGUI__9ComponentFv
    0000054C 0000000000             .DATA.L     H'00000000,H'00000000
             000000       
    00000554 <00000000>             .DATA.L     __$OnRenderObject__9ComponentFv
    00000558 0000000000             .DATA.L     H'00000000,H'00000000
             000000       
    00000560 <00000000>             .DATA.L     __$OnTriggerEnter2D__9ComponentFP10Collider2D
    00000564 0000000000             .DATA.L     H'00000000,H'00000000
             000000       
    0000056C <00000000>             .DATA.L     __$OnTriggerExit2D__9ComponentFP10Collider2D
    00000570 0000000000             .DATA.L     H'00000000,H'00000000
             000000       
    00000578 <00000000>             .DATA.L     __$OnTriggerStay2D__9ComponentFP10Collider2D
    0000057C 0000000000             .DATA.L     H'00000000,H'00000000
             000000       
    00000584 <00000000>             .DATA.L     __$OnValidate__9ComponentFv
    00000588 0000000000             .DATA.L     H'00000000,H'00000000
             000000       
    00000590 <00000000>             .DATA.L     __$Reset__9ComponentFv
    00000594 0000000000             .DATA.L     H'00000000,H'00000000
             000000       
    0000059C <00000000>             .DATA.L     __$Start__9ComponentFv




SH SERIES C/C++ Compiler (Ver. 6.0C)                                                                 18-Nov-2021 16:33:51  PAGE  113


SCT OFFSET   CODE       C LABEL     INSTRUCTION OPERAND    COMMENT

    000005A0 0000000000             .DATA.L     H'00000000,H'00000000
             000000       
    000005A8 <00000000>             .DATA.L     _Update__10Collider2DFv
    000005AC 0000000000             .DATA.L     H'00000000,H'00000000
             000000       
    000005B4 <00000000>             .DATA.L     __$AreTheyTouching__10Collider2DFP10Collider2D
    000005B8              ___vtbl__13BoxCollider2D:        ; static: virtual function table for BoxCollider2D
    000005B8 0000000000             .DATA.L     H'00000000,H'00000000
             000000       
    000005C0 <00000000>             .DATA.L     ___T_13BoxCollider2D
    000005C4 0000000000             .DATA.L     H'00000000,H'00000000
             000000       
    000005CC <00000000>             .DATA.L     __$__dt__13BoxCollider2DFv
    000005D0 0000000000             .DATA.L     H'00000000,H'00000000
             000000       
    000005D8 <00000000>             .DATA.L     __$Destroy__6ObjectFv
    000005DC 0000000000             .DATA.L     H'00000000,H'00000000
             000000       
    000005E4 <00000000>             .DATA.L     __$PhysicsCalculator__9ComponentFv
    000005E8 0000000000             .DATA.L     H'00000000,H'00000000
             000000       
    000005F0 <00000000>             .DATA.L     __$Awake__9ComponentFv
    000005F4 0000000000             .DATA.L     H'00000000,H'00000000
             000000       
    000005FC <00000000>             .DATA.L     __$FixedUpdate__9ComponentFv
    00000600 0000000000             .DATA.L     H'00000000,H'00000000
             000000       
    00000608 <00000000>             .DATA.L     __$LateUpdate__9ComponentFv
    0000060C 0000000000             .DATA.L     H'00000000,H'00000000
             000000       
    00000614 <00000000>             .DATA.L     __$OnCollisionEnter2D__9ComponentFP10Collider2D
    00000618 0000000000             .DATA.L     H'00000000,H'00000000
             000000       
    00000620 <00000000>             .DATA.L     __$OnCollisionExit2D__9ComponentFP10Collider2D
    00000624 0000000000             .DATA.L     H'00000000,H'00000000
             000000       
    0000062C <00000000>             .DATA.L     __$OnCollisionStay2D__9ComponentFP10Collider2D
    00000630 0000000000             .DATA.L     H'00000000,H'00000000
             000000       
    00000638 <00000000>             .DATA.L     __$OnControllerColliderHit__9ComponentFv
    0000063C 0000000000             .DATA.L     H'00000000,H'00000000
             000000       
    00000644 <00000000>             .DATA.L     __$OnDestroy__9ComponentFv
    00000648 0000000000             .DATA.L     H'00000000,H'00000000
             000000       
    00000650 <00000000>             .DATA.L     __$OnDisable__9ComponentFv
    00000654 0000000000             .DATA.L     H'00000000,H'00000000
             000000       
    0000065C <00000000>             .DATA.L     __$OnEnable__9ComponentFv
    00000660 0000000000             .DATA.L     H'00000000,H'00000000
             000000       
    00000668 <00000000>             .DATA.L     __$OnGUI__9ComponentFv
    0000066C 0000000000             .DATA.L     H'00000000,H'00000000
             000000       
    00000674 <00000000>             .DATA.L     __$OnRenderObject__9ComponentFv
    00000678 0000000000             .DATA.L     H'00000000,H'00000000
             000000       




SH SERIES C/C++ Compiler (Ver. 6.0C)                                                                 18-Nov-2021 16:33:51  PAGE  114


SCT OFFSET   CODE       C LABEL     INSTRUCTION OPERAND    COMMENT

    00000680 <00000000>             .DATA.L     __$OnTriggerEnter2D__9ComponentFP10Collider2D
    00000684 0000000000             .DATA.L     H'00000000,H'00000000
             000000       
    0000068C <00000000>             .DATA.L     __$OnTriggerExit2D__9ComponentFP10Collider2D
    00000690 0000000000             .DATA.L     H'00000000,H'00000000
             000000       
    00000698 <00000000>             .DATA.L     __$OnTriggerStay2D__9ComponentFP10Collider2D
    0000069C 0000000000             .DATA.L     H'00000000,H'00000000
             000000       
    000006A4 <00000000>             .DATA.L     __$OnValidate__9ComponentFv
    000006A8 0000000000             .DATA.L     H'00000000,H'00000000
             000000       
    000006B0 <00000000>             .DATA.L     __$Reset__9ComponentFv
    000006B4 0000000000             .DATA.L     H'00000000,H'00000000
             000000       
    000006BC <00000000>             .DATA.L     __$Start__9ComponentFv
    000006C0 0000000000             .DATA.L     H'00000000,H'00000000
             000000       
    000006C8 <00000000>             .DATA.L     _Update__10Collider2DFv
    000006CC 0000000000             .DATA.L     H'00000000,H'00000000
             000000       
    000006D4 <00000000>             .DATA.L     _AreTheyTouching__13BoxCollider2DFP10Collider2D
    000006D8              ___vtbl__9Rigidbody:             ; static: virtual function table for Rigidbody
    000006D8 0000000000             .DATA.L     H'00000000,H'00000000
             000000       
    000006E0 <00000000>             .DATA.L     ___T_9Rigidbody
    000006E4 0000000000             .DATA.L     H'00000000,H'00000000
             000000       
    000006EC <00000000>             .DATA.L     __$__dt__9RigidbodyFv
    000006F0 0000000000             .DATA.L     H'00000000,H'00000000
             000000       
    000006F8 <00000000>             .DATA.L     __$Destroy__6ObjectFv
    000006FC 0000000000             .DATA.L     H'00000000,H'00000000
             000000       
    00000704 <00000000>             .DATA.L     _PhysicsCalculator__9RigidbodyFv
    00000708 0000000000             .DATA.L     H'00000000,H'00000000
             000000       
    00000710 <00000000>             .DATA.L     __$Awake__9ComponentFv
    00000714 0000000000             .DATA.L     H'00000000,H'00000000
             000000       
    0000071C <00000000>             .DATA.L     __$FixedUpdate__9ComponentFv
    00000720 0000000000             .DATA.L     H'00000000,H'00000000
             000000       
    00000728 <00000000>             .DATA.L     __$LateUpdate__9ComponentFv
    0000072C 0000000000             .DATA.L     H'00000000,H'00000000
             000000       
    00000734 <00000000>             .DATA.L     __$OnCollisionEnter2D__9ComponentFP10Collider2D
    00000738 0000000000             .DATA.L     H'00000000,H'00000000
             000000       
    00000740 <00000000>             .DATA.L     __$OnCollisionExit2D__9ComponentFP10Collider2D
    00000744 0000000000             .DATA.L     H'00000000,H'00000000
             000000       
    0000074C <00000000>             .DATA.L     __$OnCollisionStay2D__9ComponentFP10Collider2D
    00000750 0000000000             .DATA.L     H'00000000,H'00000000
             000000       
    00000758 <00000000>             .DATA.L     __$OnControllerColliderHit__9ComponentFv
    0000075C 0000000000             .DATA.L     H'00000000,H'00000000




SH SERIES C/C++ Compiler (Ver. 6.0C)                                                                 18-Nov-2021 16:33:51  PAGE  115


SCT OFFSET   CODE       C LABEL     INSTRUCTION OPERAND    COMMENT

             000000       
    00000764 <00000000>             .DATA.L     __$OnDestroy__9ComponentFv
    00000768 0000000000             .DATA.L     H'00000000,H'00000000
             000000       
    00000770 <00000000>             .DATA.L     __$OnDisable__9ComponentFv
    00000774 0000000000             .DATA.L     H'00000000,H'00000000
             000000       
    0000077C <00000000>             .DATA.L     __$OnEnable__9ComponentFv
    00000780 0000000000             .DATA.L     H'00000000,H'00000000
             000000       
    00000788 <00000000>             .DATA.L     __$OnGUI__9ComponentFv
    0000078C 0000000000             .DATA.L     H'00000000,H'00000000
             000000       
    00000794 <00000000>             .DATA.L     __$OnRenderObject__9ComponentFv
    00000798 0000000000             .DATA.L     H'00000000,H'00000000
             000000       
    000007A0 <00000000>             .DATA.L     __$OnTriggerEnter2D__9ComponentFP10Collider2D
    000007A4 0000000000             .DATA.L     H'00000000,H'00000000
             000000       
    000007AC <00000000>             .DATA.L     __$OnTriggerExit2D__9ComponentFP10Collider2D
    000007B0 0000000000             .DATA.L     H'00000000,H'00000000
             000000       
    000007B8 <00000000>             .DATA.L     __$OnTriggerStay2D__9ComponentFP10Collider2D
    000007BC 0000000000             .DATA.L     H'00000000,H'00000000
             000000       
    000007C4 <00000000>             .DATA.L     __$OnValidate__9ComponentFv
    000007C8 0000000000             .DATA.L     H'00000000,H'00000000
             000000       
    000007D0 <00000000>             .DATA.L     __$Reset__9ComponentFv
    000007D4 0000000000             .DATA.L     H'00000000,H'00000000
             000000       
    000007DC <00000000>             .DATA.L     _Start__9RigidbodyFv
    000007E0 0000000000             .DATA.L     H'00000000,H'00000000
             000000       
    000007E8 <00000000>             .DATA.L     __$Update__9ComponentFv
    000007EC              ___vtbl__7Tilemap:               ; static: virtual function table for Tilemap
    000007EC 0000000000             .DATA.L     H'00000000,H'00000000
             000000       
    000007F4 <00000000>             .DATA.L     ___T_7Tilemap
    000007F8 0000000000             .DATA.L     H'00000000,H'00000000
             000000       
    00000800 <00000000>             .DATA.L     __$__dt__7TilemapFv
    00000804 0000000000             .DATA.L     H'00000000,H'00000000
             000000       
    0000080C <00000000>             .DATA.L     __$Destroy__6ObjectFv
    00000810 0000000000             .DATA.L     H'00000000,H'00000000
             000000       
    00000818 <00000000>             .DATA.L     __$PhysicsCalculator__9ComponentFv
    0000081C 0000000000             .DATA.L     H'00000000,H'00000000
             000000       
    00000824 <00000000>             .DATA.L     __$Awake__9ComponentFv
    00000828 0000000000             .DATA.L     H'00000000,H'00000000
             000000       
    00000830 <00000000>             .DATA.L     __$FixedUpdate__9ComponentFv
    00000834 0000000000             .DATA.L     H'00000000,H'00000000
             000000       
    0000083C <00000000>             .DATA.L     __$LateUpdate__9ComponentFv




SH SERIES C/C++ Compiler (Ver. 6.0C)                                                                 18-Nov-2021 16:33:51  PAGE  116


SCT OFFSET   CODE       C LABEL     INSTRUCTION OPERAND    COMMENT

    00000840 0000000000             .DATA.L     H'00000000,H'00000000
             000000       
    00000848 <00000000>             .DATA.L     __$OnCollisionEnter2D__9ComponentFP10Collider2D
    0000084C 0000000000             .DATA.L     H'00000000,H'00000000
             000000       
    00000854 <00000000>             .DATA.L     __$OnCollisionExit2D__9ComponentFP10Collider2D
    00000858 0000000000             .DATA.L     H'00000000,H'00000000
             000000       
    00000860 <00000000>             .DATA.L     __$OnCollisionStay2D__9ComponentFP10Collider2D
    00000864 0000000000             .DATA.L     H'00000000,H'00000000
             000000       
    0000086C <00000000>             .DATA.L     __$OnControllerColliderHit__9ComponentFv
    00000870 0000000000             .DATA.L     H'00000000,H'00000000
             000000       
    00000878 <00000000>             .DATA.L     __$OnDestroy__9ComponentFv
    0000087C 0000000000             .DATA.L     H'00000000,H'00000000
             000000       
    00000884 <00000000>             .DATA.L     __$OnDisable__9ComponentFv
    00000888 0000000000             .DATA.L     H'00000000,H'00000000
             000000       
    00000890 <00000000>             .DATA.L     __$OnEnable__9ComponentFv
    00000894 0000000000             .DATA.L     H'00000000,H'00000000
             000000       
    0000089C <00000000>             .DATA.L     __$OnGUI__9ComponentFv
    000008A0 0000000000             .DATA.L     H'00000000,H'00000000
             000000       
    000008A8 <00000000>             .DATA.L     _OnRenderObject__7TilemapFv
    000008AC 0000000000             .DATA.L     H'00000000,H'00000000
             000000       
    000008B4 <00000000>             .DATA.L     __$OnTriggerEnter2D__9ComponentFP10Collider2D
    000008B8 0000000000             .DATA.L     H'00000000,H'00000000
             000000       
    000008C0 <00000000>             .DATA.L     __$OnTriggerExit2D__9ComponentFP10Collider2D
    000008C4 0000000000             .DATA.L     H'00000000,H'00000000
             000000       
    000008CC <00000000>             .DATA.L     __$OnTriggerStay2D__9ComponentFP10Collider2D
    000008D0 0000000000             .DATA.L     H'00000000,H'00000000
             000000       
    000008D8 <00000000>             .DATA.L     __$OnValidate__9ComponentFv
    000008DC 0000000000             .DATA.L     H'00000000,H'00000000
             000000       
    000008E4 <00000000>             .DATA.L     __$Reset__9ComponentFv
    000008E8 0000000000             .DATA.L     H'00000000,H'00000000
             000000       
    000008F0 <00000000>             .DATA.L     __$Start__9ComponentFv
    000008F4 0000000000             .DATA.L     H'00000000,H'00000000
             000000       
    000008FC <00000000>             .DATA.L     __$Update__9ComponentFv
    00000900              __$__vtbl__7Texture:             ; static: virtual function table for Texture
    00000900 0000000000             .DATA.L     H'00000000,H'00000000
             000000       
    00000908 <00000000>             .DATA.L     __$__T_7Texture
    0000090C 0000000000             .DATA.L     H'00000000,H'00000000
             000000       
    00000914 <00000000>             .DATA.L     __$__dt__7TextureFv
    00000918 0000000000             .DATA.L     H'00000000,H'00000000
             000000       




SH SERIES C/C++ Compiler (Ver. 6.0C)                                                                 18-Nov-2021 16:33:51  PAGE  117


SCT OFFSET   CODE       C LABEL     INSTRUCTION OPERAND    COMMENT

    00000920 <00000000>             .DATA.L     __$Destroy__6ObjectFv
    00000924              __$__vtbl__6Camera:              ; static: virtual function table for Camera
    00000924 0000000000             .DATA.L     H'00000000,H'00000000
             000000       
    0000092C <00000000>             .DATA.L     __$__T_6Camera
    00000930 0000000000             .DATA.L     H'00000000,H'00000000
             000000       
    00000938 <00000000>             .DATA.L     __$__dt__6CameraFv
    0000093C 0000000000             .DATA.L     H'00000000,H'00000000
             000000       
    00000944 <00000000>             .DATA.L     __$Destroy__6ObjectFv
    00000948 0000000000             .DATA.L     H'00000000,H'00000000
             000000       
    00000950 <00000000>             .DATA.L     __$PhysicsCalculator__9ComponentFv
    00000954 0000000000             .DATA.L     H'00000000,H'00000000
             000000       
    0000095C <00000000>             .DATA.L     __$Awake__9ComponentFv
    00000960 0000000000             .DATA.L     H'00000000,H'00000000
             000000       
    00000968 <00000000>             .DATA.L     __$FixedUpdate__9ComponentFv
    0000096C 0000000000             .DATA.L     H'00000000,H'00000000
             000000       
    00000974 <00000000>             .DATA.L     __$LateUpdate__9ComponentFv
    00000978 0000000000             .DATA.L     H'00000000,H'00000000
             000000       
    00000980 <00000000>             .DATA.L     __$OnCollisionEnter2D__9ComponentFP10Collider2D
    00000984 0000000000             .DATA.L     H'00000000,H'00000000
             000000       
    0000098C <00000000>             .DATA.L     __$OnCollisionExit2D__9ComponentFP10Collider2D
    00000990 0000000000             .DATA.L     H'00000000,H'00000000
             000000       
    00000998 <00000000>             .DATA.L     __$OnCollisionStay2D__9ComponentFP10Collider2D
    0000099C 0000000000             .DATA.L     H'00000000,H'00000000
             000000       
    000009A4 <00000000>             .DATA.L     __$OnControllerColliderHit__9ComponentFv
    000009A8 0000000000             .DATA.L     H'00000000,H'00000000
             000000       
    000009B0 <00000000>             .DATA.L     __$OnDestroy__9ComponentFv
    000009B4 0000000000             .DATA.L     H'00000000,H'00000000
             000000       
    000009BC <00000000>             .DATA.L     __$OnDisable__9ComponentFv
    000009C0 0000000000             .DATA.L     H'00000000,H'00000000
             000000       
    000009C8 <00000000>             .DATA.L     __$OnEnable__9ComponentFv
    000009CC 0000000000             .DATA.L     H'00000000,H'00000000
             000000       
    000009D4 <00000000>             .DATA.L     __$OnGUI__9ComponentFv
    000009D8 0000000000             .DATA.L     H'00000000,H'00000000
             000000       
    000009E0 <00000000>             .DATA.L     __$OnRenderObject__9ComponentFv
    000009E4 0000000000             .DATA.L     H'00000000,H'00000000
             000000       
    000009EC <00000000>             .DATA.L     __$OnTriggerEnter2D__9ComponentFP10Collider2D
    000009F0 0000000000             .DATA.L     H'00000000,H'00000000
             000000       
    000009F8 <00000000>             .DATA.L     __$OnTriggerExit2D__9ComponentFP10Collider2D
    000009FC 0000000000             .DATA.L     H'00000000,H'00000000




SH SERIES C/C++ Compiler (Ver. 6.0C)                                                                 18-Nov-2021 16:33:51  PAGE  118


SCT OFFSET   CODE       C LABEL     INSTRUCTION OPERAND    COMMENT

             000000       
    00000A04 <00000000>             .DATA.L     __$OnTriggerStay2D__9ComponentFP10Collider2D
    00000A08 0000000000             .DATA.L     H'00000000,H'00000000
             000000       
    00000A10 <00000000>             .DATA.L     __$OnValidate__9ComponentFv
    00000A14 0000000000             .DATA.L     H'00000000,H'00000000
             000000       
    00000A1C <00000000>             .DATA.L     __$Reset__9ComponentFv
    00000A20 0000000000             .DATA.L     H'00000000,H'00000000
             000000       
    00000A28 <00000000>             .DATA.L     __$Start__9ComponentFv
    00000A2C 0000000000             .DATA.L     H'00000000,H'00000000
             000000       
    00000A34 <00000000>             .DATA.L     __$Update__9ComponentFv
    00000A38              ___vtbl__5Image:                 ; static: virtual function table for Image
    00000A38 0000000000             .DATA.L     H'00000000,H'00000000
             000000       
    00000A40 <00000000>             .DATA.L     ___T_5Image
    00000A44 0000000000             .DATA.L     H'00000000,H'00000000
             000000       
    00000A4C <00000000>             .DATA.L     __$__dt__5ImageFv
    00000A50 0000000000             .DATA.L     H'00000000,H'00000000
             000000       
    00000A58 <00000000>             .DATA.L     __$Destroy__6ObjectFv
    00000A5C 0000000000             .DATA.L     H'00000000,H'00000000
             000000       
    00000A64 <00000000>             .DATA.L     __$PhysicsCalculator__9ComponentFv
    00000A68 0000000000             .DATA.L     H'00000000,H'00000000
             000000       
    00000A70 <00000000>             .DATA.L     __$Awake__9ComponentFv
    00000A74 0000000000             .DATA.L     H'00000000,H'00000000
             000000       
    00000A7C <00000000>             .DATA.L     __$FixedUpdate__9ComponentFv
    00000A80 0000000000             .DATA.L     H'00000000,H'00000000
             000000       
    00000A88 <00000000>             .DATA.L     __$LateUpdate__9ComponentFv
    00000A8C 0000000000             .DATA.L     H'00000000,H'00000000
             000000       
    00000A94 <00000000>             .DATA.L     __$OnCollisionEnter2D__9ComponentFP10Collider2D
    00000A98 0000000000             .DATA.L     H'00000000,H'00000000
             000000       
    00000AA0 <00000000>             .DATA.L     __$OnCollisionExit2D__9ComponentFP10Collider2D
    00000AA4 0000000000             .DATA.L     H'00000000,H'00000000
             000000       
    00000AAC <00000000>             .DATA.L     __$OnCollisionStay2D__9ComponentFP10Collider2D
    00000AB0 0000000000             .DATA.L     H'00000000,H'00000000
             000000       
    00000AB8 <00000000>             .DATA.L     __$OnControllerColliderHit__9ComponentFv
    00000ABC 0000000000             .DATA.L     H'00000000,H'00000000
             000000       
    00000AC4 <00000000>             .DATA.L     __$OnDestroy__9ComponentFv
    00000AC8 0000000000             .DATA.L     H'00000000,H'00000000
             000000       
    00000AD0 <00000000>             .DATA.L     __$OnDisable__9ComponentFv
    00000AD4 0000000000             .DATA.L     H'00000000,H'00000000
             000000       
    00000ADC <00000000>             .DATA.L     __$OnEnable__9ComponentFv




SH SERIES C/C++ Compiler (Ver. 6.0C)                                                                 18-Nov-2021 16:33:51  PAGE  119


SCT OFFSET   CODE       C LABEL     INSTRUCTION OPERAND    COMMENT

    00000AE0 0000000000             .DATA.L     H'00000000,H'00000000
             000000       
    00000AE8 <00000000>             .DATA.L     __$OnGUI__9ComponentFv
    00000AEC 0000000000             .DATA.L     H'00000000,H'00000000
             000000       
    00000AF4 <00000000>             .DATA.L     _OnRenderObject__5ImageFv
    00000AF8 0000000000             .DATA.L     H'00000000,H'00000000
             000000       
    00000B00 <00000000>             .DATA.L     __$OnTriggerEnter2D__9ComponentFP10Collider2D
    00000B04 0000000000             .DATA.L     H'00000000,H'00000000
             000000       
    00000B0C <00000000>             .DATA.L     __$OnTriggerExit2D__9ComponentFP10Collider2D
    00000B10 0000000000             .DATA.L     H'00000000,H'00000000
             000000       
    00000B18 <00000000>             .DATA.L     __$OnTriggerStay2D__9ComponentFP10Collider2D
    00000B1C 0000000000             .DATA.L     H'00000000,H'00000000
             000000       
    00000B24 <00000000>             .DATA.L     __$OnValidate__9ComponentFv
    00000B28 0000000000             .DATA.L     H'00000000,H'00000000
             000000       
    00000B30 <00000000>             .DATA.L     __$Reset__9ComponentFv
    00000B34 0000000000             .DATA.L     H'00000000,H'00000000
             000000       
    00000B3C <00000000>             .DATA.L     __$Start__9ComponentFv
    00000B40 0000000000             .DATA.L     H'00000000,H'00000000
             000000       
    00000B48 <00000000>             .DATA.L     __$Update__9ComponentFv
    00000B4C              ___vtbl__6Sprite:                ; static: virtual function table for Sprite
    00000B4C 0000000000             .DATA.L     H'00000000,H'00000000
             000000       
    00000B54 <00000000>             .DATA.L     ___T_6Sprite
    00000B58 0000000000             .DATA.L     H'00000000,H'00000000
             000000       
    00000B60 <00000000>             .DATA.L     __$__dt__6SpriteFv
    00000B64 0000000000             .DATA.L     H'00000000,H'00000000
             000000       
    00000B6C <00000000>             .DATA.L     __$Destroy__6ObjectFv
    00000B70 0000000000             .DATA.L     H'00000000,H'00000000
             000000       
    00000B78 <00000000>             .DATA.L     __$PhysicsCalculator__9ComponentFv
    00000B7C 0000000000             .DATA.L     H'00000000,H'00000000
             000000       
    00000B84 <00000000>             .DATA.L     __$Awake__9ComponentFv
    00000B88 0000000000             .DATA.L     H'00000000,H'00000000
             000000       
    00000B90 <00000000>             .DATA.L     __$FixedUpdate__9ComponentFv
    00000B94 0000000000             .DATA.L     H'00000000,H'00000000
             000000       
    00000B9C <00000000>             .DATA.L     __$LateUpdate__9ComponentFv
    00000BA0 0000000000             .DATA.L     H'00000000,H'00000000
             000000       
    00000BA8 <00000000>             .DATA.L     __$OnCollisionEnter2D__9ComponentFP10Collider2D
    00000BAC 0000000000             .DATA.L     H'00000000,H'00000000
             000000       
    00000BB4 <00000000>             .DATA.L     __$OnCollisionExit2D__9ComponentFP10Collider2D
    00000BB8 0000000000             .DATA.L     H'00000000,H'00000000
             000000       




SH SERIES C/C++ Compiler (Ver. 6.0C)                                                                 18-Nov-2021 16:33:51  PAGE  120


SCT OFFSET   CODE       C LABEL     INSTRUCTION OPERAND    COMMENT

    00000BC0 <00000000>             .DATA.L     __$OnCollisionStay2D__9ComponentFP10Collider2D
    00000BC4 0000000000             .DATA.L     H'00000000,H'00000000
             000000       
    00000BCC <00000000>             .DATA.L     __$OnControllerColliderHit__9ComponentFv
    00000BD0 0000000000             .DATA.L     H'00000000,H'00000000
             000000       
    00000BD8 <00000000>             .DATA.L     __$OnDestroy__9ComponentFv
    00000BDC 0000000000             .DATA.L     H'00000000,H'00000000
             000000       
    00000BE4 <00000000>             .DATA.L     __$OnDisable__9ComponentFv
    00000BE8 0000000000             .DATA.L     H'00000000,H'00000000
             000000       
    00000BF0 <00000000>             .DATA.L     __$OnEnable__9ComponentFv
    00000BF4 0000000000             .DATA.L     H'00000000,H'00000000
             000000       
    00000BFC <00000000>             .DATA.L     __$OnGUI__9ComponentFv
    00000C00 0000000000             .DATA.L     H'00000000,H'00000000
             000000       
    00000C08 <00000000>             .DATA.L     _OnRenderObject__6SpriteFv
    00000C0C 0000000000             .DATA.L     H'00000000,H'00000000
             000000       
    00000C14 <00000000>             .DATA.L     __$OnTriggerEnter2D__9ComponentFP10Collider2D
    00000C18 0000000000             .DATA.L     H'00000000,H'00000000
             000000       
    00000C20 <00000000>             .DATA.L     __$OnTriggerExit2D__9ComponentFP10Collider2D
    00000C24 0000000000             .DATA.L     H'00000000,H'00000000
             000000       
    00000C2C <00000000>             .DATA.L     __$OnTriggerStay2D__9ComponentFP10Collider2D
    00000C30 0000000000             .DATA.L     H'00000000,H'00000000
             000000       
    00000C38 <00000000>             .DATA.L     __$OnValidate__9ComponentFv
    00000C3C 0000000000             .DATA.L     H'00000000,H'00000000
             000000       
    00000C44 <00000000>             .DATA.L     __$Reset__9ComponentFv
    00000C48 0000000000             .DATA.L     H'00000000,H'00000000
             000000       
    00000C50 <00000000>             .DATA.L     __$Start__9ComponentFv
    00000C54 0000000000             .DATA.L     H'00000000,H'00000000
             000000       
    00000C5C <00000000>             .DATA.L     __$Update__9ComponentFv
    00000C60              ___vtbl__4Text:                  ; static: virtual function table for Text
    00000C60 0000000000             .DATA.L     H'00000000,H'00000000
             000000       
    00000C68 <00000000>             .DATA.L     ___T_4Text
    00000C6C 0000000000             .DATA.L     H'00000000,H'00000000
             000000       
    00000C74 <00000000>             .DATA.L     __$__dt__4TextFv
    00000C78 0000000000             .DATA.L     H'00000000,H'00000000
             000000       
    00000C80 <00000000>             .DATA.L     __$Destroy__6ObjectFv
    00000C84 0000000000             .DATA.L     H'00000000,H'00000000
             000000       
    00000C8C <00000000>             .DATA.L     __$PhysicsCalculator__9ComponentFv
    00000C90 0000000000             .DATA.L     H'00000000,H'00000000
             000000       
    00000C98 <00000000>             .DATA.L     __$Awake__9ComponentFv
    00000C9C 0000000000             .DATA.L     H'00000000,H'00000000




SH SERIES C/C++ Compiler (Ver. 6.0C)                                                                 18-Nov-2021 16:33:51  PAGE  121


SCT OFFSET   CODE       C LABEL     INSTRUCTION OPERAND    COMMENT

             000000       
    00000CA4 <00000000>             .DATA.L     __$FixedUpdate__9ComponentFv
    00000CA8 0000000000             .DATA.L     H'00000000,H'00000000
             000000       
    00000CB0 <00000000>             .DATA.L     __$LateUpdate__9ComponentFv
    00000CB4 0000000000             .DATA.L     H'00000000,H'00000000
             000000       
    00000CBC <00000000>             .DATA.L     __$OnCollisionEnter2D__9ComponentFP10Collider2D
    00000CC0 0000000000             .DATA.L     H'00000000,H'00000000
             000000       
    00000CC8 <00000000>             .DATA.L     __$OnCollisionExit2D__9ComponentFP10Collider2D
    00000CCC 0000000000             .DATA.L     H'00000000,H'00000000
             000000       
    00000CD4 <00000000>             .DATA.L     __$OnCollisionStay2D__9ComponentFP10Collider2D
    00000CD8 0000000000             .DATA.L     H'00000000,H'00000000
             000000       
    00000CE0 <00000000>             .DATA.L     __$OnControllerColliderHit__9ComponentFv
    00000CE4 0000000000             .DATA.L     H'00000000,H'00000000
             000000       
    00000CEC <00000000>             .DATA.L     __$OnDestroy__9ComponentFv
    00000CF0 0000000000             .DATA.L     H'00000000,H'00000000
             000000       
    00000CF8 <00000000>             .DATA.L     __$OnDisable__9ComponentFv
    00000CFC 0000000000             .DATA.L     H'00000000,H'00000000
             000000       
    00000D04 <00000000>             .DATA.L     __$OnEnable__9ComponentFv
    00000D08 0000000000             .DATA.L     H'00000000,H'00000000
             000000       
    00000D10 <00000000>             .DATA.L     __$OnGUI__9ComponentFv
    00000D14 0000000000             .DATA.L     H'00000000,H'00000000
             000000       
    00000D1C <00000000>             .DATA.L     _OnRenderObject__4TextFv
    00000D20 0000000000             .DATA.L     H'00000000,H'00000000
             000000       
    00000D28 <00000000>             .DATA.L     __$OnTriggerEnter2D__9ComponentFP10Collider2D
    00000D2C 0000000000             .DATA.L     H'00000000,H'00000000
             000000       
    00000D34 <00000000>             .DATA.L     __$OnTriggerExit2D__9ComponentFP10Collider2D
    00000D38 0000000000             .DATA.L     H'00000000,H'00000000
             000000       
    00000D40 <00000000>             .DATA.L     __$OnTriggerStay2D__9ComponentFP10Collider2D
    00000D44 0000000000             .DATA.L     H'00000000,H'00000000
             000000       
    00000D4C <00000000>             .DATA.L     __$OnValidate__9ComponentFv
    00000D50 0000000000             .DATA.L     H'00000000,H'00000000
             000000       
    00000D58 <00000000>             .DATA.L     __$Reset__9ComponentFv
    00000D5C 0000000000             .DATA.L     H'00000000,H'00000000
             000000       
    00000D64 <00000000>             .DATA.L     __$Start__9ComponentFv
    00000D68 0000000000             .DATA.L     H'00000000,H'00000000
             000000       
    00000D70 <00000000>             .DATA.L     __$Update__9ComponentFv
C   00000000              L664:
    00000000 4E6F6E65               .SDATA      "None"
    00000004 00                     .DATA.B     H'00
    00000005 00000001               .RES.B      1




SH SERIES C/C++ Compiler (Ver. 6.0C)                                                                 18-Nov-2021 16:33:51  PAGE  122


SCT OFFSET   CODE       C LABEL     INSTRUCTION OPERAND    COMMENT

    00000006 00000002               .RES.W      1
    00000008              L665:
    00000008 00                     .DATA.B     H'00
    00000009 00000001               .RES.B      1
    0000000A 00000002               .RES.W      1
    0000000C              L1359:
    0000000C <00000000>             .DATA.L     L1360
    00000010              L420:
    00000010 4F626A6563             .SDATA      "Object"
             74           
    00000016 00                     .DATA.B     H'00
    00000017 00000001               .RES.B      1
    00000018              L421:
    00000018 436F6D706F             .SDATA      "Component"
             6E656E74     
    00000021 00                     .DATA.B     H'00
    00000022 00000002               .RES.W      1
    00000024              L422:
    00000024 5472616E73             .SDATA      "Transform"
             666F726D     
    0000002D 00                     .DATA.B     H'00
    0000002E 00000002               .RES.W      1
    00000030              L423:
    00000030 4265686176             .SDATA      "Behaviour"
             696F7572     
    00000039 00                     .DATA.B     H'00
    0000003A 00000002               .RES.W      1
    0000003C              L424:
    0000003C 5465787475             .SDATA      "Texture"
             7265         
    00000043 00                     .DATA.B     H'00
    00000044              L425:
    00000044 4D6F6E6F42             .SDATA      "MonoBehaviour"
             6568617669   
             6F7572       
    00000051 00                     .DATA.B     H'00
    00000052 00000002               .RES.W      1
    00000054              L426:
    00000054 47616D654F             .SDATA      "GameObject"
             626A656374   
    0000005E 00                     .DATA.B     H'00
    0000005F 00000001               .RES.B      1
    00000060              L427:
    00000060 43616D6572             .SDATA      "Camera"
             61           
    00000066 00                     .DATA.B     H'00
    00000067 00000001               .RES.B      1
    00000068              L428:
    00000068 496D616765             .SDATA      "Image"
    0000006D 00                     .DATA.B     H'00
    0000006E 00000002               .RES.W      1
    00000070              L429:
    00000070 5370726974             .SDATA      "Sprite"
             65           
    00000076 00                     .DATA.B     H'00
    00000077 00000001               .RES.B      1
    00000078              L430:




SH SERIES C/C++ Compiler (Ver. 6.0C)                                                                 18-Nov-2021 16:33:51  PAGE  123


SCT OFFSET   CODE       C LABEL     INSTRUCTION OPERAND    COMMENT

    00000078 436F6C6C69             .SDATA      "Collider2D"
             6465723244   
    00000082 00                     .DATA.B     H'00
    00000083 00000001               .RES.B      1
    00000084              L431:
    00000084 426F78436F             .SDATA      "BoxCollider2D"
             6C6C696465   
             723244       
    00000091 00                     .DATA.B     H'00
    00000092 00000002               .RES.W      1
    00000094              L432:
    00000094 5269676964             .SDATA      "Rigidbody"
             626F6479     
    0000009D 00                     .DATA.B     H'00
    0000009E 00000002               .RES.W      1
    000000A0              L433:
    000000A0 54657874               .SDATA      "Text"
    000000A4 00                     .DATA.B     H'00
    000000A5 00000001               .RES.B      1
    000000A6 00000002               .RES.W      1
    000000A8              L434:
    000000A8 54696C656D             .SDATA      "Tilemap"
             6170         
    000000AF 00                     .DATA.B     H'00
    000000B0              L1360:
    000000B0 4D61696E               .SDATA      "Main"
    000000B4 00                     .DATA.B     H'00
D   000000A8              __$__T_6Object:                  ; static: typeinfo for Object
    000000A8 <00000000>             .DATA.L     ___vtbl__Q2_3std9type_info,L420,__$__TID_6Object
             <00000000>   
             <00000000>   
    000000B4 00000000               .DATA.L     H'00000000
    000000B8              __$__T_9Component:               ; static: typeinfo for Component
    000000B8 <00000000>             .DATA.L     ___vtbl__Q2_3std9type_info,L421,__$__TID_9Component,__$__T30793072
             <00000000>   
             <00000000>   
             <00000000>   
    000000C8              ___T_9Transform:                 ; static: typeinfo for Transform
    000000C8 <00000000>             .DATA.L     ___vtbl__Q2_3std9type_info,L422,__$__TID_9Transform,__$__T30794544
             <00000000>   
             <00000000>   
             <00000000>   
    000000D8              __$__T_9Behaviour:               ; static: typeinfo for Behaviour
    000000D8 <00000000>             .DATA.L     ___vtbl__Q2_3std9type_info,L423,__$__TID_9Behaviour,__$__T30796100
             <00000000>   
             <00000000>   
             <00000000>   
    000000E8              __$__T_7Texture:                 ; static: typeinfo for Texture
    000000E8 <00000000>             .DATA.L     ___vtbl__Q2_3std9type_info,L424,__$__TID_7Texture,__$__T30797648
             <00000000>   
             <00000000>   
             <00000000>   
    000000F8              __$__T_13MonoBehaviour:          ; static: typeinfo for MonoBehaviour
    000000F8 <00000000>             .DATA.L     ___vtbl__Q2_3std9type_info,L425,__$__TID_13MonoBehaviour,__$__T30799212
             <00000000>   
             <00000000>   
             <00000000>   




SH SERIES C/C++ Compiler (Ver. 6.0C)                                                                 18-Nov-2021 16:33:51  PAGE  124


SCT OFFSET   CODE       C LABEL     INSTRUCTION OPERAND    COMMENT

    00000108              __$__T_10GameObject:             ; static: typeinfo for GameObject
    00000108 <00000000>             .DATA.L     ___vtbl__Q2_3std9type_info,L426,__$__TID_10GameObject,__$__T30800768
             <00000000>   
             <00000000>   
             <00000000>   
    00000118              __$__T_6Camera:                  ; static: typeinfo for Camera
    00000118 <00000000>             .DATA.L     ___vtbl__Q2_3std9type_info,L427,__$__TID_6Camera,__$__T30802328
             <00000000>   
             <00000000>   
             <00000000>   
    00000128              ___T_5Image:                     ; static: typeinfo for Image
    00000128 <00000000>             .DATA.L     ___vtbl__Q2_3std9type_info,L428,__$__TID_5Image,__$__T30803792
             <00000000>   
             <00000000>   
             <00000000>   
    00000138              ___T_6Sprite:                    ; static: typeinfo for Sprite
    00000138 <00000000>             .DATA.L     ___vtbl__Q2_3std9type_info,L429,__$__TID_6Sprite,__$__T30805256
             <00000000>   
             <00000000>   
             <00000000>   
    00000148              ___T_10Collider2D:               ; static: typeinfo for Collider2D
    00000148 <00000000>             .DATA.L     ___vtbl__Q2_3std9type_info,L430,__$__TID_10Collider2D,__$__T30806728
             <00000000>   
             <00000000>   
             <00000000>   
    00000158              ___T_13BoxCollider2D:            ; static: typeinfo for BoxCollider2D
    00000158 <00000000>             .DATA.L     ___vtbl__Q2_3std9type_info,L431,__$__TID_13BoxCollider2D,__$__T30808208
             <00000000>   
             <00000000>   
             <00000000>   
    00000168              ___T_9Rigidbody:                 ; static: typeinfo for Rigidbody
    00000168 <00000000>             .DATA.L     ___vtbl__Q2_3std9type_info,L432,__$__TID_9Rigidbody,__$__T30809680
             <00000000>   
             <00000000>   
             <00000000>   
    00000178              ___T_4Text:                      ; static: typeinfo for Text
    00000178 <00000000>             .DATA.L     ___vtbl__Q2_3std9type_info,L433,__$__TID_4Text,__$__T30811140
             <00000000>   
             <00000000>   
             <00000000>   
    00000188              ___T_7Tilemap:                   ; static: typeinfo for Tilemap
    00000188 <00000000>             .DATA.L     ___vtbl__Q2_3std9type_info,L434,__$__TID_7Tilemap,__$__T30812604
             <00000000>   
             <00000000>   
             <00000000>   
B   00000000              __$__TID_6Object:                ; static: type identifier for Object
    00000000 00000001               .RES.B      1
    00000001              __$__TID_9Component:             ; static: type identifier for Component
    00000001 00000001               .RES.B      1
    00000002              __$__TID_9Transform:             ; static: type identifier for Transform
    00000002 00000001               .RES.B      1
    00000003              __$__TID_9Behaviour:             ; static: type identifier for Behaviour
    00000003 00000001               .RES.B      1
    00000004              __$__TID_7Texture:               ; static: type identifier for Texture
    00000004 00000001               .RES.B      1
    00000005              __$__TID_13MonoBehaviour:        ; static: type identifier for MonoBehaviour
    00000005 00000001               .RES.B      1




SH SERIES C/C++ Compiler (Ver. 6.0C)                                                                 18-Nov-2021 16:33:51  PAGE  125


SCT OFFSET   CODE       C LABEL     INSTRUCTION OPERAND    COMMENT

    00000006              __$__TID_10GameObject:           ; static: type identifier for GameObject
    00000006 00000001               .RES.B      1
    00000007              __$__TID_6Camera:                ; static: type identifier for Camera
    00000007 00000001               .RES.B      1
    00000008              __$__TID_5Image:                 ; static: type identifier for Image
    00000008 00000001               .RES.B      1
    00000009              __$__TID_6Sprite:                ; static: type identifier for Sprite
    00000009 00000001               .RES.B      1
    0000000A              __$__TID_10Collider2D:           ; static: type identifier for Collider2D
    0000000A 00000001               .RES.B      1
    0000000B              __$__TID_13BoxCollider2D:        ; static: type identifier for BoxCollider2D
    0000000B 00000001               .RES.B      1
    0000000C              __$__TID_9Rigidbody:             ; static: type identifier for Rigidbody
    0000000C 00000001               .RES.B      1
    0000000D              __$__TID_4Text:                  ; static: type identifier for Text
    0000000D 00000001               .RES.B      1
    0000000E              __$__TID_7Tilemap:               ; static: type identifier for Tilemap
    0000000E 00000001               .RES.B      1











































SH SERIES C/C++ Compiler (Ver. 6.0C)                                                                 18-Nov-2021 16:33:51  PAGE    1


******** STATISTICS INFORMATION ********


********** ERROR INFORMATION ***********

NUMBER OF ERRORS:           0
NUMBER OF WARNINGS:        50




******* SOURCE LINE INFORMATION ********

COMPILED SOURCE LINE:      674



******* SECTION SIZE INFORMATION *******

PROGRAM  SECTION (P):                               000024F0 Byte(s)
PROGRAM  SECTION (P$VTBL):                          00000000 Byte(s)
CONSTANT SECTION (C):                               000000B5 Byte(s)
CONSTANT SECTION (C$VTBL):                          00000D74 Byte(s)
DATA     SECTION (D):                               00000198 Byte(s)
DATA     SECTION (D$VTBL):                          00000000 Byte(s)
BSS      SECTION (B):                               0000000F Byte(s)
BSS      SECTION (B$VTBL):                          00000000 Byte(s)

 TOTAL PROGRAM SIZE: 000034C0 Byte(s)



********** LABEL INFORMATION ***********

NUMBER OF EXTERNAL REFERENCE SYMBOLS:           22
NUMBER OF EXTERNAL DEFINITION SYMBOLS:          78
NUMBER OF INTERNAL/EXTERNAL SYMBOLS:           451


























*** COMMAND PARAMETER ***


  -subcommand=C:\Users\leofa\AppData\Local\Temp\hmkBAC1.tmp 

