SH SERIES C/C++ Compiler (Ver. 6.0C)                                                                 08-Nov-2021 00:35:43  PAGE    1

************ OBJECT LISTING ************

FILE NAME: C:\Users\leofa\OneDrive\Documents\PycharmProjects\Particule-Casio\Particule\lib\Moteur\SDK Graph 75 85 95\Tutoriel.cpp

SCT OFFSET   CODE       C LABEL     INSTRUCTION OPERAND    COMMENT

      Tutoriel.c     1    /*****************************************************************/
      Tutoriel.c     2    /*                                                               */
      Tutoriel.c     3    /*   CASIO fx-9860G SDK Library                                  */
      Tutoriel.c     4    /*                                                               */
      Tutoriel.c     5    /*   File name : [ProjectName].c                                 */
      Tutoriel.c     6    /*                                                               */
      Tutoriel.c     7    /*   Copyright (c) 2006 CASIO COMPUTER CO., LTD.                 */
      Tutoriel.c     8    /*                                                               */
      Tutoriel.c     9    /*****************************************************************/
      Tutoriel.c    10    
      Tutoriel.c    11    extern "C"
      Tutoriel.c    12    {
      Tutoriel.c    13    #include "keybios.h"
      Tutoriel.c    14    #include "fxlib.h"
      Tutoriel.c    15    #include <stdio.h>
      Tutoriel.c    16    #include "stdio.h"
      Tutoriel.c    17    #include "stdlib.h"
      Tutoriel.c    18    
      Tutoriel.c    19    #include "string.h"
      Tutoriel.c    20    #include "time.h"
      Tutoriel.c    21    
      Tutoriel.c    22    
      Tutoriel.c    23    
      Tutoriel.c    24    
      Tutoriel.c    25    }
      Tutoriel.c    26    #include "usefull.h"
      Tutoriel.c    27    
      Tutoriel.c    28    //****************************************************************************
      Tutoriel.c    29    //  AddIn_main (Sample program main function)
      Tutoriel.c    30    //
      Tutoriel.c    31    //  param   :   isAppli   : 1 = This application is launched by MAIN MENU.
      Tutoriel.c    32    //                        : 0 = This application is launched by a strip in eACT application.
      Tutoriel.c    33    //
      Tutoriel.c    34    //              OptionNum : Strip number (0~3)
      Tutoriel.c    35    //                         (This parameter is only used when isAppli parameter is 0.)
      Tutoriel.c    36    //
      Tutoriel.c    37    //  retval  :   1 = No error / 0 = Error
      Tutoriel.c    38    //
      Tutoriel.c    39    //****************************************************************************
      Tutoriel.c    40    #include "Announcement.h"
      Tutoriel.c    41    #include "ParticuleEngine.h"
P   00000000              _LenChar__FPc:                   ; function: LenChar(char *)
                                                           ; frame size=4
    00000000 4F22                   STS.L       PR,@-R15
    00000002 D355                   MOV.L       L529,R3    ; _strlen
    00000004 430B                   JSR         @R3
    00000006 0009                   NOP
    00000008 4F26                   LDS.L       @R15+,PR
    0000000A 000B                   RTS
    0000000C 0009                   NOP
    0000000E              _mod__FiT1:                      ; function: mod(int, int)
                                                           ; frame size=4
                                                           ; used runtime library name:
                                                           ; __modls




SH SERIES C/C++ Compiler (Ver. 6.0C)                                                                 08-Nov-2021 00:35:43  PAGE    2


SCT OFFSET   CODE       C LABEL     INSTRUCTION OPERAND    COMMENT

    0000000E 6143                   MOV         R4,R1
    00000010 D352                   MOV.L       L529+4,R3  ; __modls
    00000012 4F22                   STS.L       PR,@-R15
    00000014 430B                   JSR         @R3
    00000016 6053                   MOV         R5,R0
    00000018 D350                   MOV.L       L529+4,R3  ; __modls
    0000001A 6103                   MOV         R0,R1
    0000001C 315C                   ADD         R5,R1
    0000001E 430B                   JSR         @R3
    00000020 6053                   MOV         R5,R0
    00000022 4F26                   LDS.L       @R15+,PR
    00000024 000B                   RTS
    00000026 0009                   NOP
    00000028              _LoadScene__FP5Scenei:           ; function: LoadScene(Scene *, int)
                                                           ; frame size=20
    00000028 2FE6                   MOV.L       R14,@-R15
    0000002A 6E43                   MOV         R4,R14
    0000002C 2FD6                   MOV.L       R13,@-R15
    0000002E 4F22                   STS.L       PR,@-R15
    00000030 7FF8                   ADD         #-8,R15
    00000032 2F42                   MOV.L       R4,@R15
    00000034 5EE3                   MOV.L       @(12,R14),R14
    00000036 A010                   BRA         L449
    00000038 E400                   MOV         #0,R4
    0000003A              L450:                             
    0000003A 56E2                   MOV.L       @(8,R14),R6
    0000003C 53E1                   MOV.L       @(4,R14),R3
    0000003E 6262                   MOV.L       @R6,R2
    00000040 3360                   CMP/EQ      R6,R3
    00000042 8B02                   BF          L451
    00000044 1E41                   MOV.L       R4,@(4,R14)
    00000046 A005                   BRA         L452
    00000048 1E42                   MOV.L       R4,@(8,R14)
    0000004A              L451:                             
    0000004A 52E2                   MOV.L       @(8,R14),R2
    0000004C 5322                   MOV.L       @(8,R2),R3
    0000004E 1E32                   MOV.L       R3,@(8,R14)
    00000050 6233                   MOV         R3,R2
    00000052 1241                   MOV.L       R4,@(4,R2)
    00000054              L452:                             
    00000054 53E3                   MOV.L       @(12,R14),R3
    00000056 73FF                   ADD         #-1,R3
    00000058 1E33                   MOV.L       R3,@(12,R14)
    0000005A              L449:                             
    0000005A 52E3                   MOV.L       @(12,R14),R2
    0000005C 4215                   CMP/PL      R2
    0000005E 89EC                   BT          L450
    00000060 B1C2                   BSR         __$GetSceneInBuild__12SceneManagerFi
    00000062 64E3                   MOV         R14,R4
    00000064 1F01                   MOV.L       R0,@(4,R15)
    00000066 D33E                   MOV.L       L529+8,R3  ; ___nw__FUl
    00000068 430B                   JSR         @R3
    0000006A E40C                   MOV         #12,R4
    0000006C 2008                   TST         R0,R0
    0000006E 8D06                   BT/S        L453
    00000070 6D03                   MOV         R0,R13
    00000072 E50C                   MOV         #12,R5




SH SERIES C/C++ Compiler (Ver. 6.0C)                                                                 08-Nov-2021 00:35:43  PAGE    3


SCT OFFSET   CODE       C LABEL     INSTRUCTION OPERAND    COMMENT

    00000074 D33B                   MOV.L       L529+12,R3 ; ___memzero
    00000076 430B                   JSR         @R3
    00000078 64D3                   MOV         R13,R4
    0000007A A001                   BRA         L454
    0000007C 64D3                   MOV         R13,R4
    0000007E              L453:                             
    0000007E E400                   MOV         #0,R4
    00000080              L454:                             
    00000080 53F1                   MOV.L       @(4,R15),R3
    00000082 2432                   MOV.L       R3,@R4
    00000084 52E3                   MOV.L       @(12,R14),R2
    00000086 7201                   ADD         #1,R2
    00000088 1E23                   MOV.L       R2,@(12,R14)
    0000008A 53E1                   MOV.L       @(4,R14),R3
    0000008C 2338                   TST         R3,R3
    0000008E 8B01                   BF          L455
    00000090 A004                   BRA         L420
    00000092 1E41                   MOV.L       R4,@(4,R14)
    00000094              L455:                             
    00000094 53E2                   MOV.L       @(8,R14),R3
    00000096 1432                   MOV.L       R3,@(8,R4)
    00000098 52E2                   MOV.L       @(8,R14),R2
    0000009A 1241                   MOV.L       R4,@(4,R2)
    0000009C              L420:
    0000009C 1E42                   MOV.L       R4,@(8,R14)
    0000009E 64F2                   MOV.L       @R15,R4
    000000A0 5443                   MOV.L       @(12,R4),R4
    000000A2 7F08                   ADD         #8,R15
    000000A4 4F26                   LDS.L       @R15+,PR
    000000A6 6DF6                   MOV.L       @R15+,R13
    000000A8 A18A                   BRA         __$StartScene__12SceneManagerFv
    000000AA 6EF6                   MOV.L       @R15+,R14
    000000AC              _FindWithName__FPUcP10GameObject:
                                                           ; function: FindWithName(unsigned char *, GameObject *)
                                                           ; frame size=8
    000000AC 7FF8                   ADD         #-8,R15
    000000AE 1F41                   MOV.L       R4,@(4,R15)
    000000B0 2F52                   MOV.L       R5,@R15
    000000B2 55F1                   MOV.L       @(4,R15),R5
    000000B4 64F2                   MOV.L       @R15,R4
    000000B6 544A                   MOV.L       @(40,R4),R4
    000000B8 5443                   MOV.L       @(12,R4),R4
    000000BA A133                   BRA         __$FindWithName__12SceneManagerFPUc
    000000BC 7F08                   ADD         #8,R15
      Tutoriel.c    42    #include "List.h"
      Tutoriel.c    43    //#include "ClassParticule.h"
      Tutoriel.c    44    //#include "string.h"
      Tutoriel.c    45    #include "MonochromeLib.h"
      Tutoriel.c    46    #include "Ressources.h"
      Tutoriel.c    47    
      Tutoriel.c    48    
      Tutoriel.c    49    
      Tutoriel.c    50    int main() {
    000000BE              _main:                           ; function: main
                                                           ; frame size=20
    000000BE 7FEC                   ADD         #-20,R15
      Tutoriel.c    51        SceneManager sceneManager;




SH SERIES C/C++ Compiler (Ver. 6.0C)                                                                 08-Nov-2021 00:35:43  PAGE    4


SCT OFFSET   CODE       C LABEL     INSTRUCTION OPERAND    COMMENT

    000000C0 E400                   MOV         #0,R4
    000000C2 1F44                   MOV.L       R4,@(16,R15)
    000000C4 1F42                   MOV.L       R4,@(8,R15)
      Tutoriel.c    52        //reference croise
      Tutoriel.c    53        sceneManager.LoadScene(0);
    000000C6 A010                   BRA         L459
    000000C8 1F43                   MOV.L       R4,@(12,R15)
    000000CA              L460:                             
    000000CA 55F3                   MOV.L       @(12,R15),R5
    000000CC 52F2                   MOV.L       @(8,R15),R2
    000000CE 6352                   MOV.L       @R5,R3
    000000D0 3250                   CMP/EQ      R5,R2
    000000D2 8B02                   BF          L461
    000000D4 1F42                   MOV.L       R4,@(8,R15)
    000000D6 A005                   BRA         L462
    000000D8 1F43                   MOV.L       R4,@(12,R15)
    000000DA              L461:                             
    000000DA 52F3                   MOV.L       @(12,R15),R2
    000000DC 5322                   MOV.L       @(8,R2),R3
    000000DE 1F33                   MOV.L       R3,@(12,R15)
    000000E0 6233                   MOV         R3,R2
    000000E2 1241                   MOV.L       R4,@(4,R2)
    000000E4              L462:                             
    000000E4 53F4                   MOV.L       @(16,R15),R3
    000000E6 73FF                   ADD         #-1,R3
    000000E8 1F34                   MOV.L       R3,@(16,R15)
    000000EA              L459:                             
    000000EA 52F4                   MOV.L       @(16,R15),R2
    000000EC 4215                   CMP/PL      R2
    000000EE 89EC                   BT          L460
    000000F0 E500                   MOV         #0,R5
    000000F2 64F3                   MOV         R15,R4
    000000F4 B178                   BSR         __$GetSceneInBuild__12SceneManagerFi
    000000F6 7404                   ADD         #4,R4
    000000F8 2F02                   MOV.L       R0,@R15
    000000FA D319                   MOV.L       L529+8,R3  ; ___nw__FUl
    000000FC 430B                   JSR         @R3
    000000FE E40C                   MOV         #12,R4
    00000100 2008                   TST         R0,R0
    00000102 8D06                   BT/S        L463
    00000104 6E03                   MOV         R0,R14
    00000106 E50C                   MOV         #12,R5
    00000108 D316                   MOV.L       L529+12,R3 ; ___memzero
    0000010A 430B                   JSR         @R3
    0000010C 64E3                   MOV         R14,R4
    0000010E A001                   BRA         L464
    00000110 64E3                   MOV         R14,R4
    00000112              L463:                             
    00000112 E400                   MOV         #0,R4
    00000114              L464:                             
    00000114 63F2                   MOV.L       @R15,R3
    00000116 2432                   MOV.L       R3,@R4
    00000118 52F4                   MOV.L       @(16,R15),R2
    0000011A 7201                   ADD         #1,R2
    0000011C 1F24                   MOV.L       R2,@(16,R15)
    0000011E 53F2                   MOV.L       @(8,R15),R3
    00000120 2338                   TST         R3,R3




SH SERIES C/C++ Compiler (Ver. 6.0C)                                                                 08-Nov-2021 00:35:43  PAGE    5


SCT OFFSET   CODE       C LABEL     INSTRUCTION OPERAND    COMMENT

    00000122 8B01                   BF          L465
    00000124 A004                   BRA         L421
    00000126 1F42                   MOV.L       R4,@(8,R15)
    00000128              L465:                             
    00000128 53F3                   MOV.L       @(12,R15),R3
    0000012A 1432                   MOV.L       R3,@(8,R4)
    0000012C 52F3                   MOV.L       @(12,R15),R2
    0000012E 1241                   MOV.L       R4,@(4,R2)
    00000130              L421:
    00000130 1F43                   MOV.L       R4,@(12,R15)
      Tutoriel.c    54        sceneManager.StartScene();
    00000132 64F3                   MOV         R15,R4
    00000134 B144                   BSR         __$StartScene__12SceneManagerFv
    00000136 7404                   ADD         #4,R4
    00000138 DC0B                   MOV.L       L529+16,R12; _ML_clear_vram
    0000013A DD0C                   MOV.L       L529+20,R13; _Sleep
    0000013C DE0C                   MOV.L       L529+24,R14; _ML_display_vram
      Tutoriel.c    55        while (true)
    0000013E              L468:                             
      Tutoriel.c    56        {
      Tutoriel.c    57            ML_clear_vram();
    0000013E 4C0B                   JSR         @R12
    00000140 0009                   NOP
      Tutoriel.c    58            sceneManager.UpdateScene();
    00000142 64F3                   MOV         R15,R4
    00000144 B128                   BSR         __$UpdateScene__12SceneManagerFv
    00000146 7404                   ADD         #4,R4
      Tutoriel.c    59    
      Tutoriel.c    60            Sleep(100);
    00000148 4D0B                   JSR         @R13
    0000014A E464                   MOV         #100,R4
      Tutoriel.c    61            ML_display_vram();
    0000014C 4E0B                   JSR         @R14
    0000014E 0009                   NOP
    00000150 AFF5                   BRA         L468
    00000152 0009                   NOP
      Tutoriel.c    62        }
      Tutoriel.c    63        return 1;
      Tutoriel.c    64    }
      Tutoriel.c    65    
      Tutoriel.c    66    extern "C"
      Tutoriel.c    67    {
      Tutoriel.c    68    int AddIn_main(int isAppli, unsigned short OptionNum)
    00000154              _AddIn_main:                     ; function: AddIn_main
                                                           ; frame size=0
      Tutoriel.c    69    {
      Tutoriel.c    70        return main();
    00000154 AFB3                   BRA         _main
    00000156 0009                   NOP
    00000158              L529:                             
    00000158 <00000000>             .DATA.L     _strlen
    0000015C <00000000>             .DATA.L     __modls
    00000160 <00000000>             .DATA.L     ___nw__FUl
    00000164 <00000000>             .DATA.L     ___memzero
    00000168 <00000000>             .DATA.L     _ML_clear_vram
    0000016C <00000000>             .DATA.L     _Sleep
    00000170 <00000000>             .DATA.L     _ML_display_vram




SH SERIES C/C++ Compiler (Ver. 6.0C)                                                                 08-Nov-2021 00:35:43  PAGE    6


SCT OFFSET   CODE       C LABEL     INSTRUCTION OPERAND    COMMENT

      Tutoriel.c    71    }
      Tutoriel.c    72    
      Tutoriel.c    73    
      Tutoriel.c    74    
      Tutoriel.c    75    
      Tutoriel.c    76    //****************************************************************************
      Tutoriel.c    77    //**************                                              ****************
      Tutoriel.c    78    //**************                 Notice!                      ****************
      Tutoriel.c    79    //**************                                              ****************
      Tutoriel.c    80    //**************  Please do not change the following source.  ****************
      Tutoriel.c    81    //**************                                              ****************
      Tutoriel.c    82    //****************************************************************************
      Tutoriel.c    83    
      Tutoriel.c    84    
      Tutoriel.c    85    #pragma section _BR_Size
      Tutoriel.c    86    unsigned long BR_Size;
      Tutoriel.c    87    #pragma section
      Tutoriel.c    88    
      Tutoriel.c    89    
      Tutoriel.c    90    #pragma section _TOP
      Tutoriel.c    91    
      Tutoriel.c    92    //****************************************************************************
      Tutoriel.c    93    //  InitializeSystem
      Tutoriel.c    94    //
      Tutoriel.c    95    //  param   :   isAppli   : 1 = Application / 0 = eActivity
      Tutoriel.c    96    //              OptionNum : Option Number (only eActivity)
      Tutoriel.c    97    //
      Tutoriel.c    98    //  retval  :   1 = No error / 0 = Error
      Tutoriel.c    99    //
      Tutoriel.c   100    //****************************************************************************
      Tutoriel.c   101    int InitializeSystem(int isAppli, unsigned short OptionNum)
P_T 00000000              _InitializeSystem:               ; function: InitializeSystem
                                                           ; frame size=0
      Tutoriel.c   102    {
      Tutoriel.c   103        return INIT_ADDIN_APPLICATION(isAppli, OptionNum);
    00000000 D301                   MOV.L       L530+2,R3  ; _INIT_ADDIN_APPLICATION
    00000002 432B                   JMP         @R3
    00000004 0009                   NOP
    00000006              L530:                             
    00000006 0000                   .DATA.W     0
    00000008 <00000000>             .DATA.L     _INIT_ADDIN_APPLICATION
      Tutoriel.c   104    }
      Tutoriel.c   105    
      Tutoriel.c   106    #pragma section
      Tutoriel.c   107    }
P   00000174              __$IsActive__10GameObjectFv:     ; function: GameObject::IsActive()
                                                           ; frame size=8
    00000174 7FF8                   ADD         #-8,R15
    00000176 5347                   MOV.L       @(28,R4),R3
    00000178 2338                   TST         R3,R3
    0000017A 8910                   BT          L422
    0000017C 524D                   MOV.L       @(52,R4),R2
    0000017E E044                   MOV         #68,R0
    00000180 032E                   MOV.L       @(R0,R2),R3
    00000182 2338                   TST         R3,R3
    00000184 890D                   BT          L474
    00000186 E044                   MOV         #68,R0




SH SERIES C/C++ Compiler (Ver. 6.0C)                                                                 08-Nov-2021 00:35:43  PAGE    7


SCT OFFSET   CODE       C LABEL     INSTRUCTION OPERAND    COMMENT

    00000188 554D                   MOV.L       @(52,R4),R5
    0000018A 2F52                   MOV.L       R5,@R15
    0000018C 055E                   MOV.L       @(R0,R5),R5
    0000018E 1F51                   MOV.L       R5,@(4,R15)
    00000190 5554                   MOV.L       @(16,R5),R5
    00000192 5356                   MOV.L       @(24,R5),R3
    00000194 2338                   TST         R3,R3
    00000196 8902                   BT          L422
    00000198 5357                   MOV.L       @(28,R5),R3
    0000019A 2338                   TST         R3,R3
    0000019C 8B01                   BF          L474
    0000019E              L422:
    0000019E A001                   BRA         L528
    000001A0 E500                   MOV         #0,R5
    000001A2              L474:                             
    000001A2 E501                   MOV         #1,R5
    000001A4              L528:                             
    000001A4 1456                   MOV.L       R5,@(24,R4)
    000001A6 6053                   MOV         R5,R0
    000001A8 000B                   RTS
    000001AA 7F08                   ADD         #8,R15
    000001AC              __$Update__10GameObjectFv:       ; function: GameObject::Update()
                                                           ; frame size=28
    000001AC 2FE6                   MOV.L       R14,@-R15
    000001AE 6E43                   MOV         R4,R14
    000001B0 2FD6                   MOV.L       R13,@-R15
    000001B2 2FC6                   MOV.L       R12,@-R15
    000001B4 2FB6                   MOV.L       R11,@-R15
    000001B6 2FA6                   MOV.L       R10,@-R15
    000001B8 4F22                   STS.L       PR,@-R15
    000001BA 7FFC                   ADD         #-4,R15
    000001BC 9B5F                   MOV.W       L531,R11   ; H'0354
    000001BE 5DED                   MOV.L       @(52,R14),R13
    000001C0 2FD2                   MOV.L       R13,@R15
    000001C2 5DD2                   MOV.L       @(8,R13),R13
    000001C4 64F2                   MOV.L       @R15,R4
    000001C6 3DBC                   ADD         R11,R13
    000001C8 53D2                   MOV.L       @(8,R13),R3
    000001CA 62D2                   MOV.L       @R13,R2
    000001CC 430B                   JSR         @R3
    000001CE 342C                   ADD         R2,R4
    000001D0 BFD0                   BSR         __$IsActive__10GameObjectFv
    000001D2 64E3                   MOV         R14,R4
    000001D4 2008                   TST         R0,R0
    000001D6 8910                   BT          L478
    000001D8 A00C                   BRA         L479
    000001DA ED00                   MOV         #0,R13
    000001DC              L480:                             
    000001DC 65D3                   MOV         R13,R5
    000001DE 64E3                   MOV         R14,R4
    000001E0 B04F                   BSR         __$get__24List__tm__12_P9ComponentFi_Z1Z
    000001E2 740C                   ADD         #12,R4
    000001E4 5C02                   MOV.L       @(8,R0),R12
    000001E6 6A03                   MOV         R0,R10
    000001E8 3CBC                   ADD         R11,R12
    000001EA 53C2                   MOV.L       @(8,R12),R3
    000001EC 64C2                   MOV.L       @R12,R4




SH SERIES C/C++ Compiler (Ver. 6.0C)                                                                 08-Nov-2021 00:35:43  PAGE    8


SCT OFFSET   CODE       C LABEL     INSTRUCTION OPERAND    COMMENT

    000001EE 430B                   JSR         @R3
    000001F0 34AC                   ADD         R10,R4
    000001F2 7D01                   ADD         #1,R13
    000001F4              L479:                             
    000001F4 52E5                   MOV.L       @(20,R14),R2
    000001F6 3D23                   CMP/GE      R2,R13
    000001F8 8BF0                   BF          L480
    000001FA              L478:                             
    000001FA 7F04                   ADD         #4,R15
    000001FC 4F26                   LDS.L       @R15+,PR
    000001FE 6AF6                   MOV.L       @R15+,R10
    00000200 6BF6                   MOV.L       @R15+,R11
    00000202 6CF6                   MOV.L       @R15+,R12
    00000204 6DF6                   MOV.L       @R15+,R13
    00000206 000B                   RTS
    00000208 6EF6                   MOV.L       @R15+,R14
    0000020A              __$Start__10GameObjectFv:        ; function: GameObject::Start()
                                                           ; frame size=28
    0000020A 2FE6                   MOV.L       R14,@-R15
    0000020C 2FD6                   MOV.L       R13,@-R15
    0000020E 6E43                   MOV         R4,R14
    00000210 2FC6                   MOV.L       R12,@-R15
    00000212 2FB6                   MOV.L       R11,@-R15
    00000214 2FA6                   MOV.L       R10,@-R15
    00000216 4F22                   STS.L       PR,@-R15
    00000218 9B32                   MOV.W       L531+2,R11 ; H'0348
    0000021A 7FFC                   ADD         #-4,R15
    0000021C 5DED                   MOV.L       @(52,R14),R13
    0000021E 2FD2                   MOV.L       R13,@R15
    00000220 5DD2                   MOV.L       @(8,R13),R13
    00000222 3DBC                   ADD         R11,R13
    00000224 53D2                   MOV.L       @(8,R13),R3
    00000226 62D2                   MOV.L       @R13,R2
    00000228 64F2                   MOV.L       @R15,R4
    0000022A 430B                   JSR         @R3
    0000022C 342C                   ADD         R2,R4
    0000022E BFA1                   BSR         __$IsActive__10GameObjectFv
    00000230 64E3                   MOV         R14,R4
    00000232 2008                   TST         R0,R0
    00000234 8910                   BT          L482
    00000236 A00C                   BRA         L483
    00000238 ED00                   MOV         #0,R13
    0000023A              L484:                             
    0000023A 65D3                   MOV         R13,R5
    0000023C 64E3                   MOV         R14,R4
    0000023E B020                   BSR         __$get__24List__tm__12_P9ComponentFi_Z1Z
    00000240 740C                   ADD         #12,R4
    00000242 6A03                   MOV         R0,R10
    00000244 5C02                   MOV.L       @(8,R0),R12
    00000246 3CBC                   ADD         R11,R12
    00000248 53C2                   MOV.L       @(8,R12),R3
    0000024A 64C2                   MOV.L       @R12,R4
    0000024C 430B                   JSR         @R3
    0000024E 34AC                   ADD         R10,R4
    00000250 7D01                   ADD         #1,R13
    00000252              L483:                             
    00000252 52E5                   MOV.L       @(20,R14),R2




SH SERIES C/C++ Compiler (Ver. 6.0C)                                                                 08-Nov-2021 00:35:43  PAGE    9


SCT OFFSET   CODE       C LABEL     INSTRUCTION OPERAND    COMMENT

    00000254 3D23                   CMP/GE      R2,R13
    00000256 8BF0                   BF          L484
    00000258              L482:                             
    00000258 7F04                   ADD         #4,R15
    0000025A 4F26                   LDS.L       @R15+,PR
    0000025C 6AF6                   MOV.L       @R15+,R10
    0000025E 6BF6                   MOV.L       @R15+,R11
    00000260 6CF6                   MOV.L       @R15+,R12
    00000262 6DF6                   MOV.L       @R15+,R13
    00000264 000B                   RTS
    00000266 6EF6                   MOV.L       @R15+,R14
    00000268              __$get_node__24List__tm__12_P9ComponentFi_P15Node__tm__4_Z1Z:
                                                           ; function: Node<T1> *List<T1>::get_node(int) [with T1=Component *]
                                                           ; frame size=0
    00000268 E700                   MOV         #0,R7
    0000026A A002                   BRA         L485
    0000026C 6642                   MOV.L       @R4,R6
    0000026E              L486:                             
    0000026E 7701                   ADD         #1,R7
    00000270 5661                   MOV.L       @(4,R6),R6
    00000272              L485:                             
    00000272 2668                   TST         R6,R6
    00000274 8901                   BT          L487
    00000276 3750                   CMP/EQ      R5,R7
    00000278 8BF9                   BF          L486
    0000027A              L487:                             
    0000027A 000B                   RTS
    0000027C 6063                   MOV         R6,R0
    0000027E              L531:                             
    0000027E 0354                   .DATA.W     H'0354
    00000280 0348                   .DATA.W     H'0348
    00000282              __$get__24List__tm__12_P9ComponentFi_Z1Z:
                                                           ; function: T1 List<T1>::get(int) [with T1=Component *]
                                                           ; frame size=4
    00000282 E3FF                   MOV         #-1,R3
    00000284 4F22                   STS.L       PR,@-R15
    00000286 3533                   CMP/GE      R3,R5
    00000288 8B04                   BF          L423
    0000028A BFED                   BSR         __$get_node__24List__tm__12_P9ComponentFi_P15Node__tm__4_Z1Z
    0000028C 0009                   NOP
    0000028E 6403                   MOV         R0,R4
    00000290 2448                   TST         R4,R4
    00000292 8B02                   BF          L491
    00000294              L423:
    00000294 4F26                   LDS.L       @R15+,PR
    00000296 000B                   RTS
    00000298 E000                   MOV         #0,R0
    0000029A              L491:                             
    0000029A 6042                   MOV.L       @R4,R0
    0000029C              L490:                             
    0000029C 4F26                   LDS.L       @R15+,PR
    0000029E 000B                   RTS
    000002A0 0009                   NOP
    000002A2              __$Update__5SceneFv:             ; function: Scene::Update()
                                                           ; frame size=12
    000002A2 2FE6                   MOV.L       R14,@-R15
    000002A4 2FD6                   MOV.L       R13,@-R15




SH SERIES C/C++ Compiler (Ver. 6.0C)                                                                 08-Nov-2021 00:35:43  PAGE   10


SCT OFFSET   CODE       C LABEL     INSTRUCTION OPERAND    COMMENT

    000002A6 6D43                   MOV         R4,R13
    000002A8 4F22                   STS.L       PR,@-R15
    000002AA A006                   BRA         L492
    000002AC EE00                   MOV         #0,R14
    000002AE              L493:                             
    000002AE 65E3                   MOV         R14,R5
    000002B0 B028                   BSR         __$get__26List__tm__14_P10GameObjectFi_Z1Z
    000002B2 64D3                   MOV         R13,R4
    000002B4 BF7A                   BSR         __$Update__10GameObjectFv
    000002B6 6403                   MOV         R0,R4
    000002B8 7E01                   ADD         #1,R14
    000002BA              L492:                             
    000002BA 52D2                   MOV.L       @(8,R13),R2
    000002BC 3E23                   CMP/GE      R2,R14
    000002BE 8BF6                   BF          L493
    000002C0 4F26                   LDS.L       @R15+,PR
    000002C2 6DF6                   MOV.L       @R15+,R13
    000002C4 000B                   RTS
    000002C6 6EF6                   MOV.L       @R15+,R14
    000002C8              __$Start__5SceneFv:              ; function: Scene::Start()
                                                           ; frame size=12
    000002C8 2FE6                   MOV.L       R14,@-R15
    000002CA 2FD6                   MOV.L       R13,@-R15
    000002CC 4F22                   STS.L       PR,@-R15
    000002CE 6D43                   MOV         R4,R13
    000002D0 A006                   BRA         L495
    000002D2 EE00                   MOV         #0,R14
    000002D4              L496:                             
    000002D4 65E3                   MOV         R14,R5
    000002D6 B015                   BSR         __$get__26List__tm__14_P10GameObjectFi_Z1Z
    000002D8 64D3                   MOV         R13,R4
    000002DA BF96                   BSR         __$Start__10GameObjectFv
    000002DC 6403                   MOV         R0,R4
    000002DE 7E01                   ADD         #1,R14
    000002E0              L495:                             
    000002E0 52D2                   MOV.L       @(8,R13),R2
    000002E2 3E23                   CMP/GE      R2,R14
    000002E4 8BF6                   BF          L496
    000002E6 4F26                   LDS.L       @R15+,PR
    000002E8 6DF6                   MOV.L       @R15+,R13
    000002EA 000B                   RTS
    000002EC 6EF6                   MOV.L       @R15+,R14
    000002EE              __$get_node__26List__tm__14_P10GameObjectFi_P15Node__tm__4_Z1Z:
                                                           ; function: Node<T1> *List<T1>::get_node(int) [with T1=GameObject *]
                                                           ; frame size=0
    000002EE E700                   MOV         #0,R7
    000002F0 A002                   BRA         L498
    000002F2 6642                   MOV.L       @R4,R6
    000002F4              L499:                             
    000002F4 5661                   MOV.L       @(4,R6),R6
    000002F6 7701                   ADD         #1,R7
    000002F8              L498:                             
    000002F8 2668                   TST         R6,R6
    000002FA 8901                   BT          L500
    000002FC 3750                   CMP/EQ      R5,R7
    000002FE 8BF9                   BF          L499
    00000300              L500:                             




SH SERIES C/C++ Compiler (Ver. 6.0C)                                                                 08-Nov-2021 00:35:43  PAGE   11


SCT OFFSET   CODE       C LABEL     INSTRUCTION OPERAND    COMMENT

    00000300 000B                   RTS
    00000302 6063                   MOV         R6,R0
    00000304              __$get__26List__tm__14_P10GameObjectFi_Z1Z:
                                                           ; function: T1 List<T1>::get(int) [with T1=GameObject *]
                                                           ; frame size=4
    00000304 4F22                   STS.L       PR,@-R15
    00000306 E3FF                   MOV         #-1,R3
    00000308 3533                   CMP/GE      R3,R5
    0000030A 8B04                   BF          L424
    0000030C BFEF                   BSR         __$get_node__26List__tm__14_P10GameObjectFi_P15Node__tm__4_Z1Z
    0000030E 0009                   NOP
    00000310 6403                   MOV         R0,R4
    00000312 2448                   TST         R4,R4
    00000314 8B02                   BF          L504
    00000316              L424:
    00000316 4F26                   LDS.L       @R15+,PR
    00000318 000B                   RTS
    0000031A E000                   MOV         #0,R0
    0000031C              L504:                             
    0000031C 6042                   MOV.L       @R4,R0
    0000031E              L503:                             
    0000031E 4F26                   LDS.L       @R15+,PR
    00000320 000B                   RTS
    00000322 0009                   NOP
    00000324              __$FindWithName__12SceneManagerFPUc:
                                                           ; function: SceneManager::FindWithName(unsigned char *)
                                                           ; frame size=32
    00000324 2FE6                   MOV.L       R14,@-R15
    00000326 2FD6                   MOV.L       R13,@-R15
    00000328 2FC6                   MOV.L       R12,@-R15
    0000032A 6C43                   MOV         R4,R12
    0000032C 2FB6                   MOV.L       R11,@-R15
    0000032E 2FA6                   MOV.L       R10,@-R15
    00000330 2F96                   MOV.L       R9,@-R15
    00000332 E900                   MOV         #0,R9
    00000334 2F86                   MOV.L       R8,@-R15
    00000336 6853                   MOV         R5,R8
    00000338 4F22                   STS.L       PR,@-R15
    0000033A A020                   BRA         L505
    0000033C 6E93                   MOV         R9,R14
    0000033E              L506:                             
    0000033E A016                   BRA         L507
    00000340 6D93                   MOV         R9,R13
    00000342              L508:                             
    00000342 65E3                   MOV         R14,R5
    00000344 64C3                   MOV         R12,R4
    00000346 B07F                   BSR         __$get__19List__tm__8_P5SceneFi_Z1Z
    00000348 7404                   ADD         #4,R4
    0000034A 6A03                   MOV         R0,R10
    0000034C 6BD3                   MOV         R13,R11
    0000034E 65D3                   MOV         R13,R5
    00000350 BFD8                   BSR         __$get__26List__tm__14_P10GameObjectFi_Z1Z
    00000352 6403                   MOV         R0,R4
    00000354 6302                   MOV.L       @R0,R3
    00000356 3380                   CMP/EQ      R8,R3
    00000358 8B08                   BF          L509
    0000035A 65E3                   MOV         R14,R5




SH SERIES C/C++ Compiler (Ver. 6.0C)                                                                 08-Nov-2021 00:35:43  PAGE   12


SCT OFFSET   CODE       C LABEL     INSTRUCTION OPERAND    COMMENT

    0000035C 64C3                   MOV         R12,R4
    0000035E B073                   BSR         __$get__19List__tm__8_P5SceneFi_Z1Z
    00000360 7404                   ADD         #4,R4
    00000362 6403                   MOV         R0,R4
    00000364 BFCE                   BSR         __$get__26List__tm__14_P10GameObjectFi_Z1Z
    00000366 65D3                   MOV         R13,R5
    00000368 A00D                   BRA         L510
    0000036A 0009                   NOP
    0000036C              L509:                             
    0000036C 7D01                   ADD         #1,R13
    0000036E              L507:                             
    0000036E 65E3                   MOV         R14,R5
    00000370 64C3                   MOV         R12,R4
    00000372 B069                   BSR         __$get__19List__tm__8_P5SceneFi_Z1Z
    00000374 7404                   ADD         #4,R4
    00000376 5202                   MOV.L       @(8,R0),R2
    00000378 3D23                   CMP/GE      R2,R13
    0000037A 8BE2                   BF          L508
    0000037C 7E01                   ADD         #1,R14
    0000037E              L505:                             
    0000037E 52C3                   MOV.L       @(12,R12),R2
    00000380 3E23                   CMP/GE      R2,R14
    00000382 8BDC                   BF          L506
    00000384 E000                   MOV         #0,R0
    00000386              L510:                             
    00000386 4F26                   LDS.L       @R15+,PR
    00000388 68F6                   MOV.L       @R15+,R8
    0000038A 69F6                   MOV.L       @R15+,R9
    0000038C 6AF6                   MOV.L       @R15+,R10
    0000038E 6BF6                   MOV.L       @R15+,R11
    00000390 6CF6                   MOV.L       @R15+,R12
    00000392 6DF6                   MOV.L       @R15+,R13
    00000394 000B                   RTS
    00000396 6EF6                   MOV.L       @R15+,R14
    00000398              __$UpdateScene__12SceneManagerFv:
                                                           ; function: SceneManager::UpdateScene()
                                                           ; frame size=12
    00000398 2FE6                   MOV.L       R14,@-R15
    0000039A 2FD6                   MOV.L       R13,@-R15
    0000039C 4F22                   STS.L       PR,@-R15
    0000039E 6D43                   MOV         R4,R13
    000003A0 A007                   BRA         L511
    000003A2 EE00                   MOV         #0,R14
    000003A4              L512:                             
    000003A4 65E3                   MOV         R14,R5
    000003A6 64D3                   MOV         R13,R4
    000003A8 B04E                   BSR         __$get__19List__tm__8_P5SceneFi_Z1Z
    000003AA 7404                   ADD         #4,R4
    000003AC BF79                   BSR         __$Update__5SceneFv
    000003AE 6403                   MOV         R0,R4
    000003B0 7E01                   ADD         #1,R14
    000003B2              L511:                             
    000003B2 52D3                   MOV.L       @(12,R13),R2
    000003B4 3E23                   CMP/GE      R2,R14
    000003B6 8BF5                   BF          L512
    000003B8 4F26                   LDS.L       @R15+,PR
    000003BA 6DF6                   MOV.L       @R15+,R13




SH SERIES C/C++ Compiler (Ver. 6.0C)                                                                 08-Nov-2021 00:35:43  PAGE   13


SCT OFFSET   CODE       C LABEL     INSTRUCTION OPERAND    COMMENT

    000003BC 000B                   RTS
    000003BE 6EF6                   MOV.L       @R15+,R14
    000003C0              __$StartScene__12SceneManagerFv: ; function: SceneManager::StartScene()
                                                           ; frame size=12
    000003C0 2FE6                   MOV.L       R14,@-R15
    000003C2 2FD6                   MOV.L       R13,@-R15
    000003C4 4F22                   STS.L       PR,@-R15
    000003C6 6D43                   MOV         R4,R13
    000003C8 A007                   BRA         L514
    000003CA EE00                   MOV         #0,R14
    000003CC              L515:                             
    000003CC 65E3                   MOV         R14,R5
    000003CE 64D3                   MOV         R13,R4
    000003D0 B03A                   BSR         __$get__19List__tm__8_P5SceneFi_Z1Z
    000003D2 7404                   ADD         #4,R4
    000003D4 BF78                   BSR         __$Start__5SceneFv
    000003D6 6403                   MOV         R0,R4
    000003D8 7E01                   ADD         #1,R14
    000003DA              L514:                             
    000003DA 52D3                   MOV.L       @(12,R13),R2
    000003DC 3E23                   CMP/GE      R2,R14
    000003DE 8BF5                   BF          L515
    000003E0 4F26                   LDS.L       @R15+,PR
    000003E2 6DF6                   MOV.L       @R15+,R13
    000003E4 000B                   RTS
    000003E6 6EF6                   MOV.L       @R15+,R14
    000003E8              __$GetSceneInBuild__12SceneManagerFi:
                                                           ; function: SceneManager::GetSceneInBuild(int)
                                                           ; frame size=16
    000003E8 2FE6                   MOV.L       R14,@-R15
    000003EA EE00                   MOV         #0,R14
    000003EC 4F22                   STS.L       PR,@-R15
    000003EE 63E3                   MOV         R14,R3
    000003F0 7FF8                   ADD         #-8,R15
    000003F2 2338                   TST         R3,R3
    000003F4 1F41                   MOV.L       R4,@(4,R15)
    000003F6 8F06                   BF/S        L518
    000003F8 2FE2                   MOV.L       R14,@R15
    000003FA D31B                   MOV.L       L532,R3    ; ___nw__FUl
    000003FC 430B                   JSR         @R3
    000003FE E430                   MOV         #48,R4
    00000400 2008                   TST         R0,R0
    00000402 8D0E                   BT/S        L519
    00000404 2F02                   MOV.L       R0,@R15
    00000406              L518:                             
    00000406 E300                   MOV         #0,R3
    00000408 62F2                   MOV.L       @R15,R2
    0000040A 1232                   MOV.L       R3,@(8,R2)
    0000040C 62F2                   MOV.L       @R15,R2
    0000040E 22E2                   MOV.L       R14,@R2
    00000410 63F2                   MOV.L       @R15,R3
    00000412 E200                   MOV         #0,R2
    00000414 13E1                   MOV.L       R14,@(4,R3)
    00000416 63F2                   MOV.L       @R15,R3
    00000418 132B                   MOV.L       R2,@(44,R3)
    0000041A 63F2                   MOV.L       @R15,R3
    0000041C 13E9                   MOV.L       R14,@(36,R3)




SH SERIES C/C++ Compiler (Ver. 6.0C)                                                                 08-Nov-2021 00:35:43  PAGE   14


SCT OFFSET   CODE       C LABEL     INSTRUCTION OPERAND    COMMENT

    0000041E 63F2                   MOV.L       @R15,R3
    00000420 13EA                   MOV.L       R14,@(40,R3)
    00000422              L519:                             
    00000422 64F2                   MOV.L       @R15,R4
    00000424 53F1                   MOV.L       @(4,R15),R3
    00000426 6043                   MOV         R4,R0
    00000428 1433                   MOV.L       R3,@(12,R4)
    0000042A 7F08                   ADD         #8,R15
    0000042C 4F26                   LDS.L       @R15+,PR
    0000042E 000B                   RTS
    00000430 6EF6                   MOV.L       @R15+,R14
    00000432              __$get_node__19List__tm__8_P5SceneFi_P15Node__tm__4_Z1Z:
                                                           ; function: Node<T1> *List<T1>::get_node(int) [with T1=Scene *]
                                                           ; frame size=0
    00000432 E700                   MOV         #0,R7
    00000434 A002                   BRA         L521
    00000436 6642                   MOV.L       @R4,R6
    00000438              L522:                             
    00000438 5661                   MOV.L       @(4,R6),R6
    0000043A 7701                   ADD         #1,R7
    0000043C              L521:                             
    0000043C 2668                   TST         R6,R6
    0000043E 8901                   BT          L523
    00000440 3750                   CMP/EQ      R5,R7
    00000442 8BF9                   BF          L522
    00000444              L523:                             
    00000444 000B                   RTS
    00000446 6063                   MOV         R6,R0
    00000448              __$get__19List__tm__8_P5SceneFi_Z1Z:
                                                           ; function: T1 List<T1>::get(int) [with T1=Scene *]
                                                           ; frame size=4
    00000448 4F22                   STS.L       PR,@-R15
    0000044A E3FF                   MOV         #-1,R3
    0000044C 3533                   CMP/GE      R3,R5
    0000044E 8B04                   BF          L425
    00000450 BFEF                   BSR         __$get_node__19List__tm__8_P5SceneFi_P15Node__tm__4_Z1Z
    00000452 0009                   NOP
    00000454 6403                   MOV         R0,R4
    00000456 2448                   TST         R4,R4
    00000458 8B02                   BF          L527
    0000045A              L425:
    0000045A 4F26                   LDS.L       @R15+,PR
    0000045C 000B                   RTS
    0000045E E000                   MOV         #0,R0
    00000460              L527:                             
    00000460 6042                   MOV.L       @R4,R0
    00000462              L526:                             
    00000462 4F26                   LDS.L       @R15+,PR
    00000464 000B                   RTS
    00000466 0009                   NOP
    00000468              L532:                             
    00000468 <00000000>             .DATA.L     ___nw__FUl
B_B 00000000              _BR_Size:                        ; static: BR_Size
    00000000 00000004               .RES.L      1







SH SERIES C/C++ Compiler (Ver. 6.0C)                                                                 08-Nov-2021 00:35:43  PAGE    1


******** STATISTICS INFORMATION ********


********** ERROR INFORMATION ***********

NUMBER OF ERRORS:           0
NUMBER OF WARNINGS:        49




******* SOURCE LINE INFORMATION ********

COMPILED SOURCE LINE:      107



******* SECTION SIZE INFORMATION *******

PROGRAM  SECTION (P):                               0000046C Byte(s)
PROGRAM  SECTION (P_BR_Size):                       00000000 Byte(s)
PROGRAM  SECTION (P_TOP):                           0000000C Byte(s)
CONSTANT SECTION (C):                               00000000 Byte(s)
CONSTANT SECTION (C_BR_Size):                       00000000 Byte(s)
CONSTANT SECTION (C_TOP):                           00000000 Byte(s)
DATA     SECTION (D):                               00000000 Byte(s)
DATA     SECTION (D_BR_Size):                       00000000 Byte(s)
DATA     SECTION (D_TOP):                           00000000 Byte(s)
BSS      SECTION (B):                               00000000 Byte(s)
BSS      SECTION (B_BR_Size):                       00000004 Byte(s)
BSS      SECTION (B_TOP):                           00000000 Byte(s)

 TOTAL PROGRAM SIZE: 0000047C Byte(s)



********** LABEL INFORMATION ***********

NUMBER OF EXTERNAL REFERENCE SYMBOLS:            8
NUMBER OF EXTERNAL DEFINITION SYMBOLS:           8
NUMBER OF INTERNAL/EXTERNAL SYMBOLS:            80






















*** COMMAND PARAMETER ***


  -subcommand=C:\Users\leofa\AppData\Local\Temp\hmkD1AB.tmp 

